ARM GAS  /tmp/ccYzlKMz.s 			page 1


   1              		.cpu cortex-m3
   2              		.arch armv7-m
   3              		.fpu softvfp
   4              		.eabi_attribute 20, 1
   5              		.eabi_attribute 21, 1
   6              		.eabi_attribute 23, 3
   7              		.eabi_attribute 24, 1
   8              		.eabi_attribute 25, 1
   9              		.eabi_attribute 26, 1
  10              		.eabi_attribute 30, 1
  11              		.eabi_attribute 34, 1
  12              		.eabi_attribute 18, 4
  13              		.file	"adc.c"
  14              		.text
  15              	.Ltext0:
  16              		.cfi_sections	.debug_frame
  17              		.file 1 "Src/adc.c"
  18              		.section	.text.MX_ADC1_Init,"ax",%progbits
  19              		.align	1
  20              		.global	MX_ADC1_Init
  21              		.syntax unified
  22              		.thumb
  23              		.thumb_func
  25              	MX_ADC1_Init:
  26              	.LFB65:
   1:Src/adc.c     **** /* USER CODE BEGIN Header */
   2:Src/adc.c     **** /**
   3:Src/adc.c     ****   ******************************************************************************
   4:Src/adc.c     ****   * @file    adc.c
   5:Src/adc.c     ****   * @brief   This file provides code for the configuration
   6:Src/adc.c     ****   *          of the ADC instances.
   7:Src/adc.c     ****   ******************************************************************************
   8:Src/adc.c     ****   * @attention
   9:Src/adc.c     ****   *
  10:Src/adc.c     ****   * Copyright (c) 2024 STMicroelectronics.
  11:Src/adc.c     ****   * All rights reserved.
  12:Src/adc.c     ****   *
  13:Src/adc.c     ****   * This software is licensed under terms that can be found in the LICENSE file
  14:Src/adc.c     ****   * in the root directory of this software component.
  15:Src/adc.c     ****   * If no LICENSE file comes with this software, it is provided AS-IS.
  16:Src/adc.c     ****   *
  17:Src/adc.c     ****   ******************************************************************************
  18:Src/adc.c     ****   */
  19:Src/adc.c     **** /* USER CODE END Header */
  20:Src/adc.c     **** /* Includes ------------------------------------------------------------------*/
  21:Src/adc.c     **** #include "adc.h"
  22:Src/adc.c     **** 
  23:Src/adc.c     **** /* USER CODE BEGIN 0 */
  24:Src/adc.c     **** 
  25:Src/adc.c     **** /* USER CODE END 0 */
  26:Src/adc.c     **** 
  27:Src/adc.c     **** ADC_HandleTypeDef hadc1;
  28:Src/adc.c     **** DMA_HandleTypeDef hdma_adc1;
  29:Src/adc.c     **** 
  30:Src/adc.c     **** /* ADC1 init function */
  31:Src/adc.c     **** void MX_ADC1_Init(void)
  32:Src/adc.c     **** {
ARM GAS  /tmp/ccYzlKMz.s 			page 2


  27              		.loc 1 32 1 view -0
  28              		.cfi_startproc
  29              		@ args = 0, pretend = 0, frame = 16
  30              		@ frame_needed = 0, uses_anonymous_args = 0
  31 0000 00B5     		push	{lr}
  32              		.cfi_def_cfa_offset 4
  33              		.cfi_offset 14, -4
  34 0002 85B0     		sub	sp, sp, #20
  35              		.cfi_def_cfa_offset 24
  33:Src/adc.c     **** 
  34:Src/adc.c     ****   /* USER CODE BEGIN ADC1_Init 0 */
  35:Src/adc.c     **** 
  36:Src/adc.c     ****   /* USER CODE END ADC1_Init 0 */
  37:Src/adc.c     **** 
  38:Src/adc.c     ****   ADC_ChannelConfTypeDef sConfig = {0};
  36              		.loc 1 38 3 view .LVU1
  37              		.loc 1 38 26 is_stmt 0 view .LVU2
  38 0004 0023     		movs	r3, #0
  39 0006 0193     		str	r3, [sp, #4]
  40 0008 0293     		str	r3, [sp, #8]
  41 000a 0393     		str	r3, [sp, #12]
  39:Src/adc.c     **** 
  40:Src/adc.c     ****   /* USER CODE BEGIN ADC1_Init 1 */
  41:Src/adc.c     **** 
  42:Src/adc.c     ****   /* USER CODE END ADC1_Init 1 */
  43:Src/adc.c     **** 
  44:Src/adc.c     ****   /** Common config
  45:Src/adc.c     ****   */
  46:Src/adc.c     ****   hadc1.Instance = ADC1;
  42              		.loc 1 46 3 is_stmt 1 view .LVU3
  43              		.loc 1 46 18 is_stmt 0 view .LVU4
  44 000c 1848     		ldr	r0, .L9
  45 000e 194A     		ldr	r2, .L9+4
  46 0010 0260     		str	r2, [r0]
  47:Src/adc.c     ****   hadc1.Init.ScanConvMode = ADC_SCAN_ENABLE;
  47              		.loc 1 47 3 is_stmt 1 view .LVU5
  48              		.loc 1 47 27 is_stmt 0 view .LVU6
  49 0012 4FF48072 		mov	r2, #256
  50 0016 8260     		str	r2, [r0, #8]
  48:Src/adc.c     ****   hadc1.Init.ContinuousConvMode = ENABLE;
  51              		.loc 1 48 3 is_stmt 1 view .LVU7
  52              		.loc 1 48 33 is_stmt 0 view .LVU8
  53 0018 0122     		movs	r2, #1
  54 001a 0273     		strb	r2, [r0, #12]
  49:Src/adc.c     ****   hadc1.Init.DiscontinuousConvMode = DISABLE;
  55              		.loc 1 49 3 is_stmt 1 view .LVU9
  56              		.loc 1 49 36 is_stmt 0 view .LVU10
  57 001c 0375     		strb	r3, [r0, #20]
  50:Src/adc.c     ****   hadc1.Init.ExternalTrigConv = ADC_SOFTWARE_START;
  58              		.loc 1 50 3 is_stmt 1 view .LVU11
  59              		.loc 1 50 31 is_stmt 0 view .LVU12
  60 001e 4FF46022 		mov	r2, #917504
  61 0022 C261     		str	r2, [r0, #28]
  51:Src/adc.c     ****   hadc1.Init.DataAlign = ADC_DATAALIGN_RIGHT;
  62              		.loc 1 51 3 is_stmt 1 view .LVU13
  63              		.loc 1 51 24 is_stmt 0 view .LVU14
  64 0024 4360     		str	r3, [r0, #4]
ARM GAS  /tmp/ccYzlKMz.s 			page 3


  52:Src/adc.c     ****   hadc1.Init.NbrOfConversion = 2;
  65              		.loc 1 52 3 is_stmt 1 view .LVU15
  66              		.loc 1 52 30 is_stmt 0 view .LVU16
  67 0026 0223     		movs	r3, #2
  68 0028 0361     		str	r3, [r0, #16]
  53:Src/adc.c     ****   if (HAL_ADC_Init(&hadc1) != HAL_OK)
  69              		.loc 1 53 3 is_stmt 1 view .LVU17
  70              		.loc 1 53 7 is_stmt 0 view .LVU18
  71 002a FFF7FEFF 		bl	HAL_ADC_Init
  72              	.LVL0:
  73              		.loc 1 53 6 discriminator 1 view .LVU19
  74 002e A8B9     		cbnz	r0, .L6
  75              	.L2:
  54:Src/adc.c     ****   {
  55:Src/adc.c     ****     Error_Handler();
  56:Src/adc.c     ****   }
  57:Src/adc.c     **** 
  58:Src/adc.c     ****   /** Configure Regular Channel
  59:Src/adc.c     ****   */
  60:Src/adc.c     ****   sConfig.Channel = ADC_CHANNEL_5;
  76              		.loc 1 60 3 is_stmt 1 view .LVU20
  77              		.loc 1 60 19 is_stmt 0 view .LVU21
  78 0030 0523     		movs	r3, #5
  79 0032 0193     		str	r3, [sp, #4]
  61:Src/adc.c     ****   sConfig.Rank = ADC_REGULAR_RANK_1;
  80              		.loc 1 61 3 is_stmt 1 view .LVU22
  81              		.loc 1 61 16 is_stmt 0 view .LVU23
  82 0034 0122     		movs	r2, #1
  83 0036 0292     		str	r2, [sp, #8]
  62:Src/adc.c     ****   sConfig.SamplingTime = ADC_SAMPLETIME_55CYCLES_5;
  84              		.loc 1 62 3 is_stmt 1 view .LVU24
  85              		.loc 1 62 24 is_stmt 0 view .LVU25
  86 0038 0393     		str	r3, [sp, #12]
  63:Src/adc.c     ****   if (HAL_ADC_ConfigChannel(&hadc1, &sConfig) != HAL_OK)
  87              		.loc 1 63 3 is_stmt 1 view .LVU26
  88              		.loc 1 63 7 is_stmt 0 view .LVU27
  89 003a 01A9     		add	r1, sp, #4
  90 003c 0C48     		ldr	r0, .L9
  91 003e FFF7FEFF 		bl	HAL_ADC_ConfigChannel
  92              	.LVL1:
  93              		.loc 1 63 6 discriminator 1 view .LVU28
  94 0042 70B9     		cbnz	r0, .L7
  95              	.L3:
  64:Src/adc.c     ****   {
  65:Src/adc.c     ****     Error_Handler();
  66:Src/adc.c     ****   }
  67:Src/adc.c     **** 
  68:Src/adc.c     ****   /** Configure Regular Channel
  69:Src/adc.c     ****   */
  70:Src/adc.c     ****   sConfig.Channel = ADC_CHANNEL_8;
  96              		.loc 1 70 3 is_stmt 1 view .LVU29
  97              		.loc 1 70 19 is_stmt 0 view .LVU30
  98 0044 0823     		movs	r3, #8
  99 0046 0193     		str	r3, [sp, #4]
  71:Src/adc.c     ****   sConfig.Rank = ADC_REGULAR_RANK_2;
 100              		.loc 1 71 3 is_stmt 1 view .LVU31
 101              		.loc 1 71 16 is_stmt 0 view .LVU32
ARM GAS  /tmp/ccYzlKMz.s 			page 4


 102 0048 0223     		movs	r3, #2
 103 004a 0293     		str	r3, [sp, #8]
  72:Src/adc.c     ****   if (HAL_ADC_ConfigChannel(&hadc1, &sConfig) != HAL_OK)
 104              		.loc 1 72 3 is_stmt 1 view .LVU33
 105              		.loc 1 72 7 is_stmt 0 view .LVU34
 106 004c 01A9     		add	r1, sp, #4
 107 004e 0848     		ldr	r0, .L9
 108 0050 FFF7FEFF 		bl	HAL_ADC_ConfigChannel
 109              	.LVL2:
 110              		.loc 1 72 6 discriminator 1 view .LVU35
 111 0054 40B9     		cbnz	r0, .L8
 112              	.L1:
  73:Src/adc.c     ****   {
  74:Src/adc.c     ****     Error_Handler();
  75:Src/adc.c     ****   }
  76:Src/adc.c     ****   /* USER CODE BEGIN ADC1_Init 2 */
  77:Src/adc.c     **** 
  78:Src/adc.c     ****   /* USER CODE END ADC1_Init 2 */
  79:Src/adc.c     **** 
  80:Src/adc.c     **** }
 113              		.loc 1 80 1 view .LVU36
 114 0056 05B0     		add	sp, sp, #20
 115              		.cfi_remember_state
 116              		.cfi_def_cfa_offset 4
 117              		@ sp needed
 118 0058 5DF804FB 		ldr	pc, [sp], #4
 119              	.L6:
 120              		.cfi_restore_state
  55:Src/adc.c     ****   }
 121              		.loc 1 55 5 is_stmt 1 view .LVU37
 122 005c FFF7FEFF 		bl	Error_Handler
 123              	.LVL3:
 124 0060 E6E7     		b	.L2
 125              	.L7:
  65:Src/adc.c     ****   }
 126              		.loc 1 65 5 view .LVU38
 127 0062 FFF7FEFF 		bl	Error_Handler
 128              	.LVL4:
 129 0066 EDE7     		b	.L3
 130              	.L8:
  74:Src/adc.c     ****   }
 131              		.loc 1 74 5 view .LVU39
 132 0068 FFF7FEFF 		bl	Error_Handler
 133              	.LVL5:
 134              		.loc 1 80 1 is_stmt 0 view .LVU40
 135 006c F3E7     		b	.L1
 136              	.L10:
 137 006e 00BF     		.align	2
 138              	.L9:
 139 0070 00000000 		.word	hadc1
 140 0074 00240140 		.word	1073816576
 141              		.cfi_endproc
 142              	.LFE65:
 144              		.section	.text.HAL_ADC_MspInit,"ax",%progbits
 145              		.align	1
 146              		.global	HAL_ADC_MspInit
 147              		.syntax unified
ARM GAS  /tmp/ccYzlKMz.s 			page 5


 148              		.thumb
 149              		.thumb_func
 151              	HAL_ADC_MspInit:
 152              	.LVL6:
 153              	.LFB66:
  81:Src/adc.c     **** 
  82:Src/adc.c     **** void HAL_ADC_MspInit(ADC_HandleTypeDef* adcHandle)
  83:Src/adc.c     **** {
 154              		.loc 1 83 1 is_stmt 1 view -0
 155              		.cfi_startproc
 156              		@ args = 0, pretend = 0, frame = 32
 157              		@ frame_needed = 0, uses_anonymous_args = 0
 158              		.loc 1 83 1 is_stmt 0 view .LVU42
 159 0000 70B5     		push	{r4, r5, r6, lr}
 160              		.cfi_def_cfa_offset 16
 161              		.cfi_offset 4, -16
 162              		.cfi_offset 5, -12
 163              		.cfi_offset 6, -8
 164              		.cfi_offset 14, -4
 165 0002 88B0     		sub	sp, sp, #32
 166              		.cfi_def_cfa_offset 48
  84:Src/adc.c     **** 
  85:Src/adc.c     ****   GPIO_InitTypeDef GPIO_InitStruct = {0};
 167              		.loc 1 85 3 is_stmt 1 view .LVU43
 168              		.loc 1 85 20 is_stmt 0 view .LVU44
 169 0004 0023     		movs	r3, #0
 170 0006 0493     		str	r3, [sp, #16]
 171 0008 0593     		str	r3, [sp, #20]
 172 000a 0693     		str	r3, [sp, #24]
 173 000c 0793     		str	r3, [sp, #28]
  86:Src/adc.c     ****   if(adcHandle->Instance==ADC1)
 174              		.loc 1 86 3 is_stmt 1 view .LVU45
 175              		.loc 1 86 15 is_stmt 0 view .LVU46
 176 000e 0268     		ldr	r2, [r0]
 177              		.loc 1 86 5 view .LVU47
 178 0010 254B     		ldr	r3, .L17
 179 0012 9A42     		cmp	r2, r3
 180 0014 01D0     		beq	.L15
 181              	.LVL7:
 182              	.L11:
  87:Src/adc.c     ****   {
  88:Src/adc.c     ****   /* USER CODE BEGIN ADC1_MspInit 0 */
  89:Src/adc.c     **** 
  90:Src/adc.c     ****   /* USER CODE END ADC1_MspInit 0 */
  91:Src/adc.c     ****     /* ADC1 clock enable */
  92:Src/adc.c     ****     __HAL_RCC_ADC1_CLK_ENABLE();
  93:Src/adc.c     **** 
  94:Src/adc.c     ****     __HAL_RCC_GPIOA_CLK_ENABLE();
  95:Src/adc.c     ****     __HAL_RCC_GPIOB_CLK_ENABLE();
  96:Src/adc.c     ****     /**ADC1 GPIO Configuration
  97:Src/adc.c     ****     PA5     ------> ADC1_IN5
  98:Src/adc.c     ****     PB0     ------> ADC1_IN8
  99:Src/adc.c     ****     */
 100:Src/adc.c     ****     GPIO_InitStruct.Pin = Speed_Pin;
 101:Src/adc.c     ****     GPIO_InitStruct.Mode = GPIO_MODE_ANALOG;
 102:Src/adc.c     ****     HAL_GPIO_Init(Speed_GPIO_Port, &GPIO_InitStruct);
 103:Src/adc.c     **** 
ARM GAS  /tmp/ccYzlKMz.s 			page 6


 104:Src/adc.c     ****     GPIO_InitStruct.Pin = Current_Pin;
 105:Src/adc.c     ****     GPIO_InitStruct.Mode = GPIO_MODE_ANALOG;
 106:Src/adc.c     ****     HAL_GPIO_Init(Current_GPIO_Port, &GPIO_InitStruct);
 107:Src/adc.c     **** 
 108:Src/adc.c     ****     /* ADC1 DMA Init */
 109:Src/adc.c     ****     /* ADC1 Init */
 110:Src/adc.c     ****     hdma_adc1.Instance = DMA1_Channel1;
 111:Src/adc.c     ****     hdma_adc1.Init.Direction = DMA_PERIPH_TO_MEMORY;
 112:Src/adc.c     ****     hdma_adc1.Init.PeriphInc = DMA_PINC_DISABLE;
 113:Src/adc.c     ****     hdma_adc1.Init.MemInc = DMA_MINC_ENABLE;
 114:Src/adc.c     ****     hdma_adc1.Init.PeriphDataAlignment = DMA_PDATAALIGN_WORD;
 115:Src/adc.c     ****     hdma_adc1.Init.MemDataAlignment = DMA_MDATAALIGN_WORD;
 116:Src/adc.c     ****     hdma_adc1.Init.Mode = DMA_CIRCULAR;
 117:Src/adc.c     ****     hdma_adc1.Init.Priority = DMA_PRIORITY_LOW;
 118:Src/adc.c     ****     if (HAL_DMA_Init(&hdma_adc1) != HAL_OK)
 119:Src/adc.c     ****     {
 120:Src/adc.c     ****       Error_Handler();
 121:Src/adc.c     ****     }
 122:Src/adc.c     **** 
 123:Src/adc.c     ****     __HAL_LINKDMA(adcHandle,DMA_Handle,hdma_adc1);
 124:Src/adc.c     **** 
 125:Src/adc.c     ****   /* USER CODE BEGIN ADC1_MspInit 1 */
 126:Src/adc.c     **** 
 127:Src/adc.c     ****   /* USER CODE END ADC1_MspInit 1 */
 128:Src/adc.c     ****   }
 129:Src/adc.c     **** }
 183              		.loc 1 129 1 view .LVU48
 184 0016 08B0     		add	sp, sp, #32
 185              		.cfi_remember_state
 186              		.cfi_def_cfa_offset 16
 187              		@ sp needed
 188 0018 70BD     		pop	{r4, r5, r6, pc}
 189              	.LVL8:
 190              	.L15:
 191              		.cfi_restore_state
 192              		.loc 1 129 1 view .LVU49
 193 001a 0446     		mov	r4, r0
  92:Src/adc.c     **** 
 194              		.loc 1 92 5 is_stmt 1 view .LVU50
 195              	.LBB2:
  92:Src/adc.c     **** 
 196              		.loc 1 92 5 view .LVU51
  92:Src/adc.c     **** 
 197              		.loc 1 92 5 view .LVU52
 198 001c 03F56C43 		add	r3, r3, #60416
 199 0020 9A69     		ldr	r2, [r3, #24]
 200 0022 42F40072 		orr	r2, r2, #512
 201 0026 9A61     		str	r2, [r3, #24]
  92:Src/adc.c     **** 
 202              		.loc 1 92 5 view .LVU53
 203 0028 9A69     		ldr	r2, [r3, #24]
 204 002a 02F40072 		and	r2, r2, #512
 205 002e 0192     		str	r2, [sp, #4]
  92:Src/adc.c     **** 
 206              		.loc 1 92 5 view .LVU54
 207 0030 019A     		ldr	r2, [sp, #4]
 208              	.LBE2:
ARM GAS  /tmp/ccYzlKMz.s 			page 7


  92:Src/adc.c     **** 
 209              		.loc 1 92 5 view .LVU55
  94:Src/adc.c     ****     __HAL_RCC_GPIOB_CLK_ENABLE();
 210              		.loc 1 94 5 view .LVU56
 211              	.LBB3:
  94:Src/adc.c     ****     __HAL_RCC_GPIOB_CLK_ENABLE();
 212              		.loc 1 94 5 view .LVU57
  94:Src/adc.c     ****     __HAL_RCC_GPIOB_CLK_ENABLE();
 213              		.loc 1 94 5 view .LVU58
 214 0032 9A69     		ldr	r2, [r3, #24]
 215 0034 42F00402 		orr	r2, r2, #4
 216 0038 9A61     		str	r2, [r3, #24]
  94:Src/adc.c     ****     __HAL_RCC_GPIOB_CLK_ENABLE();
 217              		.loc 1 94 5 view .LVU59
 218 003a 9A69     		ldr	r2, [r3, #24]
 219 003c 02F00402 		and	r2, r2, #4
 220 0040 0292     		str	r2, [sp, #8]
  94:Src/adc.c     ****     __HAL_RCC_GPIOB_CLK_ENABLE();
 221              		.loc 1 94 5 view .LVU60
 222 0042 029A     		ldr	r2, [sp, #8]
 223              	.LBE3:
  94:Src/adc.c     ****     __HAL_RCC_GPIOB_CLK_ENABLE();
 224              		.loc 1 94 5 view .LVU61
  95:Src/adc.c     ****     /**ADC1 GPIO Configuration
 225              		.loc 1 95 5 view .LVU62
 226              	.LBB4:
  95:Src/adc.c     ****     /**ADC1 GPIO Configuration
 227              		.loc 1 95 5 view .LVU63
  95:Src/adc.c     ****     /**ADC1 GPIO Configuration
 228              		.loc 1 95 5 view .LVU64
 229 0044 9A69     		ldr	r2, [r3, #24]
 230 0046 42F00802 		orr	r2, r2, #8
 231 004a 9A61     		str	r2, [r3, #24]
  95:Src/adc.c     ****     /**ADC1 GPIO Configuration
 232              		.loc 1 95 5 view .LVU65
 233 004c 9B69     		ldr	r3, [r3, #24]
 234 004e 03F00803 		and	r3, r3, #8
 235 0052 0393     		str	r3, [sp, #12]
  95:Src/adc.c     ****     /**ADC1 GPIO Configuration
 236              		.loc 1 95 5 view .LVU66
 237 0054 039B     		ldr	r3, [sp, #12]
 238              	.LBE4:
  95:Src/adc.c     ****     /**ADC1 GPIO Configuration
 239              		.loc 1 95 5 view .LVU67
 100:Src/adc.c     ****     GPIO_InitStruct.Mode = GPIO_MODE_ANALOG;
 240              		.loc 1 100 5 view .LVU68
 100:Src/adc.c     ****     GPIO_InitStruct.Mode = GPIO_MODE_ANALOG;
 241              		.loc 1 100 25 is_stmt 0 view .LVU69
 242 0056 2025     		movs	r5, #32
 243 0058 0495     		str	r5, [sp, #16]
 101:Src/adc.c     ****     HAL_GPIO_Init(Speed_GPIO_Port, &GPIO_InitStruct);
 244              		.loc 1 101 5 is_stmt 1 view .LVU70
 101:Src/adc.c     ****     HAL_GPIO_Init(Speed_GPIO_Port, &GPIO_InitStruct);
 245              		.loc 1 101 26 is_stmt 0 view .LVU71
 246 005a 0326     		movs	r6, #3
 247 005c 0596     		str	r6, [sp, #20]
 102:Src/adc.c     **** 
ARM GAS  /tmp/ccYzlKMz.s 			page 8


 248              		.loc 1 102 5 is_stmt 1 view .LVU72
 249 005e 04A9     		add	r1, sp, #16
 250 0060 1248     		ldr	r0, .L17+4
 251              	.LVL9:
 102:Src/adc.c     **** 
 252              		.loc 1 102 5 is_stmt 0 view .LVU73
 253 0062 FFF7FEFF 		bl	HAL_GPIO_Init
 254              	.LVL10:
 104:Src/adc.c     ****     GPIO_InitStruct.Mode = GPIO_MODE_ANALOG;
 255              		.loc 1 104 5 is_stmt 1 view .LVU74
 104:Src/adc.c     ****     GPIO_InitStruct.Mode = GPIO_MODE_ANALOG;
 256              		.loc 1 104 25 is_stmt 0 view .LVU75
 257 0066 0123     		movs	r3, #1
 258 0068 0493     		str	r3, [sp, #16]
 105:Src/adc.c     ****     HAL_GPIO_Init(Current_GPIO_Port, &GPIO_InitStruct);
 259              		.loc 1 105 5 is_stmt 1 view .LVU76
 105:Src/adc.c     ****     HAL_GPIO_Init(Current_GPIO_Port, &GPIO_InitStruct);
 260              		.loc 1 105 26 is_stmt 0 view .LVU77
 261 006a 0596     		str	r6, [sp, #20]
 106:Src/adc.c     **** 
 262              		.loc 1 106 5 is_stmt 1 view .LVU78
 263 006c 04A9     		add	r1, sp, #16
 264 006e 1048     		ldr	r0, .L17+8
 265 0070 FFF7FEFF 		bl	HAL_GPIO_Init
 266              	.LVL11:
 110:Src/adc.c     ****     hdma_adc1.Init.Direction = DMA_PERIPH_TO_MEMORY;
 267              		.loc 1 110 5 view .LVU79
 110:Src/adc.c     ****     hdma_adc1.Init.Direction = DMA_PERIPH_TO_MEMORY;
 268              		.loc 1 110 24 is_stmt 0 view .LVU80
 269 0074 0F48     		ldr	r0, .L17+12
 270 0076 104B     		ldr	r3, .L17+16
 271 0078 0360     		str	r3, [r0]
 111:Src/adc.c     ****     hdma_adc1.Init.PeriphInc = DMA_PINC_DISABLE;
 272              		.loc 1 111 5 is_stmt 1 view .LVU81
 111:Src/adc.c     ****     hdma_adc1.Init.PeriphInc = DMA_PINC_DISABLE;
 273              		.loc 1 111 30 is_stmt 0 view .LVU82
 274 007a 0023     		movs	r3, #0
 275 007c 4360     		str	r3, [r0, #4]
 112:Src/adc.c     ****     hdma_adc1.Init.MemInc = DMA_MINC_ENABLE;
 276              		.loc 1 112 5 is_stmt 1 view .LVU83
 112:Src/adc.c     ****     hdma_adc1.Init.MemInc = DMA_MINC_ENABLE;
 277              		.loc 1 112 30 is_stmt 0 view .LVU84
 278 007e 8360     		str	r3, [r0, #8]
 113:Src/adc.c     ****     hdma_adc1.Init.PeriphDataAlignment = DMA_PDATAALIGN_WORD;
 279              		.loc 1 113 5 is_stmt 1 view .LVU85
 113:Src/adc.c     ****     hdma_adc1.Init.PeriphDataAlignment = DMA_PDATAALIGN_WORD;
 280              		.loc 1 113 27 is_stmt 0 view .LVU86
 281 0080 8022     		movs	r2, #128
 282 0082 C260     		str	r2, [r0, #12]
 114:Src/adc.c     ****     hdma_adc1.Init.MemDataAlignment = DMA_MDATAALIGN_WORD;
 283              		.loc 1 114 5 is_stmt 1 view .LVU87
 114:Src/adc.c     ****     hdma_adc1.Init.MemDataAlignment = DMA_MDATAALIGN_WORD;
 284              		.loc 1 114 40 is_stmt 0 view .LVU88
 285 0084 4FF40072 		mov	r2, #512
 286 0088 0261     		str	r2, [r0, #16]
 115:Src/adc.c     ****     hdma_adc1.Init.Mode = DMA_CIRCULAR;
 287              		.loc 1 115 5 is_stmt 1 view .LVU89
ARM GAS  /tmp/ccYzlKMz.s 			page 9


 115:Src/adc.c     ****     hdma_adc1.Init.Mode = DMA_CIRCULAR;
 288              		.loc 1 115 37 is_stmt 0 view .LVU90
 289 008a 4FF40062 		mov	r2, #2048
 290 008e 4261     		str	r2, [r0, #20]
 116:Src/adc.c     ****     hdma_adc1.Init.Priority = DMA_PRIORITY_LOW;
 291              		.loc 1 116 5 is_stmt 1 view .LVU91
 116:Src/adc.c     ****     hdma_adc1.Init.Priority = DMA_PRIORITY_LOW;
 292              		.loc 1 116 25 is_stmt 0 view .LVU92
 293 0090 8561     		str	r5, [r0, #24]
 117:Src/adc.c     ****     if (HAL_DMA_Init(&hdma_adc1) != HAL_OK)
 294              		.loc 1 117 5 is_stmt 1 view .LVU93
 117:Src/adc.c     ****     if (HAL_DMA_Init(&hdma_adc1) != HAL_OK)
 295              		.loc 1 117 29 is_stmt 0 view .LVU94
 296 0092 C361     		str	r3, [r0, #28]
 118:Src/adc.c     ****     {
 297              		.loc 1 118 5 is_stmt 1 view .LVU95
 118:Src/adc.c     ****     {
 298              		.loc 1 118 9 is_stmt 0 view .LVU96
 299 0094 FFF7FEFF 		bl	HAL_DMA_Init
 300              	.LVL12:
 118:Src/adc.c     ****     {
 301              		.loc 1 118 8 discriminator 1 view .LVU97
 302 0098 18B9     		cbnz	r0, .L16
 303              	.L13:
 123:Src/adc.c     **** 
 304              		.loc 1 123 5 is_stmt 1 view .LVU98
 123:Src/adc.c     **** 
 305              		.loc 1 123 5 view .LVU99
 306 009a 064B     		ldr	r3, .L17+12
 307 009c 2362     		str	r3, [r4, #32]
 123:Src/adc.c     **** 
 308              		.loc 1 123 5 view .LVU100
 309 009e 5C62     		str	r4, [r3, #36]
 123:Src/adc.c     **** 
 310              		.loc 1 123 5 discriminator 1 view .LVU101
 311              		.loc 1 129 1 is_stmt 0 view .LVU102
 312 00a0 B9E7     		b	.L11
 313              	.L16:
 120:Src/adc.c     ****     }
 314              		.loc 1 120 7 is_stmt 1 view .LVU103
 315 00a2 FFF7FEFF 		bl	Error_Handler
 316              	.LVL13:
 317 00a6 F8E7     		b	.L13
 318              	.L18:
 319              		.align	2
 320              	.L17:
 321 00a8 00240140 		.word	1073816576
 322 00ac 00080140 		.word	1073809408
 323 00b0 000C0140 		.word	1073810432
 324 00b4 00000000 		.word	hdma_adc1
 325 00b8 08000240 		.word	1073872904
 326              		.cfi_endproc
 327              	.LFE66:
 329              		.section	.text.HAL_ADC_MspDeInit,"ax",%progbits
 330              		.align	1
 331              		.global	HAL_ADC_MspDeInit
 332              		.syntax unified
ARM GAS  /tmp/ccYzlKMz.s 			page 10


 333              		.thumb
 334              		.thumb_func
 336              	HAL_ADC_MspDeInit:
 337              	.LVL14:
 338              	.LFB67:
 130:Src/adc.c     **** 
 131:Src/adc.c     **** void HAL_ADC_MspDeInit(ADC_HandleTypeDef* adcHandle)
 132:Src/adc.c     **** {
 339              		.loc 1 132 1 view -0
 340              		.cfi_startproc
 341              		@ args = 0, pretend = 0, frame = 0
 342              		@ frame_needed = 0, uses_anonymous_args = 0
 133:Src/adc.c     **** 
 134:Src/adc.c     ****   if(adcHandle->Instance==ADC1)
 343              		.loc 1 134 3 view .LVU105
 344              		.loc 1 134 15 is_stmt 0 view .LVU106
 345 0000 0268     		ldr	r2, [r0]
 346              		.loc 1 134 5 view .LVU107
 347 0002 0B4B     		ldr	r3, .L26
 348 0004 9A42     		cmp	r2, r3
 349 0006 00D0     		beq	.L25
 350 0008 7047     		bx	lr
 351              	.L25:
 132:Src/adc.c     **** 
 352              		.loc 1 132 1 view .LVU108
 353 000a 10B5     		push	{r4, lr}
 354              		.cfi_def_cfa_offset 8
 355              		.cfi_offset 4, -8
 356              		.cfi_offset 14, -4
 357 000c 0446     		mov	r4, r0
 135:Src/adc.c     ****   {
 136:Src/adc.c     ****   /* USER CODE BEGIN ADC1_MspDeInit 0 */
 137:Src/adc.c     **** 
 138:Src/adc.c     ****   /* USER CODE END ADC1_MspDeInit 0 */
 139:Src/adc.c     ****     /* Peripheral clock disable */
 140:Src/adc.c     ****     __HAL_RCC_ADC1_CLK_DISABLE();
 358              		.loc 1 140 5 is_stmt 1 view .LVU109
 359 000e 094A     		ldr	r2, .L26+4
 360 0010 9369     		ldr	r3, [r2, #24]
 361 0012 23F40073 		bic	r3, r3, #512
 362 0016 9361     		str	r3, [r2, #24]
 141:Src/adc.c     **** 
 142:Src/adc.c     ****     /**ADC1 GPIO Configuration
 143:Src/adc.c     ****     PA5     ------> ADC1_IN5
 144:Src/adc.c     ****     PB0     ------> ADC1_IN8
 145:Src/adc.c     ****     */
 146:Src/adc.c     ****     HAL_GPIO_DeInit(Speed_GPIO_Port, Speed_Pin);
 363              		.loc 1 146 5 view .LVU110
 364 0018 2021     		movs	r1, #32
 365 001a 0748     		ldr	r0, .L26+8
 366              	.LVL15:
 367              		.loc 1 146 5 is_stmt 0 view .LVU111
 368 001c FFF7FEFF 		bl	HAL_GPIO_DeInit
 369              	.LVL16:
 147:Src/adc.c     **** 
 148:Src/adc.c     ****     HAL_GPIO_DeInit(Current_GPIO_Port, Current_Pin);
 370              		.loc 1 148 5 is_stmt 1 view .LVU112
ARM GAS  /tmp/ccYzlKMz.s 			page 11


 371 0020 0121     		movs	r1, #1
 372 0022 0648     		ldr	r0, .L26+12
 373 0024 FFF7FEFF 		bl	HAL_GPIO_DeInit
 374              	.LVL17:
 149:Src/adc.c     **** 
 150:Src/adc.c     ****     /* ADC1 DMA DeInit */
 151:Src/adc.c     ****     HAL_DMA_DeInit(adcHandle->DMA_Handle);
 375              		.loc 1 151 5 view .LVU113
 376 0028 206A     		ldr	r0, [r4, #32]
 377 002a FFF7FEFF 		bl	HAL_DMA_DeInit
 378              	.LVL18:
 152:Src/adc.c     ****   /* USER CODE BEGIN ADC1_MspDeInit 1 */
 153:Src/adc.c     **** 
 154:Src/adc.c     ****   /* USER CODE END ADC1_MspDeInit 1 */
 155:Src/adc.c     ****   }
 156:Src/adc.c     **** }
 379              		.loc 1 156 1 is_stmt 0 view .LVU114
 380 002e 10BD     		pop	{r4, pc}
 381              	.LVL19:
 382              	.L27:
 383              		.loc 1 156 1 view .LVU115
 384              		.align	2
 385              	.L26:
 386 0030 00240140 		.word	1073816576
 387 0034 00100240 		.word	1073876992
 388 0038 00080140 		.word	1073809408
 389 003c 000C0140 		.word	1073810432
 390              		.cfi_endproc
 391              	.LFE67:
 393              		.global	hdma_adc1
 394              		.section	.bss.hdma_adc1,"aw",%nobits
 395              		.align	2
 398              	hdma_adc1:
 399 0000 00000000 		.space	68
 399      00000000 
 399      00000000 
 399      00000000 
 399      00000000 
 400              		.global	hadc1
 401              		.section	.bss.hadc1,"aw",%nobits
 402              		.align	2
 405              	hadc1:
 406 0000 00000000 		.space	48
 406      00000000 
 406      00000000 
 406      00000000 
 406      00000000 
 407              		.text
 408              	.Letext0:
 409              		.file 2 "/usr/lib/gcc/arm-none-eabi/13.3.1/include/stdint.h"
 410              		.file 3 "Drivers/CMSIS/Device/ST/STM32F1xx/Include/stm32f103xb.h"
 411              		.file 4 "Drivers/CMSIS/Device/ST/STM32F1xx/Include/stm32f1xx.h"
 412              		.file 5 "Drivers/STM32F1xx_HAL_Driver/Inc/stm32f1xx_hal_def.h"
 413              		.file 6 "Drivers/STM32F1xx_HAL_Driver/Inc/stm32f1xx_hal_gpio.h"
 414              		.file 7 "Drivers/STM32F1xx_HAL_Driver/Inc/stm32f1xx_hal_dma.h"
 415              		.file 8 "Drivers/STM32F1xx_HAL_Driver/Inc/stm32f1xx_hal_adc.h"
 416              		.file 9 "Inc/adc.h"
ARM GAS  /tmp/ccYzlKMz.s 			page 12


 417              		.file 10 "Inc/main.h"
ARM GAS  /tmp/ccYzlKMz.s 			page 13

