ARM GAS  /tmp/ccgfCuFX.s 			page 1


   1              		.cpu cortex-m3
   2              		.arch armv7-m
   3              		.fpu softvfp
   4              		.eabi_attribute 20, 1
   5              		.eabi_attribute 21, 1
   6              		.eabi_attribute 23, 3
   7              		.eabi_attribute 24, 1
   8              		.eabi_attribute 25, 1
   9              		.eabi_attribute 26, 1
  10              		.eabi_attribute 30, 1
  11              		.eabi_attribute 34, 1
  12              		.eabi_attribute 18, 4
  13              		.file	"syscalls.c"
  14              		.text
  15              	.Ltext0:
  16              		.cfi_sections	.debug_frame
  17              		.file 1 "Src/syscalls.c"
  18              		.section	.text.initialise_monitor_handles,"ax",%progbits
  19              		.align	1
  20              		.global	initialise_monitor_handles
  21              		.syntax unified
  22              		.thumb
  23              		.thumb_func
  25              	initialise_monitor_handles:
  26              	.LFB25:
   1:Src/syscalls.c **** /**
   2:Src/syscalls.c ****  ******************************************************************************
   3:Src/syscalls.c ****  * @file      syscalls.c
   4:Src/syscalls.c ****  * @author    Auto-generated by STM32CubeMX
   5:Src/syscalls.c ****  * @brief     Minimal System calls file
   6:Src/syscalls.c ****  *
   7:Src/syscalls.c ****  *            For more information about which c-functions
   8:Src/syscalls.c ****  *            need which of these lowlevel functions
   9:Src/syscalls.c ****  *            please consult the Newlib libc-manual
  10:Src/syscalls.c ****  ******************************************************************************
  11:Src/syscalls.c ****  * @attention
  12:Src/syscalls.c ****  *
  13:Src/syscalls.c ****  * Copyright (c) 2020-2024 STMicroelectronics.
  14:Src/syscalls.c ****  * All rights reserved.
  15:Src/syscalls.c ****  *
  16:Src/syscalls.c ****  * This software is licensed under terms that can be found in the LICENSE file
  17:Src/syscalls.c ****  * in the root directory of this software component.
  18:Src/syscalls.c ****  * If no LICENSE file comes with this software, it is provided AS-IS.
  19:Src/syscalls.c ****  *
  20:Src/syscalls.c ****  ******************************************************************************
  21:Src/syscalls.c ****  */
  22:Src/syscalls.c **** 
  23:Src/syscalls.c **** /* Includes */
  24:Src/syscalls.c **** #include <sys/stat.h>
  25:Src/syscalls.c **** #include <stdlib.h>
  26:Src/syscalls.c **** #include <errno.h>
  27:Src/syscalls.c **** #include <stdio.h>
  28:Src/syscalls.c **** #include <signal.h>
  29:Src/syscalls.c **** #include <time.h>
  30:Src/syscalls.c **** #include <sys/time.h>
  31:Src/syscalls.c **** #include <sys/times.h>
  32:Src/syscalls.c **** 
ARM GAS  /tmp/ccgfCuFX.s 			page 2


  33:Src/syscalls.c **** 
  34:Src/syscalls.c **** /* Variables */
  35:Src/syscalls.c **** extern int __io_putchar(int ch) __attribute__((weak));
  36:Src/syscalls.c **** extern int __io_getchar(void) __attribute__((weak));
  37:Src/syscalls.c **** 
  38:Src/syscalls.c **** 
  39:Src/syscalls.c **** char *__env[1] = { 0 };
  40:Src/syscalls.c **** char **environ = __env;
  41:Src/syscalls.c **** 
  42:Src/syscalls.c **** 
  43:Src/syscalls.c **** /* Functions */
  44:Src/syscalls.c **** void initialise_monitor_handles()
  45:Src/syscalls.c **** {
  27              		.loc 1 45 1 view -0
  28              		.cfi_startproc
  29              		@ args = 0, pretend = 0, frame = 0
  30              		@ frame_needed = 0, uses_anonymous_args = 0
  31              		@ link register save eliminated.
  46:Src/syscalls.c **** }
  32              		.loc 1 46 1 view .LVU1
  33 0000 7047     		bx	lr
  34              		.cfi_endproc
  35              	.LFE25:
  37              		.section	.text._getpid,"ax",%progbits
  38              		.align	1
  39              		.global	_getpid
  40              		.syntax unified
  41              		.thumb
  42              		.thumb_func
  44              	_getpid:
  45              	.LFB26:
  47:Src/syscalls.c **** 
  48:Src/syscalls.c **** int _getpid(void)
  49:Src/syscalls.c **** {
  46              		.loc 1 49 1 view -0
  47              		.cfi_startproc
  48              		@ args = 0, pretend = 0, frame = 0
  49              		@ frame_needed = 0, uses_anonymous_args = 0
  50              		@ link register save eliminated.
  50:Src/syscalls.c ****   return 1;
  51              		.loc 1 50 3 view .LVU3
  51:Src/syscalls.c **** }
  52              		.loc 1 51 1 is_stmt 0 view .LVU4
  53 0000 0120     		movs	r0, #1
  54 0002 7047     		bx	lr
  55              		.cfi_endproc
  56              	.LFE26:
  58              		.section	.text._kill,"ax",%progbits
  59              		.align	1
  60              		.global	_kill
  61              		.syntax unified
  62              		.thumb
  63              		.thumb_func
  65              	_kill:
  66              	.LVL0:
  67              	.LFB27:
  52:Src/syscalls.c **** 
ARM GAS  /tmp/ccgfCuFX.s 			page 3


  53:Src/syscalls.c **** int _kill(int pid, int sig)
  54:Src/syscalls.c **** {
  68              		.loc 1 54 1 is_stmt 1 view -0
  69              		.cfi_startproc
  70              		@ args = 0, pretend = 0, frame = 0
  71              		@ frame_needed = 0, uses_anonymous_args = 0
  72              		.loc 1 54 1 is_stmt 0 view .LVU6
  73 0000 08B5     		push	{r3, lr}
  74              		.cfi_def_cfa_offset 8
  75              		.cfi_offset 3, -8
  76              		.cfi_offset 14, -4
  55:Src/syscalls.c ****   (void)pid;
  77              		.loc 1 55 3 is_stmt 1 view .LVU7
  56:Src/syscalls.c ****   (void)sig;
  78              		.loc 1 56 3 view .LVU8
  57:Src/syscalls.c ****   errno = EINVAL;
  79              		.loc 1 57 3 view .LVU9
  80 0002 FFF7FEFF 		bl	__errno
  81              	.LVL1:
  82              		.loc 1 57 9 is_stmt 0 discriminator 1 view .LVU10
  83 0006 1623     		movs	r3, #22
  84 0008 0360     		str	r3, [r0]
  58:Src/syscalls.c ****   return -1;
  85              		.loc 1 58 3 is_stmt 1 view .LVU11
  59:Src/syscalls.c **** }
  86              		.loc 1 59 1 is_stmt 0 view .LVU12
  87 000a 4FF0FF30 		mov	r0, #-1
  88 000e 08BD     		pop	{r3, pc}
  89              		.cfi_endproc
  90              	.LFE27:
  92              		.section	.text._exit,"ax",%progbits
  93              		.align	1
  94              		.global	_exit
  95              		.syntax unified
  96              		.thumb
  97              		.thumb_func
  99              	_exit:
 100              	.LVL2:
 101              	.LFB28:
  60:Src/syscalls.c **** 
  61:Src/syscalls.c **** void _exit (int status)
  62:Src/syscalls.c **** {
 102              		.loc 1 62 1 is_stmt 1 view -0
 103              		.cfi_startproc
 104              		@ Volatile: function does not return.
 105              		@ args = 0, pretend = 0, frame = 0
 106              		@ frame_needed = 0, uses_anonymous_args = 0
 107              		.loc 1 62 1 is_stmt 0 view .LVU14
 108 0000 08B5     		push	{r3, lr}
 109              		.cfi_def_cfa_offset 8
 110              		.cfi_offset 3, -8
 111              		.cfi_offset 14, -4
  63:Src/syscalls.c ****   _kill(status, -1);
 112              		.loc 1 63 3 is_stmt 1 view .LVU15
 113 0002 4FF0FF31 		mov	r1, #-1
 114 0006 FFF7FEFF 		bl	_kill
 115              	.LVL3:
ARM GAS  /tmp/ccgfCuFX.s 			page 4


 116              	.L6:
  64:Src/syscalls.c ****   while (1) {}    /* Make sure we hang here */
 117              		.loc 1 64 3 view .LVU16
 118              		.loc 1 64 14 view .LVU17
 119              		.loc 1 64 9 view .LVU18
 120 000a FEE7     		b	.L6
 121              		.cfi_endproc
 122              	.LFE28:
 124              		.section	.text._read,"ax",%progbits
 125              		.align	1
 126              		.weak	_read
 127              		.syntax unified
 128              		.thumb
 129              		.thumb_func
 131              	_read:
 132              	.LVL4:
 133              	.LFB29:
  65:Src/syscalls.c **** }
  66:Src/syscalls.c **** 
  67:Src/syscalls.c **** __attribute__((weak)) int _read(int file, char *ptr, int len)
  68:Src/syscalls.c **** {
 134              		.loc 1 68 1 view -0
 135              		.cfi_startproc
 136              		@ args = 0, pretend = 0, frame = 0
 137              		@ frame_needed = 0, uses_anonymous_args = 0
 138              		.loc 1 68 1 is_stmt 0 view .LVU20
 139 0000 70B5     		push	{r4, r5, r6, lr}
 140              		.cfi_def_cfa_offset 16
 141              		.cfi_offset 4, -16
 142              		.cfi_offset 5, -12
 143              		.cfi_offset 6, -8
 144              		.cfi_offset 14, -4
 145 0002 0C46     		mov	r4, r1
 146 0004 1646     		mov	r6, r2
  69:Src/syscalls.c ****   (void)file;
 147              		.loc 1 69 3 is_stmt 1 view .LVU21
  70:Src/syscalls.c ****   int DataIdx;
 148              		.loc 1 70 3 view .LVU22
  71:Src/syscalls.c **** 
  72:Src/syscalls.c ****   for (DataIdx = 0; DataIdx < len; DataIdx++)
 149              		.loc 1 72 3 view .LVU23
 150              	.LVL5:
 151              		.loc 1 72 16 is_stmt 0 view .LVU24
 152 0006 0025     		movs	r5, #0
 153              		.loc 1 72 3 view .LVU25
 154 0008 06E0     		b	.L9
 155              	.LVL6:
 156              	.L10:
  73:Src/syscalls.c ****   {
  74:Src/syscalls.c ****     *ptr++ = __io_getchar();
 157              		.loc 1 74 5 is_stmt 1 view .LVU26
 158              		.loc 1 74 14 is_stmt 0 view .LVU27
 159 000a FFF7FEFF 		bl	__io_getchar
 160              	.LVL7:
 161              		.loc 1 74 9 discriminator 1 view .LVU28
 162 000e 2146     		mov	r1, r4
 163              	.LVL8:
ARM GAS  /tmp/ccgfCuFX.s 			page 5


 164              		.loc 1 74 12 discriminator 1 view .LVU29
 165 0010 01F8010B 		strb	r0, [r1], #1
 166              	.LVL9:
  72:Src/syscalls.c ****   {
 167              		.loc 1 72 43 is_stmt 1 discriminator 3 view .LVU30
 168 0014 0135     		adds	r5, r5, #1
 169              	.LVL10:
 170              		.loc 1 74 9 is_stmt 0 discriminator 1 view .LVU31
 171 0016 0C46     		mov	r4, r1
 172              	.LVL11:
 173              	.L9:
  72:Src/syscalls.c ****   {
 174              		.loc 1 72 29 is_stmt 1 discriminator 1 view .LVU32
 175 0018 B542     		cmp	r5, r6
 176 001a F6DB     		blt	.L10
  75:Src/syscalls.c ****   }
  76:Src/syscalls.c **** 
  77:Src/syscalls.c ****   return len;
 177              		.loc 1 77 3 view .LVU33
  78:Src/syscalls.c **** }
 178              		.loc 1 78 1 is_stmt 0 view .LVU34
 179 001c 3046     		mov	r0, r6
 180 001e 70BD     		pop	{r4, r5, r6, pc}
 181              		.loc 1 78 1 view .LVU35
 182              		.cfi_endproc
 183              	.LFE29:
 185              		.section	.text._write,"ax",%progbits
 186              		.align	1
 187              		.weak	_write
 188              		.syntax unified
 189              		.thumb
 190              		.thumb_func
 192              	_write:
 193              	.LVL12:
 194              	.LFB30:
  79:Src/syscalls.c **** 
  80:Src/syscalls.c **** __attribute__((weak)) int _write(int file, char *ptr, int len)
  81:Src/syscalls.c **** {
 195              		.loc 1 81 1 is_stmt 1 view -0
 196              		.cfi_startproc
 197              		@ args = 0, pretend = 0, frame = 0
 198              		@ frame_needed = 0, uses_anonymous_args = 0
 199              		.loc 1 81 1 is_stmt 0 view .LVU37
 200 0000 70B5     		push	{r4, r5, r6, lr}
 201              		.cfi_def_cfa_offset 16
 202              		.cfi_offset 4, -16
 203              		.cfi_offset 5, -12
 204              		.cfi_offset 6, -8
 205              		.cfi_offset 14, -4
 206 0002 0C46     		mov	r4, r1
 207 0004 1646     		mov	r6, r2
  82:Src/syscalls.c ****   (void)file;
 208              		.loc 1 82 3 is_stmt 1 view .LVU38
  83:Src/syscalls.c ****   int DataIdx;
 209              		.loc 1 83 3 view .LVU39
  84:Src/syscalls.c **** 
  85:Src/syscalls.c ****   for (DataIdx = 0; DataIdx < len; DataIdx++)
ARM GAS  /tmp/ccgfCuFX.s 			page 6


 210              		.loc 1 85 3 view .LVU40
 211              	.LVL13:
 212              		.loc 1 85 16 is_stmt 0 view .LVU41
 213 0006 0025     		movs	r5, #0
 214              		.loc 1 85 3 view .LVU42
 215 0008 04E0     		b	.L13
 216              	.LVL14:
 217              	.L14:
  86:Src/syscalls.c ****   {
  87:Src/syscalls.c ****     __io_putchar(*ptr++);
 218              		.loc 1 87 5 is_stmt 1 view .LVU43
 219              		.loc 1 87 5 is_stmt 0 view .LVU44
 220 000a 14F8010B 		ldrb	r0, [r4], #1	@ zero_extendqisi2
 221              	.LVL15:
 222              		.loc 1 87 5 view .LVU45
 223 000e FFF7FEFF 		bl	__io_putchar
 224              	.LVL16:
  85:Src/syscalls.c ****   {
 225              		.loc 1 85 43 is_stmt 1 discriminator 3 view .LVU46
 226 0012 0135     		adds	r5, r5, #1
 227              	.LVL17:
 228              	.L13:
  85:Src/syscalls.c ****   {
 229              		.loc 1 85 29 discriminator 1 view .LVU47
 230 0014 B542     		cmp	r5, r6
 231 0016 F8DB     		blt	.L14
  88:Src/syscalls.c ****   }
  89:Src/syscalls.c ****   return len;
 232              		.loc 1 89 3 view .LVU48
  90:Src/syscalls.c **** }
 233              		.loc 1 90 1 is_stmt 0 view .LVU49
 234 0018 3046     		mov	r0, r6
 235 001a 70BD     		pop	{r4, r5, r6, pc}
 236              		.loc 1 90 1 view .LVU50
 237              		.cfi_endproc
 238              	.LFE30:
 240              		.section	.text._close,"ax",%progbits
 241              		.align	1
 242              		.global	_close
 243              		.syntax unified
 244              		.thumb
 245              		.thumb_func
 247              	_close:
 248              	.LVL18:
 249              	.LFB31:
  91:Src/syscalls.c **** 
  92:Src/syscalls.c **** int _close(int file)
  93:Src/syscalls.c **** {
 250              		.loc 1 93 1 is_stmt 1 view -0
 251              		.cfi_startproc
 252              		@ args = 0, pretend = 0, frame = 0
 253              		@ frame_needed = 0, uses_anonymous_args = 0
 254              		@ link register save eliminated.
  94:Src/syscalls.c ****   (void)file;
 255              		.loc 1 94 3 view .LVU52
  95:Src/syscalls.c ****   return -1;
 256              		.loc 1 95 3 view .LVU53
ARM GAS  /tmp/ccgfCuFX.s 			page 7


  96:Src/syscalls.c **** }
 257              		.loc 1 96 1 is_stmt 0 view .LVU54
 258 0000 4FF0FF30 		mov	r0, #-1
 259              	.LVL19:
 260              		.loc 1 96 1 view .LVU55
 261 0004 7047     		bx	lr
 262              		.cfi_endproc
 263              	.LFE31:
 265              		.section	.text._fstat,"ax",%progbits
 266              		.align	1
 267              		.global	_fstat
 268              		.syntax unified
 269              		.thumb
 270              		.thumb_func
 272              	_fstat:
 273              	.LVL20:
 274              	.LFB32:
  97:Src/syscalls.c **** 
  98:Src/syscalls.c **** 
  99:Src/syscalls.c **** int _fstat(int file, struct stat *st)
 100:Src/syscalls.c **** {
 275              		.loc 1 100 1 is_stmt 1 view -0
 276              		.cfi_startproc
 277              		@ args = 0, pretend = 0, frame = 0
 278              		@ frame_needed = 0, uses_anonymous_args = 0
 279              		@ link register save eliminated.
 101:Src/syscalls.c ****   (void)file;
 280              		.loc 1 101 3 view .LVU57
 102:Src/syscalls.c ****   st->st_mode = S_IFCHR;
 281              		.loc 1 102 3 view .LVU58
 282              		.loc 1 102 15 is_stmt 0 view .LVU59
 283 0000 4FF40053 		mov	r3, #8192
 284 0004 4B60     		str	r3, [r1, #4]
 103:Src/syscalls.c ****   return 0;
 285              		.loc 1 103 3 is_stmt 1 view .LVU60
 104:Src/syscalls.c **** }
 286              		.loc 1 104 1 is_stmt 0 view .LVU61
 287 0006 0020     		movs	r0, #0
 288              	.LVL21:
 289              		.loc 1 104 1 view .LVU62
 290 0008 7047     		bx	lr
 291              		.cfi_endproc
 292              	.LFE32:
 294              		.section	.text._isatty,"ax",%progbits
 295              		.align	1
 296              		.global	_isatty
 297              		.syntax unified
 298              		.thumb
 299              		.thumb_func
 301              	_isatty:
 302              	.LVL22:
 303              	.LFB33:
 105:Src/syscalls.c **** 
 106:Src/syscalls.c **** int _isatty(int file)
 107:Src/syscalls.c **** {
 304              		.loc 1 107 1 is_stmt 1 view -0
 305              		.cfi_startproc
ARM GAS  /tmp/ccgfCuFX.s 			page 8


 306              		@ args = 0, pretend = 0, frame = 0
 307              		@ frame_needed = 0, uses_anonymous_args = 0
 308              		@ link register save eliminated.
 108:Src/syscalls.c ****   (void)file;
 309              		.loc 1 108 3 view .LVU64
 109:Src/syscalls.c ****   return 1;
 310              		.loc 1 109 3 view .LVU65
 110:Src/syscalls.c **** }
 311              		.loc 1 110 1 is_stmt 0 view .LVU66
 312 0000 0120     		movs	r0, #1
 313              	.LVL23:
 314              		.loc 1 110 1 view .LVU67
 315 0002 7047     		bx	lr
 316              		.cfi_endproc
 317              	.LFE33:
 319              		.section	.text._lseek,"ax",%progbits
 320              		.align	1
 321              		.global	_lseek
 322              		.syntax unified
 323              		.thumb
 324              		.thumb_func
 326              	_lseek:
 327              	.LVL24:
 328              	.LFB34:
 111:Src/syscalls.c **** 
 112:Src/syscalls.c **** int _lseek(int file, int ptr, int dir)
 113:Src/syscalls.c **** {
 329              		.loc 1 113 1 is_stmt 1 view -0
 330              		.cfi_startproc
 331              		@ args = 0, pretend = 0, frame = 0
 332              		@ frame_needed = 0, uses_anonymous_args = 0
 333              		@ link register save eliminated.
 114:Src/syscalls.c ****   (void)file;
 334              		.loc 1 114 3 view .LVU69
 115:Src/syscalls.c ****   (void)ptr;
 335              		.loc 1 115 3 view .LVU70
 116:Src/syscalls.c ****   (void)dir;
 336              		.loc 1 116 3 view .LVU71
 117:Src/syscalls.c ****   return 0;
 337              		.loc 1 117 3 view .LVU72
 118:Src/syscalls.c **** }
 338              		.loc 1 118 1 is_stmt 0 view .LVU73
 339 0000 0020     		movs	r0, #0
 340              	.LVL25:
 341              		.loc 1 118 1 view .LVU74
 342 0002 7047     		bx	lr
 343              		.cfi_endproc
 344              	.LFE34:
 346              		.section	.text._open,"ax",%progbits
 347              		.align	1
 348              		.global	_open
 349              		.syntax unified
 350              		.thumb
 351              		.thumb_func
 353              	_open:
 354              	.LVL26:
 355              	.LFB35:
ARM GAS  /tmp/ccgfCuFX.s 			page 9


 119:Src/syscalls.c **** 
 120:Src/syscalls.c **** int _open(char *path, int flags, ...)
 121:Src/syscalls.c **** {
 356              		.loc 1 121 1 is_stmt 1 view -0
 357              		.cfi_startproc
 358              		@ args = 4, pretend = 12, frame = 0
 359              		@ frame_needed = 0, uses_anonymous_args = 1
 360              		@ link register save eliminated.
 361              		.loc 1 121 1 is_stmt 0 view .LVU76
 362 0000 0EB4     		push	{r1, r2, r3}
 363              		.cfi_def_cfa_offset 12
 364              		.cfi_offset 1, -12
 365              		.cfi_offset 2, -8
 366              		.cfi_offset 3, -4
 122:Src/syscalls.c ****   (void)path;
 367              		.loc 1 122 3 is_stmt 1 view .LVU77
 123:Src/syscalls.c ****   (void)flags;
 368              		.loc 1 123 3 view .LVU78
 124:Src/syscalls.c ****   /* Pretend like we always fail */
 125:Src/syscalls.c ****   return -1;
 369              		.loc 1 125 3 view .LVU79
 126:Src/syscalls.c **** }
 370              		.loc 1 126 1 is_stmt 0 view .LVU80
 371 0002 4FF0FF30 		mov	r0, #-1
 372              	.LVL27:
 373              		.loc 1 126 1 view .LVU81
 374 0006 03B0     		add	sp, sp, #12
 375              		.cfi_restore 3
 376              		.cfi_restore 2
 377              		.cfi_restore 1
 378              		.cfi_def_cfa_offset 0
 379 0008 7047     		bx	lr
 380              		.cfi_endproc
 381              	.LFE35:
 383              		.section	.text._wait,"ax",%progbits
 384              		.align	1
 385              		.global	_wait
 386              		.syntax unified
 387              		.thumb
 388              		.thumb_func
 390              	_wait:
 391              	.LVL28:
 392              	.LFB36:
 127:Src/syscalls.c **** 
 128:Src/syscalls.c **** int _wait(int *status)
 129:Src/syscalls.c **** {
 393              		.loc 1 129 1 is_stmt 1 view -0
 394              		.cfi_startproc
 395              		@ args = 0, pretend = 0, frame = 0
 396              		@ frame_needed = 0, uses_anonymous_args = 0
 397              		.loc 1 129 1 is_stmt 0 view .LVU83
 398 0000 08B5     		push	{r3, lr}
 399              		.cfi_def_cfa_offset 8
 400              		.cfi_offset 3, -8
 401              		.cfi_offset 14, -4
 130:Src/syscalls.c ****   (void)status;
 402              		.loc 1 130 3 is_stmt 1 view .LVU84
ARM GAS  /tmp/ccgfCuFX.s 			page 10


 131:Src/syscalls.c ****   errno = ECHILD;
 403              		.loc 1 131 3 view .LVU85
 404 0002 FFF7FEFF 		bl	__errno
 405              	.LVL29:
 406              		.loc 1 131 9 is_stmt 0 discriminator 1 view .LVU86
 407 0006 0A23     		movs	r3, #10
 408 0008 0360     		str	r3, [r0]
 132:Src/syscalls.c ****   return -1;
 409              		.loc 1 132 3 is_stmt 1 view .LVU87
 133:Src/syscalls.c **** }
 410              		.loc 1 133 1 is_stmt 0 view .LVU88
 411 000a 4FF0FF30 		mov	r0, #-1
 412 000e 08BD     		pop	{r3, pc}
 413              		.cfi_endproc
 414              	.LFE36:
 416              		.section	.text._unlink,"ax",%progbits
 417              		.align	1
 418              		.global	_unlink
 419              		.syntax unified
 420              		.thumb
 421              		.thumb_func
 423              	_unlink:
 424              	.LVL30:
 425              	.LFB37:
 134:Src/syscalls.c **** 
 135:Src/syscalls.c **** int _unlink(char *name)
 136:Src/syscalls.c **** {
 426              		.loc 1 136 1 is_stmt 1 view -0
 427              		.cfi_startproc
 428              		@ args = 0, pretend = 0, frame = 0
 429              		@ frame_needed = 0, uses_anonymous_args = 0
 430              		.loc 1 136 1 is_stmt 0 view .LVU90
 431 0000 08B5     		push	{r3, lr}
 432              		.cfi_def_cfa_offset 8
 433              		.cfi_offset 3, -8
 434              		.cfi_offset 14, -4
 137:Src/syscalls.c ****   (void)name;
 435              		.loc 1 137 3 is_stmt 1 view .LVU91
 138:Src/syscalls.c ****   errno = ENOENT;
 436              		.loc 1 138 3 view .LVU92
 437 0002 FFF7FEFF 		bl	__errno
 438              	.LVL31:
 439              		.loc 1 138 9 is_stmt 0 discriminator 1 view .LVU93
 440 0006 0223     		movs	r3, #2
 441 0008 0360     		str	r3, [r0]
 139:Src/syscalls.c ****   return -1;
 442              		.loc 1 139 3 is_stmt 1 view .LVU94
 140:Src/syscalls.c **** }
 443              		.loc 1 140 1 is_stmt 0 view .LVU95
 444 000a 4FF0FF30 		mov	r0, #-1
 445 000e 08BD     		pop	{r3, pc}
 446              		.cfi_endproc
 447              	.LFE37:
 449              		.section	.text._times,"ax",%progbits
 450              		.align	1
 451              		.global	_times
 452              		.syntax unified
ARM GAS  /tmp/ccgfCuFX.s 			page 11


 453              		.thumb
 454              		.thumb_func
 456              	_times:
 457              	.LVL32:
 458              	.LFB38:
 141:Src/syscalls.c **** 
 142:Src/syscalls.c **** int _times(struct tms *buf)
 143:Src/syscalls.c **** {
 459              		.loc 1 143 1 is_stmt 1 view -0
 460              		.cfi_startproc
 461              		@ args = 0, pretend = 0, frame = 0
 462              		@ frame_needed = 0, uses_anonymous_args = 0
 463              		@ link register save eliminated.
 144:Src/syscalls.c ****   (void)buf;
 464              		.loc 1 144 3 view .LVU97
 145:Src/syscalls.c ****   return -1;
 465              		.loc 1 145 3 view .LVU98
 146:Src/syscalls.c **** }
 466              		.loc 1 146 1 is_stmt 0 view .LVU99
 467 0000 4FF0FF30 		mov	r0, #-1
 468              	.LVL33:
 469              		.loc 1 146 1 view .LVU100
 470 0004 7047     		bx	lr
 471              		.cfi_endproc
 472              	.LFE38:
 474              		.section	.text._stat,"ax",%progbits
 475              		.align	1
 476              		.global	_stat
 477              		.syntax unified
 478              		.thumb
 479              		.thumb_func
 481              	_stat:
 482              	.LVL34:
 483              	.LFB39:
 147:Src/syscalls.c **** 
 148:Src/syscalls.c **** int _stat(char *file, struct stat *st)
 149:Src/syscalls.c **** {
 484              		.loc 1 149 1 is_stmt 1 view -0
 485              		.cfi_startproc
 486              		@ args = 0, pretend = 0, frame = 0
 487              		@ frame_needed = 0, uses_anonymous_args = 0
 488              		@ link register save eliminated.
 150:Src/syscalls.c ****   (void)file;
 489              		.loc 1 150 3 view .LVU102
 151:Src/syscalls.c ****   st->st_mode = S_IFCHR;
 490              		.loc 1 151 3 view .LVU103
 491              		.loc 1 151 15 is_stmt 0 view .LVU104
 492 0000 4FF40053 		mov	r3, #8192
 493 0004 4B60     		str	r3, [r1, #4]
 152:Src/syscalls.c ****   return 0;
 494              		.loc 1 152 3 is_stmt 1 view .LVU105
 153:Src/syscalls.c **** }
 495              		.loc 1 153 1 is_stmt 0 view .LVU106
 496 0006 0020     		movs	r0, #0
 497              	.LVL35:
 498              		.loc 1 153 1 view .LVU107
 499 0008 7047     		bx	lr
ARM GAS  /tmp/ccgfCuFX.s 			page 12


 500              		.cfi_endproc
 501              	.LFE39:
 503              		.section	.text._link,"ax",%progbits
 504              		.align	1
 505              		.global	_link
 506              		.syntax unified
 507              		.thumb
 508              		.thumb_func
 510              	_link:
 511              	.LVL36:
 512              	.LFB40:
 154:Src/syscalls.c **** 
 155:Src/syscalls.c **** int _link(char *old, char *new)
 156:Src/syscalls.c **** {
 513              		.loc 1 156 1 is_stmt 1 view -0
 514              		.cfi_startproc
 515              		@ args = 0, pretend = 0, frame = 0
 516              		@ frame_needed = 0, uses_anonymous_args = 0
 517              		.loc 1 156 1 is_stmt 0 view .LVU109
 518 0000 08B5     		push	{r3, lr}
 519              		.cfi_def_cfa_offset 8
 520              		.cfi_offset 3, -8
 521              		.cfi_offset 14, -4
 157:Src/syscalls.c ****   (void)old;
 522              		.loc 1 157 3 is_stmt 1 view .LVU110
 158:Src/syscalls.c ****   (void)new;
 523              		.loc 1 158 3 view .LVU111
 159:Src/syscalls.c ****   errno = EMLINK;
 524              		.loc 1 159 3 view .LVU112
 525 0002 FFF7FEFF 		bl	__errno
 526              	.LVL37:
 527              		.loc 1 159 9 is_stmt 0 discriminator 1 view .LVU113
 528 0006 1F23     		movs	r3, #31
 529 0008 0360     		str	r3, [r0]
 160:Src/syscalls.c ****   return -1;
 530              		.loc 1 160 3 is_stmt 1 view .LVU114
 161:Src/syscalls.c **** }
 531              		.loc 1 161 1 is_stmt 0 view .LVU115
 532 000a 4FF0FF30 		mov	r0, #-1
 533 000e 08BD     		pop	{r3, pc}
 534              		.cfi_endproc
 535              	.LFE40:
 537              		.section	.text._fork,"ax",%progbits
 538              		.align	1
 539              		.global	_fork
 540              		.syntax unified
 541              		.thumb
 542              		.thumb_func
 544              	_fork:
 545              	.LFB41:
 162:Src/syscalls.c **** 
 163:Src/syscalls.c **** int _fork(void)
 164:Src/syscalls.c **** {
 546              		.loc 1 164 1 is_stmt 1 view -0
 547              		.cfi_startproc
 548              		@ args = 0, pretend = 0, frame = 0
 549              		@ frame_needed = 0, uses_anonymous_args = 0
ARM GAS  /tmp/ccgfCuFX.s 			page 13


 550 0000 08B5     		push	{r3, lr}
 551              		.cfi_def_cfa_offset 8
 552              		.cfi_offset 3, -8
 553              		.cfi_offset 14, -4
 165:Src/syscalls.c ****   errno = EAGAIN;
 554              		.loc 1 165 3 view .LVU117
 555 0002 FFF7FEFF 		bl	__errno
 556              	.LVL38:
 557              		.loc 1 165 9 is_stmt 0 discriminator 1 view .LVU118
 558 0006 0B23     		movs	r3, #11
 559 0008 0360     		str	r3, [r0]
 166:Src/syscalls.c ****   return -1;
 560              		.loc 1 166 3 is_stmt 1 view .LVU119
 167:Src/syscalls.c **** }
 561              		.loc 1 167 1 is_stmt 0 view .LVU120
 562 000a 4FF0FF30 		mov	r0, #-1
 563 000e 08BD     		pop	{r3, pc}
 564              		.cfi_endproc
 565              	.LFE41:
 567              		.section	.text._execve,"ax",%progbits
 568              		.align	1
 569              		.global	_execve
 570              		.syntax unified
 571              		.thumb
 572              		.thumb_func
 574              	_execve:
 575              	.LVL39:
 576              	.LFB42:
 168:Src/syscalls.c **** 
 169:Src/syscalls.c **** int _execve(char *name, char **argv, char **env)
 170:Src/syscalls.c **** {
 577              		.loc 1 170 1 is_stmt 1 view -0
 578              		.cfi_startproc
 579              		@ args = 0, pretend = 0, frame = 0
 580              		@ frame_needed = 0, uses_anonymous_args = 0
 581              		.loc 1 170 1 is_stmt 0 view .LVU122
 582 0000 08B5     		push	{r3, lr}
 583              		.cfi_def_cfa_offset 8
 584              		.cfi_offset 3, -8
 585              		.cfi_offset 14, -4
 171:Src/syscalls.c ****   (void)name;
 586              		.loc 1 171 3 is_stmt 1 view .LVU123
 172:Src/syscalls.c ****   (void)argv;
 587              		.loc 1 172 3 view .LVU124
 173:Src/syscalls.c ****   (void)env;
 588              		.loc 1 173 3 view .LVU125
 174:Src/syscalls.c ****   errno = ENOMEM;
 589              		.loc 1 174 3 view .LVU126
 590 0002 FFF7FEFF 		bl	__errno
 591              	.LVL40:
 592              		.loc 1 174 9 is_stmt 0 discriminator 1 view .LVU127
 593 0006 0C23     		movs	r3, #12
 594 0008 0360     		str	r3, [r0]
 175:Src/syscalls.c ****   return -1;
 595              		.loc 1 175 3 is_stmt 1 view .LVU128
 176:Src/syscalls.c **** }
 596              		.loc 1 176 1 is_stmt 0 view .LVU129
ARM GAS  /tmp/ccgfCuFX.s 			page 14


 597 000a 4FF0FF30 		mov	r0, #-1
 598 000e 08BD     		pop	{r3, pc}
 599              		.cfi_endproc
 600              	.LFE42:
 602              		.global	environ
 603              		.section	.data.environ,"aw"
 604              		.align	2
 607              	environ:
 608 0000 00000000 		.word	__env
 609              		.global	__env
 610              		.section	.bss.__env,"aw",%nobits
 611              		.align	2
 614              	__env:
 615 0000 00000000 		.space	4
 616              		.weak	__io_putchar
 617              		.weak	__io_getchar
 618              		.text
 619              	.Letext0:
 620              		.file 2 "/usr/include/newlib/machine/_default_types.h"
 621              		.file 3 "/usr/include/newlib/sys/_types.h"
 622              		.file 4 "/usr/include/newlib/sys/_timeval.h"
 623              		.file 5 "/usr/include/newlib/sys/_timespec.h"
 624              		.file 6 "/usr/include/newlib/sys/types.h"
 625              		.file 7 "/usr/include/newlib/sys/stat.h"
 626              		.file 8 "/usr/include/newlib/sys/times.h"
 627              		.file 9 "/usr/include/newlib/sys/errno.h"
ARM GAS  /tmp/ccgfCuFX.s 			page 15

