ARM GAS  /tmp/ccdEoO1I.s 			page 1


   1              		.cpu cortex-m3
   2              		.arch armv7-m
   3              		.fpu softvfp
   4              		.eabi_attribute 20, 1
   5              		.eabi_attribute 21, 1
   6              		.eabi_attribute 23, 3
   7              		.eabi_attribute 24, 1
   8              		.eabi_attribute 25, 1
   9              		.eabi_attribute 26, 1
  10              		.eabi_attribute 30, 1
  11              		.eabi_attribute 34, 1
  12              		.eabi_attribute 18, 4
  13              		.file	"adc.c"
  14              		.text
  15              	.Ltext0:
  16              		.cfi_sections	.debug_frame
  17              		.file 1 "Src/adc.c"
  18              		.section	.text.MX_ADC1_Init,"ax",%progbits
  19              		.align	1
  20              		.global	MX_ADC1_Init
  21              		.syntax unified
  22              		.thumb
  23              		.thumb_func
  25              	MX_ADC1_Init:
  26              	.LFB65:
   1:Src/adc.c     **** /* USER CODE BEGIN Header */
   2:Src/adc.c     **** /**
   3:Src/adc.c     ****   ******************************************************************************
   4:Src/adc.c     ****   * @file    adc.c
   5:Src/adc.c     ****   * @brief   This file provides code for the configuration
   6:Src/adc.c     ****   *          of the ADC instances.
   7:Src/adc.c     ****   ******************************************************************************
   8:Src/adc.c     ****   * @attention
   9:Src/adc.c     ****   *
  10:Src/adc.c     ****   * Copyright (c) 2024 STMicroelectronics.
  11:Src/adc.c     ****   * All rights reserved.
  12:Src/adc.c     ****   *
  13:Src/adc.c     ****   * This software is licensed under terms that can be found in the LICENSE file
  14:Src/adc.c     ****   * in the root directory of this software component.
  15:Src/adc.c     ****   * If no LICENSE file comes with this software, it is provided AS-IS.
  16:Src/adc.c     ****   *
  17:Src/adc.c     ****   ******************************************************************************
  18:Src/adc.c     ****   */
  19:Src/adc.c     **** /* USER CODE END Header */
  20:Src/adc.c     **** /* Includes ------------------------------------------------------------------*/
  21:Src/adc.c     **** #include "adc.h"
  22:Src/adc.c     **** 
  23:Src/adc.c     **** /* USER CODE BEGIN 0 */
  24:Src/adc.c     **** 
  25:Src/adc.c     **** /* USER CODE END 0 */
  26:Src/adc.c     **** 
  27:Src/adc.c     **** ADC_HandleTypeDef hadc1;
  28:Src/adc.c     **** DMA_HandleTypeDef hdma_adc1;
  29:Src/adc.c     **** 
  30:Src/adc.c     **** /* ADC1 init function */
  31:Src/adc.c     **** void MX_ADC1_Init(void)
  32:Src/adc.c     **** {
ARM GAS  /tmp/ccdEoO1I.s 			page 2


  27              		.loc 1 32 1 view -0
  28              		.cfi_startproc
  29              		@ args = 0, pretend = 0, frame = 16
  30              		@ frame_needed = 0, uses_anonymous_args = 0
  31 0000 00B5     		push	{lr}
  32              		.cfi_def_cfa_offset 4
  33              		.cfi_offset 14, -4
  34 0002 85B0     		sub	sp, sp, #20
  35              		.cfi_def_cfa_offset 24
  33:Src/adc.c     **** 
  34:Src/adc.c     ****   /* USER CODE BEGIN ADC1_Init 0 */
  35:Src/adc.c     **** 
  36:Src/adc.c     ****   /* USER CODE END ADC1_Init 0 */
  37:Src/adc.c     **** 
  38:Src/adc.c     ****   ADC_ChannelConfTypeDef sConfig = {0};
  36              		.loc 1 38 3 view .LVU1
  37              		.loc 1 38 26 is_stmt 0 view .LVU2
  38 0004 0023     		movs	r3, #0
  39 0006 0193     		str	r3, [sp, #4]
  40 0008 0293     		str	r3, [sp, #8]
  41 000a 0393     		str	r3, [sp, #12]
  39:Src/adc.c     **** 
  40:Src/adc.c     ****   /* USER CODE BEGIN ADC1_Init 1 */
  41:Src/adc.c     **** 
  42:Src/adc.c     ****   /* USER CODE END ADC1_Init 1 */
  43:Src/adc.c     **** 
  44:Src/adc.c     ****   /** Common config
  45:Src/adc.c     ****   */
  46:Src/adc.c     ****   hadc1.Instance = ADC1;
  42              		.loc 1 46 3 is_stmt 1 view .LVU3
  43              		.loc 1 46 18 is_stmt 0 view .LVU4
  44 000c 3848     		ldr	r0, .L19
  45 000e 394A     		ldr	r2, .L19+4
  46 0010 0260     		str	r2, [r0]
  47:Src/adc.c     ****   hadc1.Init.ScanConvMode = ADC_SCAN_ENABLE;
  47              		.loc 1 47 3 is_stmt 1 view .LVU5
  48              		.loc 1 47 27 is_stmt 0 view .LVU6
  49 0012 4FF48072 		mov	r2, #256
  50 0016 8260     		str	r2, [r0, #8]
  48:Src/adc.c     ****   hadc1.Init.ContinuousConvMode = ENABLE;
  51              		.loc 1 48 3 is_stmt 1 view .LVU7
  52              		.loc 1 48 33 is_stmt 0 view .LVU8
  53 0018 0122     		movs	r2, #1
  54 001a 0273     		strb	r2, [r0, #12]
  49:Src/adc.c     ****   hadc1.Init.DiscontinuousConvMode = DISABLE;
  55              		.loc 1 49 3 is_stmt 1 view .LVU9
  56              		.loc 1 49 36 is_stmt 0 view .LVU10
  57 001c 0375     		strb	r3, [r0, #20]
  50:Src/adc.c     ****   hadc1.Init.ExternalTrigConv = ADC_SOFTWARE_START;
  58              		.loc 1 50 3 is_stmt 1 view .LVU11
  59              		.loc 1 50 31 is_stmt 0 view .LVU12
  60 001e 4FF46022 		mov	r2, #917504
  61 0022 C261     		str	r2, [r0, #28]
  51:Src/adc.c     ****   hadc1.Init.DataAlign = ADC_DATAALIGN_RIGHT;
  62              		.loc 1 51 3 is_stmt 1 view .LVU13
  63              		.loc 1 51 24 is_stmt 0 view .LVU14
  64 0024 4360     		str	r3, [r0, #4]
ARM GAS  /tmp/ccdEoO1I.s 			page 3


  52:Src/adc.c     ****   hadc1.Init.NbrOfConversion = 7;
  65              		.loc 1 52 3 is_stmt 1 view .LVU15
  66              		.loc 1 52 30 is_stmt 0 view .LVU16
  67 0026 0723     		movs	r3, #7
  68 0028 0361     		str	r3, [r0, #16]
  53:Src/adc.c     ****   if (HAL_ADC_Init(&hadc1) != HAL_OK)
  69              		.loc 1 53 3 is_stmt 1 view .LVU17
  70              		.loc 1 53 7 is_stmt 0 view .LVU18
  71 002a FFF7FEFF 		bl	HAL_ADC_Init
  72              	.LVL0:
  73              		.loc 1 53 6 discriminator 1 view .LVU19
  74 002e 0028     		cmp	r0, #0
  75 0030 46D1     		bne	.L11
  76              	.L2:
  54:Src/adc.c     ****   {
  55:Src/adc.c     ****     Error_Handler();
  56:Src/adc.c     ****   }
  57:Src/adc.c     **** 
  58:Src/adc.c     ****   /** Configure Regular Channel
  59:Src/adc.c     ****   */
  60:Src/adc.c     ****   sConfig.Channel = ADC_CHANNEL_5;
  77              		.loc 1 60 3 is_stmt 1 view .LVU20
  78              		.loc 1 60 19 is_stmt 0 view .LVU21
  79 0032 0523     		movs	r3, #5
  80 0034 0193     		str	r3, [sp, #4]
  61:Src/adc.c     ****   sConfig.Rank = ADC_REGULAR_RANK_1;
  81              		.loc 1 61 3 is_stmt 1 view .LVU22
  82              		.loc 1 61 16 is_stmt 0 view .LVU23
  83 0036 0122     		movs	r2, #1
  84 0038 0292     		str	r2, [sp, #8]
  62:Src/adc.c     ****   sConfig.SamplingTime = ADC_SAMPLETIME_55CYCLES_5;
  85              		.loc 1 62 3 is_stmt 1 view .LVU24
  86              		.loc 1 62 24 is_stmt 0 view .LVU25
  87 003a 0393     		str	r3, [sp, #12]
  63:Src/adc.c     ****   if (HAL_ADC_ConfigChannel(&hadc1, &sConfig) != HAL_OK)
  88              		.loc 1 63 3 is_stmt 1 view .LVU26
  89              		.loc 1 63 7 is_stmt 0 view .LVU27
  90 003c 01A9     		add	r1, sp, #4
  91 003e 2C48     		ldr	r0, .L19
  92 0040 FFF7FEFF 		bl	HAL_ADC_ConfigChannel
  93              	.LVL1:
  94              		.loc 1 63 6 discriminator 1 view .LVU28
  95 0044 0028     		cmp	r0, #0
  96 0046 3ED1     		bne	.L12
  97              	.L3:
  64:Src/adc.c     ****   {
  65:Src/adc.c     ****     Error_Handler();
  66:Src/adc.c     ****   }
  67:Src/adc.c     **** 
  68:Src/adc.c     ****   /** Configure Regular Channel
  69:Src/adc.c     ****   */
  70:Src/adc.c     ****   sConfig.Channel = ADC_CHANNEL_8;
  98              		.loc 1 70 3 is_stmt 1 view .LVU29
  99              		.loc 1 70 19 is_stmt 0 view .LVU30
 100 0048 0823     		movs	r3, #8
 101 004a 0193     		str	r3, [sp, #4]
  71:Src/adc.c     ****   sConfig.Rank = ADC_REGULAR_RANK_2;
ARM GAS  /tmp/ccdEoO1I.s 			page 4


 102              		.loc 1 71 3 is_stmt 1 view .LVU31
 103              		.loc 1 71 16 is_stmt 0 view .LVU32
 104 004c 0223     		movs	r3, #2
 105 004e 0293     		str	r3, [sp, #8]
  72:Src/adc.c     ****   if (HAL_ADC_ConfigChannel(&hadc1, &sConfig) != HAL_OK)
 106              		.loc 1 72 3 is_stmt 1 view .LVU33
 107              		.loc 1 72 7 is_stmt 0 view .LVU34
 108 0050 01A9     		add	r1, sp, #4
 109 0052 2748     		ldr	r0, .L19
 110 0054 FFF7FEFF 		bl	HAL_ADC_ConfigChannel
 111              	.LVL2:
 112              		.loc 1 72 6 discriminator 1 view .LVU35
 113 0058 0028     		cmp	r0, #0
 114 005a 37D1     		bne	.L13
 115              	.L4:
  73:Src/adc.c     ****   {
  74:Src/adc.c     ****     Error_Handler();
  75:Src/adc.c     ****   }
  76:Src/adc.c     **** 
  77:Src/adc.c     ****   /** Configure Regular Channel
  78:Src/adc.c     ****   */
  79:Src/adc.c     ****   sConfig.Channel = ADC_CHANNEL_4;
 116              		.loc 1 79 3 is_stmt 1 view .LVU36
 117              		.loc 1 79 19 is_stmt 0 view .LVU37
 118 005c 0423     		movs	r3, #4
 119 005e 0193     		str	r3, [sp, #4]
  80:Src/adc.c     ****   sConfig.Rank = ADC_REGULAR_RANK_3;
 120              		.loc 1 80 3 is_stmt 1 view .LVU38
 121              		.loc 1 80 16 is_stmt 0 view .LVU39
 122 0060 0323     		movs	r3, #3
 123 0062 0293     		str	r3, [sp, #8]
  81:Src/adc.c     ****   if (HAL_ADC_ConfigChannel(&hadc1, &sConfig) != HAL_OK)
 124              		.loc 1 81 3 is_stmt 1 view .LVU40
 125              		.loc 1 81 7 is_stmt 0 view .LVU41
 126 0064 01A9     		add	r1, sp, #4
 127 0066 2248     		ldr	r0, .L19
 128 0068 FFF7FEFF 		bl	HAL_ADC_ConfigChannel
 129              	.LVL3:
 130              		.loc 1 81 6 discriminator 1 view .LVU42
 131 006c 0028     		cmp	r0, #0
 132 006e 30D1     		bne	.L14
 133              	.L5:
  82:Src/adc.c     ****   {
  83:Src/adc.c     ****     Error_Handler();
  84:Src/adc.c     ****   }
  85:Src/adc.c     **** 
  86:Src/adc.c     ****   /** Configure Regular Channel
  87:Src/adc.c     ****   */
  88:Src/adc.c     ****   sConfig.Channel = ADC_CHANNEL_6;
 134              		.loc 1 88 3 is_stmt 1 view .LVU43
 135              		.loc 1 88 19 is_stmt 0 view .LVU44
 136 0070 0623     		movs	r3, #6
 137 0072 0193     		str	r3, [sp, #4]
  89:Src/adc.c     ****   sConfig.Rank = ADC_REGULAR_RANK_4;
 138              		.loc 1 89 3 is_stmt 1 view .LVU45
 139              		.loc 1 89 16 is_stmt 0 view .LVU46
 140 0074 0423     		movs	r3, #4
ARM GAS  /tmp/ccdEoO1I.s 			page 5


 141 0076 0293     		str	r3, [sp, #8]
  90:Src/adc.c     ****   if (HAL_ADC_ConfigChannel(&hadc1, &sConfig) != HAL_OK)
 142              		.loc 1 90 3 is_stmt 1 view .LVU47
 143              		.loc 1 90 7 is_stmt 0 view .LVU48
 144 0078 0DEB0301 		add	r1, sp, r3
 145 007c 1C48     		ldr	r0, .L19
 146 007e FFF7FEFF 		bl	HAL_ADC_ConfigChannel
 147              	.LVL4:
 148              		.loc 1 90 6 discriminator 1 view .LVU49
 149 0082 48BB     		cbnz	r0, .L15
 150              	.L6:
  91:Src/adc.c     ****   {
  92:Src/adc.c     ****     Error_Handler();
  93:Src/adc.c     ****   }
  94:Src/adc.c     **** 
  95:Src/adc.c     ****   /** Configure Regular Channel
  96:Src/adc.c     ****   */
  97:Src/adc.c     ****   sConfig.Channel = ADC_CHANNEL_7;
 151              		.loc 1 97 3 is_stmt 1 view .LVU50
 152              		.loc 1 97 19 is_stmt 0 view .LVU51
 153 0084 0723     		movs	r3, #7
 154 0086 0193     		str	r3, [sp, #4]
  98:Src/adc.c     ****   sConfig.Rank = ADC_REGULAR_RANK_5;
 155              		.loc 1 98 3 is_stmt 1 view .LVU52
 156              		.loc 1 98 16 is_stmt 0 view .LVU53
 157 0088 0523     		movs	r3, #5
 158 008a 0293     		str	r3, [sp, #8]
  99:Src/adc.c     ****   if (HAL_ADC_ConfigChannel(&hadc1, &sConfig) != HAL_OK)
 159              		.loc 1 99 3 is_stmt 1 view .LVU54
 160              		.loc 1 99 7 is_stmt 0 view .LVU55
 161 008c 01A9     		add	r1, sp, #4
 162 008e 1848     		ldr	r0, .L19
 163 0090 FFF7FEFF 		bl	HAL_ADC_ConfigChannel
 164              	.LVL5:
 165              		.loc 1 99 6 discriminator 1 view .LVU56
 166 0094 18BB     		cbnz	r0, .L16
 167              	.L7:
 100:Src/adc.c     ****   {
 101:Src/adc.c     ****     Error_Handler();
 102:Src/adc.c     ****   }
 103:Src/adc.c     **** 
 104:Src/adc.c     ****   /** Configure Regular Channel
 105:Src/adc.c     ****   */
 106:Src/adc.c     ****   sConfig.Channel = ADC_CHANNEL_9;
 168              		.loc 1 106 3 is_stmt 1 view .LVU57
 169              		.loc 1 106 19 is_stmt 0 view .LVU58
 170 0096 0923     		movs	r3, #9
 171 0098 0193     		str	r3, [sp, #4]
 107:Src/adc.c     ****   sConfig.Rank = ADC_REGULAR_RANK_6;
 172              		.loc 1 107 3 is_stmt 1 view .LVU59
 173              		.loc 1 107 16 is_stmt 0 view .LVU60
 174 009a 0623     		movs	r3, #6
 175 009c 0293     		str	r3, [sp, #8]
 108:Src/adc.c     ****   if (HAL_ADC_ConfigChannel(&hadc1, &sConfig) != HAL_OK)
 176              		.loc 1 108 3 is_stmt 1 view .LVU61
 177              		.loc 1 108 7 is_stmt 0 view .LVU62
 178 009e 01A9     		add	r1, sp, #4
ARM GAS  /tmp/ccdEoO1I.s 			page 6


 179 00a0 1348     		ldr	r0, .L19
 180 00a2 FFF7FEFF 		bl	HAL_ADC_ConfigChannel
 181              	.LVL6:
 182              		.loc 1 108 6 discriminator 1 view .LVU63
 183 00a6 E8B9     		cbnz	r0, .L17
 184              	.L8:
 109:Src/adc.c     ****   {
 110:Src/adc.c     ****     Error_Handler();
 111:Src/adc.c     ****   }
 112:Src/adc.c     **** 
 113:Src/adc.c     ****   /** Configure Regular Channel
 114:Src/adc.c     ****   */
 115:Src/adc.c     ****   sConfig.Channel = ADC_CHANNEL_3;
 185              		.loc 1 115 3 is_stmt 1 view .LVU64
 186              		.loc 1 115 19 is_stmt 0 view .LVU65
 187 00a8 0323     		movs	r3, #3
 188 00aa 0193     		str	r3, [sp, #4]
 116:Src/adc.c     ****   sConfig.Rank = ADC_REGULAR_RANK_7;
 189              		.loc 1 116 3 is_stmt 1 view .LVU66
 190              		.loc 1 116 16 is_stmt 0 view .LVU67
 191 00ac 0723     		movs	r3, #7
 192 00ae 0293     		str	r3, [sp, #8]
 117:Src/adc.c     ****   if (HAL_ADC_ConfigChannel(&hadc1, &sConfig) != HAL_OK)
 193              		.loc 1 117 3 is_stmt 1 view .LVU68
 194              		.loc 1 117 7 is_stmt 0 view .LVU69
 195 00b0 01A9     		add	r1, sp, #4
 196 00b2 0F48     		ldr	r0, .L19
 197 00b4 FFF7FEFF 		bl	HAL_ADC_ConfigChannel
 198              	.LVL7:
 199              		.loc 1 117 6 discriminator 1 view .LVU70
 200 00b8 B8B9     		cbnz	r0, .L18
 201              	.L1:
 118:Src/adc.c     ****   {
 119:Src/adc.c     ****     Error_Handler();
 120:Src/adc.c     ****   }
 121:Src/adc.c     ****   /* USER CODE BEGIN ADC1_Init 2 */
 122:Src/adc.c     **** 
 123:Src/adc.c     ****   /* USER CODE END ADC1_Init 2 */
 124:Src/adc.c     **** 
 125:Src/adc.c     **** }
 202              		.loc 1 125 1 view .LVU71
 203 00ba 05B0     		add	sp, sp, #20
 204              		.cfi_remember_state
 205              		.cfi_def_cfa_offset 4
 206              		@ sp needed
 207 00bc 5DF804FB 		ldr	pc, [sp], #4
 208              	.L11:
 209              		.cfi_restore_state
  55:Src/adc.c     ****   }
 210              		.loc 1 55 5 is_stmt 1 view .LVU72
 211 00c0 FFF7FEFF 		bl	Error_Handler
 212              	.LVL8:
 213 00c4 B5E7     		b	.L2
 214              	.L12:
  65:Src/adc.c     ****   }
 215              		.loc 1 65 5 view .LVU73
 216 00c6 FFF7FEFF 		bl	Error_Handler
ARM GAS  /tmp/ccdEoO1I.s 			page 7


 217              	.LVL9:
 218 00ca BDE7     		b	.L3
 219              	.L13:
  74:Src/adc.c     ****   }
 220              		.loc 1 74 5 view .LVU74
 221 00cc FFF7FEFF 		bl	Error_Handler
 222              	.LVL10:
 223 00d0 C4E7     		b	.L4
 224              	.L14:
  83:Src/adc.c     ****   }
 225              		.loc 1 83 5 view .LVU75
 226 00d2 FFF7FEFF 		bl	Error_Handler
 227              	.LVL11:
 228 00d6 CBE7     		b	.L5
 229              	.L15:
  92:Src/adc.c     ****   }
 230              		.loc 1 92 5 view .LVU76
 231 00d8 FFF7FEFF 		bl	Error_Handler
 232              	.LVL12:
 233 00dc D2E7     		b	.L6
 234              	.L16:
 101:Src/adc.c     ****   }
 235              		.loc 1 101 5 view .LVU77
 236 00de FFF7FEFF 		bl	Error_Handler
 237              	.LVL13:
 238 00e2 D8E7     		b	.L7
 239              	.L17:
 110:Src/adc.c     ****   }
 240              		.loc 1 110 5 view .LVU78
 241 00e4 FFF7FEFF 		bl	Error_Handler
 242              	.LVL14:
 243 00e8 DEE7     		b	.L8
 244              	.L18:
 119:Src/adc.c     ****   }
 245              		.loc 1 119 5 view .LVU79
 246 00ea FFF7FEFF 		bl	Error_Handler
 247              	.LVL15:
 248              		.loc 1 125 1 is_stmt 0 view .LVU80
 249 00ee E4E7     		b	.L1
 250              	.L20:
 251              		.align	2
 252              	.L19:
 253 00f0 00000000 		.word	hadc1
 254 00f4 00240140 		.word	1073816576
 255              		.cfi_endproc
 256              	.LFE65:
 258              		.section	.text.HAL_ADC_MspInit,"ax",%progbits
 259              		.align	1
 260              		.global	HAL_ADC_MspInit
 261              		.syntax unified
 262              		.thumb
 263              		.thumb_func
 265              	HAL_ADC_MspInit:
 266              	.LVL16:
 267              	.LFB66:
 126:Src/adc.c     **** 
 127:Src/adc.c     **** void HAL_ADC_MspInit(ADC_HandleTypeDef* adcHandle)
ARM GAS  /tmp/ccdEoO1I.s 			page 8


 128:Src/adc.c     **** {
 268              		.loc 1 128 1 is_stmt 1 view -0
 269              		.cfi_startproc
 270              		@ args = 0, pretend = 0, frame = 32
 271              		@ frame_needed = 0, uses_anonymous_args = 0
 272              		.loc 1 128 1 is_stmt 0 view .LVU82
 273 0000 30B5     		push	{r4, r5, lr}
 274              		.cfi_def_cfa_offset 12
 275              		.cfi_offset 4, -12
 276              		.cfi_offset 5, -8
 277              		.cfi_offset 14, -4
 278 0002 89B0     		sub	sp, sp, #36
 279              		.cfi_def_cfa_offset 48
 129:Src/adc.c     **** 
 130:Src/adc.c     ****   GPIO_InitTypeDef GPIO_InitStruct = {0};
 280              		.loc 1 130 3 is_stmt 1 view .LVU83
 281              		.loc 1 130 20 is_stmt 0 view .LVU84
 282 0004 0023     		movs	r3, #0
 283 0006 0493     		str	r3, [sp, #16]
 284 0008 0593     		str	r3, [sp, #20]
 285 000a 0693     		str	r3, [sp, #24]
 286 000c 0793     		str	r3, [sp, #28]
 131:Src/adc.c     ****   if(adcHandle->Instance==ADC1)
 287              		.loc 1 131 3 is_stmt 1 view .LVU85
 288              		.loc 1 131 15 is_stmt 0 view .LVU86
 289 000e 0268     		ldr	r2, [r0]
 290              		.loc 1 131 5 view .LVU87
 291 0010 254B     		ldr	r3, .L27
 292 0012 9A42     		cmp	r2, r3
 293 0014 01D0     		beq	.L25
 294              	.LVL17:
 295              	.L21:
 132:Src/adc.c     ****   {
 133:Src/adc.c     ****   /* USER CODE BEGIN ADC1_MspInit 0 */
 134:Src/adc.c     **** 
 135:Src/adc.c     ****   /* USER CODE END ADC1_MspInit 0 */
 136:Src/adc.c     ****     /* ADC1 clock enable */
 137:Src/adc.c     ****     __HAL_RCC_ADC1_CLK_ENABLE();
 138:Src/adc.c     **** 
 139:Src/adc.c     ****     __HAL_RCC_GPIOA_CLK_ENABLE();
 140:Src/adc.c     ****     __HAL_RCC_GPIOB_CLK_ENABLE();
 141:Src/adc.c     ****     /**ADC1 GPIO Configuration
 142:Src/adc.c     ****     PA3     ------> ADC1_IN3
 143:Src/adc.c     ****     PA4     ------> ADC1_IN4
 144:Src/adc.c     ****     PA5     ------> ADC1_IN5
 145:Src/adc.c     ****     PA6     ------> ADC1_IN6
 146:Src/adc.c     ****     PA7     ------> ADC1_IN7
 147:Src/adc.c     ****     PB0     ------> ADC1_IN8
 148:Src/adc.c     ****     PB1     ------> ADC1_IN9
 149:Src/adc.c     ****     */
 150:Src/adc.c     ****     GPIO_InitStruct.Pin = GPIO_PIN_3|GPIO_PIN_4|GPIO_PIN_5|GPIO_PIN_6
 151:Src/adc.c     ****                           |GPIO_PIN_7;
 152:Src/adc.c     ****     GPIO_InitStruct.Mode = GPIO_MODE_ANALOG;
 153:Src/adc.c     ****     HAL_GPIO_Init(GPIOA, &GPIO_InitStruct);
 154:Src/adc.c     **** 
 155:Src/adc.c     ****     GPIO_InitStruct.Pin = Current_Pin|GPIO_PIN_1;
 156:Src/adc.c     ****     GPIO_InitStruct.Mode = GPIO_MODE_ANALOG;
ARM GAS  /tmp/ccdEoO1I.s 			page 9


 157:Src/adc.c     ****     HAL_GPIO_Init(GPIOB, &GPIO_InitStruct);
 158:Src/adc.c     **** 
 159:Src/adc.c     ****     /* ADC1 DMA Init */
 160:Src/adc.c     ****     /* ADC1 Init */
 161:Src/adc.c     ****     hdma_adc1.Instance = DMA1_Channel1;
 162:Src/adc.c     ****     hdma_adc1.Init.Direction = DMA_PERIPH_TO_MEMORY;
 163:Src/adc.c     ****     hdma_adc1.Init.PeriphInc = DMA_PINC_DISABLE;
 164:Src/adc.c     ****     hdma_adc1.Init.MemInc = DMA_MINC_ENABLE;
 165:Src/adc.c     ****     hdma_adc1.Init.PeriphDataAlignment = DMA_PDATAALIGN_WORD;
 166:Src/adc.c     ****     hdma_adc1.Init.MemDataAlignment = DMA_MDATAALIGN_WORD;
 167:Src/adc.c     ****     hdma_adc1.Init.Mode = DMA_CIRCULAR;
 168:Src/adc.c     ****     hdma_adc1.Init.Priority = DMA_PRIORITY_LOW;
 169:Src/adc.c     ****     if (HAL_DMA_Init(&hdma_adc1) != HAL_OK)
 170:Src/adc.c     ****     {
 171:Src/adc.c     ****       Error_Handler();
 172:Src/adc.c     ****     }
 173:Src/adc.c     **** 
 174:Src/adc.c     ****     __HAL_LINKDMA(adcHandle,DMA_Handle,hdma_adc1);
 175:Src/adc.c     **** 
 176:Src/adc.c     ****   /* USER CODE BEGIN ADC1_MspInit 1 */
 177:Src/adc.c     **** 
 178:Src/adc.c     ****   /* USER CODE END ADC1_MspInit 1 */
 179:Src/adc.c     ****   }
 180:Src/adc.c     **** }
 296              		.loc 1 180 1 view .LVU88
 297 0016 09B0     		add	sp, sp, #36
 298              		.cfi_remember_state
 299              		.cfi_def_cfa_offset 12
 300              		@ sp needed
 301 0018 30BD     		pop	{r4, r5, pc}
 302              	.LVL18:
 303              	.L25:
 304              		.cfi_restore_state
 305              		.loc 1 180 1 view .LVU89
 306 001a 0446     		mov	r4, r0
 137:Src/adc.c     **** 
 307              		.loc 1 137 5 is_stmt 1 view .LVU90
 308              	.LBB2:
 137:Src/adc.c     **** 
 309              		.loc 1 137 5 view .LVU91
 137:Src/adc.c     **** 
 310              		.loc 1 137 5 view .LVU92
 311 001c 03F56C43 		add	r3, r3, #60416
 312 0020 9A69     		ldr	r2, [r3, #24]
 313 0022 42F40072 		orr	r2, r2, #512
 314 0026 9A61     		str	r2, [r3, #24]
 137:Src/adc.c     **** 
 315              		.loc 1 137 5 view .LVU93
 316 0028 9A69     		ldr	r2, [r3, #24]
 317 002a 02F40072 		and	r2, r2, #512
 318 002e 0192     		str	r2, [sp, #4]
 137:Src/adc.c     **** 
 319              		.loc 1 137 5 view .LVU94
 320 0030 019A     		ldr	r2, [sp, #4]
 321              	.LBE2:
 137:Src/adc.c     **** 
 322              		.loc 1 137 5 view .LVU95
ARM GAS  /tmp/ccdEoO1I.s 			page 10


 139:Src/adc.c     ****     __HAL_RCC_GPIOB_CLK_ENABLE();
 323              		.loc 1 139 5 view .LVU96
 324              	.LBB3:
 139:Src/adc.c     ****     __HAL_RCC_GPIOB_CLK_ENABLE();
 325              		.loc 1 139 5 view .LVU97
 139:Src/adc.c     ****     __HAL_RCC_GPIOB_CLK_ENABLE();
 326              		.loc 1 139 5 view .LVU98
 327 0032 9A69     		ldr	r2, [r3, #24]
 328 0034 42F00402 		orr	r2, r2, #4
 329 0038 9A61     		str	r2, [r3, #24]
 139:Src/adc.c     ****     __HAL_RCC_GPIOB_CLK_ENABLE();
 330              		.loc 1 139 5 view .LVU99
 331 003a 9A69     		ldr	r2, [r3, #24]
 332 003c 02F00402 		and	r2, r2, #4
 333 0040 0292     		str	r2, [sp, #8]
 139:Src/adc.c     ****     __HAL_RCC_GPIOB_CLK_ENABLE();
 334              		.loc 1 139 5 view .LVU100
 335 0042 029A     		ldr	r2, [sp, #8]
 336              	.LBE3:
 139:Src/adc.c     ****     __HAL_RCC_GPIOB_CLK_ENABLE();
 337              		.loc 1 139 5 view .LVU101
 140:Src/adc.c     ****     /**ADC1 GPIO Configuration
 338              		.loc 1 140 5 view .LVU102
 339              	.LBB4:
 140:Src/adc.c     ****     /**ADC1 GPIO Configuration
 340              		.loc 1 140 5 view .LVU103
 140:Src/adc.c     ****     /**ADC1 GPIO Configuration
 341              		.loc 1 140 5 view .LVU104
 342 0044 9A69     		ldr	r2, [r3, #24]
 343 0046 42F00802 		orr	r2, r2, #8
 344 004a 9A61     		str	r2, [r3, #24]
 140:Src/adc.c     ****     /**ADC1 GPIO Configuration
 345              		.loc 1 140 5 view .LVU105
 346 004c 9B69     		ldr	r3, [r3, #24]
 347 004e 03F00803 		and	r3, r3, #8
 348 0052 0393     		str	r3, [sp, #12]
 140:Src/adc.c     ****     /**ADC1 GPIO Configuration
 349              		.loc 1 140 5 view .LVU106
 350 0054 039B     		ldr	r3, [sp, #12]
 351              	.LBE4:
 140:Src/adc.c     ****     /**ADC1 GPIO Configuration
 352              		.loc 1 140 5 view .LVU107
 150:Src/adc.c     ****                           |GPIO_PIN_7;
 353              		.loc 1 150 5 view .LVU108
 150:Src/adc.c     ****                           |GPIO_PIN_7;
 354              		.loc 1 150 25 is_stmt 0 view .LVU109
 355 0056 F823     		movs	r3, #248
 356 0058 0493     		str	r3, [sp, #16]
 152:Src/adc.c     ****     HAL_GPIO_Init(GPIOA, &GPIO_InitStruct);
 357              		.loc 1 152 5 is_stmt 1 view .LVU110
 152:Src/adc.c     ****     HAL_GPIO_Init(GPIOA, &GPIO_InitStruct);
 358              		.loc 1 152 26 is_stmt 0 view .LVU111
 359 005a 0325     		movs	r5, #3
 360 005c 0595     		str	r5, [sp, #20]
 153:Src/adc.c     **** 
 361              		.loc 1 153 5 is_stmt 1 view .LVU112
 362 005e 04A9     		add	r1, sp, #16
ARM GAS  /tmp/ccdEoO1I.s 			page 11


 363 0060 1248     		ldr	r0, .L27+4
 364              	.LVL19:
 153:Src/adc.c     **** 
 365              		.loc 1 153 5 is_stmt 0 view .LVU113
 366 0062 FFF7FEFF 		bl	HAL_GPIO_Init
 367              	.LVL20:
 155:Src/adc.c     ****     GPIO_InitStruct.Mode = GPIO_MODE_ANALOG;
 368              		.loc 1 155 5 is_stmt 1 view .LVU114
 155:Src/adc.c     ****     GPIO_InitStruct.Mode = GPIO_MODE_ANALOG;
 369              		.loc 1 155 25 is_stmt 0 view .LVU115
 370 0066 0495     		str	r5, [sp, #16]
 156:Src/adc.c     ****     HAL_GPIO_Init(GPIOB, &GPIO_InitStruct);
 371              		.loc 1 156 5 is_stmt 1 view .LVU116
 156:Src/adc.c     ****     HAL_GPIO_Init(GPIOB, &GPIO_InitStruct);
 372              		.loc 1 156 26 is_stmt 0 view .LVU117
 373 0068 0595     		str	r5, [sp, #20]
 157:Src/adc.c     **** 
 374              		.loc 1 157 5 is_stmt 1 view .LVU118
 375 006a 04A9     		add	r1, sp, #16
 376 006c 1048     		ldr	r0, .L27+8
 377 006e FFF7FEFF 		bl	HAL_GPIO_Init
 378              	.LVL21:
 161:Src/adc.c     ****     hdma_adc1.Init.Direction = DMA_PERIPH_TO_MEMORY;
 379              		.loc 1 161 5 view .LVU119
 161:Src/adc.c     ****     hdma_adc1.Init.Direction = DMA_PERIPH_TO_MEMORY;
 380              		.loc 1 161 24 is_stmt 0 view .LVU120
 381 0072 1048     		ldr	r0, .L27+12
 382 0074 104B     		ldr	r3, .L27+16
 383 0076 0360     		str	r3, [r0]
 162:Src/adc.c     ****     hdma_adc1.Init.PeriphInc = DMA_PINC_DISABLE;
 384              		.loc 1 162 5 is_stmt 1 view .LVU121
 162:Src/adc.c     ****     hdma_adc1.Init.PeriphInc = DMA_PINC_DISABLE;
 385              		.loc 1 162 30 is_stmt 0 view .LVU122
 386 0078 0023     		movs	r3, #0
 387 007a 4360     		str	r3, [r0, #4]
 163:Src/adc.c     ****     hdma_adc1.Init.MemInc = DMA_MINC_ENABLE;
 388              		.loc 1 163 5 is_stmt 1 view .LVU123
 163:Src/adc.c     ****     hdma_adc1.Init.MemInc = DMA_MINC_ENABLE;
 389              		.loc 1 163 30 is_stmt 0 view .LVU124
 390 007c 8360     		str	r3, [r0, #8]
 164:Src/adc.c     ****     hdma_adc1.Init.PeriphDataAlignment = DMA_PDATAALIGN_WORD;
 391              		.loc 1 164 5 is_stmt 1 view .LVU125
 164:Src/adc.c     ****     hdma_adc1.Init.PeriphDataAlignment = DMA_PDATAALIGN_WORD;
 392              		.loc 1 164 27 is_stmt 0 view .LVU126
 393 007e 8022     		movs	r2, #128
 394 0080 C260     		str	r2, [r0, #12]
 165:Src/adc.c     ****     hdma_adc1.Init.MemDataAlignment = DMA_MDATAALIGN_WORD;
 395              		.loc 1 165 5 is_stmt 1 view .LVU127
 165:Src/adc.c     ****     hdma_adc1.Init.MemDataAlignment = DMA_MDATAALIGN_WORD;
 396              		.loc 1 165 40 is_stmt 0 view .LVU128
 397 0082 4FF40072 		mov	r2, #512
 398 0086 0261     		str	r2, [r0, #16]
 166:Src/adc.c     ****     hdma_adc1.Init.Mode = DMA_CIRCULAR;
 399              		.loc 1 166 5 is_stmt 1 view .LVU129
 166:Src/adc.c     ****     hdma_adc1.Init.Mode = DMA_CIRCULAR;
 400              		.loc 1 166 37 is_stmt 0 view .LVU130
 401 0088 4FF40062 		mov	r2, #2048
ARM GAS  /tmp/ccdEoO1I.s 			page 12


 402 008c 4261     		str	r2, [r0, #20]
 167:Src/adc.c     ****     hdma_adc1.Init.Priority = DMA_PRIORITY_LOW;
 403              		.loc 1 167 5 is_stmt 1 view .LVU131
 167:Src/adc.c     ****     hdma_adc1.Init.Priority = DMA_PRIORITY_LOW;
 404              		.loc 1 167 25 is_stmt 0 view .LVU132
 405 008e 2022     		movs	r2, #32
 406 0090 8261     		str	r2, [r0, #24]
 168:Src/adc.c     ****     if (HAL_DMA_Init(&hdma_adc1) != HAL_OK)
 407              		.loc 1 168 5 is_stmt 1 view .LVU133
 168:Src/adc.c     ****     if (HAL_DMA_Init(&hdma_adc1) != HAL_OK)
 408              		.loc 1 168 29 is_stmt 0 view .LVU134
 409 0092 C361     		str	r3, [r0, #28]
 169:Src/adc.c     ****     {
 410              		.loc 1 169 5 is_stmt 1 view .LVU135
 169:Src/adc.c     ****     {
 411              		.loc 1 169 9 is_stmt 0 view .LVU136
 412 0094 FFF7FEFF 		bl	HAL_DMA_Init
 413              	.LVL22:
 169:Src/adc.c     ****     {
 414              		.loc 1 169 8 discriminator 1 view .LVU137
 415 0098 18B9     		cbnz	r0, .L26
 416              	.L23:
 174:Src/adc.c     **** 
 417              		.loc 1 174 5 is_stmt 1 view .LVU138
 174:Src/adc.c     **** 
 418              		.loc 1 174 5 view .LVU139
 419 009a 064B     		ldr	r3, .L27+12
 420 009c 2362     		str	r3, [r4, #32]
 174:Src/adc.c     **** 
 421              		.loc 1 174 5 view .LVU140
 422 009e 5C62     		str	r4, [r3, #36]
 174:Src/adc.c     **** 
 423              		.loc 1 174 5 discriminator 1 view .LVU141
 424              		.loc 1 180 1 is_stmt 0 view .LVU142
 425 00a0 B9E7     		b	.L21
 426              	.L26:
 171:Src/adc.c     ****     }
 427              		.loc 1 171 7 is_stmt 1 view .LVU143
 428 00a2 FFF7FEFF 		bl	Error_Handler
 429              	.LVL23:
 430 00a6 F8E7     		b	.L23
 431              	.L28:
 432              		.align	2
 433              	.L27:
 434 00a8 00240140 		.word	1073816576
 435 00ac 00080140 		.word	1073809408
 436 00b0 000C0140 		.word	1073810432
 437 00b4 00000000 		.word	hdma_adc1
 438 00b8 08000240 		.word	1073872904
 439              		.cfi_endproc
 440              	.LFE66:
 442              		.section	.text.HAL_ADC_MspDeInit,"ax",%progbits
 443              		.align	1
 444              		.global	HAL_ADC_MspDeInit
 445              		.syntax unified
 446              		.thumb
 447              		.thumb_func
ARM GAS  /tmp/ccdEoO1I.s 			page 13


 449              	HAL_ADC_MspDeInit:
 450              	.LVL24:
 451              	.LFB67:
 181:Src/adc.c     **** 
 182:Src/adc.c     **** void HAL_ADC_MspDeInit(ADC_HandleTypeDef* adcHandle)
 183:Src/adc.c     **** {
 452              		.loc 1 183 1 view -0
 453              		.cfi_startproc
 454              		@ args = 0, pretend = 0, frame = 0
 455              		@ frame_needed = 0, uses_anonymous_args = 0
 184:Src/adc.c     **** 
 185:Src/adc.c     ****   if(adcHandle->Instance==ADC1)
 456              		.loc 1 185 3 view .LVU145
 457              		.loc 1 185 15 is_stmt 0 view .LVU146
 458 0000 0268     		ldr	r2, [r0]
 459              		.loc 1 185 5 view .LVU147
 460 0002 0B4B     		ldr	r3, .L36
 461 0004 9A42     		cmp	r2, r3
 462 0006 00D0     		beq	.L35
 463 0008 7047     		bx	lr
 464              	.L35:
 183:Src/adc.c     **** 
 465              		.loc 1 183 1 view .LVU148
 466 000a 10B5     		push	{r4, lr}
 467              		.cfi_def_cfa_offset 8
 468              		.cfi_offset 4, -8
 469              		.cfi_offset 14, -4
 470 000c 0446     		mov	r4, r0
 186:Src/adc.c     ****   {
 187:Src/adc.c     ****   /* USER CODE BEGIN ADC1_MspDeInit 0 */
 188:Src/adc.c     **** 
 189:Src/adc.c     ****   /* USER CODE END ADC1_MspDeInit 0 */
 190:Src/adc.c     ****     /* Peripheral clock disable */
 191:Src/adc.c     ****     __HAL_RCC_ADC1_CLK_DISABLE();
 471              		.loc 1 191 5 is_stmt 1 view .LVU149
 472 000e 094A     		ldr	r2, .L36+4
 473 0010 9369     		ldr	r3, [r2, #24]
 474 0012 23F40073 		bic	r3, r3, #512
 475 0016 9361     		str	r3, [r2, #24]
 192:Src/adc.c     **** 
 193:Src/adc.c     ****     /**ADC1 GPIO Configuration
 194:Src/adc.c     ****     PA3     ------> ADC1_IN3
 195:Src/adc.c     ****     PA4     ------> ADC1_IN4
 196:Src/adc.c     ****     PA5     ------> ADC1_IN5
 197:Src/adc.c     ****     PA6     ------> ADC1_IN6
 198:Src/adc.c     ****     PA7     ------> ADC1_IN7
 199:Src/adc.c     ****     PB0     ------> ADC1_IN8
 200:Src/adc.c     ****     PB1     ------> ADC1_IN9
 201:Src/adc.c     ****     */
 202:Src/adc.c     ****     HAL_GPIO_DeInit(GPIOA, GPIO_PIN_3|GPIO_PIN_4|GPIO_PIN_5|GPIO_PIN_6
 476              		.loc 1 202 5 view .LVU150
 477 0018 F821     		movs	r1, #248
 478 001a 0748     		ldr	r0, .L36+8
 479              	.LVL25:
 480              		.loc 1 202 5 is_stmt 0 view .LVU151
 481 001c FFF7FEFF 		bl	HAL_GPIO_DeInit
 482              	.LVL26:
ARM GAS  /tmp/ccdEoO1I.s 			page 14


 203:Src/adc.c     ****                           |GPIO_PIN_7);
 204:Src/adc.c     **** 
 205:Src/adc.c     ****     HAL_GPIO_DeInit(GPIOB, Current_Pin|GPIO_PIN_1);
 483              		.loc 1 205 5 is_stmt 1 view .LVU152
 484 0020 0321     		movs	r1, #3
 485 0022 0648     		ldr	r0, .L36+12
 486 0024 FFF7FEFF 		bl	HAL_GPIO_DeInit
 487              	.LVL27:
 206:Src/adc.c     **** 
 207:Src/adc.c     ****     /* ADC1 DMA DeInit */
 208:Src/adc.c     ****     HAL_DMA_DeInit(adcHandle->DMA_Handle);
 488              		.loc 1 208 5 view .LVU153
 489 0028 206A     		ldr	r0, [r4, #32]
 490 002a FFF7FEFF 		bl	HAL_DMA_DeInit
 491              	.LVL28:
 209:Src/adc.c     ****   /* USER CODE BEGIN ADC1_MspDeInit 1 */
 210:Src/adc.c     **** 
 211:Src/adc.c     ****   /* USER CODE END ADC1_MspDeInit 1 */
 212:Src/adc.c     ****   }
 213:Src/adc.c     **** }
 492              		.loc 1 213 1 is_stmt 0 view .LVU154
 493 002e 10BD     		pop	{r4, pc}
 494              	.LVL29:
 495              	.L37:
 496              		.loc 1 213 1 view .LVU155
 497              		.align	2
 498              	.L36:
 499 0030 00240140 		.word	1073816576
 500 0034 00100240 		.word	1073876992
 501 0038 00080140 		.word	1073809408
 502 003c 000C0140 		.word	1073810432
 503              		.cfi_endproc
 504              	.LFE67:
 506              		.global	hdma_adc1
 507              		.section	.bss.hdma_adc1,"aw",%nobits
 508              		.align	2
 511              	hdma_adc1:
 512 0000 00000000 		.space	68
 512      00000000 
 512      00000000 
 512      00000000 
 512      00000000 
 513              		.global	hadc1
 514              		.section	.bss.hadc1,"aw",%nobits
 515              		.align	2
 518              	hadc1:
 519 0000 00000000 		.space	48
 519      00000000 
 519      00000000 
 519      00000000 
 519      00000000 
 520              		.text
 521              	.Letext0:
 522              		.file 2 "/usr/lib/gcc/arm-none-eabi/13.3.1/include/stdint.h"
 523              		.file 3 "Drivers/CMSIS/Device/ST/STM32F1xx/Include/stm32f103xb.h"
 524              		.file 4 "Drivers/CMSIS/Device/ST/STM32F1xx/Include/stm32f1xx.h"
 525              		.file 5 "Drivers/STM32F1xx_HAL_Driver/Inc/stm32f1xx_hal_def.h"
ARM GAS  /tmp/ccdEoO1I.s 			page 15


 526              		.file 6 "Drivers/STM32F1xx_HAL_Driver/Inc/stm32f1xx_hal_gpio.h"
 527              		.file 7 "Drivers/STM32F1xx_HAL_Driver/Inc/stm32f1xx_hal_dma.h"
 528              		.file 8 "Drivers/STM32F1xx_HAL_Driver/Inc/stm32f1xx_hal_adc.h"
 529              		.file 9 "Inc/adc.h"
 530              		.file 10 "Inc/main.h"
ARM GAS  /tmp/ccdEoO1I.s 			page 16


DEFINED SYMBOLS
                            *ABS*:00000000 adc.c
     /tmp/ccdEoO1I.s:19     .text.MX_ADC1_Init:00000000 $t
     /tmp/ccdEoO1I.s:25     .text.MX_ADC1_Init:00000000 MX_ADC1_Init
     /tmp/ccdEoO1I.s:253    .text.MX_ADC1_Init:000000f0 $d
     /tmp/ccdEoO1I.s:518    .bss.hadc1:00000000 hadc1
     /tmp/ccdEoO1I.s:259    .text.HAL_ADC_MspInit:00000000 $t
     /tmp/ccdEoO1I.s:265    .text.HAL_ADC_MspInit:00000000 HAL_ADC_MspInit
     /tmp/ccdEoO1I.s:434    .text.HAL_ADC_MspInit:000000a8 $d
     /tmp/ccdEoO1I.s:511    .bss.hdma_adc1:00000000 hdma_adc1
     /tmp/ccdEoO1I.s:443    .text.HAL_ADC_MspDeInit:00000000 $t
     /tmp/ccdEoO1I.s:449    .text.HAL_ADC_MspDeInit:00000000 HAL_ADC_MspDeInit
     /tmp/ccdEoO1I.s:499    .text.HAL_ADC_MspDeInit:00000030 $d
     /tmp/ccdEoO1I.s:508    .bss.hdma_adc1:00000000 $d
     /tmp/ccdEoO1I.s:515    .bss.hadc1:00000000 $d

UNDEFINED SYMBOLS
HAL_ADC_Init
HAL_ADC_ConfigChannel
Error_Handler
HAL_GPIO_Init
HAL_DMA_Init
HAL_GPIO_DeInit
HAL_DMA_DeInit
