ARM GAS  /tmp/ccliS7gp.s 			page 1


   1              		.cpu cortex-m3
   2              		.arch armv7-m
   3              		.fpu softvfp
   4              		.eabi_attribute 20, 1
   5              		.eabi_attribute 21, 1
   6              		.eabi_attribute 23, 3
   7              		.eabi_attribute 24, 1
   8              		.eabi_attribute 25, 1
   9              		.eabi_attribute 26, 1
  10              		.eabi_attribute 30, 1
  11              		.eabi_attribute 34, 1
  12              		.eabi_attribute 18, 4
  13              		.file	"debug_monitor.c"
  14              		.text
  15              	.Ltext0:
  16              		.cfi_sections	.debug_frame
  17              		.file 1 "Src/Zeugma_c/debug_monitor.c"
  18              		.section	.rodata.log_variable.str1.4,"aMS",%progbits,1
  19              		.align	2
  20              	.LC0:
  21 0000 25733A25 		.ascii	"%s:%u,\000"
  21      752C00
  22              		.section	.text.log_variable,"ax",%progbits
  23              		.align	1
  24              		.global	log_variable
  25              		.syntax unified
  26              		.thumb
  27              		.thumb_func
  29              	log_variable:
  30              	.LVL0:
  31              	.LFB68:
   1:Src/Zeugma_c/debug_monitor.c **** #include "debug_monitor.h"
   2:Src/Zeugma_c/debug_monitor.c **** #include "usbd_cdc_if.h"
   3:Src/Zeugma_c/debug_monitor.c **** #include "usb_device.h"
   4:Src/Zeugma_c/debug_monitor.c **** 
   5:Src/Zeugma_c/debug_monitor.c **** char log_buffer[BUFFER_SIZE];
   6:Src/Zeugma_c/debug_monitor.c **** int log_length = 0;
   7:Src/Zeugma_c/debug_monitor.c **** 
   8:Src/Zeugma_c/debug_monitor.c **** void log_variable(const char *name, unsigned int value) {
  32              		.loc 1 8 57 view -0
  33              		.cfi_startproc
  34              		@ args = 0, pretend = 0, frame = 0
  35              		@ frame_needed = 0, uses_anonymous_args = 0
  36              		.loc 1 8 57 is_stmt 0 view .LVU1
  37 0000 30B5     		push	{r4, r5, lr}
  38              		.cfi_def_cfa_offset 12
  39              		.cfi_offset 4, -12
  40              		.cfi_offset 5, -8
  41              		.cfi_offset 14, -4
  42 0002 83B0     		sub	sp, sp, #12
  43              		.cfi_def_cfa_offset 24
  44 0004 0346     		mov	r3, r0
   9:Src/Zeugma_c/debug_monitor.c ****     int len = snprintf(log_buffer + log_length, BUFFER_SIZE - log_length, "%s:%u,", name, value);
  45              		.loc 1 9 5 is_stmt 1 view .LVU2
  46              		.loc 1 9 15 is_stmt 0 view .LVU3
  47 0006 074C     		ldr	r4, .L3
  48 0008 2568     		ldr	r5, [r4]
ARM GAS  /tmp/ccliS7gp.s 			page 2


  49 000a 0091     		str	r1, [sp]
  50 000c 064A     		ldr	r2, .L3+4
  51 000e C5F50071 		rsb	r1, r5, #512
  52              	.LVL1:
  53              		.loc 1 9 15 view .LVU4
  54 0012 0648     		ldr	r0, .L3+8
  55              	.LVL2:
  56              		.loc 1 9 15 view .LVU5
  57 0014 2844     		add	r0, r0, r5
  58 0016 FFF7FEFF 		bl	snprintf
  59              	.LVL3:
  10:Src/Zeugma_c/debug_monitor.c ****     log_length += len;
  60              		.loc 1 10 5 is_stmt 1 view .LVU6
  61              		.loc 1 10 16 is_stmt 0 view .LVU7
  62 001a 2368     		ldr	r3, [r4]
  63 001c 0344     		add	r3, r3, r0
  64 001e 2360     		str	r3, [r4]
  11:Src/Zeugma_c/debug_monitor.c **** }
  65              		.loc 1 11 1 view .LVU8
  66 0020 03B0     		add	sp, sp, #12
  67              		.cfi_def_cfa_offset 12
  68              		@ sp needed
  69 0022 30BD     		pop	{r4, r5, pc}
  70              	.L4:
  71              		.align	2
  72              	.L3:
  73 0024 00000000 		.word	log_length
  74 0028 00000000 		.word	.LC0
  75 002c 00000000 		.word	log_buffer
  76              		.cfi_endproc
  77              	.LFE68:
  79              		.section	.text.LOG_POST,"ax",%progbits
  80              		.align	1
  81              		.global	LOG_POST
  82              		.syntax unified
  83              		.thumb
  84              		.thumb_func
  86              	LOG_POST:
  87              	.LFB69:
  12:Src/Zeugma_c/debug_monitor.c **** 
  13:Src/Zeugma_c/debug_monitor.c **** void LOG_POST() {
  88              		.loc 1 13 17 is_stmt 1 view -0
  89              		.cfi_startproc
  90              		@ args = 0, pretend = 0, frame = 0
  91              		@ frame_needed = 0, uses_anonymous_args = 0
  92 0000 08B5     		push	{r3, lr}
  93              		.cfi_def_cfa_offset 8
  94              		.cfi_offset 3, -8
  95              		.cfi_offset 14, -4
  14:Src/Zeugma_c/debug_monitor.c ****     if (log_length > 0) {
  96              		.loc 1 14 5 view .LVU10
  97              		.loc 1 14 20 is_stmt 0 view .LVU11
  98 0002 094B     		ldr	r3, .L9
  99 0004 1968     		ldr	r1, [r3]
 100              		.loc 1 14 8 view .LVU12
 101 0006 0029     		cmp	r1, #0
 102 0008 05DC     		bgt	.L8
ARM GAS  /tmp/ccliS7gp.s 			page 3


 103              	.L6:
  15:Src/Zeugma_c/debug_monitor.c ****         log_buffer[log_length - 1] = '\n';
  16:Src/Zeugma_c/debug_monitor.c ****         CDC_Transmit_FS((uint8_t *)log_buffer, log_length);
  17:Src/Zeugma_c/debug_monitor.c ****     }
  18:Src/Zeugma_c/debug_monitor.c ****     log_length = 0; 
 104              		.loc 1 18 5 is_stmt 1 view .LVU13
 105              		.loc 1 18 16 is_stmt 0 view .LVU14
 106 000a 0023     		movs	r3, #0
 107 000c 064A     		ldr	r2, .L9
 108 000e 1360     		str	r3, [r2]
  19:Src/Zeugma_c/debug_monitor.c ****     log_buffer[0] = '\0';
 109              		.loc 1 19 5 is_stmt 1 view .LVU15
 110              		.loc 1 19 19 is_stmt 0 view .LVU16
 111 0010 064A     		ldr	r2, .L9+4
 112 0012 1370     		strb	r3, [r2]
  20:Src/Zeugma_c/debug_monitor.c **** }...
 113              		.loc 1 20 1 view .LVU17
 114 0014 08BD     		pop	{r3, pc}
 115              	.L8:
  15:Src/Zeugma_c/debug_monitor.c ****         log_buffer[log_length - 1] = '\n';
 116              		.loc 1 15 9 is_stmt 1 view .LVU18
  15:Src/Zeugma_c/debug_monitor.c ****         log_buffer[log_length - 1] = '\n';
 117              		.loc 1 15 31 is_stmt 0 view .LVU19
 118 0016 4B1E     		subs	r3, r1, #1
  15:Src/Zeugma_c/debug_monitor.c ****         log_buffer[log_length - 1] = '\n';
 119              		.loc 1 15 36 view .LVU20
 120 0018 0448     		ldr	r0, .L9+4
 121 001a 0A22     		movs	r2, #10
 122 001c C254     		strb	r2, [r0, r3]
  16:Src/Zeugma_c/debug_monitor.c ****         CDC_Transmit_FS((uint8_t *)log_buffer, log_length);
 123              		.loc 1 16 9 is_stmt 1 view .LVU21
 124 001e 89B2     		uxth	r1, r1
 125 0020 FFF7FEFF 		bl	CDC_Transmit_FS
 126              	.LVL4:
 127 0024 F1E7     		b	.L6
 128              	.L10:
 129 0026 00BF     		.align	2
 130              	.L9:
 131 0028 00000000 		.word	log_length
 132 002c 00000000 		.word	log_buffer
 133              		.cfi_endproc
 134              	.LFE69:
 136              		.global	log_length
 137              		.section	.bss.log_length,"aw",%nobits
 138              		.align	2
 141              	log_length:
 142 0000 00000000 		.space	4
 143              		.global	log_buffer
 144              		.section	.bss.log_buffer,"aw",%nobits
 145              		.align	2
 148              	log_buffer:
 149 0000 00000000 		.space	512
 149      00000000 
 149      00000000 
 149      00000000 
 149      00000000 
 150              		.text
ARM GAS  /tmp/ccliS7gp.s 			page 4


 151              	.Letext0:
 152              		.file 2 "/usr/lib/gcc/arm-none-eabi/13.3.1/include/stdint.h"
 153              		.file 3 "/usr/lib/gcc/arm-none-eabi/13.3.1/include/stddef.h"
 154              		.file 4 "Inc/usbd_cdc_if.h"
 155              		.file 5 "/usr/include/newlib/stdio.h"
ARM GAS  /tmp/ccliS7gp.s 			page 5

