ARM GAS  /tmp/ccGYBzKY.s 			page 1


   1              		.cpu cortex-m3
   2              		.arch armv7-m
   3              		.fpu softvfp
   4              		.eabi_attribute 20, 1
   5              		.eabi_attribute 21, 1
   6              		.eabi_attribute 23, 3
   7              		.eabi_attribute 24, 1
   8              		.eabi_attribute 25, 1
   9              		.eabi_attribute 26, 1
  10              		.eabi_attribute 30, 1
  11              		.eabi_attribute 34, 1
  12              		.eabi_attribute 18, 4
  13              		.file	"gpio.c"
  14              		.text
  15              	.Ltext0:
  16              		.cfi_sections	.debug_frame
  17              		.file 1 "Src/gpio.c"
  18              		.section	.text.MX_GPIO_Init,"ax",%progbits
  19              		.align	1
  20              		.global	MX_GPIO_Init
  21              		.syntax unified
  22              		.thumb
  23              		.thumb_func
  25              	MX_GPIO_Init:
  26              	.LFB65:
   1:Src/gpio.c    **** /* USER CODE BEGIN Header */
   2:Src/gpio.c    **** /**
   3:Src/gpio.c    ****   ******************************************************************************
   4:Src/gpio.c    ****   * @file    gpio.c
   5:Src/gpio.c    ****   * @brief   This file provides code for the configuration
   6:Src/gpio.c    ****   *          of all used GPIO pins.
   7:Src/gpio.c    ****   ******************************************************************************
   8:Src/gpio.c    ****   * @attention
   9:Src/gpio.c    ****   *
  10:Src/gpio.c    ****   * Copyright (c) 2024 STMicroelectronics.
  11:Src/gpio.c    ****   * All rights reserved.
  12:Src/gpio.c    ****   *
  13:Src/gpio.c    ****   * This software is licensed under terms that can be found in the LICENSE file
  14:Src/gpio.c    ****   * in the root directory of this software component.
  15:Src/gpio.c    ****   * If no LICENSE file comes with this software, it is provided AS-IS.
  16:Src/gpio.c    ****   *
  17:Src/gpio.c    ****   ******************************************************************************
  18:Src/gpio.c    ****   */
  19:Src/gpio.c    **** /* USER CODE END Header */
  20:Src/gpio.c    **** 
  21:Src/gpio.c    **** /* Includes ------------------------------------------------------------------*/
  22:Src/gpio.c    **** #include "gpio.h"
  23:Src/gpio.c    **** 
  24:Src/gpio.c    **** /* USER CODE BEGIN 0 */
  25:Src/gpio.c    **** 
  26:Src/gpio.c    **** /* USER CODE END 0 */
  27:Src/gpio.c    **** 
  28:Src/gpio.c    **** /*----------------------------------------------------------------------------*/
  29:Src/gpio.c    **** /* Configure GPIO                                                             */
  30:Src/gpio.c    **** /*----------------------------------------------------------------------------*/
  31:Src/gpio.c    **** /* USER CODE BEGIN 1 */
  32:Src/gpio.c    **** 
ARM GAS  /tmp/ccGYBzKY.s 			page 2


  33:Src/gpio.c    **** /* USER CODE END 1 */
  34:Src/gpio.c    **** 
  35:Src/gpio.c    **** /** Configure pins as
  36:Src/gpio.c    ****         * Analog
  37:Src/gpio.c    ****         * Input
  38:Src/gpio.c    ****         * Output
  39:Src/gpio.c    ****         * EVENT_OUT
  40:Src/gpio.c    ****         * EXTI
  41:Src/gpio.c    **** */
  42:Src/gpio.c    **** void MX_GPIO_Init(void)
  43:Src/gpio.c    **** {
  27              		.loc 1 43 1 view -0
  28              		.cfi_startproc
  29              		@ args = 0, pretend = 0, frame = 32
  30              		@ frame_needed = 0, uses_anonymous_args = 0
  31 0000 30B5     		push	{r4, r5, lr}
  32              		.cfi_def_cfa_offset 12
  33              		.cfi_offset 4, -12
  34              		.cfi_offset 5, -8
  35              		.cfi_offset 14, -4
  36 0002 89B0     		sub	sp, sp, #36
  37              		.cfi_def_cfa_offset 48
  44:Src/gpio.c    **** 
  45:Src/gpio.c    ****   GPIO_InitTypeDef GPIO_InitStruct = {0};
  38              		.loc 1 45 3 view .LVU1
  39              		.loc 1 45 20 is_stmt 0 view .LVU2
  40 0004 0024     		movs	r4, #0
  41 0006 0494     		str	r4, [sp, #16]
  42 0008 0594     		str	r4, [sp, #20]
  43 000a 0694     		str	r4, [sp, #24]
  44 000c 0794     		str	r4, [sp, #28]
  46:Src/gpio.c    **** 
  47:Src/gpio.c    ****   /* GPIO Ports Clock Enable */
  48:Src/gpio.c    ****   __HAL_RCC_GPIOC_CLK_ENABLE();
  45              		.loc 1 48 3 is_stmt 1 view .LVU3
  46              	.LBB2:
  47              		.loc 1 48 3 view .LVU4
  48              		.loc 1 48 3 view .LVU5
  49 000e 314B     		ldr	r3, .L3
  50 0010 9A69     		ldr	r2, [r3, #24]
  51 0012 42F01002 		orr	r2, r2, #16
  52 0016 9A61     		str	r2, [r3, #24]
  53              		.loc 1 48 3 view .LVU6
  54 0018 9A69     		ldr	r2, [r3, #24]
  55 001a 02F01002 		and	r2, r2, #16
  56 001e 0092     		str	r2, [sp]
  57              		.loc 1 48 3 view .LVU7
  58 0020 009A     		ldr	r2, [sp]
  59              	.LBE2:
  60              		.loc 1 48 3 view .LVU8
  49:Src/gpio.c    ****   __HAL_RCC_GPIOD_CLK_ENABLE();
  61              		.loc 1 49 3 view .LVU9
  62              	.LBB3:
  63              		.loc 1 49 3 view .LVU10
  64              		.loc 1 49 3 view .LVU11
  65 0022 9A69     		ldr	r2, [r3, #24]
  66 0024 42F02002 		orr	r2, r2, #32
ARM GAS  /tmp/ccGYBzKY.s 			page 3


  67 0028 9A61     		str	r2, [r3, #24]
  68              		.loc 1 49 3 view .LVU12
  69 002a 9A69     		ldr	r2, [r3, #24]
  70 002c 02F02002 		and	r2, r2, #32
  71 0030 0192     		str	r2, [sp, #4]
  72              		.loc 1 49 3 view .LVU13
  73 0032 019A     		ldr	r2, [sp, #4]
  74              	.LBE3:
  75              		.loc 1 49 3 view .LVU14
  50:Src/gpio.c    ****   __HAL_RCC_GPIOA_CLK_ENABLE();
  76              		.loc 1 50 3 view .LVU15
  77              	.LBB4:
  78              		.loc 1 50 3 view .LVU16
  79              		.loc 1 50 3 view .LVU17
  80 0034 9A69     		ldr	r2, [r3, #24]
  81 0036 42F00402 		orr	r2, r2, #4
  82 003a 9A61     		str	r2, [r3, #24]
  83              		.loc 1 50 3 view .LVU18
  84 003c 9A69     		ldr	r2, [r3, #24]
  85 003e 02F00402 		and	r2, r2, #4
  86 0042 0292     		str	r2, [sp, #8]
  87              		.loc 1 50 3 view .LVU19
  88 0044 029A     		ldr	r2, [sp, #8]
  89              	.LBE4:
  90              		.loc 1 50 3 view .LVU20
  51:Src/gpio.c    ****   __HAL_RCC_GPIOB_CLK_ENABLE();
  91              		.loc 1 51 3 view .LVU21
  92              	.LBB5:
  93              		.loc 1 51 3 view .LVU22
  94              		.loc 1 51 3 view .LVU23
  95 0046 9A69     		ldr	r2, [r3, #24]
  96 0048 42F00802 		orr	r2, r2, #8
  97 004c 9A61     		str	r2, [r3, #24]
  98              		.loc 1 51 3 view .LVU24
  99 004e 9B69     		ldr	r3, [r3, #24]
 100 0050 03F00803 		and	r3, r3, #8
 101 0054 0393     		str	r3, [sp, #12]
 102              		.loc 1 51 3 view .LVU25
 103 0056 039B     		ldr	r3, [sp, #12]
 104              	.LBE5:
 105              		.loc 1 51 3 view .LVU26
  52:Src/gpio.c    **** 
  53:Src/gpio.c    ****   /*Configure GPIO pin Output Level */
  54:Src/gpio.c    ****   HAL_GPIO_WritePin(GPIOC, GPIO_PIN_13|GPIO_PIN_14, GPIO_PIN_RESET);
 106              		.loc 1 54 3 view .LVU27
 107 0058 1F4D     		ldr	r5, .L3+4
 108 005a 2246     		mov	r2, r4
 109 005c 4FF4C041 		mov	r1, #24576
 110 0060 2846     		mov	r0, r5
 111 0062 FFF7FEFF 		bl	HAL_GPIO_WritePin
 112              	.LVL0:
  55:Src/gpio.c    **** 
  56:Src/gpio.c    ****   /*Configure GPIO pins : PC13 PC14 */
  57:Src/gpio.c    ****   GPIO_InitStruct.Pin = GPIO_PIN_13|GPIO_PIN_14;
 113              		.loc 1 57 3 view .LVU28
 114              		.loc 1 57 23 is_stmt 0 view .LVU29
 115 0066 4FF4C043 		mov	r3, #24576
ARM GAS  /tmp/ccGYBzKY.s 			page 4


 116 006a 0493     		str	r3, [sp, #16]
  58:Src/gpio.c    ****   GPIO_InitStruct.Mode = GPIO_MODE_OUTPUT_PP;
 117              		.loc 1 58 3 is_stmt 1 view .LVU30
 118              		.loc 1 58 24 is_stmt 0 view .LVU31
 119 006c 0123     		movs	r3, #1
 120 006e 0593     		str	r3, [sp, #20]
  59:Src/gpio.c    ****   GPIO_InitStruct.Pull = GPIO_NOPULL;
 121              		.loc 1 59 3 is_stmt 1 view .LVU32
 122              		.loc 1 59 24 is_stmt 0 view .LVU33
 123 0070 0694     		str	r4, [sp, #24]
  60:Src/gpio.c    ****   GPIO_InitStruct.Speed = GPIO_SPEED_FREQ_LOW;
 124              		.loc 1 60 3 is_stmt 1 view .LVU34
 125              		.loc 1 60 25 is_stmt 0 view .LVU35
 126 0072 0223     		movs	r3, #2
 127 0074 0793     		str	r3, [sp, #28]
  61:Src/gpio.c    ****   HAL_GPIO_Init(GPIOC, &GPIO_InitStruct);
 128              		.loc 1 61 3 is_stmt 1 view .LVU36
 129 0076 04A9     		add	r1, sp, #16
 130 0078 2846     		mov	r0, r5
 131 007a FFF7FEFF 		bl	HAL_GPIO_Init
 132              	.LVL1:
  62:Src/gpio.c    **** 
  63:Src/gpio.c    ****   /*Configure GPIO pins : PAPin PAPin PAPin */
  64:Src/gpio.c    ****   GPIO_InitStruct.Pin = HALL_1_Pin|HALL_2_Pin|HALL_3_Pin;
 133              		.loc 1 64 3 view .LVU37
 134              		.loc 1 64 23 is_stmt 0 view .LVU38
 135 007e 0725     		movs	r5, #7
 136 0080 0495     		str	r5, [sp, #16]
  65:Src/gpio.c    ****   GPIO_InitStruct.Mode = GPIO_MODE_IT_RISING_FALLING;
 137              		.loc 1 65 3 is_stmt 1 view .LVU39
 138              		.loc 1 65 24 is_stmt 0 view .LVU40
 139 0082 164B     		ldr	r3, .L3+8
 140 0084 0593     		str	r3, [sp, #20]
  66:Src/gpio.c    ****   GPIO_InitStruct.Pull = GPIO_NOPULL;
 141              		.loc 1 66 3 is_stmt 1 view .LVU41
 142              		.loc 1 66 24 is_stmt 0 view .LVU42
 143 0086 0694     		str	r4, [sp, #24]
  67:Src/gpio.c    ****   HAL_GPIO_Init(GPIOA, &GPIO_InitStruct);
 144              		.loc 1 67 3 is_stmt 1 view .LVU43
 145 0088 04A9     		add	r1, sp, #16
 146 008a 1548     		ldr	r0, .L3+12
 147 008c FFF7FEFF 		bl	HAL_GPIO_Init
 148              	.LVL2:
  68:Src/gpio.c    **** 
  69:Src/gpio.c    ****   /*Configure GPIO pin : PtPin */
  70:Src/gpio.c    ****   GPIO_InitStruct.Pin = BUMBA_Pin;
 149              		.loc 1 70 3 view .LVU44
 150              		.loc 1 70 23 is_stmt 0 view .LVU45
 151 0090 2023     		movs	r3, #32
 152 0092 0493     		str	r3, [sp, #16]
  71:Src/gpio.c    ****   GPIO_InitStruct.Mode = GPIO_MODE_INPUT;
 153              		.loc 1 71 3 is_stmt 1 view .LVU46
 154              		.loc 1 71 24 is_stmt 0 view .LVU47
 155 0094 0594     		str	r4, [sp, #20]
  72:Src/gpio.c    ****   GPIO_InitStruct.Pull = GPIO_NOPULL;
 156              		.loc 1 72 3 is_stmt 1 view .LVU48
 157              		.loc 1 72 24 is_stmt 0 view .LVU49
ARM GAS  /tmp/ccGYBzKY.s 			page 5


 158 0096 0694     		str	r4, [sp, #24]
  73:Src/gpio.c    ****   HAL_GPIO_Init(BUMBA_GPIO_Port, &GPIO_InitStruct);
 159              		.loc 1 73 3 is_stmt 1 view .LVU50
 160 0098 04A9     		add	r1, sp, #16
 161 009a 1248     		ldr	r0, .L3+16
 162 009c FFF7FEFF 		bl	HAL_GPIO_Init
 163              	.LVL3:
  74:Src/gpio.c    **** 
  75:Src/gpio.c    ****   /* EXTI interrupt init*/
  76:Src/gpio.c    ****   HAL_NVIC_SetPriority(EXTI0_IRQn, 3, 0);
 164              		.loc 1 76 3 view .LVU51
 165 00a0 2246     		mov	r2, r4
 166 00a2 0321     		movs	r1, #3
 167 00a4 0620     		movs	r0, #6
 168 00a6 FFF7FEFF 		bl	HAL_NVIC_SetPriority
 169              	.LVL4:
  77:Src/gpio.c    ****   HAL_NVIC_EnableIRQ(EXTI0_IRQn);
 170              		.loc 1 77 3 view .LVU52
 171 00aa 0620     		movs	r0, #6
 172 00ac FFF7FEFF 		bl	HAL_NVIC_EnableIRQ
 173              	.LVL5:
  78:Src/gpio.c    **** 
  79:Src/gpio.c    ****   HAL_NVIC_SetPriority(EXTI1_IRQn, 3, 0);
 174              		.loc 1 79 3 view .LVU53
 175 00b0 2246     		mov	r2, r4
 176 00b2 0321     		movs	r1, #3
 177 00b4 2846     		mov	r0, r5
 178 00b6 FFF7FEFF 		bl	HAL_NVIC_SetPriority
 179              	.LVL6:
  80:Src/gpio.c    ****   HAL_NVIC_EnableIRQ(EXTI1_IRQn);
 180              		.loc 1 80 3 view .LVU54
 181 00ba 2846     		mov	r0, r5
 182 00bc FFF7FEFF 		bl	HAL_NVIC_EnableIRQ
 183              	.LVL7:
  81:Src/gpio.c    **** 
  82:Src/gpio.c    ****   HAL_NVIC_SetPriority(EXTI2_IRQn, 3, 0);
 184              		.loc 1 82 3 view .LVU55
 185 00c0 2246     		mov	r2, r4
 186 00c2 0321     		movs	r1, #3
 187 00c4 0820     		movs	r0, #8
 188 00c6 FFF7FEFF 		bl	HAL_NVIC_SetPriority
 189              	.LVL8:
  83:Src/gpio.c    ****   HAL_NVIC_EnableIRQ(EXTI2_IRQn);
 190              		.loc 1 83 3 view .LVU56
 191 00ca 0820     		movs	r0, #8
 192 00cc FFF7FEFF 		bl	HAL_NVIC_EnableIRQ
 193              	.LVL9:
  84:Src/gpio.c    **** 
  85:Src/gpio.c    **** }
 194              		.loc 1 85 1 is_stmt 0 view .LVU57
 195 00d0 09B0     		add	sp, sp, #36
 196              		.cfi_def_cfa_offset 12
 197              		@ sp needed
 198 00d2 30BD     		pop	{r4, r5, pc}
 199              	.L4:
 200              		.align	2
 201              	.L3:
ARM GAS  /tmp/ccGYBzKY.s 			page 6


 202 00d4 00100240 		.word	1073876992
 203 00d8 00100140 		.word	1073811456
 204 00dc 00003110 		.word	271646720
 205 00e0 00080140 		.word	1073809408
 206 00e4 000C0140 		.word	1073810432
 207              		.cfi_endproc
 208              	.LFE65:
 210              		.text
 211              	.Letext0:
 212              		.file 2 "Drivers/CMSIS/Device/ST/STM32F1xx/Include/stm32f103xb.h"
 213              		.file 3 "/usr/lib/gcc/arm-none-eabi/13.3.1/include/stdint.h"
 214              		.file 4 "Drivers/STM32F1xx_HAL_Driver/Inc/stm32f1xx_hal_gpio.h"
 215              		.file 5 "Drivers/STM32F1xx_HAL_Driver/Inc/stm32f1xx_hal_cortex.h"
ARM GAS  /tmp/ccGYBzKY.s 			page 7

