
build/debug/MotorSurucuC8T6.elf:     file format elf32-littlearm

Sections:
Idx Name          Size      VMA       LMA       File off  Algn
  0 .isr_vector   0000010c  08000000  08000000  00001000  2**0
                  CONTENTS, ALLOC, LOAD, READONLY, DATA
  1 .text         00007cd4  08000110  08000110  00001110  2**3
                  CONTENTS, ALLOC, LOAD, READONLY, CODE
  2 .rodata       000000a8  08007de4  08007de4  00008de4  2**2
                  CONTENTS, ALLOC, LOAD, READONLY, DATA
  3 .ARM          00000008  08007e8c  08007e8c  00008e8c  2**2
                  CONTENTS, ALLOC, LOAD, READONLY, DATA
  4 .init_array   00000004  08007e94  08007e94  00008e94  2**2
                  CONTENTS, ALLOC, LOAD, DATA
  5 .fini_array   00000004  08007e98  08007e98  00008e98  2**2
                  CONTENTS, ALLOC, LOAD, DATA
  6 .data         000001e0  20000000  08007e9c  00009000  2**2
                  CONTENTS, ALLOC, LOAD, DATA
  7 .bss          0000179c  200001e0  0800807c  000091e0  2**2
                  ALLOC
  8 ._user_heap_stack 00000604  2000197c  0800807c  0000997c  2**0
                  ALLOC
  9 .ARM.attributes 00000029  00000000  00000000  000091e0  2**0
                  CONTENTS, READONLY
 10 .comment      00000026  00000000  00000000  00009209  2**0
                  CONTENTS, READONLY
 11 .debug_info   00023733  00000000  00000000  0000922f  2**0
                  CONTENTS, READONLY, DEBUGGING, OCTETS
 12 .debug_abbrev 00006a6e  00000000  00000000  0002c962  2**0
                  CONTENTS, READONLY, DEBUGGING, OCTETS
 13 .debug_loclists 0000d411  00000000  00000000  000333d0  2**0
                  CONTENTS, READONLY, DEBUGGING, OCTETS
 14 .debug_aranges 000015b0  00000000  00000000  000407e8  2**3
                  CONTENTS, READONLY, DEBUGGING, OCTETS
 15 .debug_rnglists 00001182  00000000  00000000  00041d98  2**0
                  CONTENTS, READONLY, DEBUGGING, OCTETS
 16 .debug_line   00015400  00000000  00000000  00042f1a  2**0
                  CONTENTS, READONLY, DEBUGGING, OCTETS
 17 .debug_str    000061dc  00000000  00000000  0005831a  2**0
                  CONTENTS, READONLY, DEBUGGING, OCTETS
 18 .debug_frame  0000352c  00000000  00000000  0005e4f8  2**2
                  CONTENTS, READONLY, DEBUGGING, OCTETS
 19 .debug_line_str 00000175  00000000  00000000  00061a24  2**0
                  CONTENTS, READONLY, DEBUGGING, OCTETS

Disassembly of section .text:

08000110 <deregister_tm_clones>:
 8000110:	4803      	ldr	r0, [pc, #12]	@ (8000120 <deregister_tm_clones+0x10>)
 8000112:	4b04      	ldr	r3, [pc, #16]	@ (8000124 <deregister_tm_clones+0x14>)
 8000114:	4283      	cmp	r3, r0
 8000116:	d002      	beq.n	800011e <deregister_tm_clones+0xe>
 8000118:	4b03      	ldr	r3, [pc, #12]	@ (8000128 <deregister_tm_clones+0x18>)
 800011a:	b103      	cbz	r3, 800011e <deregister_tm_clones+0xe>
 800011c:	4718      	bx	r3
 800011e:	4770      	bx	lr
 8000120:	200001e0 	.word	0x200001e0
 8000124:	200001e0 	.word	0x200001e0
 8000128:	00000000 	.word	0x00000000

0800012c <register_tm_clones>:
 800012c:	4805      	ldr	r0, [pc, #20]	@ (8000144 <register_tm_clones+0x18>)
 800012e:	4b06      	ldr	r3, [pc, #24]	@ (8000148 <register_tm_clones+0x1c>)
 8000130:	1a1b      	subs	r3, r3, r0
 8000132:	0fd9      	lsrs	r1, r3, #31
 8000134:	eb01 01a3 	add.w	r1, r1, r3, asr #2
 8000138:	1049      	asrs	r1, r1, #1
 800013a:	d002      	beq.n	8000142 <register_tm_clones+0x16>
 800013c:	4b03      	ldr	r3, [pc, #12]	@ (800014c <register_tm_clones+0x20>)
 800013e:	b103      	cbz	r3, 8000142 <register_tm_clones+0x16>
 8000140:	4718      	bx	r3
 8000142:	4770      	bx	lr
 8000144:	200001e0 	.word	0x200001e0
 8000148:	200001e0 	.word	0x200001e0
 800014c:	00000000 	.word	0x00000000

08000150 <__do_global_dtors_aux>:
 8000150:	b510      	push	{r4, lr}
 8000152:	4c06      	ldr	r4, [pc, #24]	@ (800016c <__do_global_dtors_aux+0x1c>)
 8000154:	7823      	ldrb	r3, [r4, #0]
 8000156:	b943      	cbnz	r3, 800016a <__do_global_dtors_aux+0x1a>
 8000158:	f7ff ffda 	bl	8000110 <deregister_tm_clones>
 800015c:	4b04      	ldr	r3, [pc, #16]	@ (8000170 <__do_global_dtors_aux+0x20>)
 800015e:	b113      	cbz	r3, 8000166 <__do_global_dtors_aux+0x16>
 8000160:	4804      	ldr	r0, [pc, #16]	@ (8000174 <__do_global_dtors_aux+0x24>)
 8000162:	f3af 8000 	nop.w
 8000166:	2301      	movs	r3, #1
 8000168:	7023      	strb	r3, [r4, #0]
 800016a:	bd10      	pop	{r4, pc}
 800016c:	200001e0 	.word	0x200001e0
 8000170:	00000000 	.word	0x00000000
 8000174:	08007dcc 	.word	0x08007dcc

08000178 <frame_dummy>:
 8000178:	b508      	push	{r3, lr}
 800017a:	4b04      	ldr	r3, [pc, #16]	@ (800018c <frame_dummy+0x14>)
 800017c:	b11b      	cbz	r3, 8000186 <frame_dummy+0xe>
 800017e:	4904      	ldr	r1, [pc, #16]	@ (8000190 <frame_dummy+0x18>)
 8000180:	4804      	ldr	r0, [pc, #16]	@ (8000194 <frame_dummy+0x1c>)
 8000182:	f3af 8000 	nop.w
 8000186:	e8bd 4008 	ldmia.w	sp!, {r3, lr}
 800018a:	e7cf      	b.n	800012c <register_tm_clones>
 800018c:	00000000 	.word	0x00000000
 8000190:	200001e4 	.word	0x200001e4
 8000194:	08007dcc 	.word	0x08007dcc

08000198 <__errno>:
 8000198:	4b01      	ldr	r3, [pc, #4]	@ (80001a0 <__errno+0x8>)
 800019a:	6818      	ldr	r0, [r3, #0]
 800019c:	4770      	bx	lr
 800019e:	bf00      	nop
 80001a0:	20000000 	.word	0x20000000

080001a4 <__libc_init_array>:
 80001a4:	b570      	push	{r4, r5, r6, lr}
 80001a6:	4b0f      	ldr	r3, [pc, #60]	@ (80001e4 <__libc_init_array+0x40>)
 80001a8:	4d0f      	ldr	r5, [pc, #60]	@ (80001e8 <__libc_init_array+0x44>)
 80001aa:	42ab      	cmp	r3, r5
 80001ac:	eba3 0605 	sub.w	r6, r3, r5
 80001b0:	d007      	beq.n	80001c2 <__libc_init_array+0x1e>
 80001b2:	2400      	movs	r4, #0
 80001b4:	10b6      	asrs	r6, r6, #2
 80001b6:	f855 3b04 	ldr.w	r3, [r5], #4
 80001ba:	3401      	adds	r4, #1
 80001bc:	4798      	blx	r3
 80001be:	42a6      	cmp	r6, r4
 80001c0:	d8f9      	bhi.n	80001b6 <__libc_init_array+0x12>
 80001c2:	f007 fe03 	bl	8007dcc <_init>
 80001c6:	4d09      	ldr	r5, [pc, #36]	@ (80001ec <__libc_init_array+0x48>)
 80001c8:	4b09      	ldr	r3, [pc, #36]	@ (80001f0 <__libc_init_array+0x4c>)
 80001ca:	1b5e      	subs	r6, r3, r5
 80001cc:	42ab      	cmp	r3, r5
 80001ce:	ea4f 06a6 	mov.w	r6, r6, asr #2
 80001d2:	d006      	beq.n	80001e2 <__libc_init_array+0x3e>
 80001d4:	2400      	movs	r4, #0
 80001d6:	f855 3b04 	ldr.w	r3, [r5], #4
 80001da:	3401      	adds	r4, #1
 80001dc:	4798      	blx	r3
 80001de:	42a6      	cmp	r6, r4
 80001e0:	d8f9      	bhi.n	80001d6 <__libc_init_array+0x32>
 80001e2:	bd70      	pop	{r4, r5, r6, pc}
 80001e4:	08007e94 	.word	0x08007e94
 80001e8:	08007e94 	.word	0x08007e94
 80001ec:	08007e94 	.word	0x08007e94
 80001f0:	08007e98 	.word	0x08007e98

080001f4 <memset>:
 80001f4:	b570      	push	{r4, r5, r6, lr}
 80001f6:	0786      	lsls	r6, r0, #30
 80001f8:	d047      	beq.n	800028a <memset+0x96>
 80001fa:	1e54      	subs	r4, r2, #1
 80001fc:	2a00      	cmp	r2, #0
 80001fe:	d03e      	beq.n	800027e <memset+0x8a>
 8000200:	4603      	mov	r3, r0
 8000202:	b2ca      	uxtb	r2, r1
 8000204:	e001      	b.n	800020a <memset+0x16>
 8000206:	3c01      	subs	r4, #1
 8000208:	d339      	bcc.n	800027e <memset+0x8a>
 800020a:	f803 2b01 	strb.w	r2, [r3], #1
 800020e:	079d      	lsls	r5, r3, #30
 8000210:	d1f9      	bne.n	8000206 <memset+0x12>
 8000212:	2c03      	cmp	r4, #3
 8000214:	d92c      	bls.n	8000270 <memset+0x7c>
 8000216:	b2cd      	uxtb	r5, r1
 8000218:	eb05 2505 	add.w	r5, r5, r5, lsl #8
 800021c:	2c0f      	cmp	r4, #15
 800021e:	461a      	mov	r2, r3
 8000220:	eb05 4505 	add.w	r5, r5, r5, lsl #16
 8000224:	d934      	bls.n	8000290 <memset+0x9c>
 8000226:	f1a4 0c10 	sub.w	ip, r4, #16
 800022a:	f02c 060f 	bic.w	r6, ip, #15
 800022e:	f103 0e10 	add.w	lr, r3, #16
 8000232:	44b6      	add	lr, r6
 8000234:	ea4f 1c1c 	mov.w	ip, ip, lsr #4
 8000238:	e9c2 5500 	strd	r5, r5, [r2]
 800023c:	e9c2 5502 	strd	r5, r5, [r2, #8]
 8000240:	3210      	adds	r2, #16
 8000242:	4572      	cmp	r2, lr
 8000244:	d1f8      	bne.n	8000238 <memset+0x44>
 8000246:	f10c 0201 	add.w	r2, ip, #1
 800024a:	f014 0f0c 	tst.w	r4, #12
 800024e:	eb03 1202 	add.w	r2, r3, r2, lsl #4
 8000252:	f004 0c0f 	and.w	ip, r4, #15
 8000256:	d013      	beq.n	8000280 <memset+0x8c>
 8000258:	f1ac 0304 	sub.w	r3, ip, #4
 800025c:	f023 0303 	bic.w	r3, r3, #3
 8000260:	3304      	adds	r3, #4
 8000262:	4413      	add	r3, r2
 8000264:	f842 5b04 	str.w	r5, [r2], #4
 8000268:	4293      	cmp	r3, r2
 800026a:	d1fb      	bne.n	8000264 <memset+0x70>
 800026c:	f00c 0403 	and.w	r4, ip, #3
 8000270:	b12c      	cbz	r4, 800027e <memset+0x8a>
 8000272:	b2c9      	uxtb	r1, r1
 8000274:	441c      	add	r4, r3
 8000276:	f803 1b01 	strb.w	r1, [r3], #1
 800027a:	42a3      	cmp	r3, r4
 800027c:	d1fb      	bne.n	8000276 <memset+0x82>
 800027e:	bd70      	pop	{r4, r5, r6, pc}
 8000280:	4664      	mov	r4, ip
 8000282:	4613      	mov	r3, r2
 8000284:	2c00      	cmp	r4, #0
 8000286:	d1f4      	bne.n	8000272 <memset+0x7e>
 8000288:	e7f9      	b.n	800027e <memset+0x8a>
 800028a:	4603      	mov	r3, r0
 800028c:	4614      	mov	r4, r2
 800028e:	e7c0      	b.n	8000212 <memset+0x1e>
 8000290:	46a4      	mov	ip, r4
 8000292:	e7e1      	b.n	8000258 <memset+0x64>

08000294 <_sniprintf_r>:
 8000294:	b408      	push	{r3}
 8000296:	b510      	push	{r4, lr}
 8000298:	2a00      	cmp	r2, #0
 800029a:	4604      	mov	r4, r0
 800029c:	b09d      	sub	sp, #116	@ 0x74
 800029e:	db34      	blt.n	800030a <_sniprintf_r+0x76>
 80002a0:	f44f 7c02 	mov.w	ip, #520	@ 0x208
 80002a4:	f04f 0300 	mov.w	r3, #0
 80002a8:	f8ad c014 	strh.w	ip, [sp, #20]
 80002ac:	931b      	str	r3, [sp, #108]	@ 0x6c
 80002ae:	f64f 7cff 	movw	ip, #65535	@ 0xffff
 80002b2:	9102      	str	r1, [sp, #8]
 80002b4:	9106      	str	r1, [sp, #24]
 80002b6:	ab20      	add	r3, sp, #128	@ 0x80
 80002b8:	d015      	beq.n	80002e6 <_sniprintf_r+0x52>
 80002ba:	3a01      	subs	r2, #1
 80002bc:	9204      	str	r2, [sp, #16]
 80002be:	9207      	str	r2, [sp, #28]
 80002c0:	a902      	add	r1, sp, #8
 80002c2:	9a1f      	ldr	r2, [sp, #124]	@ 0x7c
 80002c4:	9301      	str	r3, [sp, #4]
 80002c6:	f8ad c016 	strh.w	ip, [sp, #22]
 80002ca:	f000 f951 	bl	8000570 <_svfiprintf_r>
 80002ce:	1c42      	adds	r2, r0, #1
 80002d0:	da01      	bge.n	80002d6 <_sniprintf_r+0x42>
 80002d2:	238b      	movs	r3, #139	@ 0x8b
 80002d4:	6023      	str	r3, [r4, #0]
 80002d6:	2200      	movs	r2, #0
 80002d8:	9b02      	ldr	r3, [sp, #8]
 80002da:	701a      	strb	r2, [r3, #0]
 80002dc:	b01d      	add	sp, #116	@ 0x74
 80002de:	e8bd 4010 	ldmia.w	sp!, {r4, lr}
 80002e2:	b001      	add	sp, #4
 80002e4:	4770      	bx	lr
 80002e6:	9204      	str	r2, [sp, #16]
 80002e8:	9207      	str	r2, [sp, #28]
 80002ea:	a902      	add	r1, sp, #8
 80002ec:	9a1f      	ldr	r2, [sp, #124]	@ 0x7c
 80002ee:	9301      	str	r3, [sp, #4]
 80002f0:	f8ad c016 	strh.w	ip, [sp, #22]
 80002f4:	f000 f93c 	bl	8000570 <_svfiprintf_r>
 80002f8:	1c43      	adds	r3, r0, #1
 80002fa:	da01      	bge.n	8000300 <_sniprintf_r+0x6c>
 80002fc:	238b      	movs	r3, #139	@ 0x8b
 80002fe:	6023      	str	r3, [r4, #0]
 8000300:	b01d      	add	sp, #116	@ 0x74
 8000302:	e8bd 4010 	ldmia.w	sp!, {r4, lr}
 8000306:	b001      	add	sp, #4
 8000308:	4770      	bx	lr
 800030a:	238b      	movs	r3, #139	@ 0x8b
 800030c:	f04f 30ff 	mov.w	r0, #4294967295	@ 0xffffffff
 8000310:	6023      	str	r3, [r4, #0]
 8000312:	e7f5      	b.n	8000300 <_sniprintf_r+0x6c>

08000314 <sniprintf>:
 8000314:	b40c      	push	{r2, r3}
 8000316:	b510      	push	{r4, lr}
 8000318:	4b20      	ldr	r3, [pc, #128]	@ (800039c <sniprintf+0x88>)
 800031a:	2900      	cmp	r1, #0
 800031c:	681c      	ldr	r4, [r3, #0]
 800031e:	b09c      	sub	sp, #112	@ 0x70
 8000320:	db36      	blt.n	8000390 <sniprintf+0x7c>
 8000322:	f04f 0300 	mov.w	r3, #0
 8000326:	f44f 7202 	mov.w	r2, #520	@ 0x208
 800032a:	931b      	str	r3, [sp, #108]	@ 0x6c
 800032c:	f64f 7cff 	movw	ip, #65535	@ 0xffff
 8000330:	9002      	str	r0, [sp, #8]
 8000332:	9006      	str	r0, [sp, #24]
 8000334:	f8ad 2014 	strh.w	r2, [sp, #20]
 8000338:	ab1f      	add	r3, sp, #124	@ 0x7c
 800033a:	d016      	beq.n	800036a <sniprintf+0x56>
 800033c:	3901      	subs	r1, #1
 800033e:	9a1e      	ldr	r2, [sp, #120]	@ 0x78
 8000340:	9104      	str	r1, [sp, #16]
 8000342:	9107      	str	r1, [sp, #28]
 8000344:	4620      	mov	r0, r4
 8000346:	a902      	add	r1, sp, #8
 8000348:	9301      	str	r3, [sp, #4]
 800034a:	f8ad c016 	strh.w	ip, [sp, #22]
 800034e:	f000 f90f 	bl	8000570 <_svfiprintf_r>
 8000352:	1c42      	adds	r2, r0, #1
 8000354:	da01      	bge.n	800035a <sniprintf+0x46>
 8000356:	238b      	movs	r3, #139	@ 0x8b
 8000358:	6023      	str	r3, [r4, #0]
 800035a:	2200      	movs	r2, #0
 800035c:	9b02      	ldr	r3, [sp, #8]
 800035e:	701a      	strb	r2, [r3, #0]
 8000360:	b01c      	add	sp, #112	@ 0x70
 8000362:	e8bd 4010 	ldmia.w	sp!, {r4, lr}
 8000366:	b002      	add	sp, #8
 8000368:	4770      	bx	lr
 800036a:	9104      	str	r1, [sp, #16]
 800036c:	9107      	str	r1, [sp, #28]
 800036e:	4620      	mov	r0, r4
 8000370:	9a1e      	ldr	r2, [sp, #120]	@ 0x78
 8000372:	a902      	add	r1, sp, #8
 8000374:	9301      	str	r3, [sp, #4]
 8000376:	f8ad c016 	strh.w	ip, [sp, #22]
 800037a:	f000 f8f9 	bl	8000570 <_svfiprintf_r>
 800037e:	1c43      	adds	r3, r0, #1
 8000380:	da01      	bge.n	8000386 <sniprintf+0x72>
 8000382:	238b      	movs	r3, #139	@ 0x8b
 8000384:	6023      	str	r3, [r4, #0]
 8000386:	b01c      	add	sp, #112	@ 0x70
 8000388:	e8bd 4010 	ldmia.w	sp!, {r4, lr}
 800038c:	b002      	add	sp, #8
 800038e:	4770      	bx	lr
 8000390:	238b      	movs	r3, #139	@ 0x8b
 8000392:	f04f 30ff 	mov.w	r0, #4294967295	@ 0xffffffff
 8000396:	6023      	str	r3, [r4, #0]
 8000398:	e7f5      	b.n	8000386 <sniprintf+0x72>
 800039a:	bf00      	nop
 800039c:	20000000 	.word	0x20000000

080003a0 <__ssputs_r>:
 80003a0:	e92d 47f0 	stmdb	sp!, {r4, r5, r6, r7, r8, r9, sl, lr}
 80003a4:	461d      	mov	r5, r3
 80003a6:	688f      	ldr	r7, [r1, #8]
 80003a8:	460c      	mov	r4, r1
 80003aa:	42af      	cmp	r7, r5
 80003ac:	4616      	mov	r6, r2
 80003ae:	680b      	ldr	r3, [r1, #0]
 80003b0:	d836      	bhi.n	8000420 <__ssputs_r+0x80>
 80003b2:	f9b1 c00c 	ldrsh.w	ip, [r1, #12]
 80003b6:	f41c 6f90 	tst.w	ip, #1152	@ 0x480
 80003ba:	d10e      	bne.n	80003da <__ssputs_r+0x3a>
 80003bc:	463d      	mov	r5, r7
 80003be:	4618      	mov	r0, r3
 80003c0:	4631      	mov	r1, r6
 80003c2:	462a      	mov	r2, r5
 80003c4:	f000 fdbc 	bl	8000f40 <memmove>
 80003c8:	2000      	movs	r0, #0
 80003ca:	68a3      	ldr	r3, [r4, #8]
 80003cc:	1bdf      	subs	r7, r3, r7
 80003ce:	6823      	ldr	r3, [r4, #0]
 80003d0:	60a7      	str	r7, [r4, #8]
 80003d2:	442b      	add	r3, r5
 80003d4:	6023      	str	r3, [r4, #0]
 80003d6:	e8bd 87f0 	ldmia.w	sp!, {r4, r5, r6, r7, r8, r9, sl, pc}
 80003da:	694a      	ldr	r2, [r1, #20]
 80003dc:	6909      	ldr	r1, [r1, #16]
 80003de:	eb02 0242 	add.w	r2, r2, r2, lsl #1
 80003e2:	1a5f      	subs	r7, r3, r1
 80003e4:	eb02 72d2 	add.w	r2, r2, r2, lsr #31
 80003e8:	1c6b      	adds	r3, r5, #1
 80003ea:	1052      	asrs	r2, r2, #1
 80003ec:	443b      	add	r3, r7
 80003ee:	4293      	cmp	r3, r2
 80003f0:	bf92      	itee	ls
 80003f2:	4691      	movls	r9, r2
 80003f4:	4699      	movhi	r9, r3
 80003f6:	461a      	movhi	r2, r3
 80003f8:	f41c 6f80 	tst.w	ip, #1024	@ 0x400
 80003fc:	4680      	mov	r8, r0
 80003fe:	d011      	beq.n	8000424 <__ssputs_r+0x84>
 8000400:	4611      	mov	r1, r2
 8000402:	f000 fa3f 	bl	8000884 <_malloc_r>
 8000406:	4682      	mov	sl, r0
 8000408:	b300      	cbz	r0, 800044c <__ssputs_r+0xac>
 800040a:	463a      	mov	r2, r7
 800040c:	6921      	ldr	r1, [r4, #16]
 800040e:	f000 fab9 	bl	8000984 <memcpy>
 8000412:	89a3      	ldrh	r3, [r4, #12]
 8000414:	f423 6390 	bic.w	r3, r3, #1152	@ 0x480
 8000418:	f043 0380 	orr.w	r3, r3, #128	@ 0x80
 800041c:	81a3      	strh	r3, [r4, #12]
 800041e:	e005      	b.n	800042c <__ssputs_r+0x8c>
 8000420:	462f      	mov	r7, r5
 8000422:	e7cc      	b.n	80003be <__ssputs_r+0x1e>
 8000424:	f000 fb82 	bl	8000b2c <_realloc_r>
 8000428:	4682      	mov	sl, r0
 800042a:	b158      	cbz	r0, 8000444 <__ssputs_r+0xa4>
 800042c:	eb0a 0307 	add.w	r3, sl, r7
 8000430:	eba9 0707 	sub.w	r7, r9, r7
 8000434:	60a7      	str	r7, [r4, #8]
 8000436:	f8c4 a010 	str.w	sl, [r4, #16]
 800043a:	462f      	mov	r7, r5
 800043c:	f8c4 9014 	str.w	r9, [r4, #20]
 8000440:	6023      	str	r3, [r4, #0]
 8000442:	e7bc      	b.n	80003be <__ssputs_r+0x1e>
 8000444:	4640      	mov	r0, r8
 8000446:	6921      	ldr	r1, [r4, #16]
 8000448:	f000 fb12 	bl	8000a70 <_free_r>
 800044c:	220c      	movs	r2, #12
 800044e:	89a3      	ldrh	r3, [r4, #12]
 8000450:	f04f 30ff 	mov.w	r0, #4294967295	@ 0xffffffff
 8000454:	f043 0340 	orr.w	r3, r3, #64	@ 0x40
 8000458:	f8c8 2000 	str.w	r2, [r8]
 800045c:	81a3      	strh	r3, [r4, #12]
 800045e:	e7ba      	b.n	80003d6 <__ssputs_r+0x36>

08000460 <__ssprint_r>:
 8000460:	e92d 4ff0 	stmdb	sp!, {r4, r5, r6, r7, r8, r9, sl, fp, lr}
 8000464:	6893      	ldr	r3, [r2, #8]
 8000466:	b083      	sub	sp, #12
 8000468:	4692      	mov	sl, r2
 800046a:	6817      	ldr	r7, [r2, #0]
 800046c:	9001      	str	r0, [sp, #4]
 800046e:	2b00      	cmp	r3, #0
 8000470:	d076      	beq.n	8000560 <__ssprint_r+0x100>
 8000472:	f04f 0b00 	mov.w	fp, #0
 8000476:	460c      	mov	r4, r1
 8000478:	465d      	mov	r5, fp
 800047a:	688b      	ldr	r3, [r1, #8]
 800047c:	680a      	ldr	r2, [r1, #0]
 800047e:	e048      	b.n	8000512 <__ssprint_r+0xb2>
 8000480:	f9b4 c00c 	ldrsh.w	ip, [r4, #12]
 8000484:	f41c 6f90 	tst.w	ip, #1152	@ 0x480
 8000488:	d02f      	beq.n	80004ea <__ssprint_r+0x8a>
 800048a:	e9d4 0304 	ldrd	r0, r3, [r4, #16]
 800048e:	eba2 0800 	sub.w	r8, r2, r0
 8000492:	eb03 0243 	add.w	r2, r3, r3, lsl #1
 8000496:	eb02 72d2 	add.w	r2, r2, r2, lsr #31
 800049a:	f108 0101 	add.w	r1, r8, #1
 800049e:	1052      	asrs	r2, r2, #1
 80004a0:	4429      	add	r1, r5
 80004a2:	4291      	cmp	r1, r2
 80004a4:	bf92      	itee	ls
 80004a6:	4691      	movls	r9, r2
 80004a8:	4689      	movhi	r9, r1
 80004aa:	460a      	movhi	r2, r1
 80004ac:	f41c 6f80 	tst.w	ip, #1024	@ 0x400
 80004b0:	d039      	beq.n	8000526 <__ssprint_r+0xc6>
 80004b2:	4611      	mov	r1, r2
 80004b4:	9801      	ldr	r0, [sp, #4]
 80004b6:	f000 f9e5 	bl	8000884 <_malloc_r>
 80004ba:	4606      	mov	r6, r0
 80004bc:	2800      	cmp	r0, #0
 80004be:	d03d      	beq.n	800053c <__ssprint_r+0xdc>
 80004c0:	4642      	mov	r2, r8
 80004c2:	6921      	ldr	r1, [r4, #16]
 80004c4:	f000 fa5e 	bl	8000984 <memcpy>
 80004c8:	89a2      	ldrh	r2, [r4, #12]
 80004ca:	f422 6290 	bic.w	r2, r2, #1152	@ 0x480
 80004ce:	f042 0280 	orr.w	r2, r2, #128	@ 0x80
 80004d2:	81a2      	strh	r2, [r4, #12]
 80004d4:	eb06 0008 	add.w	r0, r6, r8
 80004d8:	eba9 0208 	sub.w	r2, r9, r8
 80004dc:	6126      	str	r6, [r4, #16]
 80004de:	46a8      	mov	r8, r5
 80004e0:	462e      	mov	r6, r5
 80004e2:	60a2      	str	r2, [r4, #8]
 80004e4:	6020      	str	r0, [r4, #0]
 80004e6:	f8c4 9014 	str.w	r9, [r4, #20]
 80004ea:	4632      	mov	r2, r6
 80004ec:	4659      	mov	r1, fp
 80004ee:	f000 fd27 	bl	8000f40 <memmove>
 80004f2:	f8da 1008 	ldr.w	r1, [sl, #8]
 80004f6:	68a3      	ldr	r3, [r4, #8]
 80004f8:	6822      	ldr	r2, [r4, #0]
 80004fa:	eba3 0308 	sub.w	r3, r3, r8
 80004fe:	4432      	add	r2, r6
 8000500:	1b49      	subs	r1, r1, r5
 8000502:	60a3      	str	r3, [r4, #8]
 8000504:	6022      	str	r2, [r4, #0]
 8000506:	f8ca 1008 	str.w	r1, [sl, #8]
 800050a:	b349      	cbz	r1, 8000560 <__ssprint_r+0x100>
 800050c:	e9d7 b500 	ldrd	fp, r5, [r7]
 8000510:	3708      	adds	r7, #8
 8000512:	4698      	mov	r8, r3
 8000514:	4610      	mov	r0, r2
 8000516:	2d00      	cmp	r5, #0
 8000518:	d0f8      	beq.n	800050c <__ssprint_r+0xac>
 800051a:	429d      	cmp	r5, r3
 800051c:	461e      	mov	r6, r3
 800051e:	d2af      	bcs.n	8000480 <__ssprint_r+0x20>
 8000520:	46a8      	mov	r8, r5
 8000522:	462e      	mov	r6, r5
 8000524:	e7e1      	b.n	80004ea <__ssprint_r+0x8a>
 8000526:	4601      	mov	r1, r0
 8000528:	9801      	ldr	r0, [sp, #4]
 800052a:	f000 faff 	bl	8000b2c <_realloc_r>
 800052e:	4606      	mov	r6, r0
 8000530:	2800      	cmp	r0, #0
 8000532:	d1cf      	bne.n	80004d4 <__ssprint_r+0x74>
 8000534:	9801      	ldr	r0, [sp, #4]
 8000536:	6921      	ldr	r1, [r4, #16]
 8000538:	f000 fa9a 	bl	8000a70 <_free_r>
 800053c:	210c      	movs	r1, #12
 800053e:	89a3      	ldrh	r3, [r4, #12]
 8000540:	9d01      	ldr	r5, [sp, #4]
 8000542:	f043 0340 	orr.w	r3, r3, #64	@ 0x40
 8000546:	6029      	str	r1, [r5, #0]
 8000548:	2200      	movs	r2, #0
 800054a:	81a3      	strh	r3, [r4, #12]
 800054c:	f04f 30ff 	mov.w	r0, #4294967295	@ 0xffffffff
 8000550:	2300      	movs	r3, #0
 8000552:	f8ca 2008 	str.w	r2, [sl, #8]
 8000556:	f8ca 3004 	str.w	r3, [sl, #4]
 800055a:	b003      	add	sp, #12
 800055c:	e8bd 8ff0 	ldmia.w	sp!, {r4, r5, r6, r7, r8, r9, sl, fp, pc}
 8000560:	2000      	movs	r0, #0
 8000562:	2300      	movs	r3, #0
 8000564:	f8ca 3004 	str.w	r3, [sl, #4]
 8000568:	b003      	add	sp, #12
 800056a:	e8bd 8ff0 	ldmia.w	sp!, {r4, r5, r6, r7, r8, r9, sl, fp, pc}
 800056e:	bf00      	nop

08000570 <_svfiprintf_r>:
 8000570:	e92d 4ff0 	stmdb	sp!, {r4, r5, r6, r7, r8, r9, sl, fp, lr}
 8000574:	461c      	mov	r4, r3
 8000576:	898b      	ldrh	r3, [r1, #12]
 8000578:	4689      	mov	r9, r1
 800057a:	061d      	lsls	r5, r3, #24
 800057c:	4682      	mov	sl, r0
 800057e:	4693      	mov	fp, r2
 8000580:	b09d      	sub	sp, #116	@ 0x74
 8000582:	d503      	bpl.n	800058c <_svfiprintf_r+0x1c>
 8000584:	690b      	ldr	r3, [r1, #16]
 8000586:	2b00      	cmp	r3, #0
 8000588:	f000 80ee 	beq.w	8000768 <_svfiprintf_r+0x1f8>
 800058c:	2300      	movs	r3, #0
 800058e:	f243 0220 	movw	r2, #12320	@ 0x3020
 8000592:	9309      	str	r3, [sp, #36]	@ 0x24
 8000594:	f89b 3000 	ldrb.w	r3, [fp]
 8000598:	2701      	movs	r7, #1
 800059a:	4e7c      	ldr	r6, [pc, #496]	@ (800078c <_svfiprintf_r+0x21c>)
 800059c:	9403      	str	r4, [sp, #12]
 800059e:	f8ad 2029 	strh.w	r2, [sp, #41]	@ 0x29
 80005a2:	2b00      	cmp	r3, #0
 80005a4:	d071      	beq.n	800068a <_svfiprintf_r+0x11a>
 80005a6:	465d      	mov	r5, fp
 80005a8:	e003      	b.n	80005b2 <_svfiprintf_r+0x42>
 80005aa:	f815 3f01 	ldrb.w	r3, [r5, #1]!
 80005ae:	2b00      	cmp	r3, #0
 80005b0:	d073      	beq.n	800069a <_svfiprintf_r+0x12a>
 80005b2:	2b25      	cmp	r3, #37	@ 0x25
 80005b4:	d1f9      	bne.n	80005aa <_svfiprintf_r+0x3a>
 80005b6:	ebb5 040b 	subs.w	r4, r5, fp
 80005ba:	d171      	bne.n	80006a0 <_svfiprintf_r+0x130>
 80005bc:	782a      	ldrb	r2, [r5, #0]
 80005be:	2a00      	cmp	r2, #0
 80005c0:	d063      	beq.n	800068a <_svfiprintf_r+0x11a>
 80005c2:	2300      	movs	r3, #0
 80005c4:	f04f 32ff 	mov.w	r2, #4294967295	@ 0xffffffff
 80005c8:	3501      	adds	r5, #1
 80005ca:	e9cd 2305 	strd	r2, r3, [sp, #20]
 80005ce:	9304      	str	r3, [sp, #16]
 80005d0:	9307      	str	r3, [sp, #28]
 80005d2:	f88d 3053 	strb.w	r3, [sp, #83]	@ 0x53
 80005d6:	931a      	str	r3, [sp, #104]	@ 0x68
 80005d8:	e006      	b.n	80005e8 <_svfiprintf_r+0x78>
 80005da:	4625      	mov	r5, r4
 80005dc:	9b04      	ldr	r3, [sp, #16]
 80005de:	1b80      	subs	r0, r0, r6
 80005e0:	fa07 f000 	lsl.w	r0, r7, r0
 80005e4:	4303      	orrs	r3, r0
 80005e6:	9304      	str	r3, [sp, #16]
 80005e8:	462c      	mov	r4, r5
 80005ea:	2205      	movs	r2, #5
 80005ec:	f814 1b01 	ldrb.w	r1, [r4], #1
 80005f0:	4630      	mov	r0, r6
 80005f2:	f000 f8d5 	bl	80007a0 <memchr>
 80005f6:	46a3      	mov	fp, r4
 80005f8:	2800      	cmp	r0, #0
 80005fa:	d1ee      	bne.n	80005da <_svfiprintf_r+0x6a>
 80005fc:	9b04      	ldr	r3, [sp, #16]
 80005fe:	06d9      	lsls	r1, r3, #27
 8000600:	bf44      	itt	mi
 8000602:	2220      	movmi	r2, #32
 8000604:	f88d 2053 	strbmi.w	r2, [sp, #83]	@ 0x53
 8000608:	071a      	lsls	r2, r3, #28
 800060a:	bf48      	it	mi
 800060c:	222b      	movmi	r2, #43	@ 0x2b
 800060e:	7829      	ldrb	r1, [r5, #0]
 8000610:	bf48      	it	mi
 8000612:	f88d 2053 	strbmi.w	r2, [sp, #83]	@ 0x53
 8000616:	292a      	cmp	r1, #42	@ 0x2a
 8000618:	d14f      	bne.n	80006ba <_svfiprintf_r+0x14a>
 800061a:	9a03      	ldr	r2, [sp, #12]
 800061c:	6811      	ldr	r1, [r2, #0]
 800061e:	3204      	adds	r2, #4
 8000620:	2900      	cmp	r1, #0
 8000622:	9203      	str	r2, [sp, #12]
 8000624:	db7b      	blt.n	800071e <_svfiprintf_r+0x1ae>
 8000626:	9107      	str	r1, [sp, #28]
 8000628:	7869      	ldrb	r1, [r5, #1]
 800062a:	292e      	cmp	r1, #46	@ 0x2e
 800062c:	d05b      	beq.n	80006e6 <_svfiprintf_r+0x176>
 800062e:	4c58      	ldr	r4, [pc, #352]	@ (8000790 <_svfiprintf_r+0x220>)
 8000630:	2203      	movs	r2, #3
 8000632:	4620      	mov	r0, r4
 8000634:	f000 f8b4 	bl	80007a0 <memchr>
 8000638:	b138      	cbz	r0, 800064a <_svfiprintf_r+0xda>
 800063a:	2240      	movs	r2, #64	@ 0x40
 800063c:	9b04      	ldr	r3, [sp, #16]
 800063e:	1b00      	subs	r0, r0, r4
 8000640:	4082      	lsls	r2, r0
 8000642:	4313      	orrs	r3, r2
 8000644:	f10b 0b01 	add.w	fp, fp, #1
 8000648:	9304      	str	r3, [sp, #16]
 800064a:	f81b 1b01 	ldrb.w	r1, [fp], #1
 800064e:	2206      	movs	r2, #6
 8000650:	4850      	ldr	r0, [pc, #320]	@ (8000794 <_svfiprintf_r+0x224>)
 8000652:	f88d 1028 	strb.w	r1, [sp, #40]	@ 0x28
 8000656:	f000 f8a3 	bl	80007a0 <memchr>
 800065a:	2800      	cmp	r0, #0
 800065c:	d065      	beq.n	800072a <_svfiprintf_r+0x1ba>
 800065e:	4b4e      	ldr	r3, [pc, #312]	@ (8000798 <_svfiprintf_r+0x228>)
 8000660:	2b00      	cmp	r3, #0
 8000662:	d055      	beq.n	8000710 <_svfiprintf_r+0x1a0>
 8000664:	a903      	add	r1, sp, #12
 8000666:	9100      	str	r1, [sp, #0]
 8000668:	464a      	mov	r2, r9
 800066a:	4650      	mov	r0, sl
 800066c:	4b4b      	ldr	r3, [pc, #300]	@ (800079c <_svfiprintf_r+0x22c>)
 800066e:	a904      	add	r1, sp, #16
 8000670:	f3af 8000 	nop.w
 8000674:	4680      	mov	r8, r0
 8000676:	f1b8 3fff 	cmp.w	r8, #4294967295	@ 0xffffffff
 800067a:	d006      	beq.n	800068a <_svfiprintf_r+0x11a>
 800067c:	9b09      	ldr	r3, [sp, #36]	@ 0x24
 800067e:	4443      	add	r3, r8
 8000680:	9309      	str	r3, [sp, #36]	@ 0x24
 8000682:	f89b 3000 	ldrb.w	r3, [fp]
 8000686:	2b00      	cmp	r3, #0
 8000688:	d18d      	bne.n	80005a6 <_svfiprintf_r+0x36>
 800068a:	f8b9 300c 	ldrh.w	r3, [r9, #12]
 800068e:	065b      	lsls	r3, r3, #25
 8000690:	d479      	bmi.n	8000786 <_svfiprintf_r+0x216>
 8000692:	9809      	ldr	r0, [sp, #36]	@ 0x24
 8000694:	b01d      	add	sp, #116	@ 0x74
 8000696:	e8bd 8ff0 	ldmia.w	sp!, {r4, r5, r6, r7, r8, r9, sl, fp, pc}
 800069a:	ebb5 040b 	subs.w	r4, r5, fp
 800069e:	d0f4      	beq.n	800068a <_svfiprintf_r+0x11a>
 80006a0:	4623      	mov	r3, r4
 80006a2:	465a      	mov	r2, fp
 80006a4:	4649      	mov	r1, r9
 80006a6:	4650      	mov	r0, sl
 80006a8:	f7ff fe7a 	bl	80003a0 <__ssputs_r>
 80006ac:	3001      	adds	r0, #1
 80006ae:	d0ec      	beq.n	800068a <_svfiprintf_r+0x11a>
 80006b0:	9b09      	ldr	r3, [sp, #36]	@ 0x24
 80006b2:	782a      	ldrb	r2, [r5, #0]
 80006b4:	4423      	add	r3, r4
 80006b6:	9309      	str	r3, [sp, #36]	@ 0x24
 80006b8:	e781      	b.n	80005be <_svfiprintf_r+0x4e>
 80006ba:	f1a1 0230 	sub.w	r2, r1, #48	@ 0x30
 80006be:	2a09      	cmp	r2, #9
 80006c0:	bf88      	it	hi
 80006c2:	46ab      	movhi	fp, r5
 80006c4:	d8b1      	bhi.n	800062a <_svfiprintf_r+0xba>
 80006c6:	9b07      	ldr	r3, [sp, #28]
 80006c8:	e000      	b.n	80006cc <_svfiprintf_r+0x15c>
 80006ca:	3401      	adds	r4, #1
 80006cc:	7821      	ldrb	r1, [r4, #0]
 80006ce:	eb03 0383 	add.w	r3, r3, r3, lsl #2
 80006d2:	eb02 0343 	add.w	r3, r2, r3, lsl #1
 80006d6:	f1a1 0230 	sub.w	r2, r1, #48	@ 0x30
 80006da:	2a09      	cmp	r2, #9
 80006dc:	d9f5      	bls.n	80006ca <_svfiprintf_r+0x15a>
 80006de:	292e      	cmp	r1, #46	@ 0x2e
 80006e0:	46a3      	mov	fp, r4
 80006e2:	9307      	str	r3, [sp, #28]
 80006e4:	d1a3      	bne.n	800062e <_svfiprintf_r+0xbe>
 80006e6:	f89b 1001 	ldrb.w	r1, [fp, #1]
 80006ea:	292a      	cmp	r1, #42	@ 0x2a
 80006ec:	d127      	bne.n	800073e <_svfiprintf_r+0x1ce>
 80006ee:	9b03      	ldr	r3, [sp, #12]
 80006f0:	f10b 0002 	add.w	r0, fp, #2
 80006f4:	681a      	ldr	r2, [r3, #0]
 80006f6:	3304      	adds	r3, #4
 80006f8:	2a00      	cmp	r2, #0
 80006fa:	9303      	str	r3, [sp, #12]
 80006fc:	bfb8      	it	lt
 80006fe:	f04f 33ff 	movlt.w	r3, #4294967295	@ 0xffffffff
 8000702:	f89b 1002 	ldrb.w	r1, [fp, #2]
 8000706:	9205      	str	r2, [sp, #20]
 8000708:	4683      	mov	fp, r0
 800070a:	bfb8      	it	lt
 800070c:	9305      	strlt	r3, [sp, #20]
 800070e:	e78e      	b.n	800062e <_svfiprintf_r+0xbe>
 8000710:	9b03      	ldr	r3, [sp, #12]
 8000712:	3307      	adds	r3, #7
 8000714:	f023 0307 	bic.w	r3, r3, #7
 8000718:	3308      	adds	r3, #8
 800071a:	9303      	str	r3, [sp, #12]
 800071c:	e7ae      	b.n	800067c <_svfiprintf_r+0x10c>
 800071e:	4249      	negs	r1, r1
 8000720:	f043 0302 	orr.w	r3, r3, #2
 8000724:	9107      	str	r1, [sp, #28]
 8000726:	9304      	str	r3, [sp, #16]
 8000728:	e77e      	b.n	8000628 <_svfiprintf_r+0xb8>
 800072a:	a903      	add	r1, sp, #12
 800072c:	9100      	str	r1, [sp, #0]
 800072e:	464a      	mov	r2, r9
 8000730:	4650      	mov	r0, sl
 8000732:	4b1a      	ldr	r3, [pc, #104]	@ (800079c <_svfiprintf_r+0x22c>)
 8000734:	a904      	add	r1, sp, #16
 8000736:	f000 fabd 	bl	8000cb4 <_printf_i>
 800073a:	4680      	mov	r8, r0
 800073c:	e79b      	b.n	8000676 <_svfiprintf_r+0x106>
 800073e:	2300      	movs	r3, #0
 8000740:	f1a1 0230 	sub.w	r2, r1, #48	@ 0x30
 8000744:	2a09      	cmp	r2, #9
 8000746:	f10b 0b01 	add.w	fp, fp, #1
 800074a:	9305      	str	r3, [sp, #20]
 800074c:	f63f af6f 	bhi.w	800062e <_svfiprintf_r+0xbe>
 8000750:	f81b 1f01 	ldrb.w	r1, [fp, #1]!
 8000754:	eb03 0383 	add.w	r3, r3, r3, lsl #2
 8000758:	eb02 0343 	add.w	r3, r2, r3, lsl #1
 800075c:	f1a1 0230 	sub.w	r2, r1, #48	@ 0x30
 8000760:	2a09      	cmp	r2, #9
 8000762:	d9f5      	bls.n	8000750 <_svfiprintf_r+0x1e0>
 8000764:	9305      	str	r3, [sp, #20]
 8000766:	e762      	b.n	800062e <_svfiprintf_r+0xbe>
 8000768:	2140      	movs	r1, #64	@ 0x40
 800076a:	f000 f88b 	bl	8000884 <_malloc_r>
 800076e:	f8c9 0000 	str.w	r0, [r9]
 8000772:	f8c9 0010 	str.w	r0, [r9, #16]
 8000776:	b118      	cbz	r0, 8000780 <_svfiprintf_r+0x210>
 8000778:	2340      	movs	r3, #64	@ 0x40
 800077a:	f8c9 3014 	str.w	r3, [r9, #20]
 800077e:	e705      	b.n	800058c <_svfiprintf_r+0x1c>
 8000780:	230c      	movs	r3, #12
 8000782:	f8ca 3000 	str.w	r3, [sl]
 8000786:	f04f 30ff 	mov.w	r0, #4294967295	@ 0xffffffff
 800078a:	e783      	b.n	8000694 <_svfiprintf_r+0x124>
 800078c:	08007e2c 	.word	0x08007e2c
 8000790:	08007e34 	.word	0x08007e34
 8000794:	08007e38 	.word	0x08007e38
 8000798:	00000000 	.word	0x00000000
 800079c:	080003a1 	.word	0x080003a1

080007a0 <memchr>:
 80007a0:	fa5f fc81 	uxtb.w	ip, r1
 80007a4:	0781      	lsls	r1, r0, #30
 80007a6:	d044      	beq.n	8000832 <memchr+0x92>
 80007a8:	4603      	mov	r3, r0
 80007aa:	1e51      	subs	r1, r2, #1
 80007ac:	b922      	cbnz	r2, 80007b8 <memchr+0x18>
 80007ae:	e009      	b.n	80007c4 <memchr+0x24>
 80007b0:	079a      	lsls	r2, r3, #30
 80007b2:	d009      	beq.n	80007c8 <memchr+0x28>
 80007b4:	3901      	subs	r1, #1
 80007b6:	d305      	bcc.n	80007c4 <memchr+0x24>
 80007b8:	4618      	mov	r0, r3
 80007ba:	7802      	ldrb	r2, [r0, #0]
 80007bc:	3301      	adds	r3, #1
 80007be:	4562      	cmp	r2, ip
 80007c0:	d1f6      	bne.n	80007b0 <memchr+0x10>
 80007c2:	4770      	bx	lr
 80007c4:	2000      	movs	r0, #0
 80007c6:	4770      	bx	lr
 80007c8:	4618      	mov	r0, r3
 80007ca:	2903      	cmp	r1, #3
 80007cc:	d80c      	bhi.n	80007e8 <memchr+0x48>
 80007ce:	2900      	cmp	r1, #0
 80007d0:	d0f8      	beq.n	80007c4 <memchr+0x24>
 80007d2:	4603      	mov	r3, r0
 80007d4:	4401      	add	r1, r0
 80007d6:	e001      	b.n	80007dc <memchr+0x3c>
 80007d8:	428b      	cmp	r3, r1
 80007da:	d0f3      	beq.n	80007c4 <memchr+0x24>
 80007dc:	4618      	mov	r0, r3
 80007de:	f813 2b01 	ldrb.w	r2, [r3], #1
 80007e2:	4562      	cmp	r2, ip
 80007e4:	d1f8      	bne.n	80007d8 <memchr+0x38>
 80007e6:	4770      	bx	lr
 80007e8:	b510      	push	{r4, lr}
 80007ea:	eb0c 240c 	add.w	r4, ip, ip, lsl #8
 80007ee:	4602      	mov	r2, r0
 80007f0:	eb04 4404 	add.w	r4, r4, r4, lsl #16
 80007f4:	e002      	b.n	80007fc <memchr+0x5c>
 80007f6:	3904      	subs	r1, #4
 80007f8:	2903      	cmp	r1, #3
 80007fa:	d915      	bls.n	8000828 <memchr+0x88>
 80007fc:	4610      	mov	r0, r2
 80007fe:	f852 3b04 	ldr.w	r3, [r2], #4
 8000802:	4063      	eors	r3, r4
 8000804:	f1a3 3e01 	sub.w	lr, r3, #16843009	@ 0x1010101
 8000808:	ea2e 0303 	bic.w	r3, lr, r3
 800080c:	f013 3f80 	tst.w	r3, #2155905152	@ 0x80808080
 8000810:	d0f1      	beq.n	80007f6 <memchr+0x56>
 8000812:	4603      	mov	r3, r0
 8000814:	4401      	add	r1, r0
 8000816:	e001      	b.n	800081c <memchr+0x7c>
 8000818:	428b      	cmp	r3, r1
 800081a:	d008      	beq.n	800082e <memchr+0x8e>
 800081c:	4618      	mov	r0, r3
 800081e:	f813 2b01 	ldrb.w	r2, [r3], #1
 8000822:	4562      	cmp	r2, ip
 8000824:	d1f8      	bne.n	8000818 <memchr+0x78>
 8000826:	bd10      	pop	{r4, pc}
 8000828:	4610      	mov	r0, r2
 800082a:	2900      	cmp	r1, #0
 800082c:	d1f1      	bne.n	8000812 <memchr+0x72>
 800082e:	2000      	movs	r0, #0
 8000830:	bd10      	pop	{r4, pc}
 8000832:	4611      	mov	r1, r2
 8000834:	e7c9      	b.n	80007ca <memchr+0x2a>
 8000836:	bf00      	nop

08000838 <sbrk_aligned>:
 8000838:	b570      	push	{r4, r5, r6, lr}
 800083a:	4e11      	ldr	r6, [pc, #68]	@ (8000880 <sbrk_aligned+0x48>)
 800083c:	4605      	mov	r5, r0
 800083e:	6833      	ldr	r3, [r6, #0]
 8000840:	460c      	mov	r4, r1
 8000842:	b1bb      	cbz	r3, 8000874 <sbrk_aligned+0x3c>
 8000844:	4621      	mov	r1, r4
 8000846:	4628      	mov	r0, r5
 8000848:	f000 fbf8 	bl	800103c <_sbrk_r>
 800084c:	1c43      	adds	r3, r0, #1
 800084e:	4601      	mov	r1, r0
 8000850:	d00c      	beq.n	800086c <sbrk_aligned+0x34>
 8000852:	1cc4      	adds	r4, r0, #3
 8000854:	f024 0403 	bic.w	r4, r4, #3
 8000858:	42a0      	cmp	r0, r4
 800085a:	d005      	beq.n	8000868 <sbrk_aligned+0x30>
 800085c:	4628      	mov	r0, r5
 800085e:	1a61      	subs	r1, r4, r1
 8000860:	f000 fbec 	bl	800103c <_sbrk_r>
 8000864:	3001      	adds	r0, #1
 8000866:	d001      	beq.n	800086c <sbrk_aligned+0x34>
 8000868:	4620      	mov	r0, r4
 800086a:	bd70      	pop	{r4, r5, r6, pc}
 800086c:	f04f 34ff 	mov.w	r4, #4294967295	@ 0xffffffff
 8000870:	4620      	mov	r0, r4
 8000872:	bd70      	pop	{r4, r5, r6, pc}
 8000874:	4619      	mov	r1, r3
 8000876:	f000 fbe1 	bl	800103c <_sbrk_r>
 800087a:	6030      	str	r0, [r6, #0]
 800087c:	e7e2      	b.n	8000844 <sbrk_aligned+0xc>
 800087e:	bf00      	nop
 8000880:	20000338 	.word	0x20000338

08000884 <_malloc_r>:
 8000884:	e92d 43f8 	stmdb	sp!, {r3, r4, r5, r6, r7, r8, r9, lr}
 8000888:	1ccd      	adds	r5, r1, #3
 800088a:	f025 0503 	bic.w	r5, r5, #3
 800088e:	3508      	adds	r5, #8
 8000890:	2d0c      	cmp	r5, #12
 8000892:	bf38      	it	cc
 8000894:	250c      	movcc	r5, #12
 8000896:	2d00      	cmp	r5, #0
 8000898:	4606      	mov	r6, r0
 800089a:	db18      	blt.n	80008ce <_malloc_r+0x4a>
 800089c:	42a9      	cmp	r1, r5
 800089e:	d816      	bhi.n	80008ce <_malloc_r+0x4a>
 80008a0:	f8df 80dc 	ldr.w	r8, [pc, #220]	@ 8000980 <_malloc_r+0xfc>
 80008a4:	f000 fb48 	bl	8000f38 <__malloc_lock>
 80008a8:	f8d8 2004 	ldr.w	r2, [r8, #4]
 80008ac:	b1a2      	cbz	r2, 80008d8 <_malloc_r+0x54>
 80008ae:	4614      	mov	r4, r2
 80008b0:	e003      	b.n	80008ba <_malloc_r+0x36>
 80008b2:	6863      	ldr	r3, [r4, #4]
 80008b4:	4622      	mov	r2, r4
 80008b6:	b17b      	cbz	r3, 80008d8 <_malloc_r+0x54>
 80008b8:	461c      	mov	r4, r3
 80008ba:	6823      	ldr	r3, [r4, #0]
 80008bc:	1b5b      	subs	r3, r3, r5
 80008be:	d4f8      	bmi.n	80008b2 <_malloc_r+0x2e>
 80008c0:	2b0b      	cmp	r3, #11
 80008c2:	d81f      	bhi.n	8000904 <_malloc_r+0x80>
 80008c4:	4294      	cmp	r4, r2
 80008c6:	6863      	ldr	r3, [r4, #4]
 80008c8:	d054      	beq.n	8000974 <_malloc_r+0xf0>
 80008ca:	6053      	str	r3, [r2, #4]
 80008cc:	e00c      	b.n	80008e8 <_malloc_r+0x64>
 80008ce:	230c      	movs	r3, #12
 80008d0:	6033      	str	r3, [r6, #0]
 80008d2:	2000      	movs	r0, #0
 80008d4:	e8bd 83f8 	ldmia.w	sp!, {r3, r4, r5, r6, r7, r8, r9, pc}
 80008d8:	4629      	mov	r1, r5
 80008da:	4630      	mov	r0, r6
 80008dc:	f7ff ffac 	bl	8000838 <sbrk_aligned>
 80008e0:	1c43      	adds	r3, r0, #1
 80008e2:	4604      	mov	r4, r0
 80008e4:	d019      	beq.n	800091a <_malloc_r+0x96>
 80008e6:	6005      	str	r5, [r0, #0]
 80008e8:	4630      	mov	r0, r6
 80008ea:	f000 fb27 	bl	8000f3c <__malloc_unlock>
 80008ee:	f104 000b 	add.w	r0, r4, #11
 80008f2:	1d23      	adds	r3, r4, #4
 80008f4:	f020 0007 	bic.w	r0, r0, #7
 80008f8:	1ac2      	subs	r2, r0, r3
 80008fa:	bf1c      	itt	ne
 80008fc:	1a1b      	subne	r3, r3, r0
 80008fe:	50a3      	strne	r3, [r4, r2]
 8000900:	e8bd 83f8 	ldmia.w	sp!, {r3, r4, r5, r6, r7, r8, r9, pc}
 8000904:	1961      	adds	r1, r4, r5
 8000906:	4294      	cmp	r4, r2
 8000908:	6025      	str	r5, [r4, #0]
 800090a:	bf14      	ite	ne
 800090c:	6051      	strne	r1, [r2, #4]
 800090e:	f8c8 1004 	streq.w	r1, [r8, #4]
 8000912:	5163      	str	r3, [r4, r5]
 8000914:	6863      	ldr	r3, [r4, #4]
 8000916:	604b      	str	r3, [r1, #4]
 8000918:	e7e6      	b.n	80008e8 <_malloc_r+0x64>
 800091a:	f8d8 7004 	ldr.w	r7, [r8, #4]
 800091e:	b31f      	cbz	r7, 8000968 <_malloc_r+0xe4>
 8000920:	463c      	mov	r4, r7
 8000922:	687f      	ldr	r7, [r7, #4]
 8000924:	2f00      	cmp	r7, #0
 8000926:	d1fb      	bne.n	8000920 <_malloc_r+0x9c>
 8000928:	6823      	ldr	r3, [r4, #0]
 800092a:	4639      	mov	r1, r7
 800092c:	4630      	mov	r0, r6
 800092e:	eb04 0903 	add.w	r9, r4, r3
 8000932:	f000 fb83 	bl	800103c <_sbrk_r>
 8000936:	4581      	cmp	r9, r0
 8000938:	d116      	bne.n	8000968 <_malloc_r+0xe4>
 800093a:	6823      	ldr	r3, [r4, #0]
 800093c:	4630      	mov	r0, r6
 800093e:	1aed      	subs	r5, r5, r3
 8000940:	4629      	mov	r1, r5
 8000942:	f7ff ff79 	bl	8000838 <sbrk_aligned>
 8000946:	3001      	adds	r0, #1
 8000948:	d00e      	beq.n	8000968 <_malloc_r+0xe4>
 800094a:	6823      	ldr	r3, [r4, #0]
 800094c:	f8d8 2004 	ldr.w	r2, [r8, #4]
 8000950:	442b      	add	r3, r5
 8000952:	6023      	str	r3, [r4, #0]
 8000954:	6853      	ldr	r3, [r2, #4]
 8000956:	b183      	cbz	r3, 800097a <_malloc_r+0xf6>
 8000958:	42a3      	cmp	r3, r4
 800095a:	d003      	beq.n	8000964 <_malloc_r+0xe0>
 800095c:	461a      	mov	r2, r3
 800095e:	685b      	ldr	r3, [r3, #4]
 8000960:	429c      	cmp	r4, r3
 8000962:	d1fb      	bne.n	800095c <_malloc_r+0xd8>
 8000964:	2300      	movs	r3, #0
 8000966:	e7b0      	b.n	80008ca <_malloc_r+0x46>
 8000968:	230c      	movs	r3, #12
 800096a:	4630      	mov	r0, r6
 800096c:	6033      	str	r3, [r6, #0]
 800096e:	f000 fae5 	bl	8000f3c <__malloc_unlock>
 8000972:	e7ae      	b.n	80008d2 <_malloc_r+0x4e>
 8000974:	f8c8 3004 	str.w	r3, [r8, #4]
 8000978:	e7b6      	b.n	80008e8 <_malloc_r+0x64>
 800097a:	f8c8 7004 	str.w	r7, [r8, #4]
 800097e:	e7b3      	b.n	80008e8 <_malloc_r+0x64>
 8000980:	20000338 	.word	0x20000338

08000984 <memcpy>:
 8000984:	4684      	mov	ip, r0
 8000986:	ea41 0300 	orr.w	r3, r1, r0
 800098a:	f013 0303 	ands.w	r3, r3, #3
 800098e:	d149      	bne.n	8000a24 <memcpy+0xa0>
 8000990:	3a40      	subs	r2, #64	@ 0x40
 8000992:	d323      	bcc.n	80009dc <memcpy+0x58>
 8000994:	680b      	ldr	r3, [r1, #0]
 8000996:	6003      	str	r3, [r0, #0]
 8000998:	684b      	ldr	r3, [r1, #4]
 800099a:	6043      	str	r3, [r0, #4]
 800099c:	688b      	ldr	r3, [r1, #8]
 800099e:	6083      	str	r3, [r0, #8]
 80009a0:	68cb      	ldr	r3, [r1, #12]
 80009a2:	60c3      	str	r3, [r0, #12]
 80009a4:	690b      	ldr	r3, [r1, #16]
 80009a6:	6103      	str	r3, [r0, #16]
 80009a8:	694b      	ldr	r3, [r1, #20]
 80009aa:	6143      	str	r3, [r0, #20]
 80009ac:	698b      	ldr	r3, [r1, #24]
 80009ae:	6183      	str	r3, [r0, #24]
 80009b0:	69cb      	ldr	r3, [r1, #28]
 80009b2:	61c3      	str	r3, [r0, #28]
 80009b4:	6a0b      	ldr	r3, [r1, #32]
 80009b6:	6203      	str	r3, [r0, #32]
 80009b8:	6a4b      	ldr	r3, [r1, #36]	@ 0x24
 80009ba:	6243      	str	r3, [r0, #36]	@ 0x24
 80009bc:	6a8b      	ldr	r3, [r1, #40]	@ 0x28
 80009be:	6283      	str	r3, [r0, #40]	@ 0x28
 80009c0:	6acb      	ldr	r3, [r1, #44]	@ 0x2c
 80009c2:	62c3      	str	r3, [r0, #44]	@ 0x2c
 80009c4:	6b0b      	ldr	r3, [r1, #48]	@ 0x30
 80009c6:	6303      	str	r3, [r0, #48]	@ 0x30
 80009c8:	6b4b      	ldr	r3, [r1, #52]	@ 0x34
 80009ca:	6343      	str	r3, [r0, #52]	@ 0x34
 80009cc:	6b8b      	ldr	r3, [r1, #56]	@ 0x38
 80009ce:	6383      	str	r3, [r0, #56]	@ 0x38
 80009d0:	6bcb      	ldr	r3, [r1, #60]	@ 0x3c
 80009d2:	63c3      	str	r3, [r0, #60]	@ 0x3c
 80009d4:	3040      	adds	r0, #64	@ 0x40
 80009d6:	3140      	adds	r1, #64	@ 0x40
 80009d8:	3a40      	subs	r2, #64	@ 0x40
 80009da:	d2db      	bcs.n	8000994 <memcpy+0x10>
 80009dc:	3230      	adds	r2, #48	@ 0x30
 80009de:	d30b      	bcc.n	80009f8 <memcpy+0x74>
 80009e0:	680b      	ldr	r3, [r1, #0]
 80009e2:	6003      	str	r3, [r0, #0]
 80009e4:	684b      	ldr	r3, [r1, #4]
 80009e6:	6043      	str	r3, [r0, #4]
 80009e8:	688b      	ldr	r3, [r1, #8]
 80009ea:	6083      	str	r3, [r0, #8]
 80009ec:	68cb      	ldr	r3, [r1, #12]
 80009ee:	60c3      	str	r3, [r0, #12]
 80009f0:	3010      	adds	r0, #16
 80009f2:	3110      	adds	r1, #16
 80009f4:	3a10      	subs	r2, #16
 80009f6:	d2f3      	bcs.n	80009e0 <memcpy+0x5c>
 80009f8:	320c      	adds	r2, #12
 80009fa:	d305      	bcc.n	8000a08 <memcpy+0x84>
 80009fc:	f851 3b04 	ldr.w	r3, [r1], #4
 8000a00:	f840 3b04 	str.w	r3, [r0], #4
 8000a04:	3a04      	subs	r2, #4
 8000a06:	d2f9      	bcs.n	80009fc <memcpy+0x78>
 8000a08:	3204      	adds	r2, #4
 8000a0a:	d008      	beq.n	8000a1e <memcpy+0x9a>
 8000a0c:	07d2      	lsls	r2, r2, #31
 8000a0e:	bf1c      	itt	ne
 8000a10:	f811 3b01 	ldrbne.w	r3, [r1], #1
 8000a14:	f800 3b01 	strbne.w	r3, [r0], #1
 8000a18:	d301      	bcc.n	8000a1e <memcpy+0x9a>
 8000a1a:	880b      	ldrh	r3, [r1, #0]
 8000a1c:	8003      	strh	r3, [r0, #0]
 8000a1e:	4660      	mov	r0, ip
 8000a20:	4770      	bx	lr
 8000a22:	bf00      	nop
 8000a24:	2a08      	cmp	r2, #8
 8000a26:	d313      	bcc.n	8000a50 <memcpy+0xcc>
 8000a28:	078b      	lsls	r3, r1, #30
 8000a2a:	d0b1      	beq.n	8000990 <memcpy+0xc>
 8000a2c:	f010 0303 	ands.w	r3, r0, #3
 8000a30:	d0ae      	beq.n	8000990 <memcpy+0xc>
 8000a32:	f1c3 0304 	rsb	r3, r3, #4
 8000a36:	1ad2      	subs	r2, r2, r3
 8000a38:	07db      	lsls	r3, r3, #31
 8000a3a:	bf1c      	itt	ne
 8000a3c:	f811 3b01 	ldrbne.w	r3, [r1], #1
 8000a40:	f800 3b01 	strbne.w	r3, [r0], #1
 8000a44:	d3a4      	bcc.n	8000990 <memcpy+0xc>
 8000a46:	f831 3b02 	ldrh.w	r3, [r1], #2
 8000a4a:	f820 3b02 	strh.w	r3, [r0], #2
 8000a4e:	e79f      	b.n	8000990 <memcpy+0xc>
 8000a50:	3a04      	subs	r2, #4
 8000a52:	d3d9      	bcc.n	8000a08 <memcpy+0x84>
 8000a54:	3a01      	subs	r2, #1
 8000a56:	f811 3b01 	ldrb.w	r3, [r1], #1
 8000a5a:	f800 3b01 	strb.w	r3, [r0], #1
 8000a5e:	d2f9      	bcs.n	8000a54 <memcpy+0xd0>
 8000a60:	780b      	ldrb	r3, [r1, #0]
 8000a62:	7003      	strb	r3, [r0, #0]
 8000a64:	784b      	ldrb	r3, [r1, #1]
 8000a66:	7043      	strb	r3, [r0, #1]
 8000a68:	788b      	ldrb	r3, [r1, #2]
 8000a6a:	7083      	strb	r3, [r0, #2]
 8000a6c:	4660      	mov	r0, ip
 8000a6e:	4770      	bx	lr

08000a70 <_free_r>:
 8000a70:	2900      	cmp	r1, #0
 8000a72:	d050      	beq.n	8000b16 <_free_r+0xa6>
 8000a74:	b538      	push	{r3, r4, r5, lr}
 8000a76:	f851 3c04 	ldr.w	r3, [r1, #-4]
 8000a7a:	1f0c      	subs	r4, r1, #4
 8000a7c:	2b00      	cmp	r3, #0
 8000a7e:	bfb8      	it	lt
 8000a80:	18e4      	addlt	r4, r4, r3
 8000a82:	4605      	mov	r5, r0
 8000a84:	f000 fa58 	bl	8000f38 <__malloc_lock>
 8000a88:	4a27      	ldr	r2, [pc, #156]	@ (8000b28 <_free_r+0xb8>)
 8000a8a:	6813      	ldr	r3, [r2, #0]
 8000a8c:	b12b      	cbz	r3, 8000a9a <_free_r+0x2a>
 8000a8e:	42a3      	cmp	r3, r4
 8000a90:	d90c      	bls.n	8000aac <_free_r+0x3c>
 8000a92:	6821      	ldr	r1, [r4, #0]
 8000a94:	1860      	adds	r0, r4, r1
 8000a96:	4283      	cmp	r3, r0
 8000a98:	d02c      	beq.n	8000af4 <_free_r+0x84>
 8000a9a:	4628      	mov	r0, r5
 8000a9c:	6063      	str	r3, [r4, #4]
 8000a9e:	6014      	str	r4, [r2, #0]
 8000aa0:	e8bd 4038 	ldmia.w	sp!, {r3, r4, r5, lr}
 8000aa4:	f000 ba4a 	b.w	8000f3c <__malloc_unlock>
 8000aa8:	42a3      	cmp	r3, r4
 8000aaa:	d80f      	bhi.n	8000acc <_free_r+0x5c>
 8000aac:	461a      	mov	r2, r3
 8000aae:	685b      	ldr	r3, [r3, #4]
 8000ab0:	2b00      	cmp	r3, #0
 8000ab2:	d1f9      	bne.n	8000aa8 <_free_r+0x38>
 8000ab4:	6811      	ldr	r1, [r2, #0]
 8000ab6:	1850      	adds	r0, r2, r1
 8000ab8:	4284      	cmp	r4, r0
 8000aba:	d017      	beq.n	8000aec <_free_r+0x7c>
 8000abc:	d32c      	bcc.n	8000b18 <_free_r+0xa8>
 8000abe:	6063      	str	r3, [r4, #4]
 8000ac0:	6054      	str	r4, [r2, #4]
 8000ac2:	4628      	mov	r0, r5
 8000ac4:	e8bd 4038 	ldmia.w	sp!, {r3, r4, r5, lr}
 8000ac8:	f000 ba38 	b.w	8000f3c <__malloc_unlock>
 8000acc:	6811      	ldr	r1, [r2, #0]
 8000ace:	1850      	adds	r0, r2, r1
 8000ad0:	42a0      	cmp	r0, r4
 8000ad2:	d014      	beq.n	8000afe <_free_r+0x8e>
 8000ad4:	d820      	bhi.n	8000b18 <_free_r+0xa8>
 8000ad6:	6821      	ldr	r1, [r4, #0]
 8000ad8:	1860      	adds	r0, r4, r1
 8000ada:	4283      	cmp	r3, r0
 8000adc:	d1ef      	bne.n	8000abe <_free_r+0x4e>
 8000ade:	6818      	ldr	r0, [r3, #0]
 8000ae0:	685b      	ldr	r3, [r3, #4]
 8000ae2:	4408      	add	r0, r1
 8000ae4:	e9c4 0300 	strd	r0, r3, [r4]
 8000ae8:	6054      	str	r4, [r2, #4]
 8000aea:	e7ea      	b.n	8000ac2 <_free_r+0x52>
 8000aec:	6823      	ldr	r3, [r4, #0]
 8000aee:	440b      	add	r3, r1
 8000af0:	6013      	str	r3, [r2, #0]
 8000af2:	e7e6      	b.n	8000ac2 <_free_r+0x52>
 8000af4:	6818      	ldr	r0, [r3, #0]
 8000af6:	685b      	ldr	r3, [r3, #4]
 8000af8:	4408      	add	r0, r1
 8000afa:	6020      	str	r0, [r4, #0]
 8000afc:	e7cd      	b.n	8000a9a <_free_r+0x2a>
 8000afe:	6820      	ldr	r0, [r4, #0]
 8000b00:	4401      	add	r1, r0
 8000b02:	1850      	adds	r0, r2, r1
 8000b04:	4283      	cmp	r3, r0
 8000b06:	6011      	str	r1, [r2, #0]
 8000b08:	d1db      	bne.n	8000ac2 <_free_r+0x52>
 8000b0a:	e9d3 0400 	ldrd	r0, r4, [r3]
 8000b0e:	4401      	add	r1, r0
 8000b10:	e9c2 1400 	strd	r1, r4, [r2]
 8000b14:	e7d5      	b.n	8000ac2 <_free_r+0x52>
 8000b16:	4770      	bx	lr
 8000b18:	230c      	movs	r3, #12
 8000b1a:	4628      	mov	r0, r5
 8000b1c:	602b      	str	r3, [r5, #0]
 8000b1e:	e8bd 4038 	ldmia.w	sp!, {r3, r4, r5, lr}
 8000b22:	f000 ba0b 	b.w	8000f3c <__malloc_unlock>
 8000b26:	bf00      	nop
 8000b28:	2000033c 	.word	0x2000033c

08000b2c <_realloc_r>:
 8000b2c:	e92d 41f0 	stmdb	sp!, {r4, r5, r6, r7, r8, lr}
 8000b30:	4614      	mov	r4, r2
 8000b32:	b341      	cbz	r1, 8000b86 <_realloc_r+0x5a>
 8000b34:	b30a      	cbz	r2, 8000b7a <_realloc_r+0x4e>
 8000b36:	4606      	mov	r6, r0
 8000b38:	460d      	mov	r5, r1
 8000b3a:	f000 fa91 	bl	8001060 <_malloc_usable_size_r>
 8000b3e:	4284      	cmp	r4, r0
 8000b40:	4607      	mov	r7, r0
 8000b42:	d802      	bhi.n	8000b4a <_realloc_r+0x1e>
 8000b44:	ebb4 0f50 	cmp.w	r4, r0, lsr #1
 8000b48:	d813      	bhi.n	8000b72 <_realloc_r+0x46>
 8000b4a:	4621      	mov	r1, r4
 8000b4c:	4630      	mov	r0, r6
 8000b4e:	f7ff fe99 	bl	8000884 <_malloc_r>
 8000b52:	4680      	mov	r8, r0
 8000b54:	b150      	cbz	r0, 8000b6c <_realloc_r+0x40>
 8000b56:	42bc      	cmp	r4, r7
 8000b58:	4622      	mov	r2, r4
 8000b5a:	4629      	mov	r1, r5
 8000b5c:	bf28      	it	cs
 8000b5e:	463a      	movcs	r2, r7
 8000b60:	f7ff ff10 	bl	8000984 <memcpy>
 8000b64:	4629      	mov	r1, r5
 8000b66:	4630      	mov	r0, r6
 8000b68:	f7ff ff82 	bl	8000a70 <_free_r>
 8000b6c:	4640      	mov	r0, r8
 8000b6e:	e8bd 81f0 	ldmia.w	sp!, {r4, r5, r6, r7, r8, pc}
 8000b72:	46a8      	mov	r8, r5
 8000b74:	4640      	mov	r0, r8
 8000b76:	e8bd 81f0 	ldmia.w	sp!, {r4, r5, r6, r7, r8, pc}
 8000b7a:	46a0      	mov	r8, r4
 8000b7c:	f7ff ff78 	bl	8000a70 <_free_r>
 8000b80:	4640      	mov	r0, r8
 8000b82:	e8bd 81f0 	ldmia.w	sp!, {r4, r5, r6, r7, r8, pc}
 8000b86:	4611      	mov	r1, r2
 8000b88:	e8bd 41f0 	ldmia.w	sp!, {r4, r5, r6, r7, r8, lr}
 8000b8c:	f7ff be7a 	b.w	8000884 <_malloc_r>

08000b90 <_printf_common>:
 8000b90:	e92d 4ff8 	stmdb	sp!, {r3, r4, r5, r6, r7, r8, r9, sl, fp, lr}
 8000b94:	4692      	mov	sl, r2
 8000b96:	461f      	mov	r7, r3
 8000b98:	690a      	ldr	r2, [r1, #16]
 8000b9a:	688b      	ldr	r3, [r1, #8]
 8000b9c:	460c      	mov	r4, r1
 8000b9e:	429a      	cmp	r2, r3
 8000ba0:	bfb8      	it	lt
 8000ba2:	461a      	movlt	r2, r3
 8000ba4:	f8ca 2000 	str.w	r2, [sl]
 8000ba8:	f891 3043 	ldrb.w	r3, [r1, #67]	@ 0x43
 8000bac:	4606      	mov	r6, r0
 8000bae:	f8dd 9028 	ldr.w	r9, [sp, #40]	@ 0x28
 8000bb2:	b113      	cbz	r3, 8000bba <_printf_common+0x2a>
 8000bb4:	3201      	adds	r2, #1
 8000bb6:	f8ca 2000 	str.w	r2, [sl]
 8000bba:	6822      	ldr	r2, [r4, #0]
 8000bbc:	0691      	lsls	r1, r2, #26
 8000bbe:	d55f      	bpl.n	8000c80 <_printf_common+0xf0>
 8000bc0:	f8da 3000 	ldr.w	r3, [sl]
 8000bc4:	3302      	adds	r3, #2
 8000bc6:	f8ca 3000 	str.w	r3, [sl]
 8000bca:	6822      	ldr	r2, [r4, #0]
 8000bcc:	f012 0f06 	tst.w	r2, #6
 8000bd0:	4611      	mov	r1, r2
 8000bd2:	d11d      	bne.n	8000c10 <_printf_common+0x80>
 8000bd4:	68e1      	ldr	r1, [r4, #12]
 8000bd6:	4299      	cmp	r1, r3
 8000bd8:	bfd8      	it	le
 8000bda:	4611      	movle	r1, r2
 8000bdc:	dd18      	ble.n	8000c10 <_printf_common+0x80>
 8000bde:	f04f 0800 	mov.w	r8, #0
 8000be2:	f104 0b19 	add.w	fp, r4, #25
 8000be6:	e005      	b.n	8000bf4 <_printf_common+0x64>
 8000be8:	68e5      	ldr	r5, [r4, #12]
 8000bea:	f8da 3000 	ldr.w	r3, [sl]
 8000bee:	1aed      	subs	r5, r5, r3
 8000bf0:	4545      	cmp	r5, r8
 8000bf2:	dd0c      	ble.n	8000c0e <_printf_common+0x7e>
 8000bf4:	2301      	movs	r3, #1
 8000bf6:	465a      	mov	r2, fp
 8000bf8:	4639      	mov	r1, r7
 8000bfa:	4630      	mov	r0, r6
 8000bfc:	47c8      	blx	r9
 8000bfe:	3001      	adds	r0, #1
 8000c00:	f108 0801 	add.w	r8, r8, #1
 8000c04:	d1f0      	bne.n	8000be8 <_printf_common+0x58>
 8000c06:	f04f 30ff 	mov.w	r0, #4294967295	@ 0xffffffff
 8000c0a:	e8bd 8ff8 	ldmia.w	sp!, {r3, r4, r5, r6, r7, r8, r9, sl, fp, pc}
 8000c0e:	6821      	ldr	r1, [r4, #0]
 8000c10:	f894 3043 	ldrb.w	r3, [r4, #67]	@ 0x43
 8000c14:	3b00      	subs	r3, #0
 8000c16:	bf18      	it	ne
 8000c18:	2301      	movne	r3, #1
 8000c1a:	068a      	lsls	r2, r1, #26
 8000c1c:	d50a      	bpl.n	8000c34 <_printf_common+0xa4>
 8000c1e:	2130      	movs	r1, #48	@ 0x30
 8000c20:	18e2      	adds	r2, r4, r3
 8000c22:	f882 1043 	strb.w	r1, [r2, #67]	@ 0x43
 8000c26:	f894 1045 	ldrb.w	r1, [r4, #69]	@ 0x45
 8000c2a:	1c5a      	adds	r2, r3, #1
 8000c2c:	4422      	add	r2, r4
 8000c2e:	3302      	adds	r3, #2
 8000c30:	f882 1043 	strb.w	r1, [r2, #67]	@ 0x43
 8000c34:	4639      	mov	r1, r7
 8000c36:	4630      	mov	r0, r6
 8000c38:	f104 0243 	add.w	r2, r4, #67	@ 0x43
 8000c3c:	47c8      	blx	r9
 8000c3e:	3001      	adds	r0, #1
 8000c40:	d0e1      	beq.n	8000c06 <_printf_common+0x76>
 8000c42:	e9d4 2002 	ldrd	r2, r0, [r4, #8]
 8000c46:	6823      	ldr	r3, [r4, #0]
 8000c48:	f8da 5000 	ldr.w	r5, [sl]
 8000c4c:	f003 0306 	and.w	r3, r3, #6
 8000c50:	2b04      	cmp	r3, #4
 8000c52:	6921      	ldr	r1, [r4, #16]
 8000c54:	d01b      	beq.n	8000c8e <_printf_common+0xfe>
 8000c56:	428a      	cmp	r2, r1
 8000c58:	dd20      	ble.n	8000c9c <_printf_common+0x10c>
 8000c5a:	f04f 0800 	mov.w	r8, #0
 8000c5e:	1a52      	subs	r2, r2, r1
 8000c60:	4490      	add	r8, r2
 8000c62:	2500      	movs	r5, #0
 8000c64:	341a      	adds	r4, #26
 8000c66:	e001      	b.n	8000c6c <_printf_common+0xdc>
 8000c68:	4545      	cmp	r5, r8
 8000c6a:	da17      	bge.n	8000c9c <_printf_common+0x10c>
 8000c6c:	2301      	movs	r3, #1
 8000c6e:	4622      	mov	r2, r4
 8000c70:	4639      	mov	r1, r7
 8000c72:	4630      	mov	r0, r6
 8000c74:	47c8      	blx	r9
 8000c76:	3001      	adds	r0, #1
 8000c78:	f105 0501 	add.w	r5, r5, #1
 8000c7c:	d1f4      	bne.n	8000c68 <_printf_common+0xd8>
 8000c7e:	e7c2      	b.n	8000c06 <_printf_common+0x76>
 8000c80:	f012 0f06 	tst.w	r2, #6
 8000c84:	d00d      	beq.n	8000ca2 <_printf_common+0x112>
 8000c86:	3b00      	subs	r3, #0
 8000c88:	bf18      	it	ne
 8000c8a:	2301      	movne	r3, #1
 8000c8c:	e7d2      	b.n	8000c34 <_printf_common+0xa4>
 8000c8e:	1b40      	subs	r0, r0, r5
 8000c90:	428a      	cmp	r2, r1
 8000c92:	ea20 78e0 	bic.w	r8, r0, r0, asr #31
 8000c96:	dce2      	bgt.n	8000c5e <_printf_common+0xce>
 8000c98:	2800      	cmp	r0, #0
 8000c9a:	dce2      	bgt.n	8000c62 <_printf_common+0xd2>
 8000c9c:	2000      	movs	r0, #0
 8000c9e:	e8bd 8ff8 	ldmia.w	sp!, {r3, r4, r5, r6, r7, r8, r9, sl, fp, pc}
 8000ca2:	68e1      	ldr	r1, [r4, #12]
 8000ca4:	f8da 3000 	ldr.w	r3, [sl]
 8000ca8:	4299      	cmp	r1, r3
 8000caa:	bfd8      	it	le
 8000cac:	4611      	movle	r1, r2
 8000cae:	dc96      	bgt.n	8000bde <_printf_common+0x4e>
 8000cb0:	e7ae      	b.n	8000c10 <_printf_common+0x80>
 8000cb2:	bf00      	nop

08000cb4 <_printf_i>:
 8000cb4:	e92d 47f0 	stmdb	sp!, {r4, r5, r6, r7, r8, r9, sl, lr}
 8000cb8:	4617      	mov	r7, r2
 8000cba:	7e0a      	ldrb	r2, [r1, #24]
 8000cbc:	b084      	sub	sp, #16
 8000cbe:	460c      	mov	r4, r1
 8000cc0:	4606      	mov	r6, r0
 8000cc2:	4698      	mov	r8, r3
 8000cc4:	9d0c      	ldr	r5, [sp, #48]	@ 0x30
 8000cc6:	f101 0c43 	add.w	ip, r1, #67	@ 0x43
 8000cca:	2a00      	cmp	r2, #0
 8000ccc:	d035      	beq.n	8000d3a <_printf_i+0x86>
 8000cce:	f1a2 0358 	sub.w	r3, r2, #88	@ 0x58
 8000cd2:	b2d9      	uxtb	r1, r3
 8000cd4:	2920      	cmp	r1, #32
 8000cd6:	d869      	bhi.n	8000dac <_printf_i+0xf8>
 8000cd8:	2b20      	cmp	r3, #32
 8000cda:	d867      	bhi.n	8000dac <_printf_i+0xf8>
 8000cdc:	e8df f013 	tbh	[pc, r3, lsl #1]
 8000ce0:	006600e6 	.word	0x006600e6
 8000ce4:	00660066 	.word	0x00660066
 8000ce8:	00660066 	.word	0x00660066
 8000cec:	00660066 	.word	0x00660066
 8000cf0:	00660066 	.word	0x00660066
 8000cf4:	00ac0066 	.word	0x00ac0066
 8000cf8:	00660070 	.word	0x00660070
 8000cfc:	00660066 	.word	0x00660066
 8000d00:	00700066 	.word	0x00700066
 8000d04:	00660066 	.word	0x00660066
 8000d08:	00660066 	.word	0x00660066
 8000d0c:	00830021 	.word	0x00830021
 8000d10:	006600c6 	.word	0x006600c6
 8000d14:	00b60066 	.word	0x00b60066
 8000d18:	00830066 	.word	0x00830066
 8000d1c:	00660066 	.word	0x00660066
 8000d20:	00ec      	.short	0x00ec
 8000d22:	682b      	ldr	r3, [r5, #0]
 8000d24:	6822      	ldr	r2, [r4, #0]
 8000d26:	1d18      	adds	r0, r3, #4
 8000d28:	6961      	ldr	r1, [r4, #20]
 8000d2a:	6028      	str	r0, [r5, #0]
 8000d2c:	0610      	lsls	r0, r2, #24
 8000d2e:	681b      	ldr	r3, [r3, #0]
 8000d30:	d402      	bmi.n	8000d38 <_printf_i+0x84>
 8000d32:	0652      	lsls	r2, r2, #25
 8000d34:	f100 80e0 	bmi.w	8000ef8 <_printf_i+0x244>
 8000d38:	6019      	str	r1, [r3, #0]
 8000d3a:	2300      	movs	r3, #0
 8000d3c:	46e1      	mov	r9, ip
 8000d3e:	6123      	str	r3, [r4, #16]
 8000d40:	463b      	mov	r3, r7
 8000d42:	4621      	mov	r1, r4
 8000d44:	4630      	mov	r0, r6
 8000d46:	f8cd 8000 	str.w	r8, [sp]
 8000d4a:	aa03      	add	r2, sp, #12
 8000d4c:	f7ff ff20 	bl	8000b90 <_printf_common>
 8000d50:	3001      	adds	r0, #1
 8000d52:	d020      	beq.n	8000d96 <_printf_i+0xe2>
 8000d54:	464a      	mov	r2, r9
 8000d56:	4639      	mov	r1, r7
 8000d58:	4630      	mov	r0, r6
 8000d5a:	6923      	ldr	r3, [r4, #16]
 8000d5c:	47c0      	blx	r8
 8000d5e:	3001      	adds	r0, #1
 8000d60:	d019      	beq.n	8000d96 <_printf_i+0xe2>
 8000d62:	6823      	ldr	r3, [r4, #0]
 8000d64:	68e0      	ldr	r0, [r4, #12]
 8000d66:	079b      	lsls	r3, r3, #30
 8000d68:	f8dd 900c 	ldr.w	r9, [sp, #12]
 8000d6c:	d518      	bpl.n	8000da0 <_printf_i+0xec>
 8000d6e:	4548      	cmp	r0, r9
 8000d70:	dd16      	ble.n	8000da0 <_printf_i+0xec>
 8000d72:	2500      	movs	r5, #0
 8000d74:	f104 0a19 	add.w	sl, r4, #25
 8000d78:	e004      	b.n	8000d84 <_printf_i+0xd0>
 8000d7a:	68e0      	ldr	r0, [r4, #12]
 8000d7c:	eba0 0309 	sub.w	r3, r0, r9
 8000d80:	42ab      	cmp	r3, r5
 8000d82:	dd0d      	ble.n	8000da0 <_printf_i+0xec>
 8000d84:	2301      	movs	r3, #1
 8000d86:	4652      	mov	r2, sl
 8000d88:	4639      	mov	r1, r7
 8000d8a:	4630      	mov	r0, r6
 8000d8c:	47c0      	blx	r8
 8000d8e:	3001      	adds	r0, #1
 8000d90:	f105 0501 	add.w	r5, r5, #1
 8000d94:	d1f1      	bne.n	8000d7a <_printf_i+0xc6>
 8000d96:	f04f 30ff 	mov.w	r0, #4294967295	@ 0xffffffff
 8000d9a:	b004      	add	sp, #16
 8000d9c:	e8bd 87f0 	ldmia.w	sp!, {r4, r5, r6, r7, r8, r9, sl, pc}
 8000da0:	4548      	cmp	r0, r9
 8000da2:	bfb8      	it	lt
 8000da4:	4648      	movlt	r0, r9
 8000da6:	b004      	add	sp, #16
 8000da8:	e8bd 87f0 	ldmia.w	sp!, {r4, r5, r6, r7, r8, r9, sl, pc}
 8000dac:	2001      	movs	r0, #1
 8000dae:	f884 2042 	strb.w	r2, [r4, #66]	@ 0x42
 8000db2:	f104 0942 	add.w	r9, r4, #66	@ 0x42
 8000db6:	2300      	movs	r3, #0
 8000db8:	6120      	str	r0, [r4, #16]
 8000dba:	f884 3043 	strb.w	r3, [r4, #67]	@ 0x43
 8000dbe:	e7bf      	b.n	8000d40 <_printf_i+0x8c>
 8000dc0:	682a      	ldr	r2, [r5, #0]
 8000dc2:	6823      	ldr	r3, [r4, #0]
 8000dc4:	1d11      	adds	r1, r2, #4
 8000dc6:	0618      	lsls	r0, r3, #24
 8000dc8:	6029      	str	r1, [r5, #0]
 8000dca:	d402      	bmi.n	8000dd2 <_printf_i+0x11e>
 8000dcc:	0659      	lsls	r1, r3, #25
 8000dce:	f100 8095 	bmi.w	8000efc <_printf_i+0x248>
 8000dd2:	6810      	ldr	r0, [r2, #0]
 8000dd4:	4601      	mov	r1, r0
 8000dd6:	2800      	cmp	r0, #0
 8000dd8:	6862      	ldr	r2, [r4, #4]
 8000dda:	f2c0 8093 	blt.w	8000f04 <_printf_i+0x250>
 8000dde:	f04f 0e0a 	mov.w	lr, #10
 8000de2:	4853      	ldr	r0, [pc, #332]	@ (8000f30 <_printf_i+0x27c>)
 8000de4:	e015      	b.n	8000e12 <_printf_i+0x15e>
 8000de6:	6820      	ldr	r0, [r4, #0]
 8000de8:	682b      	ldr	r3, [r5, #0]
 8000dea:	f010 0f80 	tst.w	r0, #128	@ 0x80
 8000dee:	f853 1b04 	ldr.w	r1, [r3], #4
 8000df2:	d102      	bne.n	8000dfa <_printf_i+0x146>
 8000df4:	0640      	lsls	r0, r0, #25
 8000df6:	bf48      	it	mi
 8000df8:	b289      	uxthmi	r1, r1
 8000dfa:	2a6f      	cmp	r2, #111	@ 0x6f
 8000dfc:	bf14      	ite	ne
 8000dfe:	f04f 0e0a 	movne.w	lr, #10
 8000e02:	f04f 0e08 	moveq.w	lr, #8
 8000e06:	484a      	ldr	r0, [pc, #296]	@ (8000f30 <_printf_i+0x27c>)
 8000e08:	602b      	str	r3, [r5, #0]
 8000e0a:	2300      	movs	r3, #0
 8000e0c:	6862      	ldr	r2, [r4, #4]
 8000e0e:	f884 3043 	strb.w	r3, [r4, #67]	@ 0x43
 8000e12:	2a00      	cmp	r2, #0
 8000e14:	60a2      	str	r2, [r4, #8]
 8000e16:	db51      	blt.n	8000ebc <_printf_i+0x208>
 8000e18:	6823      	ldr	r3, [r4, #0]
 8000e1a:	f023 0304 	bic.w	r3, r3, #4
 8000e1e:	6023      	str	r3, [r4, #0]
 8000e20:	2900      	cmp	r1, #0
 8000e22:	d14b      	bne.n	8000ebc <_printf_i+0x208>
 8000e24:	2a00      	cmp	r2, #0
 8000e26:	d17b      	bne.n	8000f20 <_printf_i+0x26c>
 8000e28:	46e1      	mov	r9, ip
 8000e2a:	f1be 0f08 	cmp.w	lr, #8
 8000e2e:	d056      	beq.n	8000ede <_printf_i+0x22a>
 8000e30:	ebac 0309 	sub.w	r3, ip, r9
 8000e34:	6123      	str	r3, [r4, #16]
 8000e36:	e783      	b.n	8000d40 <_printf_i+0x8c>
 8000e38:	682a      	ldr	r2, [r5, #0]
 8000e3a:	2001      	movs	r0, #1
 8000e3c:	6811      	ldr	r1, [r2, #0]
 8000e3e:	3204      	adds	r2, #4
 8000e40:	602a      	str	r2, [r5, #0]
 8000e42:	f104 0942 	add.w	r9, r4, #66	@ 0x42
 8000e46:	f884 1042 	strb.w	r1, [r4, #66]	@ 0x42
 8000e4a:	e7b4      	b.n	8000db6 <_printf_i+0x102>
 8000e4c:	682b      	ldr	r3, [r5, #0]
 8000e4e:	2100      	movs	r1, #0
 8000e50:	1d1a      	adds	r2, r3, #4
 8000e52:	602a      	str	r2, [r5, #0]
 8000e54:	f8d3 9000 	ldr.w	r9, [r3]
 8000e58:	6862      	ldr	r2, [r4, #4]
 8000e5a:	4648      	mov	r0, r9
 8000e5c:	f7ff fca0 	bl	80007a0 <memchr>
 8000e60:	2800      	cmp	r0, #0
 8000e62:	d063      	beq.n	8000f2c <_printf_i+0x278>
 8000e64:	eba0 0009 	sub.w	r0, r0, r9
 8000e68:	6060      	str	r0, [r4, #4]
 8000e6a:	e7a4      	b.n	8000db6 <_printf_i+0x102>
 8000e6c:	6823      	ldr	r3, [r4, #0]
 8000e6e:	f043 0320 	orr.w	r3, r3, #32
 8000e72:	6023      	str	r3, [r4, #0]
 8000e74:	2278      	movs	r2, #120	@ 0x78
 8000e76:	482f      	ldr	r0, [pc, #188]	@ (8000f34 <_printf_i+0x280>)
 8000e78:	f884 2045 	strb.w	r2, [r4, #69]	@ 0x45
 8000e7c:	682a      	ldr	r2, [r5, #0]
 8000e7e:	f013 0f80 	tst.w	r3, #128	@ 0x80
 8000e82:	f852 1b04 	ldr.w	r1, [r2], #4
 8000e86:	d103      	bne.n	8000e90 <_printf_i+0x1dc>
 8000e88:	f013 0f40 	tst.w	r3, #64	@ 0x40
 8000e8c:	bf18      	it	ne
 8000e8e:	b289      	uxthne	r1, r1
 8000e90:	602a      	str	r2, [r5, #0]
 8000e92:	07da      	lsls	r2, r3, #31
 8000e94:	bf44      	itt	mi
 8000e96:	f043 0320 	orrmi.w	r3, r3, #32
 8000e9a:	6023      	strmi	r3, [r4, #0]
 8000e9c:	b919      	cbnz	r1, 8000ea6 <_printf_i+0x1f2>
 8000e9e:	6823      	ldr	r3, [r4, #0]
 8000ea0:	f023 0320 	bic.w	r3, r3, #32
 8000ea4:	6023      	str	r3, [r4, #0]
 8000ea6:	f04f 0e10 	mov.w	lr, #16
 8000eaa:	e7ae      	b.n	8000e0a <_printf_i+0x156>
 8000eac:	2358      	movs	r3, #88	@ 0x58
 8000eae:	4820      	ldr	r0, [pc, #128]	@ (8000f30 <_printf_i+0x27c>)
 8000eb0:	f884 3045 	strb.w	r3, [r4, #69]	@ 0x45
 8000eb4:	6823      	ldr	r3, [r4, #0]
 8000eb6:	e7e1      	b.n	8000e7c <_printf_i+0x1c8>
 8000eb8:	6823      	ldr	r3, [r4, #0]
 8000eba:	e7db      	b.n	8000e74 <_printf_i+0x1c0>
 8000ebc:	4675      	mov	r5, lr
 8000ebe:	46e1      	mov	r9, ip
 8000ec0:	fbb1 f3f5 	udiv	r3, r1, r5
 8000ec4:	460a      	mov	r2, r1
 8000ec6:	fb05 1a13 	mls	sl, r5, r3, r1
 8000eca:	4619      	mov	r1, r3
 8000ecc:	f810 300a 	ldrb.w	r3, [r0, sl]
 8000ed0:	42aa      	cmp	r2, r5
 8000ed2:	f809 3d01 	strb.w	r3, [r9, #-1]!
 8000ed6:	d2f3      	bcs.n	8000ec0 <_printf_i+0x20c>
 8000ed8:	f1be 0f08 	cmp.w	lr, #8
 8000edc:	d1a8      	bne.n	8000e30 <_printf_i+0x17c>
 8000ede:	6823      	ldr	r3, [r4, #0]
 8000ee0:	07dd      	lsls	r5, r3, #31
 8000ee2:	d5a5      	bpl.n	8000e30 <_printf_i+0x17c>
 8000ee4:	6862      	ldr	r2, [r4, #4]
 8000ee6:	6923      	ldr	r3, [r4, #16]
 8000ee8:	429a      	cmp	r2, r3
 8000eea:	dca1      	bgt.n	8000e30 <_printf_i+0x17c>
 8000eec:	2330      	movs	r3, #48	@ 0x30
 8000eee:	f109 39ff 	add.w	r9, r9, #4294967295	@ 0xffffffff
 8000ef2:	f889 3000 	strb.w	r3, [r9]
 8000ef6:	e79b      	b.n	8000e30 <_printf_i+0x17c>
 8000ef8:	8019      	strh	r1, [r3, #0]
 8000efa:	e71e      	b.n	8000d3a <_printf_i+0x86>
 8000efc:	f9b2 1000 	ldrsh.w	r1, [r2]
 8000f00:	4608      	mov	r0, r1
 8000f02:	e768      	b.n	8000dd6 <_printf_i+0x122>
 8000f04:	202d      	movs	r0, #45	@ 0x2d
 8000f06:	2a00      	cmp	r2, #0
 8000f08:	60a2      	str	r2, [r4, #8]
 8000f0a:	f884 0043 	strb.w	r0, [r4, #67]	@ 0x43
 8000f0e:	db02      	blt.n	8000f16 <_printf_i+0x262>
 8000f10:	f023 0304 	bic.w	r3, r3, #4
 8000f14:	6023      	str	r3, [r4, #0]
 8000f16:	250a      	movs	r5, #10
 8000f18:	4805      	ldr	r0, [pc, #20]	@ (8000f30 <_printf_i+0x27c>)
 8000f1a:	46ae      	mov	lr, r5
 8000f1c:	4249      	negs	r1, r1
 8000f1e:	e7ce      	b.n	8000ebe <_printf_i+0x20a>
 8000f20:	7803      	ldrb	r3, [r0, #0]
 8000f22:	f104 0942 	add.w	r9, r4, #66	@ 0x42
 8000f26:	f884 3042 	strb.w	r3, [r4, #66]	@ 0x42
 8000f2a:	e77e      	b.n	8000e2a <_printf_i+0x176>
 8000f2c:	6860      	ldr	r0, [r4, #4]
 8000f2e:	e742      	b.n	8000db6 <_printf_i+0x102>
 8000f30:	08007e40 	.word	0x08007e40
 8000f34:	08007e54 	.word	0x08007e54

08000f38 <__malloc_lock>:
 8000f38:	4770      	bx	lr
 8000f3a:	bf00      	nop

08000f3c <__malloc_unlock>:
 8000f3c:	4770      	bx	lr
 8000f3e:	bf00      	nop

08000f40 <memmove>:
 8000f40:	4288      	cmp	r0, r1
 8000f42:	d90e      	bls.n	8000f62 <memmove+0x22>
 8000f44:	188b      	adds	r3, r1, r2
 8000f46:	4283      	cmp	r3, r0
 8000f48:	d90b      	bls.n	8000f62 <memmove+0x22>
 8000f4a:	eb00 0c02 	add.w	ip, r0, r2
 8000f4e:	2a00      	cmp	r2, #0
 8000f50:	d06d      	beq.n	800102e <memmove+0xee>
 8000f52:	4662      	mov	r2, ip
 8000f54:	f813 cd01 	ldrb.w	ip, [r3, #-1]!
 8000f58:	4299      	cmp	r1, r3
 8000f5a:	f802 cd01 	strb.w	ip, [r2, #-1]!
 8000f5e:	d1f9      	bne.n	8000f54 <memmove+0x14>
 8000f60:	4770      	bx	lr
 8000f62:	2a0f      	cmp	r2, #15
 8000f64:	d80f      	bhi.n	8000f86 <memmove+0x46>
 8000f66:	4603      	mov	r3, r0
 8000f68:	f102 3cff 	add.w	ip, r2, #4294967295	@ 0xffffffff
 8000f6c:	2a00      	cmp	r2, #0
 8000f6e:	d05e      	beq.n	800102e <memmove+0xee>
 8000f70:	f10c 0c01 	add.w	ip, ip, #1
 8000f74:	3b01      	subs	r3, #1
 8000f76:	448c      	add	ip, r1
 8000f78:	f811 2b01 	ldrb.w	r2, [r1], #1
 8000f7c:	4561      	cmp	r1, ip
 8000f7e:	f803 2f01 	strb.w	r2, [r3, #1]!
 8000f82:	d1f9      	bne.n	8000f78 <memmove+0x38>
 8000f84:	4770      	bx	lr
 8000f86:	ea40 0301 	orr.w	r3, r0, r1
 8000f8a:	079b      	lsls	r3, r3, #30
 8000f8c:	d150      	bne.n	8001030 <memmove+0xf0>
 8000f8e:	f1a2 0310 	sub.w	r3, r2, #16
 8000f92:	b570      	push	{r4, r5, r6, lr}
 8000f94:	f101 0c20 	add.w	ip, r1, #32
 8000f98:	f023 050f 	bic.w	r5, r3, #15
 8000f9c:	f101 0e10 	add.w	lr, r1, #16
 8000fa0:	f100 0410 	add.w	r4, r0, #16
 8000fa4:	44ac      	add	ip, r5
 8000fa6:	091b      	lsrs	r3, r3, #4
 8000fa8:	f85e 5c10 	ldr.w	r5, [lr, #-16]
 8000fac:	f10e 0e10 	add.w	lr, lr, #16
 8000fb0:	f844 5c10 	str.w	r5, [r4, #-16]
 8000fb4:	f85e 5c1c 	ldr.w	r5, [lr, #-28]
 8000fb8:	3410      	adds	r4, #16
 8000fba:	f844 5c1c 	str.w	r5, [r4, #-28]
 8000fbe:	f85e 5c18 	ldr.w	r5, [lr, #-24]
 8000fc2:	f844 5c18 	str.w	r5, [r4, #-24]
 8000fc6:	f85e 5c14 	ldr.w	r5, [lr, #-20]
 8000fca:	45e6      	cmp	lr, ip
 8000fcc:	f844 5c14 	str.w	r5, [r4, #-20]
 8000fd0:	d1ea      	bne.n	8000fa8 <memmove+0x68>
 8000fd2:	3301      	adds	r3, #1
 8000fd4:	f012 0f0c 	tst.w	r2, #12
 8000fd8:	eb01 1103 	add.w	r1, r1, r3, lsl #4
 8000fdc:	f002 040f 	and.w	r4, r2, #15
 8000fe0:	eb00 1303 	add.w	r3, r0, r3, lsl #4
 8000fe4:	d028      	beq.n	8001038 <memmove+0xf8>
 8000fe6:	468e      	mov	lr, r1
 8000fe8:	3c04      	subs	r4, #4
 8000fea:	f024 0603 	bic.w	r6, r4, #3
 8000fee:	ea4f 0c94 	mov.w	ip, r4, lsr #2
 8000ff2:	441e      	add	r6, r3
 8000ff4:	1f1c      	subs	r4, r3, #4
 8000ff6:	f85e 5b04 	ldr.w	r5, [lr], #4
 8000ffa:	f844 5f04 	str.w	r5, [r4, #4]!
 8000ffe:	42b4      	cmp	r4, r6
 8001000:	d1f9      	bne.n	8000ff6 <memmove+0xb6>
 8001002:	f10c 0401 	add.w	r4, ip, #1
 8001006:	f002 0203 	and.w	r2, r2, #3
 800100a:	eb03 0384 	add.w	r3, r3, r4, lsl #2
 800100e:	eb01 0184 	add.w	r1, r1, r4, lsl #2
 8001012:	f102 3cff 	add.w	ip, r2, #4294967295	@ 0xffffffff
 8001016:	b14a      	cbz	r2, 800102c <memmove+0xec>
 8001018:	f10c 0c01 	add.w	ip, ip, #1
 800101c:	3b01      	subs	r3, #1
 800101e:	448c      	add	ip, r1
 8001020:	f811 2b01 	ldrb.w	r2, [r1], #1
 8001024:	4561      	cmp	r1, ip
 8001026:	f803 2f01 	strb.w	r2, [r3, #1]!
 800102a:	d1f9      	bne.n	8001020 <memmove+0xe0>
 800102c:	bd70      	pop	{r4, r5, r6, pc}
 800102e:	4770      	bx	lr
 8001030:	4603      	mov	r3, r0
 8001032:	f102 3cff 	add.w	ip, r2, #4294967295	@ 0xffffffff
 8001036:	e79b      	b.n	8000f70 <memmove+0x30>
 8001038:	4622      	mov	r2, r4
 800103a:	e7ea      	b.n	8001012 <memmove+0xd2>

0800103c <_sbrk_r>:
 800103c:	2200      	movs	r2, #0
 800103e:	b538      	push	{r3, r4, r5, lr}
 8001040:	4d06      	ldr	r5, [pc, #24]	@ (800105c <_sbrk_r+0x20>)
 8001042:	4604      	mov	r4, r0
 8001044:	4608      	mov	r0, r1
 8001046:	602a      	str	r2, [r5, #0]
 8001048:	f005 fc0a 	bl	8006860 <_sbrk>
 800104c:	1c43      	adds	r3, r0, #1
 800104e:	d000      	beq.n	8001052 <_sbrk_r+0x16>
 8001050:	bd38      	pop	{r3, r4, r5, pc}
 8001052:	682b      	ldr	r3, [r5, #0]
 8001054:	2b00      	cmp	r3, #0
 8001056:	d0fb      	beq.n	8001050 <_sbrk_r+0x14>
 8001058:	6023      	str	r3, [r4, #0]
 800105a:	bd38      	pop	{r3, r4, r5, pc}
 800105c:	20000340 	.word	0x20000340

08001060 <_malloc_usable_size_r>:
 8001060:	f851 3c04 	ldr.w	r3, [r1, #-4]
 8001064:	1f18      	subs	r0, r3, #4
 8001066:	2b00      	cmp	r3, #0
 8001068:	bfbc      	itt	lt
 800106a:	580b      	ldrlt	r3, [r1, r0]
 800106c:	18c0      	addlt	r0, r0, r3
 800106e:	4770      	bx	lr

08001070 <__aeabi_drsub>:
 8001070:	f081 4100 	eor.w	r1, r1, #2147483648	@ 0x80000000
 8001074:	e002      	b.n	800107c <__adddf3>
 8001076:	bf00      	nop

08001078 <__aeabi_dsub>:
 8001078:	f083 4300 	eor.w	r3, r3, #2147483648	@ 0x80000000

0800107c <__adddf3>:
 800107c:	b530      	push	{r4, r5, lr}
 800107e:	ea4f 0441 	mov.w	r4, r1, lsl #1
 8001082:	ea4f 0543 	mov.w	r5, r3, lsl #1
 8001086:	ea94 0f05 	teq	r4, r5
 800108a:	bf08      	it	eq
 800108c:	ea90 0f02 	teqeq	r0, r2
 8001090:	bf1f      	itttt	ne
 8001092:	ea54 0c00 	orrsne.w	ip, r4, r0
 8001096:	ea55 0c02 	orrsne.w	ip, r5, r2
 800109a:	ea7f 5c64 	mvnsne.w	ip, r4, asr #21
 800109e:	ea7f 5c65 	mvnsne.w	ip, r5, asr #21
 80010a2:	f000 80e2 	beq.w	800126a <__adddf3+0x1ee>
 80010a6:	ea4f 5454 	mov.w	r4, r4, lsr #21
 80010aa:	ebd4 5555 	rsbs	r5, r4, r5, lsr #21
 80010ae:	bfb8      	it	lt
 80010b0:	426d      	neglt	r5, r5
 80010b2:	dd0c      	ble.n	80010ce <__adddf3+0x52>
 80010b4:	442c      	add	r4, r5
 80010b6:	ea80 0202 	eor.w	r2, r0, r2
 80010ba:	ea81 0303 	eor.w	r3, r1, r3
 80010be:	ea82 0000 	eor.w	r0, r2, r0
 80010c2:	ea83 0101 	eor.w	r1, r3, r1
 80010c6:	ea80 0202 	eor.w	r2, r0, r2
 80010ca:	ea81 0303 	eor.w	r3, r1, r3
 80010ce:	2d36      	cmp	r5, #54	@ 0x36
 80010d0:	bf88      	it	hi
 80010d2:	bd30      	pophi	{r4, r5, pc}
 80010d4:	f011 4f00 	tst.w	r1, #2147483648	@ 0x80000000
 80010d8:	ea4f 3101 	mov.w	r1, r1, lsl #12
 80010dc:	f44f 1c80 	mov.w	ip, #1048576	@ 0x100000
 80010e0:	ea4c 3111 	orr.w	r1, ip, r1, lsr #12
 80010e4:	d002      	beq.n	80010ec <__adddf3+0x70>
 80010e6:	4240      	negs	r0, r0
 80010e8:	eb61 0141 	sbc.w	r1, r1, r1, lsl #1
 80010ec:	f013 4f00 	tst.w	r3, #2147483648	@ 0x80000000
 80010f0:	ea4f 3303 	mov.w	r3, r3, lsl #12
 80010f4:	ea4c 3313 	orr.w	r3, ip, r3, lsr #12
 80010f8:	d002      	beq.n	8001100 <__adddf3+0x84>
 80010fa:	4252      	negs	r2, r2
 80010fc:	eb63 0343 	sbc.w	r3, r3, r3, lsl #1
 8001100:	ea94 0f05 	teq	r4, r5
 8001104:	f000 80a7 	beq.w	8001256 <__adddf3+0x1da>
 8001108:	f1a4 0401 	sub.w	r4, r4, #1
 800110c:	f1d5 0e20 	rsbs	lr, r5, #32
 8001110:	db0d      	blt.n	800112e <__adddf3+0xb2>
 8001112:	fa02 fc0e 	lsl.w	ip, r2, lr
 8001116:	fa22 f205 	lsr.w	r2, r2, r5
 800111a:	1880      	adds	r0, r0, r2
 800111c:	f141 0100 	adc.w	r1, r1, #0
 8001120:	fa03 f20e 	lsl.w	r2, r3, lr
 8001124:	1880      	adds	r0, r0, r2
 8001126:	fa43 f305 	asr.w	r3, r3, r5
 800112a:	4159      	adcs	r1, r3
 800112c:	e00e      	b.n	800114c <__adddf3+0xd0>
 800112e:	f1a5 0520 	sub.w	r5, r5, #32
 8001132:	f10e 0e20 	add.w	lr, lr, #32
 8001136:	2a01      	cmp	r2, #1
 8001138:	fa03 fc0e 	lsl.w	ip, r3, lr
 800113c:	bf28      	it	cs
 800113e:	f04c 0c02 	orrcs.w	ip, ip, #2
 8001142:	fa43 f305 	asr.w	r3, r3, r5
 8001146:	18c0      	adds	r0, r0, r3
 8001148:	eb51 71e3 	adcs.w	r1, r1, r3, asr #31
 800114c:	f001 4500 	and.w	r5, r1, #2147483648	@ 0x80000000
 8001150:	d507      	bpl.n	8001162 <__adddf3+0xe6>
 8001152:	f04f 0e00 	mov.w	lr, #0
 8001156:	f1dc 0c00 	rsbs	ip, ip, #0
 800115a:	eb7e 0000 	sbcs.w	r0, lr, r0
 800115e:	eb6e 0101 	sbc.w	r1, lr, r1
 8001162:	f5b1 1f80 	cmp.w	r1, #1048576	@ 0x100000
 8001166:	d31b      	bcc.n	80011a0 <__adddf3+0x124>
 8001168:	f5b1 1f00 	cmp.w	r1, #2097152	@ 0x200000
 800116c:	d30c      	bcc.n	8001188 <__adddf3+0x10c>
 800116e:	0849      	lsrs	r1, r1, #1
 8001170:	ea5f 0030 	movs.w	r0, r0, rrx
 8001174:	ea4f 0c3c 	mov.w	ip, ip, rrx
 8001178:	f104 0401 	add.w	r4, r4, #1
 800117c:	ea4f 5244 	mov.w	r2, r4, lsl #21
 8001180:	f512 0f80 	cmn.w	r2, #4194304	@ 0x400000
 8001184:	f080 809a 	bcs.w	80012bc <__adddf3+0x240>
 8001188:	f1bc 4f00 	cmp.w	ip, #2147483648	@ 0x80000000
 800118c:	bf08      	it	eq
 800118e:	ea5f 0c50 	movseq.w	ip, r0, lsr #1
 8001192:	f150 0000 	adcs.w	r0, r0, #0
 8001196:	eb41 5104 	adc.w	r1, r1, r4, lsl #20
 800119a:	ea41 0105 	orr.w	r1, r1, r5
 800119e:	bd30      	pop	{r4, r5, pc}
 80011a0:	ea5f 0c4c 	movs.w	ip, ip, lsl #1
 80011a4:	4140      	adcs	r0, r0
 80011a6:	eb41 0101 	adc.w	r1, r1, r1
 80011aa:	3c01      	subs	r4, #1
 80011ac:	bf28      	it	cs
 80011ae:	f5b1 1f80 	cmpcs.w	r1, #1048576	@ 0x100000
 80011b2:	d2e9      	bcs.n	8001188 <__adddf3+0x10c>
 80011b4:	f091 0f00 	teq	r1, #0
 80011b8:	bf04      	itt	eq
 80011ba:	4601      	moveq	r1, r0
 80011bc:	2000      	moveq	r0, #0
 80011be:	fab1 f381 	clz	r3, r1
 80011c2:	bf08      	it	eq
 80011c4:	3320      	addeq	r3, #32
 80011c6:	f1a3 030b 	sub.w	r3, r3, #11
 80011ca:	f1b3 0220 	subs.w	r2, r3, #32
 80011ce:	da0c      	bge.n	80011ea <__adddf3+0x16e>
 80011d0:	320c      	adds	r2, #12
 80011d2:	dd08      	ble.n	80011e6 <__adddf3+0x16a>
 80011d4:	f102 0c14 	add.w	ip, r2, #20
 80011d8:	f1c2 020c 	rsb	r2, r2, #12
 80011dc:	fa01 f00c 	lsl.w	r0, r1, ip
 80011e0:	fa21 f102 	lsr.w	r1, r1, r2
 80011e4:	e00c      	b.n	8001200 <__adddf3+0x184>
 80011e6:	f102 0214 	add.w	r2, r2, #20
 80011ea:	bfd8      	it	le
 80011ec:	f1c2 0c20 	rsble	ip, r2, #32
 80011f0:	fa01 f102 	lsl.w	r1, r1, r2
 80011f4:	fa20 fc0c 	lsr.w	ip, r0, ip
 80011f8:	bfdc      	itt	le
 80011fa:	ea41 010c 	orrle.w	r1, r1, ip
 80011fe:	4090      	lslle	r0, r2
 8001200:	1ae4      	subs	r4, r4, r3
 8001202:	bfa2      	ittt	ge
 8001204:	eb01 5104 	addge.w	r1, r1, r4, lsl #20
 8001208:	4329      	orrge	r1, r5
 800120a:	bd30      	popge	{r4, r5, pc}
 800120c:	ea6f 0404 	mvn.w	r4, r4
 8001210:	3c1f      	subs	r4, #31
 8001212:	da1c      	bge.n	800124e <__adddf3+0x1d2>
 8001214:	340c      	adds	r4, #12
 8001216:	dc0e      	bgt.n	8001236 <__adddf3+0x1ba>
 8001218:	f104 0414 	add.w	r4, r4, #20
 800121c:	f1c4 0220 	rsb	r2, r4, #32
 8001220:	fa20 f004 	lsr.w	r0, r0, r4
 8001224:	fa01 f302 	lsl.w	r3, r1, r2
 8001228:	ea40 0003 	orr.w	r0, r0, r3
 800122c:	fa21 f304 	lsr.w	r3, r1, r4
 8001230:	ea45 0103 	orr.w	r1, r5, r3
 8001234:	bd30      	pop	{r4, r5, pc}
 8001236:	f1c4 040c 	rsb	r4, r4, #12
 800123a:	f1c4 0220 	rsb	r2, r4, #32
 800123e:	fa20 f002 	lsr.w	r0, r0, r2
 8001242:	fa01 f304 	lsl.w	r3, r1, r4
 8001246:	ea40 0003 	orr.w	r0, r0, r3
 800124a:	4629      	mov	r1, r5
 800124c:	bd30      	pop	{r4, r5, pc}
 800124e:	fa21 f004 	lsr.w	r0, r1, r4
 8001252:	4629      	mov	r1, r5
 8001254:	bd30      	pop	{r4, r5, pc}
 8001256:	f094 0f00 	teq	r4, #0
 800125a:	f483 1380 	eor.w	r3, r3, #1048576	@ 0x100000
 800125e:	bf06      	itte	eq
 8001260:	f481 1180 	eoreq.w	r1, r1, #1048576	@ 0x100000
 8001264:	3401      	addeq	r4, #1
 8001266:	3d01      	subne	r5, #1
 8001268:	e74e      	b.n	8001108 <__adddf3+0x8c>
 800126a:	ea7f 5c64 	mvns.w	ip, r4, asr #21
 800126e:	bf18      	it	ne
 8001270:	ea7f 5c65 	mvnsne.w	ip, r5, asr #21
 8001274:	d029      	beq.n	80012ca <__adddf3+0x24e>
 8001276:	ea94 0f05 	teq	r4, r5
 800127a:	bf08      	it	eq
 800127c:	ea90 0f02 	teqeq	r0, r2
 8001280:	d005      	beq.n	800128e <__adddf3+0x212>
 8001282:	ea54 0c00 	orrs.w	ip, r4, r0
 8001286:	bf04      	itt	eq
 8001288:	4619      	moveq	r1, r3
 800128a:	4610      	moveq	r0, r2
 800128c:	bd30      	pop	{r4, r5, pc}
 800128e:	ea91 0f03 	teq	r1, r3
 8001292:	bf1e      	ittt	ne
 8001294:	2100      	movne	r1, #0
 8001296:	2000      	movne	r0, #0
 8001298:	bd30      	popne	{r4, r5, pc}
 800129a:	ea5f 5c54 	movs.w	ip, r4, lsr #21
 800129e:	d105      	bne.n	80012ac <__adddf3+0x230>
 80012a0:	0040      	lsls	r0, r0, #1
 80012a2:	4149      	adcs	r1, r1
 80012a4:	bf28      	it	cs
 80012a6:	f041 4100 	orrcs.w	r1, r1, #2147483648	@ 0x80000000
 80012aa:	bd30      	pop	{r4, r5, pc}
 80012ac:	f514 0480 	adds.w	r4, r4, #4194304	@ 0x400000
 80012b0:	bf3c      	itt	cc
 80012b2:	f501 1180 	addcc.w	r1, r1, #1048576	@ 0x100000
 80012b6:	bd30      	popcc	{r4, r5, pc}
 80012b8:	f001 4500 	and.w	r5, r1, #2147483648	@ 0x80000000
 80012bc:	f045 41fe 	orr.w	r1, r5, #2130706432	@ 0x7f000000
 80012c0:	f441 0170 	orr.w	r1, r1, #15728640	@ 0xf00000
 80012c4:	f04f 0000 	mov.w	r0, #0
 80012c8:	bd30      	pop	{r4, r5, pc}
 80012ca:	ea7f 5c64 	mvns.w	ip, r4, asr #21
 80012ce:	bf1a      	itte	ne
 80012d0:	4619      	movne	r1, r3
 80012d2:	4610      	movne	r0, r2
 80012d4:	ea7f 5c65 	mvnseq.w	ip, r5, asr #21
 80012d8:	bf1c      	itt	ne
 80012da:	460b      	movne	r3, r1
 80012dc:	4602      	movne	r2, r0
 80012de:	ea50 3401 	orrs.w	r4, r0, r1, lsl #12
 80012e2:	bf06      	itte	eq
 80012e4:	ea52 3503 	orrseq.w	r5, r2, r3, lsl #12
 80012e8:	ea91 0f03 	teqeq	r1, r3
 80012ec:	f441 2100 	orrne.w	r1, r1, #524288	@ 0x80000
 80012f0:	bd30      	pop	{r4, r5, pc}
 80012f2:	bf00      	nop

080012f4 <__aeabi_ui2d>:
 80012f4:	f090 0f00 	teq	r0, #0
 80012f8:	bf04      	itt	eq
 80012fa:	2100      	moveq	r1, #0
 80012fc:	4770      	bxeq	lr
 80012fe:	b530      	push	{r4, r5, lr}
 8001300:	f44f 6480 	mov.w	r4, #1024	@ 0x400
 8001304:	f104 0432 	add.w	r4, r4, #50	@ 0x32
 8001308:	f04f 0500 	mov.w	r5, #0
 800130c:	f04f 0100 	mov.w	r1, #0
 8001310:	e750      	b.n	80011b4 <__adddf3+0x138>
 8001312:	bf00      	nop

08001314 <__aeabi_i2d>:
 8001314:	f090 0f00 	teq	r0, #0
 8001318:	bf04      	itt	eq
 800131a:	2100      	moveq	r1, #0
 800131c:	4770      	bxeq	lr
 800131e:	b530      	push	{r4, r5, lr}
 8001320:	f44f 6480 	mov.w	r4, #1024	@ 0x400
 8001324:	f104 0432 	add.w	r4, r4, #50	@ 0x32
 8001328:	f010 4500 	ands.w	r5, r0, #2147483648	@ 0x80000000
 800132c:	bf48      	it	mi
 800132e:	4240      	negmi	r0, r0
 8001330:	f04f 0100 	mov.w	r1, #0
 8001334:	e73e      	b.n	80011b4 <__adddf3+0x138>
 8001336:	bf00      	nop

08001338 <__aeabi_f2d>:
 8001338:	0042      	lsls	r2, r0, #1
 800133a:	ea4f 01e2 	mov.w	r1, r2, asr #3
 800133e:	ea4f 0131 	mov.w	r1, r1, rrx
 8001342:	ea4f 7002 	mov.w	r0, r2, lsl #28
 8001346:	bf1f      	itttt	ne
 8001348:	f012 437f 	andsne.w	r3, r2, #4278190080	@ 0xff000000
 800134c:	f093 4f7f 	teqne	r3, #4278190080	@ 0xff000000
 8001350:	f081 5160 	eorne.w	r1, r1, #939524096	@ 0x38000000
 8001354:	4770      	bxne	lr
 8001356:	f032 427f 	bics.w	r2, r2, #4278190080	@ 0xff000000
 800135a:	bf08      	it	eq
 800135c:	4770      	bxeq	lr
 800135e:	f093 4f7f 	teq	r3, #4278190080	@ 0xff000000
 8001362:	bf04      	itt	eq
 8001364:	f441 2100 	orreq.w	r1, r1, #524288	@ 0x80000
 8001368:	4770      	bxeq	lr
 800136a:	b530      	push	{r4, r5, lr}
 800136c:	f44f 7460 	mov.w	r4, #896	@ 0x380
 8001370:	f001 4500 	and.w	r5, r1, #2147483648	@ 0x80000000
 8001374:	f021 4100 	bic.w	r1, r1, #2147483648	@ 0x80000000
 8001378:	e71c      	b.n	80011b4 <__adddf3+0x138>
 800137a:	bf00      	nop

0800137c <__aeabi_ul2d>:
 800137c:	ea50 0201 	orrs.w	r2, r0, r1
 8001380:	bf08      	it	eq
 8001382:	4770      	bxeq	lr
 8001384:	b530      	push	{r4, r5, lr}
 8001386:	f04f 0500 	mov.w	r5, #0
 800138a:	e00a      	b.n	80013a2 <__aeabi_l2d+0x16>

0800138c <__aeabi_l2d>:
 800138c:	ea50 0201 	orrs.w	r2, r0, r1
 8001390:	bf08      	it	eq
 8001392:	4770      	bxeq	lr
 8001394:	b530      	push	{r4, r5, lr}
 8001396:	f011 4500 	ands.w	r5, r1, #2147483648	@ 0x80000000
 800139a:	d502      	bpl.n	80013a2 <__aeabi_l2d+0x16>
 800139c:	4240      	negs	r0, r0
 800139e:	eb61 0141 	sbc.w	r1, r1, r1, lsl #1
 80013a2:	f44f 6480 	mov.w	r4, #1024	@ 0x400
 80013a6:	f104 0432 	add.w	r4, r4, #50	@ 0x32
 80013aa:	ea5f 5c91 	movs.w	ip, r1, lsr #22
 80013ae:	f43f aed8 	beq.w	8001162 <__adddf3+0xe6>
 80013b2:	f04f 0203 	mov.w	r2, #3
 80013b6:	ea5f 0cdc 	movs.w	ip, ip, lsr #3
 80013ba:	bf18      	it	ne
 80013bc:	3203      	addne	r2, #3
 80013be:	ea5f 0cdc 	movs.w	ip, ip, lsr #3
 80013c2:	bf18      	it	ne
 80013c4:	3203      	addne	r2, #3
 80013c6:	eb02 02dc 	add.w	r2, r2, ip, lsr #3
 80013ca:	f1c2 0320 	rsb	r3, r2, #32
 80013ce:	fa00 fc03 	lsl.w	ip, r0, r3
 80013d2:	fa20 f002 	lsr.w	r0, r0, r2
 80013d6:	fa01 fe03 	lsl.w	lr, r1, r3
 80013da:	ea40 000e 	orr.w	r0, r0, lr
 80013de:	fa21 f102 	lsr.w	r1, r1, r2
 80013e2:	4414      	add	r4, r2
 80013e4:	e6bd      	b.n	8001162 <__adddf3+0xe6>
 80013e6:	bf00      	nop

080013e8 <__aeabi_dmul>:
 80013e8:	b570      	push	{r4, r5, r6, lr}
 80013ea:	f04f 0cff 	mov.w	ip, #255	@ 0xff
 80013ee:	f44c 6ce0 	orr.w	ip, ip, #1792	@ 0x700
 80013f2:	ea1c 5411 	ands.w	r4, ip, r1, lsr #20
 80013f6:	bf1d      	ittte	ne
 80013f8:	ea1c 5513 	andsne.w	r5, ip, r3, lsr #20
 80013fc:	ea94 0f0c 	teqne	r4, ip
 8001400:	ea95 0f0c 	teqne	r5, ip
 8001404:	f000 f8de 	bleq	80015c4 <__aeabi_dmul+0x1dc>
 8001408:	442c      	add	r4, r5
 800140a:	ea81 0603 	eor.w	r6, r1, r3
 800140e:	ea21 514c 	bic.w	r1, r1, ip, lsl #21
 8001412:	ea23 534c 	bic.w	r3, r3, ip, lsl #21
 8001416:	ea50 3501 	orrs.w	r5, r0, r1, lsl #12
 800141a:	bf18      	it	ne
 800141c:	ea52 3503 	orrsne.w	r5, r2, r3, lsl #12
 8001420:	f441 1180 	orr.w	r1, r1, #1048576	@ 0x100000
 8001424:	f443 1380 	orr.w	r3, r3, #1048576	@ 0x100000
 8001428:	d038      	beq.n	800149c <__aeabi_dmul+0xb4>
 800142a:	fba0 ce02 	umull	ip, lr, r0, r2
 800142e:	f04f 0500 	mov.w	r5, #0
 8001432:	fbe1 e502 	umlal	lr, r5, r1, r2
 8001436:	f006 4200 	and.w	r2, r6, #2147483648	@ 0x80000000
 800143a:	fbe0 e503 	umlal	lr, r5, r0, r3
 800143e:	f04f 0600 	mov.w	r6, #0
 8001442:	fbe1 5603 	umlal	r5, r6, r1, r3
 8001446:	f09c 0f00 	teq	ip, #0
 800144a:	bf18      	it	ne
 800144c:	f04e 0e01 	orrne.w	lr, lr, #1
 8001450:	f1a4 04ff 	sub.w	r4, r4, #255	@ 0xff
 8001454:	f5b6 7f00 	cmp.w	r6, #512	@ 0x200
 8001458:	f564 7440 	sbc.w	r4, r4, #768	@ 0x300
 800145c:	d204      	bcs.n	8001468 <__aeabi_dmul+0x80>
 800145e:	ea5f 0e4e 	movs.w	lr, lr, lsl #1
 8001462:	416d      	adcs	r5, r5
 8001464:	eb46 0606 	adc.w	r6, r6, r6
 8001468:	ea42 21c6 	orr.w	r1, r2, r6, lsl #11
 800146c:	ea41 5155 	orr.w	r1, r1, r5, lsr #21
 8001470:	ea4f 20c5 	mov.w	r0, r5, lsl #11
 8001474:	ea40 505e 	orr.w	r0, r0, lr, lsr #21
 8001478:	ea4f 2ece 	mov.w	lr, lr, lsl #11
 800147c:	f1b4 0cfd 	subs.w	ip, r4, #253	@ 0xfd
 8001480:	bf88      	it	hi
 8001482:	f5bc 6fe0 	cmphi.w	ip, #1792	@ 0x700
 8001486:	d81e      	bhi.n	80014c6 <__aeabi_dmul+0xde>
 8001488:	f1be 4f00 	cmp.w	lr, #2147483648	@ 0x80000000
 800148c:	bf08      	it	eq
 800148e:	ea5f 0e50 	movseq.w	lr, r0, lsr #1
 8001492:	f150 0000 	adcs.w	r0, r0, #0
 8001496:	eb41 5104 	adc.w	r1, r1, r4, lsl #20
 800149a:	bd70      	pop	{r4, r5, r6, pc}
 800149c:	f006 4600 	and.w	r6, r6, #2147483648	@ 0x80000000
 80014a0:	ea46 0101 	orr.w	r1, r6, r1
 80014a4:	ea40 0002 	orr.w	r0, r0, r2
 80014a8:	ea81 0103 	eor.w	r1, r1, r3
 80014ac:	ebb4 045c 	subs.w	r4, r4, ip, lsr #1
 80014b0:	bfc2      	ittt	gt
 80014b2:	ebd4 050c 	rsbsgt	r5, r4, ip
 80014b6:	ea41 5104 	orrgt.w	r1, r1, r4, lsl #20
 80014ba:	bd70      	popgt	{r4, r5, r6, pc}
 80014bc:	f441 1180 	orr.w	r1, r1, #1048576	@ 0x100000
 80014c0:	f04f 0e00 	mov.w	lr, #0
 80014c4:	3c01      	subs	r4, #1
 80014c6:	f300 80ab 	bgt.w	8001620 <__aeabi_dmul+0x238>
 80014ca:	f114 0f36 	cmn.w	r4, #54	@ 0x36
 80014ce:	bfde      	ittt	le
 80014d0:	2000      	movle	r0, #0
 80014d2:	f001 4100 	andle.w	r1, r1, #2147483648	@ 0x80000000
 80014d6:	bd70      	pople	{r4, r5, r6, pc}
 80014d8:	f1c4 0400 	rsb	r4, r4, #0
 80014dc:	3c20      	subs	r4, #32
 80014de:	da35      	bge.n	800154c <__aeabi_dmul+0x164>
 80014e0:	340c      	adds	r4, #12
 80014e2:	dc1b      	bgt.n	800151c <__aeabi_dmul+0x134>
 80014e4:	f104 0414 	add.w	r4, r4, #20
 80014e8:	f1c4 0520 	rsb	r5, r4, #32
 80014ec:	fa00 f305 	lsl.w	r3, r0, r5
 80014f0:	fa20 f004 	lsr.w	r0, r0, r4
 80014f4:	fa01 f205 	lsl.w	r2, r1, r5
 80014f8:	ea40 0002 	orr.w	r0, r0, r2
 80014fc:	f001 4200 	and.w	r2, r1, #2147483648	@ 0x80000000
 8001500:	f021 4100 	bic.w	r1, r1, #2147483648	@ 0x80000000
 8001504:	eb10 70d3 	adds.w	r0, r0, r3, lsr #31
 8001508:	fa21 f604 	lsr.w	r6, r1, r4
 800150c:	eb42 0106 	adc.w	r1, r2, r6
 8001510:	ea5e 0e43 	orrs.w	lr, lr, r3, lsl #1
 8001514:	bf08      	it	eq
 8001516:	ea20 70d3 	biceq.w	r0, r0, r3, lsr #31
 800151a:	bd70      	pop	{r4, r5, r6, pc}
 800151c:	f1c4 040c 	rsb	r4, r4, #12
 8001520:	f1c4 0520 	rsb	r5, r4, #32
 8001524:	fa00 f304 	lsl.w	r3, r0, r4
 8001528:	fa20 f005 	lsr.w	r0, r0, r5
 800152c:	fa01 f204 	lsl.w	r2, r1, r4
 8001530:	ea40 0002 	orr.w	r0, r0, r2
 8001534:	f001 4100 	and.w	r1, r1, #2147483648	@ 0x80000000
 8001538:	eb10 70d3 	adds.w	r0, r0, r3, lsr #31
 800153c:	f141 0100 	adc.w	r1, r1, #0
 8001540:	ea5e 0e43 	orrs.w	lr, lr, r3, lsl #1
 8001544:	bf08      	it	eq
 8001546:	ea20 70d3 	biceq.w	r0, r0, r3, lsr #31
 800154a:	bd70      	pop	{r4, r5, r6, pc}
 800154c:	f1c4 0520 	rsb	r5, r4, #32
 8001550:	fa00 f205 	lsl.w	r2, r0, r5
 8001554:	ea4e 0e02 	orr.w	lr, lr, r2
 8001558:	fa20 f304 	lsr.w	r3, r0, r4
 800155c:	fa01 f205 	lsl.w	r2, r1, r5
 8001560:	ea43 0302 	orr.w	r3, r3, r2
 8001564:	fa21 f004 	lsr.w	r0, r1, r4
 8001568:	f001 4100 	and.w	r1, r1, #2147483648	@ 0x80000000
 800156c:	fa21 f204 	lsr.w	r2, r1, r4
 8001570:	ea20 0002 	bic.w	r0, r0, r2
 8001574:	eb00 70d3 	add.w	r0, r0, r3, lsr #31
 8001578:	ea5e 0e43 	orrs.w	lr, lr, r3, lsl #1
 800157c:	bf08      	it	eq
 800157e:	ea20 70d3 	biceq.w	r0, r0, r3, lsr #31
 8001582:	bd70      	pop	{r4, r5, r6, pc}
 8001584:	f094 0f00 	teq	r4, #0
 8001588:	d10f      	bne.n	80015aa <__aeabi_dmul+0x1c2>
 800158a:	f001 4600 	and.w	r6, r1, #2147483648	@ 0x80000000
 800158e:	0040      	lsls	r0, r0, #1
 8001590:	eb41 0101 	adc.w	r1, r1, r1
 8001594:	f411 1f80 	tst.w	r1, #1048576	@ 0x100000
 8001598:	bf08      	it	eq
 800159a:	3c01      	subeq	r4, #1
 800159c:	d0f7      	beq.n	800158e <__aeabi_dmul+0x1a6>
 800159e:	ea41 0106 	orr.w	r1, r1, r6
 80015a2:	f095 0f00 	teq	r5, #0
 80015a6:	bf18      	it	ne
 80015a8:	4770      	bxne	lr
 80015aa:	f003 4600 	and.w	r6, r3, #2147483648	@ 0x80000000
 80015ae:	0052      	lsls	r2, r2, #1
 80015b0:	eb43 0303 	adc.w	r3, r3, r3
 80015b4:	f413 1f80 	tst.w	r3, #1048576	@ 0x100000
 80015b8:	bf08      	it	eq
 80015ba:	3d01      	subeq	r5, #1
 80015bc:	d0f7      	beq.n	80015ae <__aeabi_dmul+0x1c6>
 80015be:	ea43 0306 	orr.w	r3, r3, r6
 80015c2:	4770      	bx	lr
 80015c4:	ea94 0f0c 	teq	r4, ip
 80015c8:	ea0c 5513 	and.w	r5, ip, r3, lsr #20
 80015cc:	bf18      	it	ne
 80015ce:	ea95 0f0c 	teqne	r5, ip
 80015d2:	d00c      	beq.n	80015ee <__aeabi_dmul+0x206>
 80015d4:	ea50 0641 	orrs.w	r6, r0, r1, lsl #1
 80015d8:	bf18      	it	ne
 80015da:	ea52 0643 	orrsne.w	r6, r2, r3, lsl #1
 80015de:	d1d1      	bne.n	8001584 <__aeabi_dmul+0x19c>
 80015e0:	ea81 0103 	eor.w	r1, r1, r3
 80015e4:	f001 4100 	and.w	r1, r1, #2147483648	@ 0x80000000
 80015e8:	f04f 0000 	mov.w	r0, #0
 80015ec:	bd70      	pop	{r4, r5, r6, pc}
 80015ee:	ea50 0641 	orrs.w	r6, r0, r1, lsl #1
 80015f2:	bf06      	itte	eq
 80015f4:	4610      	moveq	r0, r2
 80015f6:	4619      	moveq	r1, r3
 80015f8:	ea52 0643 	orrsne.w	r6, r2, r3, lsl #1
 80015fc:	d019      	beq.n	8001632 <__aeabi_dmul+0x24a>
 80015fe:	ea94 0f0c 	teq	r4, ip
 8001602:	d102      	bne.n	800160a <__aeabi_dmul+0x222>
 8001604:	ea50 3601 	orrs.w	r6, r0, r1, lsl #12
 8001608:	d113      	bne.n	8001632 <__aeabi_dmul+0x24a>
 800160a:	ea95 0f0c 	teq	r5, ip
 800160e:	d105      	bne.n	800161c <__aeabi_dmul+0x234>
 8001610:	ea52 3603 	orrs.w	r6, r2, r3, lsl #12
 8001614:	bf1c      	itt	ne
 8001616:	4610      	movne	r0, r2
 8001618:	4619      	movne	r1, r3
 800161a:	d10a      	bne.n	8001632 <__aeabi_dmul+0x24a>
 800161c:	ea81 0103 	eor.w	r1, r1, r3
 8001620:	f001 4100 	and.w	r1, r1, #2147483648	@ 0x80000000
 8001624:	f041 41fe 	orr.w	r1, r1, #2130706432	@ 0x7f000000
 8001628:	f441 0170 	orr.w	r1, r1, #15728640	@ 0xf00000
 800162c:	f04f 0000 	mov.w	r0, #0
 8001630:	bd70      	pop	{r4, r5, r6, pc}
 8001632:	f041 41fe 	orr.w	r1, r1, #2130706432	@ 0x7f000000
 8001636:	f441 0178 	orr.w	r1, r1, #16252928	@ 0xf80000
 800163a:	bd70      	pop	{r4, r5, r6, pc}

0800163c <__aeabi_ddiv>:
 800163c:	b570      	push	{r4, r5, r6, lr}
 800163e:	f04f 0cff 	mov.w	ip, #255	@ 0xff
 8001642:	f44c 6ce0 	orr.w	ip, ip, #1792	@ 0x700
 8001646:	ea1c 5411 	ands.w	r4, ip, r1, lsr #20
 800164a:	bf1d      	ittte	ne
 800164c:	ea1c 5513 	andsne.w	r5, ip, r3, lsr #20
 8001650:	ea94 0f0c 	teqne	r4, ip
 8001654:	ea95 0f0c 	teqne	r5, ip
 8001658:	f000 f8a7 	bleq	80017aa <__aeabi_ddiv+0x16e>
 800165c:	eba4 0405 	sub.w	r4, r4, r5
 8001660:	ea81 0e03 	eor.w	lr, r1, r3
 8001664:	ea52 3503 	orrs.w	r5, r2, r3, lsl #12
 8001668:	ea4f 3101 	mov.w	r1, r1, lsl #12
 800166c:	f000 8088 	beq.w	8001780 <__aeabi_ddiv+0x144>
 8001670:	ea4f 3303 	mov.w	r3, r3, lsl #12
 8001674:	f04f 5580 	mov.w	r5, #268435456	@ 0x10000000
 8001678:	ea45 1313 	orr.w	r3, r5, r3, lsr #4
 800167c:	ea43 6312 	orr.w	r3, r3, r2, lsr #24
 8001680:	ea4f 2202 	mov.w	r2, r2, lsl #8
 8001684:	ea45 1511 	orr.w	r5, r5, r1, lsr #4
 8001688:	ea45 6510 	orr.w	r5, r5, r0, lsr #24
 800168c:	ea4f 2600 	mov.w	r6, r0, lsl #8
 8001690:	f00e 4100 	and.w	r1, lr, #2147483648	@ 0x80000000
 8001694:	429d      	cmp	r5, r3
 8001696:	bf08      	it	eq
 8001698:	4296      	cmpeq	r6, r2
 800169a:	f144 04fd 	adc.w	r4, r4, #253	@ 0xfd
 800169e:	f504 7440 	add.w	r4, r4, #768	@ 0x300
 80016a2:	d202      	bcs.n	80016aa <__aeabi_ddiv+0x6e>
 80016a4:	085b      	lsrs	r3, r3, #1
 80016a6:	ea4f 0232 	mov.w	r2, r2, rrx
 80016aa:	1ab6      	subs	r6, r6, r2
 80016ac:	eb65 0503 	sbc.w	r5, r5, r3
 80016b0:	085b      	lsrs	r3, r3, #1
 80016b2:	ea4f 0232 	mov.w	r2, r2, rrx
 80016b6:	f44f 1080 	mov.w	r0, #1048576	@ 0x100000
 80016ba:	f44f 2c00 	mov.w	ip, #524288	@ 0x80000
 80016be:	ebb6 0e02 	subs.w	lr, r6, r2
 80016c2:	eb75 0e03 	sbcs.w	lr, r5, r3
 80016c6:	bf22      	ittt	cs
 80016c8:	1ab6      	subcs	r6, r6, r2
 80016ca:	4675      	movcs	r5, lr
 80016cc:	ea40 000c 	orrcs.w	r0, r0, ip
 80016d0:	085b      	lsrs	r3, r3, #1
 80016d2:	ea4f 0232 	mov.w	r2, r2, rrx
 80016d6:	ebb6 0e02 	subs.w	lr, r6, r2
 80016da:	eb75 0e03 	sbcs.w	lr, r5, r3
 80016de:	bf22      	ittt	cs
 80016e0:	1ab6      	subcs	r6, r6, r2
 80016e2:	4675      	movcs	r5, lr
 80016e4:	ea40 005c 	orrcs.w	r0, r0, ip, lsr #1
 80016e8:	085b      	lsrs	r3, r3, #1
 80016ea:	ea4f 0232 	mov.w	r2, r2, rrx
 80016ee:	ebb6 0e02 	subs.w	lr, r6, r2
 80016f2:	eb75 0e03 	sbcs.w	lr, r5, r3
 80016f6:	bf22      	ittt	cs
 80016f8:	1ab6      	subcs	r6, r6, r2
 80016fa:	4675      	movcs	r5, lr
 80016fc:	ea40 009c 	orrcs.w	r0, r0, ip, lsr #2
 8001700:	085b      	lsrs	r3, r3, #1
 8001702:	ea4f 0232 	mov.w	r2, r2, rrx
 8001706:	ebb6 0e02 	subs.w	lr, r6, r2
 800170a:	eb75 0e03 	sbcs.w	lr, r5, r3
 800170e:	bf22      	ittt	cs
 8001710:	1ab6      	subcs	r6, r6, r2
 8001712:	4675      	movcs	r5, lr
 8001714:	ea40 00dc 	orrcs.w	r0, r0, ip, lsr #3
 8001718:	ea55 0e06 	orrs.w	lr, r5, r6
 800171c:	d018      	beq.n	8001750 <__aeabi_ddiv+0x114>
 800171e:	ea4f 1505 	mov.w	r5, r5, lsl #4
 8001722:	ea45 7516 	orr.w	r5, r5, r6, lsr #28
 8001726:	ea4f 1606 	mov.w	r6, r6, lsl #4
 800172a:	ea4f 03c3 	mov.w	r3, r3, lsl #3
 800172e:	ea43 7352 	orr.w	r3, r3, r2, lsr #29
 8001732:	ea4f 02c2 	mov.w	r2, r2, lsl #3
 8001736:	ea5f 1c1c 	movs.w	ip, ip, lsr #4
 800173a:	d1c0      	bne.n	80016be <__aeabi_ddiv+0x82>
 800173c:	f411 1f80 	tst.w	r1, #1048576	@ 0x100000
 8001740:	d10b      	bne.n	800175a <__aeabi_ddiv+0x11e>
 8001742:	ea41 0100 	orr.w	r1, r1, r0
 8001746:	f04f 0000 	mov.w	r0, #0
 800174a:	f04f 4c00 	mov.w	ip, #2147483648	@ 0x80000000
 800174e:	e7b6      	b.n	80016be <__aeabi_ddiv+0x82>
 8001750:	f411 1f80 	tst.w	r1, #1048576	@ 0x100000
 8001754:	bf04      	itt	eq
 8001756:	4301      	orreq	r1, r0
 8001758:	2000      	moveq	r0, #0
 800175a:	f1b4 0cfd 	subs.w	ip, r4, #253	@ 0xfd
 800175e:	bf88      	it	hi
 8001760:	f5bc 6fe0 	cmphi.w	ip, #1792	@ 0x700
 8001764:	f63f aeaf 	bhi.w	80014c6 <__aeabi_dmul+0xde>
 8001768:	ebb5 0c03 	subs.w	ip, r5, r3
 800176c:	bf04      	itt	eq
 800176e:	ebb6 0c02 	subseq.w	ip, r6, r2
 8001772:	ea5f 0c50 	movseq.w	ip, r0, lsr #1
 8001776:	f150 0000 	adcs.w	r0, r0, #0
 800177a:	eb41 5104 	adc.w	r1, r1, r4, lsl #20
 800177e:	bd70      	pop	{r4, r5, r6, pc}
 8001780:	f00e 4e00 	and.w	lr, lr, #2147483648	@ 0x80000000
 8001784:	ea4e 3111 	orr.w	r1, lr, r1, lsr #12
 8001788:	eb14 045c 	adds.w	r4, r4, ip, lsr #1
 800178c:	bfc2      	ittt	gt
 800178e:	ebd4 050c 	rsbsgt	r5, r4, ip
 8001792:	ea41 5104 	orrgt.w	r1, r1, r4, lsl #20
 8001796:	bd70      	popgt	{r4, r5, r6, pc}
 8001798:	f441 1180 	orr.w	r1, r1, #1048576	@ 0x100000
 800179c:	f04f 0e00 	mov.w	lr, #0
 80017a0:	3c01      	subs	r4, #1
 80017a2:	e690      	b.n	80014c6 <__aeabi_dmul+0xde>
 80017a4:	ea45 0e06 	orr.w	lr, r5, r6
 80017a8:	e68d      	b.n	80014c6 <__aeabi_dmul+0xde>
 80017aa:	ea0c 5513 	and.w	r5, ip, r3, lsr #20
 80017ae:	ea94 0f0c 	teq	r4, ip
 80017b2:	bf08      	it	eq
 80017b4:	ea95 0f0c 	teqeq	r5, ip
 80017b8:	f43f af3b 	beq.w	8001632 <__aeabi_dmul+0x24a>
 80017bc:	ea94 0f0c 	teq	r4, ip
 80017c0:	d10a      	bne.n	80017d8 <__aeabi_ddiv+0x19c>
 80017c2:	ea50 3401 	orrs.w	r4, r0, r1, lsl #12
 80017c6:	f47f af34 	bne.w	8001632 <__aeabi_dmul+0x24a>
 80017ca:	ea95 0f0c 	teq	r5, ip
 80017ce:	f47f af25 	bne.w	800161c <__aeabi_dmul+0x234>
 80017d2:	4610      	mov	r0, r2
 80017d4:	4619      	mov	r1, r3
 80017d6:	e72c      	b.n	8001632 <__aeabi_dmul+0x24a>
 80017d8:	ea95 0f0c 	teq	r5, ip
 80017dc:	d106      	bne.n	80017ec <__aeabi_ddiv+0x1b0>
 80017de:	ea52 3503 	orrs.w	r5, r2, r3, lsl #12
 80017e2:	f43f aefd 	beq.w	80015e0 <__aeabi_dmul+0x1f8>
 80017e6:	4610      	mov	r0, r2
 80017e8:	4619      	mov	r1, r3
 80017ea:	e722      	b.n	8001632 <__aeabi_dmul+0x24a>
 80017ec:	ea50 0641 	orrs.w	r6, r0, r1, lsl #1
 80017f0:	bf18      	it	ne
 80017f2:	ea52 0643 	orrsne.w	r6, r2, r3, lsl #1
 80017f6:	f47f aec5 	bne.w	8001584 <__aeabi_dmul+0x19c>
 80017fa:	ea50 0441 	orrs.w	r4, r0, r1, lsl #1
 80017fe:	f47f af0d 	bne.w	800161c <__aeabi_dmul+0x234>
 8001802:	ea52 0543 	orrs.w	r5, r2, r3, lsl #1
 8001806:	f47f aeeb 	bne.w	80015e0 <__aeabi_dmul+0x1f8>
 800180a:	e712      	b.n	8001632 <__aeabi_dmul+0x24a>

0800180c <__aeabi_d2uiz>:
 800180c:	004a      	lsls	r2, r1, #1
 800180e:	d211      	bcs.n	8001834 <__aeabi_d2uiz+0x28>
 8001810:	f512 1200 	adds.w	r2, r2, #2097152	@ 0x200000
 8001814:	d211      	bcs.n	800183a <__aeabi_d2uiz+0x2e>
 8001816:	d50d      	bpl.n	8001834 <__aeabi_d2uiz+0x28>
 8001818:	f46f 7378 	mvn.w	r3, #992	@ 0x3e0
 800181c:	ebb3 5262 	subs.w	r2, r3, r2, asr #21
 8001820:	d40e      	bmi.n	8001840 <__aeabi_d2uiz+0x34>
 8001822:	ea4f 23c1 	mov.w	r3, r1, lsl #11
 8001826:	f043 4300 	orr.w	r3, r3, #2147483648	@ 0x80000000
 800182a:	ea43 5350 	orr.w	r3, r3, r0, lsr #21
 800182e:	fa23 f002 	lsr.w	r0, r3, r2
 8001832:	4770      	bx	lr
 8001834:	f04f 0000 	mov.w	r0, #0
 8001838:	4770      	bx	lr
 800183a:	ea50 3001 	orrs.w	r0, r0, r1, lsl #12
 800183e:	d102      	bne.n	8001846 <__aeabi_d2uiz+0x3a>
 8001840:	f04f 30ff 	mov.w	r0, #4294967295	@ 0xffffffff
 8001844:	4770      	bx	lr
 8001846:	f04f 0000 	mov.w	r0, #0
 800184a:	4770      	bx	lr

0800184c <MX_ADC1_Init>:
ADC_HandleTypeDef hadc1;
DMA_HandleTypeDef hdma_adc1;

/* ADC1 init function */
void MX_ADC1_Init(void)
{
 800184c:	b500      	push	{lr}
 800184e:	b085      	sub	sp, #20

  /* USER CODE BEGIN ADC1_Init 0 */

  /* USER CODE END ADC1_Init 0 */

  ADC_ChannelConfTypeDef sConfig = {0};
 8001850:	2300      	movs	r3, #0
 8001852:	9301      	str	r3, [sp, #4]
 8001854:	9302      	str	r3, [sp, #8]
 8001856:	9303      	str	r3, [sp, #12]

  /* USER CODE END ADC1_Init 1 */

  /** Common config
  */
  hadc1.Instance = ADC1;
 8001858:	4838      	ldr	r0, [pc, #224]	@ (800193c <MX_ADC1_Init+0xf0>)
 800185a:	4a39      	ldr	r2, [pc, #228]	@ (8001940 <MX_ADC1_Init+0xf4>)
 800185c:	6002      	str	r2, [r0, #0]
  hadc1.Init.ScanConvMode = ADC_SCAN_ENABLE;
 800185e:	f44f 7280 	mov.w	r2, #256	@ 0x100
 8001862:	6082      	str	r2, [r0, #8]
  hadc1.Init.ContinuousConvMode = ENABLE;
 8001864:	2201      	movs	r2, #1
 8001866:	7302      	strb	r2, [r0, #12]
  hadc1.Init.DiscontinuousConvMode = DISABLE;
 8001868:	7503      	strb	r3, [r0, #20]
  hadc1.Init.ExternalTrigConv = ADC_SOFTWARE_START;
 800186a:	f44f 2260 	mov.w	r2, #917504	@ 0xe0000
 800186e:	61c2      	str	r2, [r0, #28]
  hadc1.Init.DataAlign = ADC_DATAALIGN_RIGHT;
 8001870:	6043      	str	r3, [r0, #4]
  hadc1.Init.NbrOfConversion = 7;
 8001872:	2307      	movs	r3, #7
 8001874:	6103      	str	r3, [r0, #16]
  if (HAL_ADC_Init(&hadc1) != HAL_OK)
 8001876:	f001 fc39 	bl	80030ec <HAL_ADC_Init>
 800187a:	2800      	cmp	r0, #0
 800187c:	d146      	bne.n	800190c <MX_ADC1_Init+0xc0>
    Error_Handler();
  }

  /** Configure Regular Channel
  */
  sConfig.Channel = ADC_CHANNEL_5;
 800187e:	2305      	movs	r3, #5
 8001880:	9301      	str	r3, [sp, #4]
  sConfig.Rank = ADC_REGULAR_RANK_1;
 8001882:	2201      	movs	r2, #1
 8001884:	9202      	str	r2, [sp, #8]
  sConfig.SamplingTime = ADC_SAMPLETIME_55CYCLES_5;
 8001886:	9303      	str	r3, [sp, #12]
  if (HAL_ADC_ConfigChannel(&hadc1, &sConfig) != HAL_OK)
 8001888:	a901      	add	r1, sp, #4
 800188a:	482c      	ldr	r0, [pc, #176]	@ (800193c <MX_ADC1_Init+0xf0>)
 800188c:	f001 fa86 	bl	8002d9c <HAL_ADC_ConfigChannel>
 8001890:	2800      	cmp	r0, #0
 8001892:	d13e      	bne.n	8001912 <MX_ADC1_Init+0xc6>
    Error_Handler();
  }

  /** Configure Regular Channel
  */
  sConfig.Channel = ADC_CHANNEL_8;
 8001894:	2308      	movs	r3, #8
 8001896:	9301      	str	r3, [sp, #4]
  sConfig.Rank = ADC_REGULAR_RANK_2;
 8001898:	2302      	movs	r3, #2
 800189a:	9302      	str	r3, [sp, #8]
  if (HAL_ADC_ConfigChannel(&hadc1, &sConfig) != HAL_OK)
 800189c:	a901      	add	r1, sp, #4
 800189e:	4827      	ldr	r0, [pc, #156]	@ (800193c <MX_ADC1_Init+0xf0>)
 80018a0:	f001 fa7c 	bl	8002d9c <HAL_ADC_ConfigChannel>
 80018a4:	2800      	cmp	r0, #0
 80018a6:	d137      	bne.n	8001918 <MX_ADC1_Init+0xcc>
    Error_Handler();
  }

  /** Configure Regular Channel
  */
  sConfig.Channel = ADC_CHANNEL_4;
 80018a8:	2304      	movs	r3, #4
 80018aa:	9301      	str	r3, [sp, #4]
  sConfig.Rank = ADC_REGULAR_RANK_3;
 80018ac:	2303      	movs	r3, #3
 80018ae:	9302      	str	r3, [sp, #8]
  if (HAL_ADC_ConfigChannel(&hadc1, &sConfig) != HAL_OK)
 80018b0:	a901      	add	r1, sp, #4
 80018b2:	4822      	ldr	r0, [pc, #136]	@ (800193c <MX_ADC1_Init+0xf0>)
 80018b4:	f001 fa72 	bl	8002d9c <HAL_ADC_ConfigChannel>
 80018b8:	2800      	cmp	r0, #0
 80018ba:	d130      	bne.n	800191e <MX_ADC1_Init+0xd2>
    Error_Handler();
  }

  /** Configure Regular Channel
  */
  sConfig.Channel = ADC_CHANNEL_6;
 80018bc:	2306      	movs	r3, #6
 80018be:	9301      	str	r3, [sp, #4]
  sConfig.Rank = ADC_REGULAR_RANK_4;
 80018c0:	2304      	movs	r3, #4
 80018c2:	9302      	str	r3, [sp, #8]
  if (HAL_ADC_ConfigChannel(&hadc1, &sConfig) != HAL_OK)
 80018c4:	eb0d 0103 	add.w	r1, sp, r3
 80018c8:	481c      	ldr	r0, [pc, #112]	@ (800193c <MX_ADC1_Init+0xf0>)
 80018ca:	f001 fa67 	bl	8002d9c <HAL_ADC_ConfigChannel>
 80018ce:	bb48      	cbnz	r0, 8001924 <MX_ADC1_Init+0xd8>
    Error_Handler();
  }

  /** Configure Regular Channel
  */
  sConfig.Channel = ADC_CHANNEL_7;
 80018d0:	2307      	movs	r3, #7
 80018d2:	9301      	str	r3, [sp, #4]
  sConfig.Rank = ADC_REGULAR_RANK_5;
 80018d4:	2305      	movs	r3, #5
 80018d6:	9302      	str	r3, [sp, #8]
  if (HAL_ADC_ConfigChannel(&hadc1, &sConfig) != HAL_OK)
 80018d8:	a901      	add	r1, sp, #4
 80018da:	4818      	ldr	r0, [pc, #96]	@ (800193c <MX_ADC1_Init+0xf0>)
 80018dc:	f001 fa5e 	bl	8002d9c <HAL_ADC_ConfigChannel>
 80018e0:	bb18      	cbnz	r0, 800192a <MX_ADC1_Init+0xde>
    Error_Handler();
  }

  /** Configure Regular Channel
  */
  sConfig.Channel = ADC_CHANNEL_9;
 80018e2:	2309      	movs	r3, #9
 80018e4:	9301      	str	r3, [sp, #4]
  sConfig.Rank = ADC_REGULAR_RANK_6;
 80018e6:	2306      	movs	r3, #6
 80018e8:	9302      	str	r3, [sp, #8]
  if (HAL_ADC_ConfigChannel(&hadc1, &sConfig) != HAL_OK)
 80018ea:	a901      	add	r1, sp, #4
 80018ec:	4813      	ldr	r0, [pc, #76]	@ (800193c <MX_ADC1_Init+0xf0>)
 80018ee:	f001 fa55 	bl	8002d9c <HAL_ADC_ConfigChannel>
 80018f2:	b9e8      	cbnz	r0, 8001930 <MX_ADC1_Init+0xe4>
    Error_Handler();
  }

  /** Configure Regular Channel
  */
  sConfig.Channel = ADC_CHANNEL_3;
 80018f4:	2303      	movs	r3, #3
 80018f6:	9301      	str	r3, [sp, #4]
  sConfig.Rank = ADC_REGULAR_RANK_7;
 80018f8:	2307      	movs	r3, #7
 80018fa:	9302      	str	r3, [sp, #8]
  if (HAL_ADC_ConfigChannel(&hadc1, &sConfig) != HAL_OK)
 80018fc:	a901      	add	r1, sp, #4
 80018fe:	480f      	ldr	r0, [pc, #60]	@ (800193c <MX_ADC1_Init+0xf0>)
 8001900:	f001 fa4c 	bl	8002d9c <HAL_ADC_ConfigChannel>
 8001904:	b9b8      	cbnz	r0, 8001936 <MX_ADC1_Init+0xea>
  }
  /* USER CODE BEGIN ADC1_Init 2 */

  /* USER CODE END ADC1_Init 2 */

}
 8001906:	b005      	add	sp, #20
 8001908:	f85d fb04 	ldr.w	pc, [sp], #4
    Error_Handler();
 800190c:	f000 fc84 	bl	8002218 <Error_Handler>
 8001910:	e7b5      	b.n	800187e <MX_ADC1_Init+0x32>
    Error_Handler();
 8001912:	f000 fc81 	bl	8002218 <Error_Handler>
 8001916:	e7bd      	b.n	8001894 <MX_ADC1_Init+0x48>
    Error_Handler();
 8001918:	f000 fc7e 	bl	8002218 <Error_Handler>
 800191c:	e7c4      	b.n	80018a8 <MX_ADC1_Init+0x5c>
    Error_Handler();
 800191e:	f000 fc7b 	bl	8002218 <Error_Handler>
 8001922:	e7cb      	b.n	80018bc <MX_ADC1_Init+0x70>
    Error_Handler();
 8001924:	f000 fc78 	bl	8002218 <Error_Handler>
 8001928:	e7d2      	b.n	80018d0 <MX_ADC1_Init+0x84>
    Error_Handler();
 800192a:	f000 fc75 	bl	8002218 <Error_Handler>
 800192e:	e7d8      	b.n	80018e2 <MX_ADC1_Init+0x96>
    Error_Handler();
 8001930:	f000 fc72 	bl	8002218 <Error_Handler>
 8001934:	e7de      	b.n	80018f4 <MX_ADC1_Init+0xa8>
    Error_Handler();
 8001936:	f000 fc6f 	bl	8002218 <Error_Handler>
}
 800193a:	e7e4      	b.n	8001906 <MX_ADC1_Init+0xba>
 800193c:	20000388 	.word	0x20000388
 8001940:	40012400 	.word	0x40012400

08001944 <HAL_ADC_MspInit>:

void HAL_ADC_MspInit(ADC_HandleTypeDef* adcHandle)
{
 8001944:	b530      	push	{r4, r5, lr}
 8001946:	b089      	sub	sp, #36	@ 0x24

  GPIO_InitTypeDef GPIO_InitStruct = {0};
 8001948:	2300      	movs	r3, #0
 800194a:	9304      	str	r3, [sp, #16]
 800194c:	9305      	str	r3, [sp, #20]
 800194e:	9306      	str	r3, [sp, #24]
 8001950:	9307      	str	r3, [sp, #28]
  if(adcHandle->Instance==ADC1)
 8001952:	6802      	ldr	r2, [r0, #0]
 8001954:	4b25      	ldr	r3, [pc, #148]	@ (80019ec <HAL_ADC_MspInit+0xa8>)
 8001956:	429a      	cmp	r2, r3
 8001958:	d001      	beq.n	800195e <HAL_ADC_MspInit+0x1a>

  /* USER CODE BEGIN ADC1_MspInit 1 */

  /* USER CODE END ADC1_MspInit 1 */
  }
}
 800195a:	b009      	add	sp, #36	@ 0x24
 800195c:	bd30      	pop	{r4, r5, pc}
 800195e:	4604      	mov	r4, r0
    __HAL_RCC_ADC1_CLK_ENABLE();
 8001960:	f503 436c 	add.w	r3, r3, #60416	@ 0xec00
 8001964:	699a      	ldr	r2, [r3, #24]
 8001966:	f442 7200 	orr.w	r2, r2, #512	@ 0x200
 800196a:	619a      	str	r2, [r3, #24]
 800196c:	699a      	ldr	r2, [r3, #24]
 800196e:	f402 7200 	and.w	r2, r2, #512	@ 0x200
 8001972:	9201      	str	r2, [sp, #4]
 8001974:	9a01      	ldr	r2, [sp, #4]
    __HAL_RCC_GPIOA_CLK_ENABLE();
 8001976:	699a      	ldr	r2, [r3, #24]
 8001978:	f042 0204 	orr.w	r2, r2, #4
 800197c:	619a      	str	r2, [r3, #24]
 800197e:	699a      	ldr	r2, [r3, #24]
 8001980:	f002 0204 	and.w	r2, r2, #4
 8001984:	9202      	str	r2, [sp, #8]
 8001986:	9a02      	ldr	r2, [sp, #8]
    __HAL_RCC_GPIOB_CLK_ENABLE();
 8001988:	699a      	ldr	r2, [r3, #24]
 800198a:	f042 0208 	orr.w	r2, r2, #8
 800198e:	619a      	str	r2, [r3, #24]
 8001990:	699b      	ldr	r3, [r3, #24]
 8001992:	f003 0308 	and.w	r3, r3, #8
 8001996:	9303      	str	r3, [sp, #12]
 8001998:	9b03      	ldr	r3, [sp, #12]
    GPIO_InitStruct.Pin = GPIO_PIN_3|GPIO_PIN_4|GPIO_PIN_5|GPIO_PIN_6
 800199a:	23f8      	movs	r3, #248	@ 0xf8
 800199c:	9304      	str	r3, [sp, #16]
    GPIO_InitStruct.Mode = GPIO_MODE_ANALOG;
 800199e:	2503      	movs	r5, #3
 80019a0:	9505      	str	r5, [sp, #20]
    HAL_GPIO_Init(GPIOA, &GPIO_InitStruct);
 80019a2:	a904      	add	r1, sp, #16
 80019a4:	4812      	ldr	r0, [pc, #72]	@ (80019f0 <HAL_ADC_MspInit+0xac>)
 80019a6:	f001 fdc5 	bl	8003534 <HAL_GPIO_Init>
    GPIO_InitStruct.Pin = Current_Pin|GPIO_PIN_1;
 80019aa:	9504      	str	r5, [sp, #16]
    GPIO_InitStruct.Mode = GPIO_MODE_ANALOG;
 80019ac:	9505      	str	r5, [sp, #20]
    HAL_GPIO_Init(GPIOB, &GPIO_InitStruct);
 80019ae:	a904      	add	r1, sp, #16
 80019b0:	4810      	ldr	r0, [pc, #64]	@ (80019f4 <HAL_ADC_MspInit+0xb0>)
 80019b2:	f001 fdbf 	bl	8003534 <HAL_GPIO_Init>
    hdma_adc1.Instance = DMA1_Channel1;
 80019b6:	4810      	ldr	r0, [pc, #64]	@ (80019f8 <HAL_ADC_MspInit+0xb4>)
 80019b8:	4b10      	ldr	r3, [pc, #64]	@ (80019fc <HAL_ADC_MspInit+0xb8>)
 80019ba:	6003      	str	r3, [r0, #0]
    hdma_adc1.Init.Direction = DMA_PERIPH_TO_MEMORY;
 80019bc:	2300      	movs	r3, #0
 80019be:	6043      	str	r3, [r0, #4]
    hdma_adc1.Init.PeriphInc = DMA_PINC_DISABLE;
 80019c0:	6083      	str	r3, [r0, #8]
    hdma_adc1.Init.MemInc = DMA_MINC_ENABLE;
 80019c2:	2280      	movs	r2, #128	@ 0x80
 80019c4:	60c2      	str	r2, [r0, #12]
    hdma_adc1.Init.PeriphDataAlignment = DMA_PDATAALIGN_WORD;
 80019c6:	f44f 7200 	mov.w	r2, #512	@ 0x200
 80019ca:	6102      	str	r2, [r0, #16]
    hdma_adc1.Init.MemDataAlignment = DMA_MDATAALIGN_WORD;
 80019cc:	f44f 6200 	mov.w	r2, #2048	@ 0x800
 80019d0:	6142      	str	r2, [r0, #20]
    hdma_adc1.Init.Mode = DMA_CIRCULAR;
 80019d2:	2220      	movs	r2, #32
 80019d4:	6182      	str	r2, [r0, #24]
    hdma_adc1.Init.Priority = DMA_PRIORITY_LOW;
 80019d6:	61c3      	str	r3, [r0, #28]
    if (HAL_DMA_Init(&hdma_adc1) != HAL_OK)
 80019d8:	f001 fc9a 	bl	8003310 <HAL_DMA_Init>
 80019dc:	b918      	cbnz	r0, 80019e6 <HAL_ADC_MspInit+0xa2>
    __HAL_LINKDMA(adcHandle,DMA_Handle,hdma_adc1);
 80019de:	4b06      	ldr	r3, [pc, #24]	@ (80019f8 <HAL_ADC_MspInit+0xb4>)
 80019e0:	6223      	str	r3, [r4, #32]
 80019e2:	625c      	str	r4, [r3, #36]	@ 0x24
}
 80019e4:	e7b9      	b.n	800195a <HAL_ADC_MspInit+0x16>
      Error_Handler();
 80019e6:	f000 fc17 	bl	8002218 <Error_Handler>
 80019ea:	e7f8      	b.n	80019de <HAL_ADC_MspInit+0x9a>
 80019ec:	40012400 	.word	0x40012400
 80019f0:	40010800 	.word	0x40010800
 80019f4:	40010c00 	.word	0x40010c00
 80019f8:	20000344 	.word	0x20000344
 80019fc:	40020008 	.word	0x40020008

08001a00 <decide_step>:
uint8_t flag_counter = 0;

void decide_step(uint8_t _a, uint8_t _b, uint8_t _c)
{

    if (_a && !_b && _c && ((!oldValue[0] && !oldValue[1] && oldValue[2]) || bemf_execute_flag))
 8001a00:	4603      	mov	r3, r0
 8001a02:	2800      	cmp	r0, #0
 8001a04:	d034      	beq.n	8001a70 <decide_step+0x70>
 8001a06:	b9d9      	cbnz	r1, 8001a40 <decide_step+0x40>
 8001a08:	b1d2      	cbz	r2, 8001a40 <decide_step+0x40>
 8001a0a:	484e      	ldr	r0, [pc, #312]	@ (8001b44 <decide_step+0x144>)
 8001a0c:	7800      	ldrb	r0, [r0, #0]
 8001a0e:	b928      	cbnz	r0, 8001a1c <decide_step+0x1c>
 8001a10:	484c      	ldr	r0, [pc, #304]	@ (8001b44 <decide_step+0x144>)
 8001a12:	7840      	ldrb	r0, [r0, #1]
 8001a14:	b910      	cbnz	r0, 8001a1c <decide_step+0x1c>
 8001a16:	484b      	ldr	r0, [pc, #300]	@ (8001b44 <decide_step+0x144>)
 8001a18:	7880      	ldrb	r0, [r0, #2]
 8001a1a:	b910      	cbnz	r0, 8001a22 <decide_step+0x22>
 8001a1c:	484a      	ldr	r0, [pc, #296]	@ (8001b48 <decide_step+0x148>)
 8001a1e:	7800      	ldrb	r0, [r0, #0]
 8001a20:	b170      	cbz	r0, 8001a40 <decide_step+0x40>
    // 101'den 100'e gei
    {
        oldValue[0] = 1;
 8001a22:	4a48      	ldr	r2, [pc, #288]	@ (8001b44 <decide_step+0x144>)
 8001a24:	2301      	movs	r3, #1
 8001a26:	7013      	strb	r3, [r2, #0]
        oldValue[1] = 0;
 8001a28:	2100      	movs	r1, #0
 8001a2a:	7051      	strb	r1, [r2, #1]
        oldValue[2] = 1;
 8001a2c:	7093      	strb	r3, [r2, #2]
        step = 1;
 8001a2e:	4a47      	ldr	r2, [pc, #284]	@ (8001b4c <decide_step+0x14c>)
 8001a30:	6013      	str	r3, [r2, #0]
    }
    else
    {
        // bemf_execute_flag = 0;
    }
    if (backEMF_mode)
 8001a32:	4b47      	ldr	r3, [pc, #284]	@ (8001b50 <decide_step+0x150>)
 8001a34:	781b      	ldrb	r3, [r3, #0]
 8001a36:	b113      	cbz	r3, 8001a3e <decide_step+0x3e>
    {
        bemf_execute_flag = 0;
 8001a38:	4b43      	ldr	r3, [pc, #268]	@ (8001b48 <decide_step+0x148>)
 8001a3a:	2200      	movs	r2, #0
 8001a3c:	701a      	strb	r2, [r3, #0]
    }
}
 8001a3e:	4770      	bx	lr
    else if (_a && !_b && !_c && ((oldValue[0] && !oldValue[1] && oldValue[2]) || bemf_execute_flag)) // 100'den 110'a gei
 8001a40:	b9b1      	cbnz	r1, 8001a70 <decide_step+0x70>
 8001a42:	b9aa      	cbnz	r2, 8001a70 <decide_step+0x70>
 8001a44:	483f      	ldr	r0, [pc, #252]	@ (8001b44 <decide_step+0x144>)
 8001a46:	7800      	ldrb	r0, [r0, #0]
 8001a48:	b128      	cbz	r0, 8001a56 <decide_step+0x56>
 8001a4a:	483e      	ldr	r0, [pc, #248]	@ (8001b44 <decide_step+0x144>)
 8001a4c:	7840      	ldrb	r0, [r0, #1]
 8001a4e:	b910      	cbnz	r0, 8001a56 <decide_step+0x56>
 8001a50:	483c      	ldr	r0, [pc, #240]	@ (8001b44 <decide_step+0x144>)
 8001a52:	7880      	ldrb	r0, [r0, #2]
 8001a54:	b910      	cbnz	r0, 8001a5c <decide_step+0x5c>
 8001a56:	483c      	ldr	r0, [pc, #240]	@ (8001b48 <decide_step+0x148>)
 8001a58:	7800      	ldrb	r0, [r0, #0]
 8001a5a:	b148      	cbz	r0, 8001a70 <decide_step+0x70>
        oldValue[0] = 1;
 8001a5c:	4b39      	ldr	r3, [pc, #228]	@ (8001b44 <decide_step+0x144>)
 8001a5e:	2201      	movs	r2, #1
 8001a60:	701a      	strb	r2, [r3, #0]
        oldValue[1] = 0;
 8001a62:	2200      	movs	r2, #0
 8001a64:	705a      	strb	r2, [r3, #1]
        oldValue[2] = 0;
 8001a66:	709a      	strb	r2, [r3, #2]
        step = 2;
 8001a68:	4b38      	ldr	r3, [pc, #224]	@ (8001b4c <decide_step+0x14c>)
 8001a6a:	2202      	movs	r2, #2
 8001a6c:	601a      	str	r2, [r3, #0]
 8001a6e:	e7e0      	b.n	8001a32 <decide_step+0x32>
    else if (_a && _b && !_c && ((oldValue[0] && !oldValue[1] && !oldValue[2]) || bemf_execute_flag)) // 100'den 110'a gei
 8001a70:	b1d3      	cbz	r3, 8001aa8 <decide_step+0xa8>
 8001a72:	2900      	cmp	r1, #0
 8001a74:	d0dd      	beq.n	8001a32 <decide_step+0x32>
 8001a76:	2a00      	cmp	r2, #0
 8001a78:	d1db      	bne.n	8001a32 <decide_step+0x32>
 8001a7a:	4b32      	ldr	r3, [pc, #200]	@ (8001b44 <decide_step+0x144>)
 8001a7c:	781b      	ldrb	r3, [r3, #0]
 8001a7e:	b12b      	cbz	r3, 8001a8c <decide_step+0x8c>
 8001a80:	4b30      	ldr	r3, [pc, #192]	@ (8001b44 <decide_step+0x144>)
 8001a82:	785b      	ldrb	r3, [r3, #1]
 8001a84:	b913      	cbnz	r3, 8001a8c <decide_step+0x8c>
 8001a86:	4b2f      	ldr	r3, [pc, #188]	@ (8001b44 <decide_step+0x144>)
 8001a88:	789b      	ldrb	r3, [r3, #2]
 8001a8a:	b11b      	cbz	r3, 8001a94 <decide_step+0x94>
 8001a8c:	4b2e      	ldr	r3, [pc, #184]	@ (8001b48 <decide_step+0x148>)
 8001a8e:	781b      	ldrb	r3, [r3, #0]
 8001a90:	2b00      	cmp	r3, #0
 8001a92:	d0ce      	beq.n	8001a32 <decide_step+0x32>
        oldValue[0] = 1;
 8001a94:	4b2b      	ldr	r3, [pc, #172]	@ (8001b44 <decide_step+0x144>)
 8001a96:	2201      	movs	r2, #1
 8001a98:	701a      	strb	r2, [r3, #0]
        oldValue[1] = 1;
 8001a9a:	705a      	strb	r2, [r3, #1]
        oldValue[2] = 0;
 8001a9c:	2200      	movs	r2, #0
 8001a9e:	709a      	strb	r2, [r3, #2]
        step = 3;
 8001aa0:	4b2a      	ldr	r3, [pc, #168]	@ (8001b4c <decide_step+0x14c>)
 8001aa2:	2203      	movs	r2, #3
 8001aa4:	601a      	str	r2, [r3, #0]
 8001aa6:	e7c4      	b.n	8001a32 <decide_step+0x32>
    else if (!_a && _b && !_c && ((oldValue[0] && oldValue[1] && !oldValue[2]) || bemf_execute_flag)) // 100'den 110'a gei
 8001aa8:	b1b1      	cbz	r1, 8001ad8 <decide_step+0xd8>
 8001aaa:	b9aa      	cbnz	r2, 8001ad8 <decide_step+0xd8>
 8001aac:	4825      	ldr	r0, [pc, #148]	@ (8001b44 <decide_step+0x144>)
 8001aae:	7800      	ldrb	r0, [r0, #0]
 8001ab0:	b128      	cbz	r0, 8001abe <decide_step+0xbe>
 8001ab2:	4824      	ldr	r0, [pc, #144]	@ (8001b44 <decide_step+0x144>)
 8001ab4:	7840      	ldrb	r0, [r0, #1]
 8001ab6:	b110      	cbz	r0, 8001abe <decide_step+0xbe>
 8001ab8:	4822      	ldr	r0, [pc, #136]	@ (8001b44 <decide_step+0x144>)
 8001aba:	7880      	ldrb	r0, [r0, #2]
 8001abc:	b110      	cbz	r0, 8001ac4 <decide_step+0xc4>
 8001abe:	4822      	ldr	r0, [pc, #136]	@ (8001b48 <decide_step+0x148>)
 8001ac0:	7800      	ldrb	r0, [r0, #0]
 8001ac2:	b148      	cbz	r0, 8001ad8 <decide_step+0xd8>
        oldValue[0] = 0;
 8001ac4:	4b1f      	ldr	r3, [pc, #124]	@ (8001b44 <decide_step+0x144>)
 8001ac6:	2200      	movs	r2, #0
 8001ac8:	701a      	strb	r2, [r3, #0]
        oldValue[1] = 1;
 8001aca:	2101      	movs	r1, #1
 8001acc:	7059      	strb	r1, [r3, #1]
        oldValue[2] = 0;
 8001ace:	709a      	strb	r2, [r3, #2]
        step = 4;
 8001ad0:	4b1e      	ldr	r3, [pc, #120]	@ (8001b4c <decide_step+0x14c>)
 8001ad2:	2204      	movs	r2, #4
 8001ad4:	601a      	str	r2, [r3, #0]
 8001ad6:	e7ac      	b.n	8001a32 <decide_step+0x32>
    else if (!_a && _b && _c && ((!oldValue[0] && oldValue[1] && !oldValue[2]) || bemf_execute_flag)) // 100'den 110'a gei
 8001ad8:	2b00      	cmp	r3, #0
 8001ada:	d1aa      	bne.n	8001a32 <decide_step+0x32>
 8001adc:	b1b1      	cbz	r1, 8001b0c <decide_step+0x10c>
 8001ade:	b1aa      	cbz	r2, 8001b0c <decide_step+0x10c>
 8001ae0:	4b18      	ldr	r3, [pc, #96]	@ (8001b44 <decide_step+0x144>)
 8001ae2:	781b      	ldrb	r3, [r3, #0]
 8001ae4:	b92b      	cbnz	r3, 8001af2 <decide_step+0xf2>
 8001ae6:	4b17      	ldr	r3, [pc, #92]	@ (8001b44 <decide_step+0x144>)
 8001ae8:	785b      	ldrb	r3, [r3, #1]
 8001aea:	b113      	cbz	r3, 8001af2 <decide_step+0xf2>
 8001aec:	4b15      	ldr	r3, [pc, #84]	@ (8001b44 <decide_step+0x144>)
 8001aee:	789b      	ldrb	r3, [r3, #2]
 8001af0:	b113      	cbz	r3, 8001af8 <decide_step+0xf8>
 8001af2:	4b15      	ldr	r3, [pc, #84]	@ (8001b48 <decide_step+0x148>)
 8001af4:	781b      	ldrb	r3, [r3, #0]
 8001af6:	b14b      	cbz	r3, 8001b0c <decide_step+0x10c>
        oldValue[0] = 0;
 8001af8:	4b12      	ldr	r3, [pc, #72]	@ (8001b44 <decide_step+0x144>)
 8001afa:	2200      	movs	r2, #0
 8001afc:	701a      	strb	r2, [r3, #0]
        oldValue[1] = 1;
 8001afe:	2201      	movs	r2, #1
 8001b00:	705a      	strb	r2, [r3, #1]
        oldValue[2] = 1;
 8001b02:	709a      	strb	r2, [r3, #2]
        step = 5;
 8001b04:	4b11      	ldr	r3, [pc, #68]	@ (8001b4c <decide_step+0x14c>)
 8001b06:	2205      	movs	r2, #5
 8001b08:	601a      	str	r2, [r3, #0]
 8001b0a:	e792      	b.n	8001a32 <decide_step+0x32>
    else if (!_a && !_b && _c && ((!oldValue[0] && oldValue[1] && oldValue[2]) || bemf_execute_flag)) // 100'den 110'a gei
 8001b0c:	2900      	cmp	r1, #0
 8001b0e:	d190      	bne.n	8001a32 <decide_step+0x32>
 8001b10:	2a00      	cmp	r2, #0
 8001b12:	d08e      	beq.n	8001a32 <decide_step+0x32>
 8001b14:	4b0b      	ldr	r3, [pc, #44]	@ (8001b44 <decide_step+0x144>)
 8001b16:	781b      	ldrb	r3, [r3, #0]
 8001b18:	b92b      	cbnz	r3, 8001b26 <decide_step+0x126>
 8001b1a:	4b0a      	ldr	r3, [pc, #40]	@ (8001b44 <decide_step+0x144>)
 8001b1c:	785b      	ldrb	r3, [r3, #1]
 8001b1e:	b113      	cbz	r3, 8001b26 <decide_step+0x126>
 8001b20:	4b08      	ldr	r3, [pc, #32]	@ (8001b44 <decide_step+0x144>)
 8001b22:	789b      	ldrb	r3, [r3, #2]
 8001b24:	b91b      	cbnz	r3, 8001b2e <decide_step+0x12e>
 8001b26:	4b08      	ldr	r3, [pc, #32]	@ (8001b48 <decide_step+0x148>)
 8001b28:	781b      	ldrb	r3, [r3, #0]
 8001b2a:	2b00      	cmp	r3, #0
 8001b2c:	d081      	beq.n	8001a32 <decide_step+0x32>
        oldValue[0] = 0;
 8001b2e:	4b05      	ldr	r3, [pc, #20]	@ (8001b44 <decide_step+0x144>)
 8001b30:	2200      	movs	r2, #0
 8001b32:	701a      	strb	r2, [r3, #0]
        oldValue[1] = 0;
 8001b34:	705a      	strb	r2, [r3, #1]
        oldValue[2] = 1;
 8001b36:	2201      	movs	r2, #1
 8001b38:	709a      	strb	r2, [r3, #2]
        step = 6;
 8001b3a:	4b04      	ldr	r3, [pc, #16]	@ (8001b4c <decide_step+0x14c>)
 8001b3c:	2206      	movs	r2, #6
 8001b3e:	601a      	str	r2, [r3, #0]
 8001b40:	e777      	b.n	8001a32 <decide_step+0x32>
 8001b42:	bf00      	nop
 8001b44:	20000670 	.word	0x20000670
 8001b48:	20000050 	.word	0x20000050
 8001b4c:	20000644 	.word	0x20000644
 8001b50:	200005d0 	.word	0x200005d0

08001b54 <abc>:
void abc()
{
 8001b54:	b508      	push	{r3, lr}
    if (backEMF_mode)
 8001b56:	4b05      	ldr	r3, [pc, #20]	@ (8001b6c <abc+0x18>)
 8001b58:	781b      	ldrb	r3, [r3, #0]
 8001b5a:	b903      	cbnz	r3, 8001b5e <abc+0xa>
    {
        // LOG_VAR(flagg);
        execute_step(step);
    }
}
 8001b5c:	bd08      	pop	{r3, pc}
        execute_step(step);
 8001b5e:	4b04      	ldr	r3, [pc, #16]	@ (8001b70 <abc+0x1c>)
 8001b60:	6818      	ldr	r0, [r3, #0]
 8001b62:	b2c0      	uxtb	r0, r0
 8001b64:	f001 f804 	bl	8002b70 <execute_step>
}
 8001b68:	e7f8      	b.n	8001b5c <abc+0x8>
 8001b6a:	bf00      	nop
 8001b6c:	200005d0 	.word	0x200005d0
 8001b70:	20000644 	.word	0x20000644

08001b74 <phaseControlBemf>:

void phaseControlBemf()
{
 8001b74:	b538      	push	{r3, r4, r5, lr}
    if (polarity_A + polarity_A_old == 1)
 8001b76:	4b39      	ldr	r3, [pc, #228]	@ (8001c5c <phaseControlBemf+0xe8>)
 8001b78:	7818      	ldrb	r0, [r3, #0]
 8001b7a:	4b39      	ldr	r3, [pc, #228]	@ (8001c60 <phaseControlBemf+0xec>)
 8001b7c:	781b      	ldrb	r3, [r3, #0]
 8001b7e:	4403      	add	r3, r0
 8001b80:	2b01      	cmp	r3, #1
 8001b82:	d00e      	beq.n	8001ba2 <phaseControlBemf+0x2e>
        __HAL_TIM_SET_COUNTER(&htim4, 0);
        polarity_A_old = polarity_A;
        // log_var_analysis();
        // abc();
    }
    else if (polarity_B + polarity_B_old == 1)
 8001b84:	4b37      	ldr	r3, [pc, #220]	@ (8001c64 <phaseControlBemf+0xf0>)
 8001b86:	7819      	ldrb	r1, [r3, #0]
 8001b88:	4b37      	ldr	r3, [pc, #220]	@ (8001c68 <phaseControlBemf+0xf4>)
 8001b8a:	781b      	ldrb	r3, [r3, #0]
 8001b8c:	440b      	add	r3, r1
 8001b8e:	2b01      	cmp	r3, #1
 8001b90:	d028      	beq.n	8001be4 <phaseControlBemf+0x70>
        __HAL_TIM_SET_COUNTER(&htim4, 0);
        polarity_B_old = polarity_B;
        // log_var_analysis();
        // abc();
    }
    else if (polarity_C + polarity_C_old == 1)
 8001b92:	4b36      	ldr	r3, [pc, #216]	@ (8001c6c <phaseControlBemf+0xf8>)
 8001b94:	781a      	ldrb	r2, [r3, #0]
 8001b96:	4b36      	ldr	r3, [pc, #216]	@ (8001c70 <phaseControlBemf+0xfc>)
 8001b98:	781b      	ldrb	r3, [r3, #0]
 8001b9a:	4413      	add	r3, r2
 8001b9c:	2b01      	cmp	r3, #1
 8001b9e:	d040      	beq.n	8001c22 <phaseControlBemf+0xae>
    }
    else
    {
        a = a;
    }
}
 8001ba0:	bd38      	pop	{r3, r4, r5, pc}
        decide_step(polarity_A, polarity_B, polarity_C);
 8001ba2:	4b32      	ldr	r3, [pc, #200]	@ (8001c6c <phaseControlBemf+0xf8>)
 8001ba4:	781a      	ldrb	r2, [r3, #0]
 8001ba6:	4b2f      	ldr	r3, [pc, #188]	@ (8001c64 <phaseControlBemf+0xf0>)
 8001ba8:	7819      	ldrb	r1, [r3, #0]
 8001baa:	f7ff ff29 	bl	8001a00 <decide_step>
        intersection_interval = __HAL_TIM_GET_COUNTER(&htim4);
 8001bae:	4d31      	ldr	r5, [pc, #196]	@ (8001c74 <phaseControlBemf+0x100>)
 8001bb0:	682b      	ldr	r3, [r5, #0]
 8001bb2:	6a5a      	ldr	r2, [r3, #36]	@ 0x24
 8001bb4:	4b30      	ldr	r3, [pc, #192]	@ (8001c78 <phaseControlBemf+0x104>)
 8001bb6:	801a      	strh	r2, [r3, #0]
        uint16_t temp = (difference_two_coummutation_time_filtered * 2) / 24;
 8001bb8:	4b30      	ldr	r3, [pc, #192]	@ (8001c7c <phaseControlBemf+0x108>)
 8001bba:	881b      	ldrh	r3, [r3, #0]
 8001bbc:	b29b      	uxth	r3, r3
 8001bbe:	4a30      	ldr	r2, [pc, #192]	@ (8001c80 <phaseControlBemf+0x10c>)
 8001bc0:	fb82 2303 	smull	r2, r3, r2, r3
        __HAL_TIM_SET_AUTORELOAD(&htim3, temp);
 8001bc4:	482f      	ldr	r0, [pc, #188]	@ (8001c84 <phaseControlBemf+0x110>)
 8001bc6:	6802      	ldr	r2, [r0, #0]
 8001bc8:	085b      	lsrs	r3, r3, #1
 8001bca:	62d3      	str	r3, [r2, #44]	@ 0x2c
 8001bcc:	60c3      	str	r3, [r0, #12]
        __HAL_TIM_SET_COUNTER(&htim3, 0);
 8001bce:	2400      	movs	r4, #0
 8001bd0:	6254      	str	r4, [r2, #36]	@ 0x24
        HAL_TIM_Base_Start_IT(&htim3);
 8001bd2:	f003 fa51 	bl	8005078 <HAL_TIM_Base_Start_IT>
        __HAL_TIM_SET_COUNTER(&htim4, 0);
 8001bd6:	682b      	ldr	r3, [r5, #0]
 8001bd8:	625c      	str	r4, [r3, #36]	@ 0x24
        polarity_A_old = polarity_A;
 8001bda:	4b20      	ldr	r3, [pc, #128]	@ (8001c5c <phaseControlBemf+0xe8>)
 8001bdc:	781a      	ldrb	r2, [r3, #0]
 8001bde:	4b20      	ldr	r3, [pc, #128]	@ (8001c60 <phaseControlBemf+0xec>)
 8001be0:	701a      	strb	r2, [r3, #0]
 8001be2:	e7dd      	b.n	8001ba0 <phaseControlBemf+0x2c>
        decide_step(polarity_A, polarity_B, polarity_C);
 8001be4:	4b21      	ldr	r3, [pc, #132]	@ (8001c6c <phaseControlBemf+0xf8>)
 8001be6:	781a      	ldrb	r2, [r3, #0]
 8001be8:	f7ff ff0a 	bl	8001a00 <decide_step>
        intersection_interval = __HAL_TIM_GET_COUNTER(&htim4);
 8001bec:	4d21      	ldr	r5, [pc, #132]	@ (8001c74 <phaseControlBemf+0x100>)
 8001bee:	682b      	ldr	r3, [r5, #0]
 8001bf0:	6a5a      	ldr	r2, [r3, #36]	@ 0x24
 8001bf2:	4b21      	ldr	r3, [pc, #132]	@ (8001c78 <phaseControlBemf+0x104>)
 8001bf4:	801a      	strh	r2, [r3, #0]
        uint16_t temp = (difference_two_coummutation_time_filtered * 2) / 24;
 8001bf6:	4b21      	ldr	r3, [pc, #132]	@ (8001c7c <phaseControlBemf+0x108>)
 8001bf8:	881b      	ldrh	r3, [r3, #0]
 8001bfa:	b29b      	uxth	r3, r3
 8001bfc:	4a20      	ldr	r2, [pc, #128]	@ (8001c80 <phaseControlBemf+0x10c>)
 8001bfe:	fb82 2303 	smull	r2, r3, r2, r3
        __HAL_TIM_SET_AUTORELOAD(&htim3, temp);
 8001c02:	4820      	ldr	r0, [pc, #128]	@ (8001c84 <phaseControlBemf+0x110>)
 8001c04:	6802      	ldr	r2, [r0, #0]
 8001c06:	085b      	lsrs	r3, r3, #1
 8001c08:	62d3      	str	r3, [r2, #44]	@ 0x2c
 8001c0a:	60c3      	str	r3, [r0, #12]
        __HAL_TIM_SET_COUNTER(&htim3, 0);
 8001c0c:	2400      	movs	r4, #0
 8001c0e:	6254      	str	r4, [r2, #36]	@ 0x24
        HAL_TIM_Base_Start_IT(&htim3);
 8001c10:	f003 fa32 	bl	8005078 <HAL_TIM_Base_Start_IT>
        __HAL_TIM_SET_COUNTER(&htim4, 0);
 8001c14:	682b      	ldr	r3, [r5, #0]
 8001c16:	625c      	str	r4, [r3, #36]	@ 0x24
        polarity_B_old = polarity_B;
 8001c18:	4b12      	ldr	r3, [pc, #72]	@ (8001c64 <phaseControlBemf+0xf0>)
 8001c1a:	781a      	ldrb	r2, [r3, #0]
 8001c1c:	4b12      	ldr	r3, [pc, #72]	@ (8001c68 <phaseControlBemf+0xf4>)
 8001c1e:	701a      	strb	r2, [r3, #0]
 8001c20:	e7be      	b.n	8001ba0 <phaseControlBemf+0x2c>
        decide_step(polarity_A, polarity_B, polarity_C);
 8001c22:	f7ff feed 	bl	8001a00 <decide_step>
        intersection_interval = __HAL_TIM_GET_COUNTER(&htim4);
 8001c26:	4d13      	ldr	r5, [pc, #76]	@ (8001c74 <phaseControlBemf+0x100>)
 8001c28:	682b      	ldr	r3, [r5, #0]
 8001c2a:	6a5a      	ldr	r2, [r3, #36]	@ 0x24
 8001c2c:	4b12      	ldr	r3, [pc, #72]	@ (8001c78 <phaseControlBemf+0x104>)
 8001c2e:	801a      	strh	r2, [r3, #0]
        uint16_t temp = (difference_two_coummutation_time_filtered * 2) / 24;
 8001c30:	4b12      	ldr	r3, [pc, #72]	@ (8001c7c <phaseControlBemf+0x108>)
 8001c32:	881b      	ldrh	r3, [r3, #0]
 8001c34:	b29b      	uxth	r3, r3
 8001c36:	4a12      	ldr	r2, [pc, #72]	@ (8001c80 <phaseControlBemf+0x10c>)
 8001c38:	fb82 2303 	smull	r2, r3, r2, r3
        __HAL_TIM_SET_AUTORELOAD(&htim3, temp);
 8001c3c:	4811      	ldr	r0, [pc, #68]	@ (8001c84 <phaseControlBemf+0x110>)
 8001c3e:	6802      	ldr	r2, [r0, #0]
 8001c40:	085b      	lsrs	r3, r3, #1
 8001c42:	62d3      	str	r3, [r2, #44]	@ 0x2c
 8001c44:	60c3      	str	r3, [r0, #12]
        __HAL_TIM_SET_COUNTER(&htim3, 0);
 8001c46:	2400      	movs	r4, #0
 8001c48:	6254      	str	r4, [r2, #36]	@ 0x24
        HAL_TIM_Base_Start_IT(&htim3);
 8001c4a:	f003 fa15 	bl	8005078 <HAL_TIM_Base_Start_IT>
        __HAL_TIM_SET_COUNTER(&htim4, 0);
 8001c4e:	682b      	ldr	r3, [r5, #0]
 8001c50:	625c      	str	r4, [r3, #36]	@ 0x24
        polarity_C_old = polarity_C;
 8001c52:	4b06      	ldr	r3, [pc, #24]	@ (8001c6c <phaseControlBemf+0xf8>)
 8001c54:	781a      	ldrb	r2, [r3, #0]
 8001c56:	4b06      	ldr	r3, [pc, #24]	@ (8001c70 <phaseControlBemf+0xfc>)
 8001c58:	701a      	strb	r2, [r3, #0]
}
 8001c5a:	e7a1      	b.n	8001ba0 <phaseControlBemf+0x2c>
 8001c5c:	200005cf 	.word	0x200005cf
 8001c60:	200005cc 	.word	0x200005cc
 8001c64:	200005ce 	.word	0x200005ce
 8001c68:	200005cb 	.word	0x200005cb
 8001c6c:	200005cd 	.word	0x200005cd
 8001c70:	200005ca 	.word	0x200005ca
 8001c74:	2000069c 	.word	0x2000069c
 8001c78:	200005c8 	.word	0x200005c8
 8001c7c:	2000005a 	.word	0x2000005a
 8001c80:	2aaaaaab 	.word	0x2aaaaaab
 8001c84:	200006e4 	.word	0x200006e4

08001c88 <log_var_analysis>:

void log_var_analysis()
{
    if (rpm > 800 && 0)
 8001c88:	4b01      	ldr	r3, [pc, #4]	@ (8001c90 <log_var_analysis+0x8>)
 8001c8a:	681b      	ldr	r3, [r3, #0]
            LOG_VAR(d);
            LOG_VAR(e);
            LOG_VAR(f);
        }
    }
}
 8001c8c:	4770      	bx	lr
 8001c8e:	bf00      	nop
 8001c90:	2000062c 	.word	0x2000062c

08001c94 <log_variable>:
#include "usb_device.h"

char log_buffer[BUFFER_SIZE];
int log_length = 0;

void log_variable(const char *name, unsigned int value) {
 8001c94:	b530      	push	{r4, r5, lr}
 8001c96:	b083      	sub	sp, #12
 8001c98:	4603      	mov	r3, r0
    int len = snprintf(log_buffer + log_length, BUFFER_SIZE - log_length, "%s:%u,", name, value);
 8001c9a:	4c07      	ldr	r4, [pc, #28]	@ (8001cb8 <log_variable+0x24>)
 8001c9c:	6825      	ldr	r5, [r4, #0]
 8001c9e:	9100      	str	r1, [sp, #0]
 8001ca0:	4a06      	ldr	r2, [pc, #24]	@ (8001cbc <log_variable+0x28>)
 8001ca2:	f5c5 7100 	rsb	r1, r5, #512	@ 0x200
 8001ca6:	4806      	ldr	r0, [pc, #24]	@ (8001cc0 <log_variable+0x2c>)
 8001ca8:	4428      	add	r0, r5
 8001caa:	f7fe fb33 	bl	8000314 <sniprintf>
    log_length += len;
 8001cae:	6823      	ldr	r3, [r4, #0]
 8001cb0:	4403      	add	r3, r0
 8001cb2:	6023      	str	r3, [r4, #0]
}
 8001cb4:	b003      	add	sp, #12
 8001cb6:	bd30      	pop	{r4, r5, pc}
 8001cb8:	200003b8 	.word	0x200003b8
 8001cbc:	08007de4 	.word	0x08007de4
 8001cc0:	200003bc 	.word	0x200003bc

08001cc4 <LOG_POST>:

void LOG_POST() {
 8001cc4:	b508      	push	{r3, lr}
    if (log_length > 0) {
 8001cc6:	4b09      	ldr	r3, [pc, #36]	@ (8001cec <LOG_POST+0x28>)
 8001cc8:	6819      	ldr	r1, [r3, #0]
 8001cca:	2900      	cmp	r1, #0
 8001ccc:	dc05      	bgt.n	8001cda <LOG_POST+0x16>
        log_buffer[log_length - 1] = '\n';
        CDC_Transmit_FS((uint8_t *)log_buffer, log_length);
    }
    log_length = 0; 
 8001cce:	2300      	movs	r3, #0
 8001cd0:	4a06      	ldr	r2, [pc, #24]	@ (8001cec <LOG_POST+0x28>)
 8001cd2:	6013      	str	r3, [r2, #0]
    log_buffer[0] = '\0';
 8001cd4:	4a06      	ldr	r2, [pc, #24]	@ (8001cf0 <LOG_POST+0x2c>)
 8001cd6:	7013      	strb	r3, [r2, #0]
 8001cd8:	bd08      	pop	{r3, pc}
        log_buffer[log_length - 1] = '\n';
 8001cda:	1e4b      	subs	r3, r1, #1
 8001cdc:	4804      	ldr	r0, [pc, #16]	@ (8001cf0 <LOG_POST+0x2c>)
 8001cde:	220a      	movs	r2, #10
 8001ce0:	54c2      	strb	r2, [r0, r3]
        CDC_Transmit_FS((uint8_t *)log_buffer, log_length);
 8001ce2:	b289      	uxth	r1, r1
 8001ce4:	f005 f9a8 	bl	8007038 <CDC_Transmit_FS>
 8001ce8:	e7f1      	b.n	8001cce <LOG_POST+0xa>
 8001cea:	bf00      	nop
 8001cec:	200003b8 	.word	0x200003b8
 8001cf0:	200003bc 	.word	0x200003bc

08001cf4 <MX_DMA_Init>:

/**
  * Enable DMA controller clock
  */
void MX_DMA_Init(void)
{
 8001cf4:	b500      	push	{lr}
 8001cf6:	b083      	sub	sp, #12

  /* DMA controller clock enable */
  __HAL_RCC_DMA1_CLK_ENABLE();
 8001cf8:	4b0a      	ldr	r3, [pc, #40]	@ (8001d24 <MX_DMA_Init+0x30>)
 8001cfa:	695a      	ldr	r2, [r3, #20]
 8001cfc:	f042 0201 	orr.w	r2, r2, #1
 8001d00:	615a      	str	r2, [r3, #20]
 8001d02:	695b      	ldr	r3, [r3, #20]
 8001d04:	f003 0301 	and.w	r3, r3, #1
 8001d08:	9301      	str	r3, [sp, #4]
 8001d0a:	9b01      	ldr	r3, [sp, #4]

  /* DMA interrupt init */
  /* DMA1_Channel1_IRQn interrupt configuration */
  HAL_NVIC_SetPriority(DMA1_Channel1_IRQn, 0, 0);
 8001d0c:	2200      	movs	r2, #0
 8001d0e:	4611      	mov	r1, r2
 8001d10:	200b      	movs	r0, #11
 8001d12:	f001 fab5 	bl	8003280 <HAL_NVIC_SetPriority>
  HAL_NVIC_EnableIRQ(DMA1_Channel1_IRQn);
 8001d16:	200b      	movs	r0, #11
 8001d18:	f001 fac2 	bl	80032a0 <HAL_NVIC_EnableIRQ>

}
 8001d1c:	b003      	add	sp, #12
 8001d1e:	f85d fb04 	ldr.w	pc, [sp], #4
 8001d22:	bf00      	nop
 8001d24:	40021000 	.word	0x40021000

08001d28 <MX_GPIO_Init>:
        * Output
        * EVENT_OUT
        * EXTI
*/
void MX_GPIO_Init(void)
{
 8001d28:	b530      	push	{r4, r5, lr}
 8001d2a:	b089      	sub	sp, #36	@ 0x24

  GPIO_InitTypeDef GPIO_InitStruct = {0};
 8001d2c:	2400      	movs	r4, #0
 8001d2e:	9404      	str	r4, [sp, #16]
 8001d30:	9405      	str	r4, [sp, #20]
 8001d32:	9406      	str	r4, [sp, #24]
 8001d34:	9407      	str	r4, [sp, #28]

  /* GPIO Ports Clock Enable */
  __HAL_RCC_GPIOC_CLK_ENABLE();
 8001d36:	4b31      	ldr	r3, [pc, #196]	@ (8001dfc <MX_GPIO_Init+0xd4>)
 8001d38:	699a      	ldr	r2, [r3, #24]
 8001d3a:	f042 0210 	orr.w	r2, r2, #16
 8001d3e:	619a      	str	r2, [r3, #24]
 8001d40:	699a      	ldr	r2, [r3, #24]
 8001d42:	f002 0210 	and.w	r2, r2, #16
 8001d46:	9200      	str	r2, [sp, #0]
 8001d48:	9a00      	ldr	r2, [sp, #0]
  __HAL_RCC_GPIOD_CLK_ENABLE();
 8001d4a:	699a      	ldr	r2, [r3, #24]
 8001d4c:	f042 0220 	orr.w	r2, r2, #32
 8001d50:	619a      	str	r2, [r3, #24]
 8001d52:	699a      	ldr	r2, [r3, #24]
 8001d54:	f002 0220 	and.w	r2, r2, #32
 8001d58:	9201      	str	r2, [sp, #4]
 8001d5a:	9a01      	ldr	r2, [sp, #4]
  __HAL_RCC_GPIOA_CLK_ENABLE();
 8001d5c:	699a      	ldr	r2, [r3, #24]
 8001d5e:	f042 0204 	orr.w	r2, r2, #4
 8001d62:	619a      	str	r2, [r3, #24]
 8001d64:	699a      	ldr	r2, [r3, #24]
 8001d66:	f002 0204 	and.w	r2, r2, #4
 8001d6a:	9202      	str	r2, [sp, #8]
 8001d6c:	9a02      	ldr	r2, [sp, #8]
  __HAL_RCC_GPIOB_CLK_ENABLE();
 8001d6e:	699a      	ldr	r2, [r3, #24]
 8001d70:	f042 0208 	orr.w	r2, r2, #8
 8001d74:	619a      	str	r2, [r3, #24]
 8001d76:	699b      	ldr	r3, [r3, #24]
 8001d78:	f003 0308 	and.w	r3, r3, #8
 8001d7c:	9303      	str	r3, [sp, #12]
 8001d7e:	9b03      	ldr	r3, [sp, #12]

  /*Configure GPIO pin Output Level */
  HAL_GPIO_WritePin(GPIOC, GPIO_PIN_13|GPIO_PIN_14, GPIO_PIN_RESET);
 8001d80:	4d1f      	ldr	r5, [pc, #124]	@ (8001e00 <MX_GPIO_Init+0xd8>)
 8001d82:	4622      	mov	r2, r4
 8001d84:	f44f 41c0 	mov.w	r1, #24576	@ 0x6000
 8001d88:	4628      	mov	r0, r5
 8001d8a:	f001 fce8 	bl	800375e <HAL_GPIO_WritePin>

  /*Configure GPIO pins : PC13 PC14 */
  GPIO_InitStruct.Pin = GPIO_PIN_13|GPIO_PIN_14;
 8001d8e:	f44f 43c0 	mov.w	r3, #24576	@ 0x6000
 8001d92:	9304      	str	r3, [sp, #16]
  GPIO_InitStruct.Mode = GPIO_MODE_OUTPUT_PP;
 8001d94:	2301      	movs	r3, #1
 8001d96:	9305      	str	r3, [sp, #20]
  GPIO_InitStruct.Pull = GPIO_NOPULL;
 8001d98:	9406      	str	r4, [sp, #24]
  GPIO_InitStruct.Speed = GPIO_SPEED_FREQ_LOW;
 8001d9a:	2302      	movs	r3, #2
 8001d9c:	9307      	str	r3, [sp, #28]
  HAL_GPIO_Init(GPIOC, &GPIO_InitStruct);
 8001d9e:	a904      	add	r1, sp, #16
 8001da0:	4628      	mov	r0, r5
 8001da2:	f001 fbc7 	bl	8003534 <HAL_GPIO_Init>

  /*Configure GPIO pins : PAPin PAPin PAPin */
  GPIO_InitStruct.Pin = HALL_1_Pin|HALL_2_Pin|HALL_3_Pin;
 8001da6:	2507      	movs	r5, #7
 8001da8:	9504      	str	r5, [sp, #16]
  GPIO_InitStruct.Mode = GPIO_MODE_IT_RISING_FALLING;
 8001daa:	4b16      	ldr	r3, [pc, #88]	@ (8001e04 <MX_GPIO_Init+0xdc>)
 8001dac:	9305      	str	r3, [sp, #20]
  GPIO_InitStruct.Pull = GPIO_NOPULL;
 8001dae:	9406      	str	r4, [sp, #24]
  HAL_GPIO_Init(GPIOA, &GPIO_InitStruct);
 8001db0:	a904      	add	r1, sp, #16
 8001db2:	4815      	ldr	r0, [pc, #84]	@ (8001e08 <MX_GPIO_Init+0xe0>)
 8001db4:	f001 fbbe 	bl	8003534 <HAL_GPIO_Init>

  /*Configure GPIO pin : PtPin */
  GPIO_InitStruct.Pin = BUMBA_Pin;
 8001db8:	2320      	movs	r3, #32
 8001dba:	9304      	str	r3, [sp, #16]
  GPIO_InitStruct.Mode = GPIO_MODE_INPUT;
 8001dbc:	9405      	str	r4, [sp, #20]
  GPIO_InitStruct.Pull = GPIO_NOPULL;
 8001dbe:	9406      	str	r4, [sp, #24]
  HAL_GPIO_Init(BUMBA_GPIO_Port, &GPIO_InitStruct);
 8001dc0:	a904      	add	r1, sp, #16
 8001dc2:	4812      	ldr	r0, [pc, #72]	@ (8001e0c <MX_GPIO_Init+0xe4>)
 8001dc4:	f001 fbb6 	bl	8003534 <HAL_GPIO_Init>

  /* EXTI interrupt init*/
  HAL_NVIC_SetPriority(EXTI0_IRQn, 3, 0);
 8001dc8:	4622      	mov	r2, r4
 8001dca:	2103      	movs	r1, #3
 8001dcc:	2006      	movs	r0, #6
 8001dce:	f001 fa57 	bl	8003280 <HAL_NVIC_SetPriority>
  HAL_NVIC_EnableIRQ(EXTI0_IRQn);
 8001dd2:	2006      	movs	r0, #6
 8001dd4:	f001 fa64 	bl	80032a0 <HAL_NVIC_EnableIRQ>

  HAL_NVIC_SetPriority(EXTI1_IRQn, 3, 0);
 8001dd8:	4622      	mov	r2, r4
 8001dda:	2103      	movs	r1, #3
 8001ddc:	4628      	mov	r0, r5
 8001dde:	f001 fa4f 	bl	8003280 <HAL_NVIC_SetPriority>
  HAL_NVIC_EnableIRQ(EXTI1_IRQn);
 8001de2:	4628      	mov	r0, r5
 8001de4:	f001 fa5c 	bl	80032a0 <HAL_NVIC_EnableIRQ>

  HAL_NVIC_SetPriority(EXTI2_IRQn, 3, 0);
 8001de8:	4622      	mov	r2, r4
 8001dea:	2103      	movs	r1, #3
 8001dec:	2008      	movs	r0, #8
 8001dee:	f001 fa47 	bl	8003280 <HAL_NVIC_SetPriority>
  HAL_NVIC_EnableIRQ(EXTI2_IRQn);
 8001df2:	2008      	movs	r0, #8
 8001df4:	f001 fa54 	bl	80032a0 <HAL_NVIC_EnableIRQ>

}
 8001df8:	b009      	add	sp, #36	@ 0x24
 8001dfa:	bd30      	pop	{r4, r5, pc}
 8001dfc:	40021000 	.word	0x40021000
 8001e00:	40011000 	.word	0x40011000
 8001e04:	10310000 	.word	0x10310000
 8001e08:	40010800 	.word	0x40010800
 8001e0c:	40010c00 	.word	0x40010c00

08001e10 <ema_filter4>:

uint16_t ema_filter4(uint16_t new_value)
{
  static uint16_t filtered_value4 = 0;

  if (filtered_value4 == 0)
 8001e10:	4b06      	ldr	r3, [pc, #24]	@ (8001e2c <ema_filter4+0x1c>)
 8001e12:	881b      	ldrh	r3, [r3, #0]
 8001e14:	b90b      	cbnz	r3, 8001e1a <ema_filter4+0xa>
    filtered_value4 = new_value;
 8001e16:	4b05      	ldr	r3, [pc, #20]	@ (8001e2c <ema_filter4+0x1c>)
 8001e18:	8018      	strh	r0, [r3, #0]

  filtered_value4 = filtered_value4 + ((new_value - filtered_value4) >> ALPHA_SHIFT_B);
 8001e1a:	4a04      	ldr	r2, [pc, #16]	@ (8001e2c <ema_filter4+0x1c>)
 8001e1c:	8813      	ldrh	r3, [r2, #0]
 8001e1e:	1ac0      	subs	r0, r0, r3
 8001e20:	eb03 1020 	add.w	r0, r3, r0, asr #4
 8001e24:	b280      	uxth	r0, r0
 8001e26:	8010      	strh	r0, [r2, #0]

  return filtered_value4;
}
 8001e28:	4770      	bx	lr
 8001e2a:	bf00      	nop
 8001e2c:	200005bc 	.word	0x200005bc

08001e30 <HAL_GPIO_EXTI_Callback>:

void HAL_GPIO_EXTI_Callback(uint16_t GPIO_Pin)
{
 8001e30:	b510      	push	{r4, lr}

  hall_A = HAL_GPIO_ReadPin(GPIOA, GPIO_PIN_0);
 8001e32:	4c47      	ldr	r4, [pc, #284]	@ (8001f50 <HAL_GPIO_EXTI_Callback+0x120>)
 8001e34:	2101      	movs	r1, #1
 8001e36:	4620      	mov	r0, r4
 8001e38:	f001 fc8a 	bl	8003750 <HAL_GPIO_ReadPin>
 8001e3c:	3800      	subs	r0, #0
 8001e3e:	bf18      	it	ne
 8001e40:	2001      	movne	r0, #1
 8001e42:	4b44      	ldr	r3, [pc, #272]	@ (8001f54 <HAL_GPIO_EXTI_Callback+0x124>)
 8001e44:	7018      	strb	r0, [r3, #0]
  hall_B = HAL_GPIO_ReadPin(GPIOA, GPIO_PIN_1);
 8001e46:	2102      	movs	r1, #2
 8001e48:	4620      	mov	r0, r4
 8001e4a:	f001 fc81 	bl	8003750 <HAL_GPIO_ReadPin>
 8001e4e:	3800      	subs	r0, #0
 8001e50:	bf18      	it	ne
 8001e52:	2001      	movne	r0, #1
 8001e54:	4b40      	ldr	r3, [pc, #256]	@ (8001f58 <HAL_GPIO_EXTI_Callback+0x128>)
 8001e56:	7018      	strb	r0, [r3, #0]
  hall_C = HAL_GPIO_ReadPin(GPIOA, GPIO_PIN_2);
 8001e58:	2104      	movs	r1, #4
 8001e5a:	4620      	mov	r0, r4
 8001e5c:	f001 fc78 	bl	8003750 <HAL_GPIO_ReadPin>
 8001e60:	3800      	subs	r0, #0
 8001e62:	bf18      	it	ne
 8001e64:	2001      	movne	r0, #1
 8001e66:	4b3d      	ldr	r3, [pc, #244]	@ (8001f5c <HAL_GPIO_EXTI_Callback+0x12c>)
 8001e68:	7018      	strb	r0, [r3, #0]
  first_step_flag = 1;
 8001e6a:	4b3d      	ldr	r3, [pc, #244]	@ (8001f60 <HAL_GPIO_EXTI_Callback+0x130>)
 8001e6c:	2201      	movs	r2, #1
 8001e6e:	701a      	strb	r2, [r3, #0]
  // if (hall_A != oncekiDegerler[0] || hall_B != oncekiDegerler[1] || hall_C != oncekiDegerler[2])
  // {
  // rpm_counter++;
  difference_two_coummutation_time = __HAL_TIM_GET_COUNTER(&htim2);
 8001e70:	4b3c      	ldr	r3, [pc, #240]	@ (8001f64 <HAL_GPIO_EXTI_Callback+0x134>)
 8001e72:	681b      	ldr	r3, [r3, #0]
 8001e74:	6a5b      	ldr	r3, [r3, #36]	@ 0x24
 8001e76:	b29b      	uxth	r3, r3
 8001e78:	4c3b      	ldr	r4, [pc, #236]	@ (8001f68 <HAL_GPIO_EXTI_Callback+0x138>)
 8001e7a:	8023      	strh	r3, [r4, #0]
  difference_two_coummutation_time_filtered = ema_filter4(difference_two_coummutation_time);
 8001e7c:	8820      	ldrh	r0, [r4, #0]
 8001e7e:	b280      	uxth	r0, r0
 8001e80:	f7ff ffc6 	bl	8001e10 <ema_filter4>
 8001e84:	4b39      	ldr	r3, [pc, #228]	@ (8001f6c <HAL_GPIO_EXTI_Callback+0x13c>)
 8001e86:	8018      	strh	r0, [r3, #0]

  rpm = get_rpm(difference_two_coummutation_time);
 8001e88:	8820      	ldrh	r0, [r4, #0]
 8001e8a:	b280      	uxth	r0, r0
 8001e8c:	f000 fdd0 	bl	8002a30 <get_rpm>
 8001e90:	4b37      	ldr	r3, [pc, #220]	@ (8001f70 <HAL_GPIO_EXTI_Callback+0x140>)
 8001e92:	6018      	str	r0, [r3, #0]

  for (int i = 0; i < 30; i++)
 8001e94:	2300      	movs	r3, #0
 8001e96:	e000      	b.n	8001e9a <HAL_GPIO_EXTI_Callback+0x6a>
 8001e98:	3301      	adds	r3, #1
 8001e9a:	2b1d      	cmp	r3, #29
 8001e9c:	dc13      	bgt.n	8001ec6 <HAL_GPIO_EXTI_Callback+0x96>
  {
    if (rpm > (i * 100) && rpm <= ((i + 1) * 100))
 8001e9e:	2264      	movs	r2, #100	@ 0x64
 8001ea0:	fb03 f202 	mul.w	r2, r3, r2
 8001ea4:	4932      	ldr	r1, [pc, #200]	@ (8001f70 <HAL_GPIO_EXTI_Callback+0x140>)
 8001ea6:	6809      	ldr	r1, [r1, #0]
 8001ea8:	428a      	cmp	r2, r1
 8001eaa:	d2f5      	bcs.n	8001e98 <HAL_GPIO_EXTI_Callback+0x68>
 8001eac:	2264      	movs	r2, #100	@ 0x64
 8001eae:	fb03 2202 	mla	r2, r3, r2, r2
 8001eb2:	492f      	ldr	r1, [pc, #188]	@ (8001f70 <HAL_GPIO_EXTI_Callback+0x140>)
 8001eb4:	6809      	ldr	r1, [r1, #0]
 8001eb6:	428a      	cmp	r2, r1
 8001eb8:	d3ee      	bcc.n	8001e98 <HAL_GPIO_EXTI_Callback+0x68>
    {
      saved_pwm_rpm[i] = pwm_value;
 8001eba:	4a2e      	ldr	r2, [pc, #184]	@ (8001f74 <HAL_GPIO_EXTI_Callback+0x144>)
 8001ebc:	6812      	ldr	r2, [r2, #0]
 8001ebe:	b292      	uxth	r2, r2
 8001ec0:	492d      	ldr	r1, [pc, #180]	@ (8001f78 <HAL_GPIO_EXTI_Callback+0x148>)
 8001ec2:	f821 2013 	strh.w	r2, [r1, r3, lsl #1]
      break;
    }
  }

  __HAL_TIM_SET_COUNTER(&htim2, 0);
 8001ec6:	4b27      	ldr	r3, [pc, #156]	@ (8001f64 <HAL_GPIO_EXTI_Callback+0x134>)
 8001ec8:	681b      	ldr	r3, [r3, #0]
 8001eca:	2200      	movs	r2, #0
 8001ecc:	625a      	str	r2, [r3, #36]	@ 0x24
  // }

  if (run_status)
 8001ece:	4b2b      	ldr	r3, [pc, #172]	@ (8001f7c <HAL_GPIO_EXTI_Callback+0x14c>)
 8001ed0:	781b      	ldrb	r3, [r3, #0]
 8001ed2:	b1a3      	cbz	r3, 8001efe <HAL_GPIO_EXTI_Callback+0xce>
  {
    if ((hall_A == hall_C) && (hall_A == hall_B))
 8001ed4:	4b1f      	ldr	r3, [pc, #124]	@ (8001f54 <HAL_GPIO_EXTI_Callback+0x124>)
 8001ed6:	781a      	ldrb	r2, [r3, #0]
 8001ed8:	b2d2      	uxtb	r2, r2
 8001eda:	4b20      	ldr	r3, [pc, #128]	@ (8001f5c <HAL_GPIO_EXTI_Callback+0x12c>)
 8001edc:	781b      	ldrb	r3, [r3, #0]
 8001ede:	b2db      	uxtb	r3, r3
 8001ee0:	429a      	cmp	r2, r3
 8001ee2:	d010      	beq.n	8001f06 <HAL_GPIO_EXTI_Callback+0xd6>
      hall_B = oncekiDegerler[1];
      hall_C = oncekiDegerler[2];
    }
    else
    {
      oncekiDegerler[0] = hall_A;
 8001ee4:	4b1b      	ldr	r3, [pc, #108]	@ (8001f54 <HAL_GPIO_EXTI_Callback+0x124>)
 8001ee6:	781a      	ldrb	r2, [r3, #0]
 8001ee8:	b2d2      	uxtb	r2, r2
 8001eea:	4b25      	ldr	r3, [pc, #148]	@ (8001f80 <HAL_GPIO_EXTI_Callback+0x150>)
 8001eec:	701a      	strb	r2, [r3, #0]
      oncekiDegerler[1] = hall_B;
 8001eee:	4a1a      	ldr	r2, [pc, #104]	@ (8001f58 <HAL_GPIO_EXTI_Callback+0x128>)
 8001ef0:	7812      	ldrb	r2, [r2, #0]
 8001ef2:	b2d2      	uxtb	r2, r2
 8001ef4:	705a      	strb	r2, [r3, #1]
      oncekiDegerler[2] = hall_C;
 8001ef6:	4a19      	ldr	r2, [pc, #100]	@ (8001f5c <HAL_GPIO_EXTI_Callback+0x12c>)
 8001ef8:	7812      	ldrb	r2, [r2, #0]
 8001efa:	b2d2      	uxtb	r2, r2
 8001efc:	709a      	strb	r2, [r3, #2]
    }
  }
  // sample_phase_data(rpm, (uint16_t)phase_A, (uint16_t)phase_B, (uint16_t)phase_C);
  if (!backEMF_mode)
 8001efe:	4b21      	ldr	r3, [pc, #132]	@ (8001f84 <HAL_GPIO_EXTI_Callback+0x154>)
 8001f00:	781b      	ldrb	r3, [r3, #0]
 8001f02:	b1e3      	cbz	r3, 8001f3e <HAL_GPIO_EXTI_Callback+0x10e>
  {
    set_old_value();
    execute_step(step);
  }
  // analyze_step_counter++;
}
 8001f04:	bd10      	pop	{r4, pc}
    if ((hall_A == hall_C) && (hall_A == hall_B))
 8001f06:	4b13      	ldr	r3, [pc, #76]	@ (8001f54 <HAL_GPIO_EXTI_Callback+0x124>)
 8001f08:	781a      	ldrb	r2, [r3, #0]
 8001f0a:	b2d2      	uxtb	r2, r2
 8001f0c:	4b12      	ldr	r3, [pc, #72]	@ (8001f58 <HAL_GPIO_EXTI_Callback+0x128>)
 8001f0e:	781b      	ldrb	r3, [r3, #0]
 8001f10:	b2db      	uxtb	r3, r3
 8001f12:	429a      	cmp	r2, r3
 8001f14:	d1e6      	bne.n	8001ee4 <HAL_GPIO_EXTI_Callback+0xb4>
      hall_A = oncekiDegerler[0];
 8001f16:	4b1a      	ldr	r3, [pc, #104]	@ (8001f80 <HAL_GPIO_EXTI_Callback+0x150>)
 8001f18:	781a      	ldrb	r2, [r3, #0]
 8001f1a:	3a00      	subs	r2, #0
 8001f1c:	bf18      	it	ne
 8001f1e:	2201      	movne	r2, #1
 8001f20:	490c      	ldr	r1, [pc, #48]	@ (8001f54 <HAL_GPIO_EXTI_Callback+0x124>)
 8001f22:	700a      	strb	r2, [r1, #0]
      hall_B = oncekiDegerler[1];
 8001f24:	785a      	ldrb	r2, [r3, #1]
 8001f26:	3a00      	subs	r2, #0
 8001f28:	bf18      	it	ne
 8001f2a:	2201      	movne	r2, #1
 8001f2c:	490a      	ldr	r1, [pc, #40]	@ (8001f58 <HAL_GPIO_EXTI_Callback+0x128>)
 8001f2e:	700a      	strb	r2, [r1, #0]
      hall_C = oncekiDegerler[2];
 8001f30:	789b      	ldrb	r3, [r3, #2]
 8001f32:	3b00      	subs	r3, #0
 8001f34:	bf18      	it	ne
 8001f36:	2301      	movne	r3, #1
 8001f38:	4a08      	ldr	r2, [pc, #32]	@ (8001f5c <HAL_GPIO_EXTI_Callback+0x12c>)
 8001f3a:	7013      	strb	r3, [r2, #0]
 8001f3c:	e7df      	b.n	8001efe <HAL_GPIO_EXTI_Callback+0xce>
    set_old_value();
 8001f3e:	f000 fb9b 	bl	8002678 <set_old_value>
    execute_step(step);
 8001f42:	4b11      	ldr	r3, [pc, #68]	@ (8001f88 <HAL_GPIO_EXTI_Callback+0x158>)
 8001f44:	6818      	ldr	r0, [r3, #0]
 8001f46:	b2c0      	uxtb	r0, r0
 8001f48:	f000 fe12 	bl	8002b70 <execute_step>
}
 8001f4c:	e7da      	b.n	8001f04 <HAL_GPIO_EXTI_Callback+0xd4>
 8001f4e:	bf00      	nop
 8001f50:	40010800 	.word	0x40010800
 8001f54:	2000064a 	.word	0x2000064a
 8001f58:	20000649 	.word	0x20000649
 8001f5c:	20000648 	.word	0x20000648
 8001f60:	20000062 	.word	0x20000062
 8001f64:	2000072c 	.word	0x2000072c
 8001f68:	2000005c 	.word	0x2000005c
 8001f6c:	2000005a 	.word	0x2000005a
 8001f70:	2000062c 	.word	0x2000062c
 8001f74:	20000640 	.word	0x20000640
 8001f78:	200005e4 	.word	0x200005e4
 8001f7c:	2000064b 	.word	0x2000064b
 8001f80:	20000638 	.word	0x20000638
 8001f84:	200005d0 	.word	0x200005d0
 8001f88:	20000644 	.word	0x20000644

08001f8c <map>:

// VARIABLE END

long map(long x, long in_min, long in_max, long out_min, long out_max)
{
  return (x - in_min) * (out_max - out_min) / (in_max - in_min) + out_min;
 8001f8c:	eba0 0c01 	sub.w	ip, r0, r1
 8001f90:	9800      	ldr	r0, [sp, #0]
 8001f92:	1ac0      	subs	r0, r0, r3
 8001f94:	fb00 fc0c 	mul.w	ip, r0, ip
 8001f98:	1a52      	subs	r2, r2, r1
 8001f9a:	fb9c fcf2 	sdiv	ip, ip, r2
}
 8001f9e:	eb0c 0003 	add.w	r0, ip, r3
 8001fa2:	4770      	bx	lr

08001fa4 <ema_filter0>:

uint16_t ema_filter0(uint16_t new_value)
{
  static uint16_t filtered_value0 = 0;

  if (filtered_value0 == 0)
 8001fa4:	4b06      	ldr	r3, [pc, #24]	@ (8001fc0 <ema_filter0+0x1c>)
 8001fa6:	881b      	ldrh	r3, [r3, #0]
 8001fa8:	b90b      	cbnz	r3, 8001fae <ema_filter0+0xa>
    filtered_value0 = new_value;
 8001faa:	4b05      	ldr	r3, [pc, #20]	@ (8001fc0 <ema_filter0+0x1c>)
 8001fac:	8018      	strh	r0, [r3, #0]

  filtered_value0 = filtered_value0 + ((new_value - filtered_value0) >> ALPHA_SHIFT);
 8001fae:	4a04      	ldr	r2, [pc, #16]	@ (8001fc0 <ema_filter0+0x1c>)
 8001fb0:	8813      	ldrh	r3, [r2, #0]
 8001fb2:	1ac0      	subs	r0, r0, r3
 8001fb4:	eb03 1020 	add.w	r0, r3, r0, asr #4
 8001fb8:	b280      	uxth	r0, r0
 8001fba:	8010      	strh	r0, [r2, #0]

  return filtered_value0;
}
 8001fbc:	4770      	bx	lr
 8001fbe:	bf00      	nop
 8001fc0:	200005c4 	.word	0x200005c4

08001fc4 <ema_filter1>:

uint16_t ema_filter1(uint16_t new_value)
{
  static uint16_t filtered_value1 = 0;

  if (filtered_value1 == 0)
 8001fc4:	4b06      	ldr	r3, [pc, #24]	@ (8001fe0 <ema_filter1+0x1c>)
 8001fc6:	881b      	ldrh	r3, [r3, #0]
 8001fc8:	b90b      	cbnz	r3, 8001fce <ema_filter1+0xa>
    filtered_value1 = new_value;
 8001fca:	4b05      	ldr	r3, [pc, #20]	@ (8001fe0 <ema_filter1+0x1c>)
 8001fcc:	8018      	strh	r0, [r3, #0]

  filtered_value1 = filtered_value1 + ((new_value - filtered_value1) >> ALPHA_SHIFT);
 8001fce:	4a04      	ldr	r2, [pc, #16]	@ (8001fe0 <ema_filter1+0x1c>)
 8001fd0:	8813      	ldrh	r3, [r2, #0]
 8001fd2:	1ac0      	subs	r0, r0, r3
 8001fd4:	eb03 1020 	add.w	r0, r3, r0, asr #4
 8001fd8:	b280      	uxth	r0, r0
 8001fda:	8010      	strh	r0, [r2, #0]

  return filtered_value1;
}
 8001fdc:	4770      	bx	lr
 8001fde:	bf00      	nop
 8001fe0:	200005c2 	.word	0x200005c2

08001fe4 <ema_filter2>:

uint16_t ema_filter2(uint16_t new_value)
{
  static uint16_t filtered_value2 = 0;

  if (filtered_value2 == 0)
 8001fe4:	4b06      	ldr	r3, [pc, #24]	@ (8002000 <ema_filter2+0x1c>)
 8001fe6:	881b      	ldrh	r3, [r3, #0]
 8001fe8:	b90b      	cbnz	r3, 8001fee <ema_filter2+0xa>
    filtered_value2 = new_value;
 8001fea:	4b05      	ldr	r3, [pc, #20]	@ (8002000 <ema_filter2+0x1c>)
 8001fec:	8018      	strh	r0, [r3, #0]

  filtered_value2 = filtered_value2 + ((new_value - filtered_value2) >> ALPHA_SHIFT);
 8001fee:	4a04      	ldr	r2, [pc, #16]	@ (8002000 <ema_filter2+0x1c>)
 8001ff0:	8813      	ldrh	r3, [r2, #0]
 8001ff2:	1ac0      	subs	r0, r0, r3
 8001ff4:	eb03 1020 	add.w	r0, r3, r0, asr #4
 8001ff8:	b280      	uxth	r0, r0
 8001ffa:	8010      	strh	r0, [r2, #0]

  return filtered_value2;
}
 8001ffc:	4770      	bx	lr
 8001ffe:	bf00      	nop
 8002000:	200005c0 	.word	0x200005c0

08002004 <ema_filter3>:

uint16_t ema_filter3(uint16_t new_value)
{
  static uint16_t filtered_value3 = 0;

  if (filtered_value3 == 0)
 8002004:	4b06      	ldr	r3, [pc, #24]	@ (8002020 <ema_filter3+0x1c>)
 8002006:	881b      	ldrh	r3, [r3, #0]
 8002008:	b90b      	cbnz	r3, 800200e <ema_filter3+0xa>
    filtered_value3 = new_value;
 800200a:	4b05      	ldr	r3, [pc, #20]	@ (8002020 <ema_filter3+0x1c>)
 800200c:	8018      	strh	r0, [r3, #0]

  filtered_value3 = filtered_value3 + ((new_value - filtered_value3) >> ALPHA_SHIFT);
 800200e:	4a04      	ldr	r2, [pc, #16]	@ (8002020 <ema_filter3+0x1c>)
 8002010:	8813      	ldrh	r3, [r2, #0]
 8002012:	1ac0      	subs	r0, r0, r3
 8002014:	eb03 1020 	add.w	r0, r3, r0, asr #4
 8002018:	b280      	uxth	r0, r0
 800201a:	8010      	strh	r0, [r2, #0]

  return filtered_value3;
}
 800201c:	4770      	bx	lr
 800201e:	bf00      	nop
 8002020:	200005be 	.word	0x200005be
 8002024:	00000000 	.word	0x00000000

08002028 <HAL_ADC_ConvCpltCallback>:
  return average;
}

void HAL_ADC_ConvCpltCallback(ADC_HandleTypeDef *hadc)
{ // ADC DMA LEMLER
  if (hadc->Instance == ADC1)
 8002028:	6802      	ldr	r2, [r0, #0]
 800202a:	4b67      	ldr	r3, [pc, #412]	@ (80021c8 <HAL_ADC_ConvCpltCallback+0x1a0>)
 800202c:	429a      	cmp	r2, r3
 800202e:	d000      	beq.n	8002032 <HAL_ADC_ConvCpltCallback+0xa>
 8002030:	4770      	bx	lr
{ // ADC DMA LEMLER
 8002032:	b530      	push	{r4, r5, lr}
 8002034:	b083      	sub	sp, #12
  {

    battery_voltage = adcBuffer[5] * 0.03843902;
 8002036:	4c65      	ldr	r4, [pc, #404]	@ (80021cc <HAL_ADC_ConvCpltCallback+0x1a4>)
 8002038:	6960      	ldr	r0, [r4, #20]
 800203a:	f7ff f95b 	bl	80012f4 <__aeabi_ui2d>
 800203e:	a360      	add	r3, pc, #384	@ (adr r3, 80021c0 <HAL_ADC_ConvCpltCallback+0x198>)
 8002040:	e9d3 2300 	ldrd	r2, r3, [r3]
 8002044:	f7ff f9d0 	bl	80013e8 <__aeabi_dmul>
 8002048:	f7ff fbe0 	bl	800180c <__aeabi_d2uiz>
 800204c:	4b60      	ldr	r3, [pc, #384]	@ (80021d0 <HAL_ADC_ConvCpltCallback+0x1a8>)
 800204e:	8018      	strh	r0, [r3, #0]
    if ((GPIOA->IDR & GPIO_PIN_8) + (GPIOA->IDR & GPIO_PIN_9) + (GPIOA->IDR & GPIO_PIN_10) == 0)
 8002050:	4b60      	ldr	r3, [pc, #384]	@ (80021d4 <HAL_ADC_ConvCpltCallback+0x1ac>)
 8002052:	689a      	ldr	r2, [r3, #8]
 8002054:	689a      	ldr	r2, [r3, #8]
 8002056:	689b      	ldr	r3, [r3, #8]
      //     polarity_C = 0;
      // }
    }

    // A
    phase_A = ema_filter1(adcBuffer[3]);
 8002058:	89a0      	ldrh	r0, [r4, #12]
 800205a:	f7ff ffb3 	bl	8001fc4 <ema_filter1>
 800205e:	4d5e      	ldr	r5, [pc, #376]	@ (80021d8 <HAL_ADC_ConvCpltCallback+0x1b0>)
 8002060:	6028      	str	r0, [r5, #0]
    notr = ema_filter0(adcBuffer[6]);
 8002062:	8b20      	ldrh	r0, [r4, #24]
 8002064:	f7ff ff9e 	bl	8001fa4 <ema_filter0>
 8002068:	4b5c      	ldr	r3, [pc, #368]	@ (80021dc <HAL_ADC_ConvCpltCallback+0x1b4>)
 800206a:	8018      	strh	r0, [r3, #0]
    if (phase_A > notr)
 800206c:	682b      	ldr	r3, [r5, #0]
 800206e:	4298      	cmp	r0, r3
 8002070:	d25e      	bcs.n	8002130 <HAL_ADC_ConvCpltCallback+0x108>
      polarity_A = 1;
 8002072:	4b5b      	ldr	r3, [pc, #364]	@ (80021e0 <HAL_ADC_ConvCpltCallback+0x1b8>)
 8002074:	2201      	movs	r2, #1
 8002076:	701a      	strb	r2, [r3, #0]
    else
      polarity_A = 0;

    // B
    phase_B = ema_filter2(adcBuffer[4]);
 8002078:	4d54      	ldr	r5, [pc, #336]	@ (80021cc <HAL_ADC_ConvCpltCallback+0x1a4>)
 800207a:	8a28      	ldrh	r0, [r5, #16]
 800207c:	f7ff ffb2 	bl	8001fe4 <ema_filter2>
 8002080:	4c58      	ldr	r4, [pc, #352]	@ (80021e4 <HAL_ADC_ConvCpltCallback+0x1bc>)
 8002082:	6020      	str	r0, [r4, #0]
    notr = ema_filter0(adcBuffer[6]);
 8002084:	8b28      	ldrh	r0, [r5, #24]
 8002086:	f7ff ff8d 	bl	8001fa4 <ema_filter0>
 800208a:	4b54      	ldr	r3, [pc, #336]	@ (80021dc <HAL_ADC_ConvCpltCallback+0x1b4>)
 800208c:	8018      	strh	r0, [r3, #0]
    if (phase_B > notr)
 800208e:	6823      	ldr	r3, [r4, #0]
 8002090:	4298      	cmp	r0, r3
 8002092:	d251      	bcs.n	8002138 <HAL_ADC_ConvCpltCallback+0x110>
      polarity_B = 1;
 8002094:	4b54      	ldr	r3, [pc, #336]	@ (80021e8 <HAL_ADC_ConvCpltCallback+0x1c0>)
 8002096:	2201      	movs	r2, #1
 8002098:	701a      	strb	r2, [r3, #0]
    else
      polarity_B = 0;

    // C
    phase_C = ema_filter3(adcBuffer[2]);
 800209a:	4d4c      	ldr	r5, [pc, #304]	@ (80021cc <HAL_ADC_ConvCpltCallback+0x1a4>)
 800209c:	8928      	ldrh	r0, [r5, #8]
 800209e:	f7ff ffb1 	bl	8002004 <ema_filter3>
 80020a2:	4c52      	ldr	r4, [pc, #328]	@ (80021ec <HAL_ADC_ConvCpltCallback+0x1c4>)
 80020a4:	6020      	str	r0, [r4, #0]
    notr = ema_filter0(adcBuffer[6]);
 80020a6:	8b28      	ldrh	r0, [r5, #24]
 80020a8:	f7ff ff7c 	bl	8001fa4 <ema_filter0>
 80020ac:	4b4b      	ldr	r3, [pc, #300]	@ (80021dc <HAL_ADC_ConvCpltCallback+0x1b4>)
 80020ae:	8018      	strh	r0, [r3, #0]
    if (phase_C > notr)
 80020b0:	6823      	ldr	r3, [r4, #0]
 80020b2:	4298      	cmp	r0, r3
 80020b4:	d244      	bcs.n	8002140 <HAL_ADC_ConvCpltCallback+0x118>
      polarity_C = 1;
 80020b6:	4b4e      	ldr	r3, [pc, #312]	@ (80021f0 <HAL_ADC_ConvCpltCallback+0x1c8>)
 80020b8:	2201      	movs	r2, #1
 80020ba:	701a      	strb	r2, [r3, #0]
    else
      polarity_C = 0;

    uint16_t average_phase = (uint16_t)((phase_A + phase_B + phase_C) / 3);
 80020bc:	4b46      	ldr	r3, [pc, #280]	@ (80021d8 <HAL_ADC_ConvCpltCallback+0x1b0>)
 80020be:	681b      	ldr	r3, [r3, #0]
 80020c0:	4a48      	ldr	r2, [pc, #288]	@ (80021e4 <HAL_ADC_ConvCpltCallback+0x1bc>)
 80020c2:	6812      	ldr	r2, [r2, #0]
 80020c4:	4413      	add	r3, r2
 80020c6:	4a49      	ldr	r2, [pc, #292]	@ (80021ec <HAL_ADC_ConvCpltCallback+0x1c4>)
 80020c8:	6812      	ldr	r2, [r2, #0]
 80020ca:	4413      	add	r3, r2
 80020cc:	4a49      	ldr	r2, [pc, #292]	@ (80021f4 <HAL_ADC_ConvCpltCallback+0x1cc>)
 80020ce:	fba2 2303 	umull	r2, r3, r2, r3
 80020d2:	f3c3 034f 	ubfx	r3, r3, #1, #16
    // motor_voltage = filtreye_koy(average_phase);
    // motor_voltage = ema_filter(average_phase);
    motor_voltage = average_phase * 10;
 80020d6:	eb03 0383 	add.w	r3, r3, r3, lsl #2
 80020da:	005b      	lsls	r3, r3, #1
 80020dc:	b29b      	uxth	r3, r3
 80020de:	4a46      	ldr	r2, [pc, #280]	@ (80021f8 <HAL_ADC_ConvCpltCallback+0x1d0>)
 80020e0:	8013      	strh	r3, [r2, #0]

    currentValue = adcBuffer[1];
 80020e2:	4b3a      	ldr	r3, [pc, #232]	@ (80021cc <HAL_ADC_ConvCpltCallback+0x1a4>)
 80020e4:	889a      	ldrh	r2, [r3, #4]
 80020e6:	4b45      	ldr	r3, [pc, #276]	@ (80021fc <HAL_ADC_ConvCpltCallback+0x1d4>)
 80020e8:	801a      	strh	r2, [r3, #0]
    filtered_current = 4500 - currentValue;
 80020ea:	881b      	ldrh	r3, [r3, #0]
 80020ec:	b29b      	uxth	r3, r3
 80020ee:	f5c3 538c 	rsb	r3, r3, #4480	@ 0x1180
 80020f2:	3314      	adds	r3, #20
 80020f4:	b29b      	uxth	r3, r3
 80020f6:	4a42      	ldr	r2, [pc, #264]	@ (8002200 <HAL_ADC_ConvCpltCallback+0x1d8>)
 80020f8:	8013      	strh	r3, [r2, #0]

    // TEMPORARY DEVELOPING LINES
    if (filtered_current <= 1600 && filtered_current >= 1300)
 80020fa:	8813      	ldrh	r3, [r2, #0]
 80020fc:	b29b      	uxth	r3, r3
 80020fe:	f5b3 6fc8 	cmp.w	r3, #1600	@ 0x640
 8002102:	d821      	bhi.n	8002148 <HAL_ADC_ConvCpltCallback+0x120>
 8002104:	8813      	ldrh	r3, [r2, #0]
 8002106:	b29b      	uxth	r3, r3
 8002108:	f240 5213 	movw	r2, #1299	@ 0x513
 800210c:	4293      	cmp	r3, r2
 800210e:	d91b      	bls.n	8002148 <HAL_ADC_ConvCpltCallback+0x120>
      temporary_current_value = map(filtered_current, 1300, 1600, 0, 4430);
 8002110:	4b3b      	ldr	r3, [pc, #236]	@ (8002200 <HAL_ADC_ConvCpltCallback+0x1d8>)
 8002112:	8818      	ldrh	r0, [r3, #0]
 8002114:	f241 134e 	movw	r3, #4430	@ 0x114e
 8002118:	9300      	str	r3, [sp, #0]
 800211a:	2300      	movs	r3, #0
 800211c:	f44f 62c8 	mov.w	r2, #1600	@ 0x640
 8002120:	f240 5114 	movw	r1, #1300	@ 0x514
 8002124:	b280      	uxth	r0, r0
 8002126:	f7ff ff31 	bl	8001f8c <map>
 800212a:	4b36      	ldr	r3, [pc, #216]	@ (8002204 <HAL_ADC_ConvCpltCallback+0x1dc>)
 800212c:	8018      	strh	r0, [r3, #0]
 800212e:	e015      	b.n	800215c <HAL_ADC_ConvCpltCallback+0x134>
      polarity_A = 0;
 8002130:	4b2b      	ldr	r3, [pc, #172]	@ (80021e0 <HAL_ADC_ConvCpltCallback+0x1b8>)
 8002132:	2200      	movs	r2, #0
 8002134:	701a      	strb	r2, [r3, #0]
 8002136:	e79f      	b.n	8002078 <HAL_ADC_ConvCpltCallback+0x50>
      polarity_B = 0;
 8002138:	4b2b      	ldr	r3, [pc, #172]	@ (80021e8 <HAL_ADC_ConvCpltCallback+0x1c0>)
 800213a:	2200      	movs	r2, #0
 800213c:	701a      	strb	r2, [r3, #0]
 800213e:	e7ac      	b.n	800209a <HAL_ADC_ConvCpltCallback+0x72>
      polarity_C = 0;
 8002140:	4b2b      	ldr	r3, [pc, #172]	@ (80021f0 <HAL_ADC_ConvCpltCallback+0x1c8>)
 8002142:	2200      	movs	r2, #0
 8002144:	701a      	strb	r2, [r3, #0]
 8002146:	e7b9      	b.n	80020bc <HAL_ADC_ConvCpltCallback+0x94>
    else if (filtered_current > 1600)
 8002148:	4b2d      	ldr	r3, [pc, #180]	@ (8002200 <HAL_ADC_ConvCpltCallback+0x1d8>)
 800214a:	881b      	ldrh	r3, [r3, #0]
 800214c:	b29b      	uxth	r3, r3
 800214e:	f5b3 6fc8 	cmp.w	r3, #1600	@ 0x640
 8002152:	d930      	bls.n	80021b6 <HAL_ADC_ConvCpltCallback+0x18e>
      temporary_current_value = 4430;
 8002154:	4b2b      	ldr	r3, [pc, #172]	@ (8002204 <HAL_ADC_ConvCpltCallback+0x1dc>)
 8002156:	f241 124e 	movw	r2, #4430	@ 0x114e
 800215a:	801a      	strh	r2, [r3, #0]
    else
      temporary_current_value = 1300;
    // END

    speedInAdc = adcBuffer[0];
 800215c:	4b1b      	ldr	r3, [pc, #108]	@ (80021cc <HAL_ADC_ConvCpltCallback+0x1a4>)
 800215e:	881a      	ldrh	r2, [r3, #0]
 8002160:	4b29      	ldr	r3, [pc, #164]	@ (8002208 <HAL_ADC_ConvCpltCallback+0x1e0>)
 8002162:	801a      	strh	r2, [r3, #0]

    // target_rpm

    if ((currentValue <= 1500) && (pwm_value > 100))
 8002164:	4b25      	ldr	r3, [pc, #148]	@ (80021fc <HAL_ADC_ConvCpltCallback+0x1d4>)
 8002166:	881b      	ldrh	r3, [r3, #0]
 8002168:	b29b      	uxth	r3, r3
 800216a:	f240 52dc 	movw	r2, #1500	@ 0x5dc
 800216e:	4293      	cmp	r3, r2
 8002170:	d807      	bhi.n	8002182 <HAL_ADC_ConvCpltCallback+0x15a>
 8002172:	4b26      	ldr	r3, [pc, #152]	@ (800220c <HAL_ADC_ConvCpltCallback+0x1e4>)
 8002174:	681b      	ldr	r3, [r3, #0]
 8002176:	2b64      	cmp	r3, #100	@ 0x64
 8002178:	d903      	bls.n	8002182 <HAL_ADC_ConvCpltCallback+0x15a>
    {
      pwm_value = pwm_value - 1;
 800217a:	4a24      	ldr	r2, [pc, #144]	@ (800220c <HAL_ADC_ConvCpltCallback+0x1e4>)
 800217c:	6813      	ldr	r3, [r2, #0]
 800217e:	3b01      	subs	r3, #1
 8002180:	6013      	str	r3, [r2, #0]
      // LOG_VAR(pwm_value);
    }

    if (minCurrent > filtered_current)
 8002182:	4b23      	ldr	r3, [pc, #140]	@ (8002210 <HAL_ADC_ConvCpltCallback+0x1e8>)
 8002184:	881a      	ldrh	r2, [r3, #0]
 8002186:	4b1e      	ldr	r3, [pc, #120]	@ (8002200 <HAL_ADC_ConvCpltCallback+0x1d8>)
 8002188:	881b      	ldrh	r3, [r3, #0]
 800218a:	b29b      	uxth	r3, r3
 800218c:	429a      	cmp	r2, r3
 800218e:	d903      	bls.n	8002198 <HAL_ADC_ConvCpltCallback+0x170>
      minCurrent = filtered_current;
 8002190:	4b1b      	ldr	r3, [pc, #108]	@ (8002200 <HAL_ADC_ConvCpltCallback+0x1d8>)
 8002192:	881a      	ldrh	r2, [r3, #0]
 8002194:	4b1e      	ldr	r3, [pc, #120]	@ (8002210 <HAL_ADC_ConvCpltCallback+0x1e8>)
 8002196:	801a      	strh	r2, [r3, #0]
    if (maxCurrent < filtered_current)
 8002198:	4b1e      	ldr	r3, [pc, #120]	@ (8002214 <HAL_ADC_ConvCpltCallback+0x1ec>)
 800219a:	881a      	ldrh	r2, [r3, #0]
 800219c:	4b18      	ldr	r3, [pc, #96]	@ (8002200 <HAL_ADC_ConvCpltCallback+0x1d8>)
 800219e:	881b      	ldrh	r3, [r3, #0]
 80021a0:	b29b      	uxth	r3, r3
 80021a2:	429a      	cmp	r2, r3
 80021a4:	d203      	bcs.n	80021ae <HAL_ADC_ConvCpltCallback+0x186>
      maxCurrent = filtered_current;
 80021a6:	4b16      	ldr	r3, [pc, #88]	@ (8002200 <HAL_ADC_ConvCpltCallback+0x1d8>)
 80021a8:	881a      	ldrh	r2, [r3, #0]
 80021aa:	4b1a      	ldr	r3, [pc, #104]	@ (8002214 <HAL_ADC_ConvCpltCallback+0x1ec>)
 80021ac:	801a      	strh	r2, [r3, #0]
    phaseControlBemf();
 80021ae:	f7ff fce1 	bl	8001b74 <phaseControlBemf>
  }
}
 80021b2:	b003      	add	sp, #12
 80021b4:	bd30      	pop	{r4, r5, pc}
      temporary_current_value = 1300;
 80021b6:	4b13      	ldr	r3, [pc, #76]	@ (8002204 <HAL_ADC_ConvCpltCallback+0x1dc>)
 80021b8:	f240 5214 	movw	r2, #1300	@ 0x514
 80021bc:	801a      	strh	r2, [r3, #0]
 80021be:	e7cd      	b.n	800215c <HAL_ADC_ConvCpltCallback+0x134>
 80021c0:	7b94a0e1 	.word	0x7b94a0e1
 80021c4:	3fa3ae47 	.word	0x3fa3ae47
 80021c8:	40012400 	.word	0x40012400
 80021cc:	20000654 	.word	0x20000654
 80021d0:	200005d4 	.word	0x200005d4
 80021d4:	40010800 	.word	0x40010800
 80021d8:	200005e0 	.word	0x200005e0
 80021dc:	200005c6 	.word	0x200005c6
 80021e0:	200005cf 	.word	0x200005cf
 80021e4:	200005dc 	.word	0x200005dc
 80021e8:	200005ce 	.word	0x200005ce
 80021ec:	200005d8 	.word	0x200005d8
 80021f0:	200005cd 	.word	0x200005cd
 80021f4:	aaaaaaab 	.word	0xaaaaaaab
 80021f8:	200005d2 	.word	0x200005d2
 80021fc:	2000064e 	.word	0x2000064e
 8002200:	2000064c 	.word	0x2000064c
 8002204:	20000622 	.word	0x20000622
 8002208:	20000650 	.word	0x20000650
 800220c:	20000640 	.word	0x20000640
 8002210:	20000058 	.word	0x20000058
 8002214:	20000624 	.word	0x20000624

08002218 <Error_Handler>:
  \details Disables IRQ interrupts by setting the I-bit in the CPSR.
           Can only be executed in Privileged modes.
 */
__STATIC_FORCEINLINE void __disable_irq(void)
{
  __ASM volatile ("cpsid i" : : : "memory");
 8002218:	b672      	cpsid	i
void Error_Handler(void)
{
  /* USER CODE BEGIN Error_Handler_Debug */
  /* User can add his own implementation to report the HAL error return state */
  __disable_irq();
  while (1)
 800221a:	e7fe      	b.n	800221a <Error_Handler+0x2>

0800221c <SystemClock_Config>:
{
 800221c:	b500      	push	{lr}
 800221e:	b095      	sub	sp, #84	@ 0x54
  RCC_OscInitTypeDef RCC_OscInitStruct = {0};
 8002220:	2228      	movs	r2, #40	@ 0x28
 8002222:	2100      	movs	r1, #0
 8002224:	eb0d 0002 	add.w	r0, sp, r2
 8002228:	f7fd ffe4 	bl	80001f4 <memset>
  RCC_ClkInitTypeDef RCC_ClkInitStruct = {0};
 800222c:	2300      	movs	r3, #0
 800222e:	9305      	str	r3, [sp, #20]
 8002230:	9306      	str	r3, [sp, #24]
 8002232:	9307      	str	r3, [sp, #28]
 8002234:	9308      	str	r3, [sp, #32]
 8002236:	9309      	str	r3, [sp, #36]	@ 0x24
  RCC_PeriphCLKInitTypeDef PeriphClkInit = {0};
 8002238:	9301      	str	r3, [sp, #4]
 800223a:	9302      	str	r3, [sp, #8]
 800223c:	9303      	str	r3, [sp, #12]
 800223e:	9304      	str	r3, [sp, #16]
  RCC_OscInitStruct.OscillatorType = RCC_OSCILLATORTYPE_HSE;
 8002240:	2201      	movs	r2, #1
 8002242:	920a      	str	r2, [sp, #40]	@ 0x28
  RCC_OscInitStruct.HSEState = RCC_HSE_ON;
 8002244:	f44f 3380 	mov.w	r3, #65536	@ 0x10000
 8002248:	930b      	str	r3, [sp, #44]	@ 0x2c
  RCC_OscInitStruct.HSIState = RCC_HSI_ON;
 800224a:	920e      	str	r2, [sp, #56]	@ 0x38
  RCC_OscInitStruct.PLL.PLLState = RCC_PLL_ON;
 800224c:	2202      	movs	r2, #2
 800224e:	9211      	str	r2, [sp, #68]	@ 0x44
  RCC_OscInitStruct.PLL.PLLSource = RCC_PLLSOURCE_HSE;
 8002250:	9312      	str	r3, [sp, #72]	@ 0x48
  RCC_OscInitStruct.PLL.PLLMUL = RCC_PLL_MUL9;
 8002252:	f44f 13e0 	mov.w	r3, #1835008	@ 0x1c0000
 8002256:	9313      	str	r3, [sp, #76]	@ 0x4c
  if (HAL_RCC_OscConfig(&RCC_OscInitStruct) != HAL_OK)
 8002258:	a80a      	add	r0, sp, #40	@ 0x28
 800225a:	f002 faef 	bl	800483c <HAL_RCC_OscConfig>
 800225e:	b9d8      	cbnz	r0, 8002298 <SystemClock_Config+0x7c>
  RCC_ClkInitStruct.ClockType = RCC_CLOCKTYPE_HCLK | RCC_CLOCKTYPE_SYSCLK | RCC_CLOCKTYPE_PCLK1 | RCC_CLOCKTYPE_PCLK2;
 8002260:	230f      	movs	r3, #15
 8002262:	9305      	str	r3, [sp, #20]
  RCC_ClkInitStruct.SYSCLKSource = RCC_SYSCLKSOURCE_PLLCLK;
 8002264:	2102      	movs	r1, #2
 8002266:	9106      	str	r1, [sp, #24]
  RCC_ClkInitStruct.AHBCLKDivider = RCC_SYSCLK_DIV1;
 8002268:	2300      	movs	r3, #0
 800226a:	9307      	str	r3, [sp, #28]
  RCC_ClkInitStruct.APB1CLKDivider = RCC_HCLK_DIV2;
 800226c:	f44f 6280 	mov.w	r2, #1024	@ 0x400
 8002270:	9208      	str	r2, [sp, #32]
  RCC_ClkInitStruct.APB2CLKDivider = RCC_HCLK_DIV1;
 8002272:	9309      	str	r3, [sp, #36]	@ 0x24
  if (HAL_RCC_ClockConfig(&RCC_ClkInitStruct, FLASH_LATENCY_2) != HAL_OK)
 8002274:	a805      	add	r0, sp, #20
 8002276:	f002 fd13 	bl	8004ca0 <HAL_RCC_ClockConfig>
 800227a:	b978      	cbnz	r0, 800229c <SystemClock_Config+0x80>
  PeriphClkInit.PeriphClockSelection = RCC_PERIPHCLK_ADC | RCC_PERIPHCLK_USB;
 800227c:	2312      	movs	r3, #18
 800227e:	9301      	str	r3, [sp, #4]
  PeriphClkInit.AdcClockSelection = RCC_ADCPCLK2_DIV6;
 8002280:	f44f 4300 	mov.w	r3, #32768	@ 0x8000
 8002284:	9303      	str	r3, [sp, #12]
  PeriphClkInit.UsbClockSelection = RCC_USBCLKSOURCE_PLL_DIV1_5;
 8002286:	2300      	movs	r3, #0
 8002288:	9304      	str	r3, [sp, #16]
  if (HAL_RCCEx_PeriphCLKConfig(&PeriphClkInit) != HAL_OK)
 800228a:	a801      	add	r0, sp, #4
 800228c:	f002 fdbe 	bl	8004e0c <HAL_RCCEx_PeriphCLKConfig>
 8002290:	b930      	cbnz	r0, 80022a0 <SystemClock_Config+0x84>
}
 8002292:	b015      	add	sp, #84	@ 0x54
 8002294:	f85d fb04 	ldr.w	pc, [sp], #4
    Error_Handler();
 8002298:	f7ff ffbe 	bl	8002218 <Error_Handler>
    Error_Handler();
 800229c:	f7ff ffbc 	bl	8002218 <Error_Handler>
    Error_Handler();
 80022a0:	f7ff ffba 	bl	8002218 <Error_Handler>

080022a4 <main>:
{
 80022a4:	b530      	push	{r4, r5, lr}
 80022a6:	b083      	sub	sp, #12
  oldValue[0] = 1;
 80022a8:	4b53      	ldr	r3, [pc, #332]	@ (80023f8 <main+0x154>)
 80022aa:	2201      	movs	r2, #1
 80022ac:	701a      	strb	r2, [r3, #0]
  oldValue[1] = 0;
 80022ae:	2400      	movs	r4, #0
 80022b0:	705c      	strb	r4, [r3, #1]
  oldValue[2] = 1;
 80022b2:	709a      	strb	r2, [r3, #2]
  HAL_Init();
 80022b4:	f000 fcfc 	bl	8002cb0 <HAL_Init>
  SystemClock_Config();
 80022b8:	f7ff ffb0 	bl	800221c <SystemClock_Config>
  MX_GPIO_Init();
 80022bc:	f7ff fd34 	bl	8001d28 <MX_GPIO_Init>
  MX_DMA_Init();
 80022c0:	f7ff fd18 	bl	8001cf4 <MX_DMA_Init>
  MX_ADC1_Init();
 80022c4:	f7ff fac2 	bl	800184c <MX_ADC1_Init>
  MX_TIM1_Init();
 80022c8:	f004 fc4a 	bl	8006b60 <MX_TIM1_Init>
  MX_USB_DEVICE_Init();
 80022cc:	f004 fcd2 	bl	8006c74 <MX_USB_DEVICE_Init>
  MX_TIM2_Init();
 80022d0:	f004 faec 	bl	80068ac <MX_TIM2_Init>
  MX_TIM3_Init();
 80022d4:	f004 fb22 	bl	800691c <MX_TIM3_Init>
  MX_TIM4_Init();
 80022d8:	f004 fb58 	bl	800698c <MX_TIM4_Init>
  HAL_ADC_Start_DMA(&hadc1, adcBuffer, 7);
 80022dc:	2207      	movs	r2, #7
 80022de:	4947      	ldr	r1, [pc, #284]	@ (80023fc <main+0x158>)
 80022e0:	4847      	ldr	r0, [pc, #284]	@ (8002400 <main+0x15c>)
 80022e2:	f000 fe3f 	bl	8002f64 <HAL_ADC_Start_DMA>
  HAL_TIM_PWM_Start(&htim1, TIM_CHANNEL_1);
 80022e6:	4d47      	ldr	r5, [pc, #284]	@ (8002404 <main+0x160>)
 80022e8:	4621      	mov	r1, r4
 80022ea:	4628      	mov	r0, r5
 80022ec:	f003 f996 	bl	800561c <HAL_TIM_PWM_Start>
  HAL_TIMEx_PWMN_Start(&htim1, TIM_CHANNEL_1);
 80022f0:	4621      	mov	r1, r4
 80022f2:	4628      	mov	r0, r5
 80022f4:	f003 fa10 	bl	8005718 <HAL_TIMEx_PWMN_Start>
  HAL_TIM_PWM_Start(&htim1, TIM_CHANNEL_2);
 80022f8:	2104      	movs	r1, #4
 80022fa:	4628      	mov	r0, r5
 80022fc:	f003 f98e 	bl	800561c <HAL_TIM_PWM_Start>
  HAL_TIMEx_PWMN_Start(&htim1, TIM_CHANNEL_2);
 8002300:	2104      	movs	r1, #4
 8002302:	4628      	mov	r0, r5
 8002304:	f003 fa08 	bl	8005718 <HAL_TIMEx_PWMN_Start>
  HAL_TIM_PWM_Start(&htim1, TIM_CHANNEL_3);
 8002308:	2108      	movs	r1, #8
 800230a:	4628      	mov	r0, r5
 800230c:	f003 f986 	bl	800561c <HAL_TIM_PWM_Start>
  HAL_TIMEx_PWMN_Start(&htim1, TIM_CHANNEL_3);
 8002310:	2108      	movs	r1, #8
 8002312:	4628      	mov	r0, r5
 8002314:	f003 fa00 	bl	8005718 <HAL_TIMEx_PWMN_Start>
  HAL_TIM_Base_Start_IT(&htim2);
 8002318:	4d3b      	ldr	r5, [pc, #236]	@ (8002408 <main+0x164>)
 800231a:	4628      	mov	r0, r5
 800231c:	f002 feac 	bl	8005078 <HAL_TIM_Base_Start_IT>
  __HAL_TIM_SET_COUNTER(&htim2, 0);
 8002320:	682b      	ldr	r3, [r5, #0]
 8002322:	625c      	str	r4, [r3, #36]	@ 0x24
  HAL_TIM_Base_Start_IT(&htim3);
 8002324:	4d39      	ldr	r5, [pc, #228]	@ (800240c <main+0x168>)
 8002326:	4628      	mov	r0, r5
 8002328:	f002 fea6 	bl	8005078 <HAL_TIM_Base_Start_IT>
  __HAL_TIM_SET_COUNTER(&htim3, 0);
 800232c:	682b      	ldr	r3, [r5, #0]
 800232e:	625c      	str	r4, [r3, #36]	@ 0x24
  HAL_TIM_Base_Start_IT(&htim4);
 8002330:	4d37      	ldr	r5, [pc, #220]	@ (8002410 <main+0x16c>)
 8002332:	4628      	mov	r0, r5
 8002334:	f002 fea0 	bl	8005078 <HAL_TIM_Base_Start_IT>
  __HAL_TIM_SET_COUNTER(&htim4, 0);
 8002338:	682b      	ldr	r3, [r5, #0]
 800233a:	625c      	str	r4, [r3, #36]	@ 0x24
  HAL_Delay(100);
 800233c:	2064      	movs	r0, #100	@ 0x64
 800233e:	f000 fcdb 	bl	8002cf8 <HAL_Delay>
  TIM1->CCER = 0x0000;
 8002342:	4b34      	ldr	r3, [pc, #208]	@ (8002414 <main+0x170>)
 8002344:	621c      	str	r4, [r3, #32]
  previousTime2 = HAL_GetTick();
 8002346:	f000 fcd1 	bl	8002cec <HAL_GetTick>
 800234a:	4b33      	ldr	r3, [pc, #204]	@ (8002418 <main+0x174>)
 800234c:	6018      	str	r0, [r3, #0]
  previousTime3 = HAL_GetTick();
 800234e:	f000 fccd 	bl	8002cec <HAL_GetTick>
 8002352:	4b32      	ldr	r3, [pc, #200]	@ (800241c <main+0x178>)
 8002354:	6018      	str	r0, [r3, #0]
 8002356:	e099      	b.n	800248c <main+0x1e8>
      uint16_t k = difference_two_coummutation_time;
 8002358:	4b31      	ldr	r3, [pc, #196]	@ (8002420 <main+0x17c>)
 800235a:	881d      	ldrh	r5, [r3, #0]
 800235c:	b2ad      	uxth	r5, r5
      uint16_t t = difference_two_coummutation_time_filtered;
 800235e:	4b31      	ldr	r3, [pc, #196]	@ (8002424 <main+0x180>)
 8002360:	881c      	ldrh	r4, [r3, #0]
 8002362:	b2a4      	uxth	r4, r4
      LOG_VAR(rpm);
 8002364:	4b30      	ldr	r3, [pc, #192]	@ (8002428 <main+0x184>)
 8002366:	6819      	ldr	r1, [r3, #0]
 8002368:	4830      	ldr	r0, [pc, #192]	@ (800242c <main+0x188>)
 800236a:	f7ff fc93 	bl	8001c94 <log_variable>
      LOG_VAR(k);
 800236e:	4629      	mov	r1, r5
 8002370:	482f      	ldr	r0, [pc, #188]	@ (8002430 <main+0x18c>)
 8002372:	f7ff fc8f 	bl	8001c94 <log_variable>
      LOG_VAR(t);
 8002376:	4621      	mov	r1, r4
 8002378:	482e      	ldr	r0, [pc, #184]	@ (8002434 <main+0x190>)
 800237a:	f7ff fc8b 	bl	8001c94 <log_variable>
      LOG_POST();
 800237e:	f7ff fca1 	bl	8001cc4 <LOG_POST>
      previousTime3 = HAL_GetTick();
 8002382:	f000 fcb3 	bl	8002cec <HAL_GetTick>
 8002386:	4b25      	ldr	r3, [pc, #148]	@ (800241c <main+0x178>)
 8002388:	6018      	str	r0, [r3, #0]
 800238a:	e0c2      	b.n	8002512 <main+0x26e>
      __HAL_TIM_SET_COMPARE(&htim1, TIM_CHANNEL_3, 0);
 800238c:	4b1d      	ldr	r3, [pc, #116]	@ (8002404 <main+0x160>)
 800238e:	681a      	ldr	r2, [r3, #0]
 8002390:	2300      	movs	r3, #0
 8002392:	63d3      	str	r3, [r2, #60]	@ 0x3c
      __HAL_TIM_SET_COMPARE(&htim1, TIM_CHANNEL_2, 0);
 8002394:	6393      	str	r3, [r2, #56]	@ 0x38
      __HAL_TIM_SET_COMPARE(&htim1, TIM_CHANNEL_1, 0);
 8002396:	6353      	str	r3, [r2, #52]	@ 0x34
      TIM1->CCER = 0x0000;
 8002398:	4a1e      	ldr	r2, [pc, #120]	@ (8002414 <main+0x170>)
 800239a:	6213      	str	r3, [r2, #32]
      previousTime2 = HAL_GetTick();
 800239c:	f000 fca6 	bl	8002cec <HAL_GetTick>
 80023a0:	4b1d      	ldr	r3, [pc, #116]	@ (8002418 <main+0x174>)
 80023a2:	6018      	str	r0, [r3, #0]
 80023a4:	e0c3      	b.n	800252e <main+0x28a>
        target_rpm = map(speedInAdc, 700, 3600, 0, max_rpm_limit);
 80023a6:	4b24      	ldr	r3, [pc, #144]	@ (8002438 <main+0x194>)
 80023a8:	8818      	ldrh	r0, [r3, #0]
 80023aa:	4b24      	ldr	r3, [pc, #144]	@ (800243c <main+0x198>)
 80023ac:	881b      	ldrh	r3, [r3, #0]
 80023ae:	9300      	str	r3, [sp, #0]
 80023b0:	2300      	movs	r3, #0
 80023b2:	f44f 6261 	mov.w	r2, #3600	@ 0xe10
 80023b6:	f44f 712f 	mov.w	r1, #700	@ 0x2bc
 80023ba:	b280      	uxth	r0, r0
 80023bc:	f7ff fde6 	bl	8001f8c <map>
 80023c0:	4b1f      	ldr	r3, [pc, #124]	@ (8002440 <main+0x19c>)
 80023c2:	8018      	strh	r0, [r3, #0]
 80023c4:	e0d7      	b.n	8002576 <main+0x2d2>
          pwm_value = min_pwm_limit;
 80023c6:	4a1f      	ldr	r2, [pc, #124]	@ (8002444 <main+0x1a0>)
 80023c8:	6013      	str	r3, [r2, #0]
 80023ca:	e0e9      	b.n	80025a0 <main+0x2fc>
        if (pwm_value < min_pwm_limit)
 80023cc:	4b1e      	ldr	r3, [pc, #120]	@ (8002448 <main+0x1a4>)
 80023ce:	881b      	ldrh	r3, [r3, #0]
 80023d0:	4a1c      	ldr	r2, [pc, #112]	@ (8002444 <main+0x1a0>)
 80023d2:	6812      	ldr	r2, [r2, #0]
 80023d4:	4293      	cmp	r3, r2
 80023d6:	d902      	bls.n	80023de <main+0x13a>
          pwm_value = min_pwm_limit;
 80023d8:	4a1a      	ldr	r2, [pc, #104]	@ (8002444 <main+0x1a0>)
 80023da:	6013      	str	r3, [r2, #0]
 80023dc:	e0e0      	b.n	80025a0 <main+0x2fc>
        else if (pwm_value < max_pwm_limit)
 80023de:	4b1b      	ldr	r3, [pc, #108]	@ (800244c <main+0x1a8>)
 80023e0:	881a      	ldrh	r2, [r3, #0]
 80023e2:	4b18      	ldr	r3, [pc, #96]	@ (8002444 <main+0x1a0>)
 80023e4:	681b      	ldr	r3, [r3, #0]
 80023e6:	429a      	cmp	r2, r3
 80023e8:	f240 80da 	bls.w	80025a0 <main+0x2fc>
          pwm_value += 1;
 80023ec:	4a15      	ldr	r2, [pc, #84]	@ (8002444 <main+0x1a0>)
 80023ee:	6813      	ldr	r3, [r2, #0]
 80023f0:	3301      	adds	r3, #1
 80023f2:	6013      	str	r3, [r2, #0]
 80023f4:	e0d4      	b.n	80025a0 <main+0x2fc>
 80023f6:	bf00      	nop
 80023f8:	20000670 	.word	0x20000670
 80023fc:	20000654 	.word	0x20000654
 8002400:	20000388 	.word	0x20000388
 8002404:	20000774 	.word	0x20000774
 8002408:	2000072c 	.word	0x2000072c
 800240c:	200006e4 	.word	0x200006e4
 8002410:	2000069c 	.word	0x2000069c
 8002414:	40012c00 	.word	0x40012c00
 8002418:	2000063c 	.word	0x2000063c
 800241c:	20000628 	.word	0x20000628
 8002420:	2000005c 	.word	0x2000005c
 8002424:	2000005a 	.word	0x2000005a
 8002428:	2000062c 	.word	0x2000062c
 800242c:	08007dec 	.word	0x08007dec
 8002430:	08007df0 	.word	0x08007df0
 8002434:	08007df4 	.word	0x08007df4
 8002438:	20000650 	.word	0x20000650
 800243c:	20000056 	.word	0x20000056
 8002440:	200005d6 	.word	0x200005d6
 8002444:	20000640 	.word	0x20000640
 8002448:	2000005e 	.word	0x2000005e
 800244c:	20000054 	.word	0x20000054
    else if ((run_status) && (speedInAdc < 800))
 8002450:	4b70      	ldr	r3, [pc, #448]	@ (8002614 <main+0x370>)
 8002452:	781b      	ldrb	r3, [r3, #0]
 8002454:	b1d3      	cbz	r3, 800248c <main+0x1e8>
 8002456:	4b70      	ldr	r3, [pc, #448]	@ (8002618 <main+0x374>)
 8002458:	881b      	ldrh	r3, [r3, #0]
 800245a:	b29b      	uxth	r3, r3
 800245c:	f5b3 7f48 	cmp.w	r3, #800	@ 0x320
 8002460:	d214      	bcs.n	800248c <main+0x1e8>
      __HAL_TIM_SET_COMPARE(&htim1, TIM_CHANNEL_1, 0); // Mosfetleri kapatyoruz
 8002462:	4b6e      	ldr	r3, [pc, #440]	@ (800261c <main+0x378>)
 8002464:	681a      	ldr	r2, [r3, #0]
 8002466:	2300      	movs	r3, #0
 8002468:	6353      	str	r3, [r2, #52]	@ 0x34
      __HAL_TIM_SET_COMPARE(&htim1, TIM_CHANNEL_2, 0);
 800246a:	6393      	str	r3, [r2, #56]	@ 0x38
      __HAL_TIM_SET_COMPARE(&htim1, TIM_CHANNEL_3, 0);
 800246c:	63d3      	str	r3, [r2, #60]	@ 0x3c
      TIM1->CCER = 0x0000;
 800246e:	4a6c      	ldr	r2, [pc, #432]	@ (8002620 <main+0x37c>)
 8002470:	6213      	str	r3, [r2, #32]
      flagg = 1;
 8002472:	2301      	movs	r3, #1
 8002474:	4a6b      	ldr	r2, [pc, #428]	@ (8002624 <main+0x380>)
 8002476:	7013      	strb	r3, [r2, #0]
      first_step_flag = 1;
 8002478:	4a6b      	ldr	r2, [pc, #428]	@ (8002628 <main+0x384>)
 800247a:	7013      	strb	r3, [r2, #0]
      if (timeForRotorStopStatusMsFlag)
 800247c:	4b6b      	ldr	r3, [pc, #428]	@ (800262c <main+0x388>)
 800247e:	681b      	ldr	r3, [r3, #0]
 8002480:	2b00      	cmp	r3, #0
 8002482:	f040 80be 	bne.w	8002602 <main+0x35e>
      run_status = false;
 8002486:	4b63      	ldr	r3, [pc, #396]	@ (8002614 <main+0x370>)
 8002488:	2200      	movs	r2, #0
 800248a:	701a      	strb	r2, [r3, #0]
    hall_A = HAL_GPIO_ReadPin(GPIOA, GPIO_PIN_0);
 800248c:	4c68      	ldr	r4, [pc, #416]	@ (8002630 <main+0x38c>)
 800248e:	2101      	movs	r1, #1
 8002490:	4620      	mov	r0, r4
 8002492:	f001 f95d 	bl	8003750 <HAL_GPIO_ReadPin>
 8002496:	3800      	subs	r0, #0
 8002498:	bf18      	it	ne
 800249a:	2001      	movne	r0, #1
 800249c:	4b65      	ldr	r3, [pc, #404]	@ (8002634 <main+0x390>)
 800249e:	7018      	strb	r0, [r3, #0]
    hall_B = HAL_GPIO_ReadPin(GPIOA, GPIO_PIN_1);
 80024a0:	2102      	movs	r1, #2
 80024a2:	4620      	mov	r0, r4
 80024a4:	f001 f954 	bl	8003750 <HAL_GPIO_ReadPin>
 80024a8:	3800      	subs	r0, #0
 80024aa:	bf18      	it	ne
 80024ac:	2001      	movne	r0, #1
 80024ae:	4b62      	ldr	r3, [pc, #392]	@ (8002638 <main+0x394>)
 80024b0:	7018      	strb	r0, [r3, #0]
    hall_C = HAL_GPIO_ReadPin(GPIOA, GPIO_PIN_2);
 80024b2:	2104      	movs	r1, #4
 80024b4:	4620      	mov	r0, r4
 80024b6:	f001 f94b 	bl	8003750 <HAL_GPIO_ReadPin>
 80024ba:	3800      	subs	r0, #0
 80024bc:	bf18      	it	ne
 80024be:	2001      	movne	r0, #1
 80024c0:	4b5e      	ldr	r3, [pc, #376]	@ (800263c <main+0x398>)
 80024c2:	7018      	strb	r0, [r3, #0]
    if (!run_status)
 80024c4:	4b53      	ldr	r3, [pc, #332]	@ (8002614 <main+0x370>)
 80024c6:	781b      	ldrb	r3, [r3, #0]
 80024c8:	b9c3      	cbnz	r3, 80024fc <main+0x258>
      pwm_value = 10.50 * motor_voltage / battery_voltage;
 80024ca:	4b5d      	ldr	r3, [pc, #372]	@ (8002640 <main+0x39c>)
 80024cc:	8818      	ldrh	r0, [r3, #0]
 80024ce:	b280      	uxth	r0, r0
 80024d0:	f7fe ff20 	bl	8001314 <__aeabi_i2d>
 80024d4:	2200      	movs	r2, #0
 80024d6:	4b5b      	ldr	r3, [pc, #364]	@ (8002644 <main+0x3a0>)
 80024d8:	f7fe ff86 	bl	80013e8 <__aeabi_dmul>
 80024dc:	4604      	mov	r4, r0
 80024de:	460d      	mov	r5, r1
 80024e0:	4b59      	ldr	r3, [pc, #356]	@ (8002648 <main+0x3a4>)
 80024e2:	8818      	ldrh	r0, [r3, #0]
 80024e4:	f7fe ff16 	bl	8001314 <__aeabi_i2d>
 80024e8:	4602      	mov	r2, r0
 80024ea:	460b      	mov	r3, r1
 80024ec:	4620      	mov	r0, r4
 80024ee:	4629      	mov	r1, r5
 80024f0:	f7ff f8a4 	bl	800163c <__aeabi_ddiv>
 80024f4:	f7ff f98a 	bl	800180c <__aeabi_d2uiz>
 80024f8:	4b54      	ldr	r3, [pc, #336]	@ (800264c <main+0x3a8>)
 80024fa:	6018      	str	r0, [r3, #0]
    average = 0;
 80024fc:	4b54      	ldr	r3, [pc, #336]	@ (8002650 <main+0x3ac>)
 80024fe:	2200      	movs	r2, #0
 8002500:	801a      	strh	r2, [r3, #0]
    if (HAL_GetTick() - previousTime3 > 20) // && rpm_max_limit_flag)
 8002502:	f000 fbf3 	bl	8002cec <HAL_GetTick>
 8002506:	4b53      	ldr	r3, [pc, #332]	@ (8002654 <main+0x3b0>)
 8002508:	681b      	ldr	r3, [r3, #0]
 800250a:	1ac0      	subs	r0, r0, r3
 800250c:	2814      	cmp	r0, #20
 800250e:	f63f af23 	bhi.w	8002358 <main+0xb4>
    if (HAL_GetTick() - previousTime2 > 1500 && run_status)
 8002512:	f000 fbeb 	bl	8002cec <HAL_GetTick>
 8002516:	4b50      	ldr	r3, [pc, #320]	@ (8002658 <main+0x3b4>)
 8002518:	681b      	ldr	r3, [r3, #0]
 800251a:	1ac0      	subs	r0, r0, r3
 800251c:	f240 53dc 	movw	r3, #1500	@ 0x5dc
 8002520:	4298      	cmp	r0, r3
 8002522:	d904      	bls.n	800252e <main+0x28a>
 8002524:	4b3b      	ldr	r3, [pc, #236]	@ (8002614 <main+0x370>)
 8002526:	781b      	ldrb	r3, [r3, #0]
 8002528:	2b00      	cmp	r3, #0
 800252a:	f47f af2f 	bne.w	800238c <main+0xe8>
    if (speedInAdc >= 900) // Checked
 800252e:	4b3a      	ldr	r3, [pc, #232]	@ (8002618 <main+0x374>)
 8002530:	881b      	ldrh	r3, [r3, #0]
 8002532:	b29b      	uxth	r3, r3
 8002534:	f5b3 7f61 	cmp.w	r3, #900	@ 0x384
 8002538:	d38a      	bcc.n	8002450 <main+0x1ac>
      timeForRotorStopStatusMsFlag = 1;
 800253a:	4b3c      	ldr	r3, [pc, #240]	@ (800262c <main+0x388>)
 800253c:	2201      	movs	r2, #1
 800253e:	601a      	str	r2, [r3, #0]
      mode = HAL_GPIO_ReadPin(GPIOB, GPIO_PIN_5); // Nitro mod
 8002540:	2120      	movs	r1, #32
 8002542:	4846      	ldr	r0, [pc, #280]	@ (800265c <main+0x3b8>)
 8002544:	f001 f904 	bl	8003750 <HAL_GPIO_ReadPin>
 8002548:	2800      	cmp	r0, #0
 800254a:	bf14      	ite	ne
 800254c:	2201      	movne	r2, #1
 800254e:	2200      	moveq	r2, #0
 8002550:	4b43      	ldr	r3, [pc, #268]	@ (8002660 <main+0x3bc>)
 8002552:	701a      	strb	r2, [r3, #0]
      if (mode == 0)
 8002554:	f47f af27 	bne.w	80023a6 <main+0x102>
        target_rpm = map(speedInAdc, 700, 3600, 0, max_rpm_limit);
 8002558:	4b2f      	ldr	r3, [pc, #188]	@ (8002618 <main+0x374>)
 800255a:	8818      	ldrh	r0, [r3, #0]
 800255c:	4b41      	ldr	r3, [pc, #260]	@ (8002664 <main+0x3c0>)
 800255e:	881b      	ldrh	r3, [r3, #0]
 8002560:	9300      	str	r3, [sp, #0]
 8002562:	2300      	movs	r3, #0
 8002564:	f44f 6261 	mov.w	r2, #3600	@ 0xe10
 8002568:	f44f 712f 	mov.w	r1, #700	@ 0x2bc
 800256c:	b280      	uxth	r0, r0
 800256e:	f7ff fd0d 	bl	8001f8c <map>
 8002572:	4b3d      	ldr	r3, [pc, #244]	@ (8002668 <main+0x3c4>)
 8002574:	8018      	strh	r0, [r3, #0]
      HAL_Delay(1); // Kaldrlabilir
 8002576:	2001      	movs	r0, #1
 8002578:	f000 fbbe 	bl	8002cf8 <HAL_Delay>
      if (rpm > target_rpm) // if (filtered_current > pedal_value_mapped)
 800257c:	4b3a      	ldr	r3, [pc, #232]	@ (8002668 <main+0x3c4>)
 800257e:	881a      	ldrh	r2, [r3, #0]
 8002580:	4b3a      	ldr	r3, [pc, #232]	@ (800266c <main+0x3c8>)
 8002582:	681b      	ldr	r3, [r3, #0]
 8002584:	429a      	cmp	r2, r3
 8002586:	f4bf af21 	bcs.w	80023cc <main+0x128>
        if (pwm_value > min_pwm_limit)
 800258a:	4b39      	ldr	r3, [pc, #228]	@ (8002670 <main+0x3cc>)
 800258c:	881b      	ldrh	r3, [r3, #0]
 800258e:	4a2f      	ldr	r2, [pc, #188]	@ (800264c <main+0x3a8>)
 8002590:	6812      	ldr	r2, [r2, #0]
 8002592:	4293      	cmp	r3, r2
 8002594:	f4bf af17 	bcs.w	80023c6 <main+0x122>
          pwm_value -= 1;
 8002598:	4a2c      	ldr	r2, [pc, #176]	@ (800264c <main+0x3a8>)
 800259a:	6813      	ldr	r3, [r2, #0]
 800259c:	3b01      	subs	r3, #1
 800259e:	6013      	str	r3, [r2, #0]
      if (!run_status)
 80025a0:	4b1c      	ldr	r3, [pc, #112]	@ (8002614 <main+0x370>)
 80025a2:	781b      	ldrb	r3, [r3, #0]
 80025a4:	2b00      	cmp	r3, #0
 80025a6:	f47f af71 	bne.w	800248c <main+0x1e8>
        run_status = true;
 80025aa:	2101      	movs	r1, #1
 80025ac:	4b19      	ldr	r3, [pc, #100]	@ (8002614 <main+0x370>)
 80025ae:	7019      	strb	r1, [r3, #0]
        hall_A = HAL_GPIO_ReadPin(GPIOA, GPIO_PIN_0);
 80025b0:	4c1f      	ldr	r4, [pc, #124]	@ (8002630 <main+0x38c>)
 80025b2:	4620      	mov	r0, r4
 80025b4:	f001 f8cc 	bl	8003750 <HAL_GPIO_ReadPin>
 80025b8:	3800      	subs	r0, #0
 80025ba:	bf18      	it	ne
 80025bc:	2001      	movne	r0, #1
 80025be:	4b1d      	ldr	r3, [pc, #116]	@ (8002634 <main+0x390>)
 80025c0:	7018      	strb	r0, [r3, #0]
        hall_B = HAL_GPIO_ReadPin(GPIOA, GPIO_PIN_1);
 80025c2:	2102      	movs	r1, #2
 80025c4:	4620      	mov	r0, r4
 80025c6:	f001 f8c3 	bl	8003750 <HAL_GPIO_ReadPin>
 80025ca:	3800      	subs	r0, #0
 80025cc:	bf18      	it	ne
 80025ce:	2001      	movne	r0, #1
 80025d0:	4b19      	ldr	r3, [pc, #100]	@ (8002638 <main+0x394>)
 80025d2:	7018      	strb	r0, [r3, #0]
        hall_C = HAL_GPIO_ReadPin(GPIOA, GPIO_PIN_2);
 80025d4:	2104      	movs	r1, #4
 80025d6:	4620      	mov	r0, r4
 80025d8:	f001 f8ba 	bl	8003750 <HAL_GPIO_ReadPin>
 80025dc:	3800      	subs	r0, #0
 80025de:	bf18      	it	ne
 80025e0:	2001      	movne	r0, #1
 80025e2:	4b16      	ldr	r3, [pc, #88]	@ (800263c <main+0x398>)
 80025e4:	7018      	strb	r0, [r3, #0]
        if (motor_voltage < 150)
 80025e6:	4b16      	ldr	r3, [pc, #88]	@ (8002640 <main+0x39c>)
 80025e8:	881b      	ldrh	r3, [r3, #0]
 80025ea:	b29b      	uxth	r3, r3
 80025ec:	2b95      	cmp	r3, #149	@ 0x95
 80025ee:	f63f af4d 	bhi.w	800248c <main+0x1e8>
          pwm_value = min_pwm_limit;
 80025f2:	4b1f      	ldr	r3, [pc, #124]	@ (8002670 <main+0x3cc>)
 80025f4:	881a      	ldrh	r2, [r3, #0]
 80025f6:	4b15      	ldr	r3, [pc, #84]	@ (800264c <main+0x3a8>)
 80025f8:	601a      	str	r2, [r3, #0]
          HAL_GPIO_EXTI_Callback(GPIO_PIN_2);
 80025fa:	2004      	movs	r0, #4
 80025fc:	f7ff fc18 	bl	8001e30 <HAL_GPIO_EXTI_Callback>
 8002600:	e744      	b.n	800248c <main+0x1e8>
        timeForRotorStopStatusMs = HAL_GetTick();
 8002602:	f000 fb73 	bl	8002cec <HAL_GetTick>
 8002606:	4b1b      	ldr	r3, [pc, #108]	@ (8002674 <main+0x3d0>)
 8002608:	6018      	str	r0, [r3, #0]
        timeForRotorStopStatusMsFlag = 0;
 800260a:	4b08      	ldr	r3, [pc, #32]	@ (800262c <main+0x388>)
 800260c:	2200      	movs	r2, #0
 800260e:	601a      	str	r2, [r3, #0]
 8002610:	e739      	b.n	8002486 <main+0x1e2>
 8002612:	bf00      	nop
 8002614:	2000064b 	.word	0x2000064b
 8002618:	20000650 	.word	0x20000650
 800261c:	20000774 	.word	0x20000774
 8002620:	40012c00 	.word	0x40012c00
 8002624:	20000061 	.word	0x20000061
 8002628:	20000062 	.word	0x20000062
 800262c:	20000630 	.word	0x20000630
 8002630:	40010800 	.word	0x40010800
 8002634:	2000064a 	.word	0x2000064a
 8002638:	20000649 	.word	0x20000649
 800263c:	20000648 	.word	0x20000648
 8002640:	200005d2 	.word	0x200005d2
 8002644:	40250000 	.word	0x40250000
 8002648:	200005d4 	.word	0x200005d4
 800264c:	20000640 	.word	0x20000640
 8002650:	20000620 	.word	0x20000620
 8002654:	20000628 	.word	0x20000628
 8002658:	2000063c 	.word	0x2000063c
 800265c:	40010c00 	.word	0x40010c00
 8002660:	20000063 	.word	0x20000063
 8002664:	20000056 	.word	0x20000056
 8002668:	200005d6 	.word	0x200005d6
 800266c:	2000062c 	.word	0x2000062c
 8002670:	2000005e 	.word	0x2000005e
 8002674:	20000634 	.word	0x20000634

08002678 <set_old_value>:

uint8_t counter = 0;
uint8_t sender_flag = 0;

void set_old_value()
{
 8002678:	b508      	push	{r3, lr}

    if (!geri_vites)
 800267a:	4b69      	ldr	r3, [pc, #420]	@ (8002820 <set_old_value+0x1a8>)
 800267c:	781b      	ldrb	r3, [r3, #0]
 800267e:	2b00      	cmp	r3, #0
 8002680:	f040 80dc 	bne.w	800283c <set_old_value+0x1c4>
    { // LER YN ADIMLARI

        if ((hall_A && !hall_B && hall_C) &&
 8002684:	4b67      	ldr	r3, [pc, #412]	@ (8002824 <set_old_value+0x1ac>)
 8002686:	781b      	ldrb	r3, [r3, #0]
 8002688:	b1eb      	cbz	r3, 80026c6 <set_old_value+0x4e>
 800268a:	4b67      	ldr	r3, [pc, #412]	@ (8002828 <set_old_value+0x1b0>)
 800268c:	781b      	ldrb	r3, [r3, #0]
 800268e:	b9d3      	cbnz	r3, 80026c6 <set_old_value+0x4e>
 8002690:	4b66      	ldr	r3, [pc, #408]	@ (800282c <set_old_value+0x1b4>)
 8002692:	781b      	ldrb	r3, [r3, #0]
 8002694:	b1bb      	cbz	r3, 80026c6 <set_old_value+0x4e>
            ((oldValue[0] && !oldValue[1] && !oldValue[2]) || flagg))
 8002696:	4b66      	ldr	r3, [pc, #408]	@ (8002830 <set_old_value+0x1b8>)
 8002698:	781b      	ldrb	r3, [r3, #0]
        if ((hall_A && !hall_B && hall_C) &&
 800269a:	b12b      	cbz	r3, 80026a8 <set_old_value+0x30>
            ((oldValue[0] && !oldValue[1] && !oldValue[2]) || flagg))
 800269c:	4b64      	ldr	r3, [pc, #400]	@ (8002830 <set_old_value+0x1b8>)
 800269e:	785b      	ldrb	r3, [r3, #1]
 80026a0:	b913      	cbnz	r3, 80026a8 <set_old_value+0x30>
 80026a2:	4b63      	ldr	r3, [pc, #396]	@ (8002830 <set_old_value+0x1b8>)
 80026a4:	789b      	ldrb	r3, [r3, #2]
 80026a6:	b113      	cbz	r3, 80026ae <set_old_value+0x36>
 80026a8:	4b62      	ldr	r3, [pc, #392]	@ (8002834 <set_old_value+0x1bc>)
 80026aa:	781b      	ldrb	r3, [r3, #0]
 80026ac:	b15b      	cbz	r3, 80026c6 <set_old_value+0x4e>
        // 101'den 100'e gei
        {
            step = 4;
 80026ae:	4b62      	ldr	r3, [pc, #392]	@ (8002838 <set_old_value+0x1c0>)
 80026b0:	2204      	movs	r2, #4
 80026b2:	601a      	str	r2, [r3, #0]
            oldValue[0] = 1;
 80026b4:	4a5e      	ldr	r2, [pc, #376]	@ (8002830 <set_old_value+0x1b8>)
 80026b6:	2301      	movs	r3, #1
 80026b8:	7013      	strb	r3, [r2, #0]
            oldValue[1] = 0;
 80026ba:	2100      	movs	r1, #0
 80026bc:	7051      	strb	r1, [r2, #1]
            oldValue[2] = 1;
 80026be:	7093      	strb	r3, [r2, #2]
            flagg = 1;
 80026c0:	4a5c      	ldr	r2, [pc, #368]	@ (8002834 <set_old_value+0x1bc>)
 80026c2:	7013      	strb	r3, [r2, #0]
    //         {
    //             sender_flag = 1;
    //         }
    //     }
    // }
}
 80026c4:	bd08      	pop	{r3, pc}
        else if ((hall_A && !hall_B && !hall_C) &&
 80026c6:	4b57      	ldr	r3, [pc, #348]	@ (8002824 <set_old_value+0x1ac>)
 80026c8:	781b      	ldrb	r3, [r3, #0]
 80026ca:	b1eb      	cbz	r3, 8002708 <set_old_value+0x90>
 80026cc:	4b56      	ldr	r3, [pc, #344]	@ (8002828 <set_old_value+0x1b0>)
 80026ce:	781b      	ldrb	r3, [r3, #0]
 80026d0:	b9d3      	cbnz	r3, 8002708 <set_old_value+0x90>
 80026d2:	4b56      	ldr	r3, [pc, #344]	@ (800282c <set_old_value+0x1b4>)
 80026d4:	781b      	ldrb	r3, [r3, #0]
 80026d6:	b9bb      	cbnz	r3, 8002708 <set_old_value+0x90>
                 ((oldValue[0] && oldValue[1] && !oldValue[2]) || flagg)) // 100'den 110'a gei
 80026d8:	4b55      	ldr	r3, [pc, #340]	@ (8002830 <set_old_value+0x1b8>)
 80026da:	781b      	ldrb	r3, [r3, #0]
        else if ((hall_A && !hall_B && !hall_C) &&
 80026dc:	b12b      	cbz	r3, 80026ea <set_old_value+0x72>
                 ((oldValue[0] && oldValue[1] && !oldValue[2]) || flagg)) // 100'den 110'a gei
 80026de:	4b54      	ldr	r3, [pc, #336]	@ (8002830 <set_old_value+0x1b8>)
 80026e0:	785b      	ldrb	r3, [r3, #1]
 80026e2:	b113      	cbz	r3, 80026ea <set_old_value+0x72>
 80026e4:	4b52      	ldr	r3, [pc, #328]	@ (8002830 <set_old_value+0x1b8>)
 80026e6:	789b      	ldrb	r3, [r3, #2]
 80026e8:	b113      	cbz	r3, 80026f0 <set_old_value+0x78>
 80026ea:	4b52      	ldr	r3, [pc, #328]	@ (8002834 <set_old_value+0x1bc>)
 80026ec:	781b      	ldrb	r3, [r3, #0]
 80026ee:	b15b      	cbz	r3, 8002708 <set_old_value+0x90>
            step = 5;
 80026f0:	4b51      	ldr	r3, [pc, #324]	@ (8002838 <set_old_value+0x1c0>)
 80026f2:	2205      	movs	r2, #5
 80026f4:	601a      	str	r2, [r3, #0]
            oldValue[0] = 1;
 80026f6:	4b4e      	ldr	r3, [pc, #312]	@ (8002830 <set_old_value+0x1b8>)
 80026f8:	2201      	movs	r2, #1
 80026fa:	701a      	strb	r2, [r3, #0]
            oldValue[1] = 0;
 80026fc:	2100      	movs	r1, #0
 80026fe:	7059      	strb	r1, [r3, #1]
            oldValue[2] = 0;
 8002700:	7099      	strb	r1, [r3, #2]
            flagg = 1;
 8002702:	4b4c      	ldr	r3, [pc, #304]	@ (8002834 <set_old_value+0x1bc>)
 8002704:	701a      	strb	r2, [r3, #0]
 8002706:	e7dd      	b.n	80026c4 <set_old_value+0x4c>
        else if ((hall_A && hall_B && !hall_C) &&
 8002708:	4b46      	ldr	r3, [pc, #280]	@ (8002824 <set_old_value+0x1ac>)
 800270a:	781b      	ldrb	r3, [r3, #0]
 800270c:	b1eb      	cbz	r3, 800274a <set_old_value+0xd2>
 800270e:	4b46      	ldr	r3, [pc, #280]	@ (8002828 <set_old_value+0x1b0>)
 8002710:	781b      	ldrb	r3, [r3, #0]
 8002712:	b1d3      	cbz	r3, 800274a <set_old_value+0xd2>
 8002714:	4b45      	ldr	r3, [pc, #276]	@ (800282c <set_old_value+0x1b4>)
 8002716:	781b      	ldrb	r3, [r3, #0]
 8002718:	b9bb      	cbnz	r3, 800274a <set_old_value+0xd2>
                 ((!oldValue[0] && oldValue[1] && !oldValue[2]) || flagg)) // 110'dan 010'a gei
 800271a:	4b45      	ldr	r3, [pc, #276]	@ (8002830 <set_old_value+0x1b8>)
 800271c:	781b      	ldrb	r3, [r3, #0]
        else if ((hall_A && hall_B && !hall_C) &&
 800271e:	b92b      	cbnz	r3, 800272c <set_old_value+0xb4>
                 ((!oldValue[0] && oldValue[1] && !oldValue[2]) || flagg)) // 110'dan 010'a gei
 8002720:	4b43      	ldr	r3, [pc, #268]	@ (8002830 <set_old_value+0x1b8>)
 8002722:	785b      	ldrb	r3, [r3, #1]
 8002724:	b113      	cbz	r3, 800272c <set_old_value+0xb4>
 8002726:	4b42      	ldr	r3, [pc, #264]	@ (8002830 <set_old_value+0x1b8>)
 8002728:	789b      	ldrb	r3, [r3, #2]
 800272a:	b113      	cbz	r3, 8002732 <set_old_value+0xba>
 800272c:	4b41      	ldr	r3, [pc, #260]	@ (8002834 <set_old_value+0x1bc>)
 800272e:	781b      	ldrb	r3, [r3, #0]
 8002730:	b15b      	cbz	r3, 800274a <set_old_value+0xd2>
            step = 6;
 8002732:	4b41      	ldr	r3, [pc, #260]	@ (8002838 <set_old_value+0x1c0>)
 8002734:	2206      	movs	r2, #6
 8002736:	601a      	str	r2, [r3, #0]
            oldValue[0] = 1;
 8002738:	4a3d      	ldr	r2, [pc, #244]	@ (8002830 <set_old_value+0x1b8>)
 800273a:	2301      	movs	r3, #1
 800273c:	7013      	strb	r3, [r2, #0]
            oldValue[1] = 1;
 800273e:	7053      	strb	r3, [r2, #1]
            oldValue[2] = 0;
 8002740:	2100      	movs	r1, #0
 8002742:	7091      	strb	r1, [r2, #2]
            flagg = 1;
 8002744:	4a3b      	ldr	r2, [pc, #236]	@ (8002834 <set_old_value+0x1bc>)
 8002746:	7013      	strb	r3, [r2, #0]
 8002748:	e7bc      	b.n	80026c4 <set_old_value+0x4c>
        else if ((!hall_A && hall_B && !hall_C) &&
 800274a:	4b36      	ldr	r3, [pc, #216]	@ (8002824 <set_old_value+0x1ac>)
 800274c:	781b      	ldrb	r3, [r3, #0]
 800274e:	b9e3      	cbnz	r3, 800278a <set_old_value+0x112>
 8002750:	4b35      	ldr	r3, [pc, #212]	@ (8002828 <set_old_value+0x1b0>)
 8002752:	781b      	ldrb	r3, [r3, #0]
 8002754:	b1cb      	cbz	r3, 800278a <set_old_value+0x112>
 8002756:	4b35      	ldr	r3, [pc, #212]	@ (800282c <set_old_value+0x1b4>)
 8002758:	781b      	ldrb	r3, [r3, #0]
 800275a:	b9b3      	cbnz	r3, 800278a <set_old_value+0x112>
                 ((!oldValue[0] && oldValue[1] && oldValue[2]) || flagg)) // 010'dan 011'e gei
 800275c:	4b34      	ldr	r3, [pc, #208]	@ (8002830 <set_old_value+0x1b8>)
 800275e:	781b      	ldrb	r3, [r3, #0]
        else if ((!hall_A && hall_B && !hall_C) &&
 8002760:	b92b      	cbnz	r3, 800276e <set_old_value+0xf6>
                 ((!oldValue[0] && oldValue[1] && oldValue[2]) || flagg)) // 010'dan 011'e gei
 8002762:	4b33      	ldr	r3, [pc, #204]	@ (8002830 <set_old_value+0x1b8>)
 8002764:	785b      	ldrb	r3, [r3, #1]
 8002766:	b113      	cbz	r3, 800276e <set_old_value+0xf6>
 8002768:	4b31      	ldr	r3, [pc, #196]	@ (8002830 <set_old_value+0x1b8>)
 800276a:	789b      	ldrb	r3, [r3, #2]
 800276c:	b913      	cbnz	r3, 8002774 <set_old_value+0xfc>
 800276e:	4b31      	ldr	r3, [pc, #196]	@ (8002834 <set_old_value+0x1bc>)
 8002770:	781b      	ldrb	r3, [r3, #0]
 8002772:	b153      	cbz	r3, 800278a <set_old_value+0x112>
            step = 1;
 8002774:	2301      	movs	r3, #1
 8002776:	4a30      	ldr	r2, [pc, #192]	@ (8002838 <set_old_value+0x1c0>)
 8002778:	6013      	str	r3, [r2, #0]
            oldValue[0] = 0;
 800277a:	4a2d      	ldr	r2, [pc, #180]	@ (8002830 <set_old_value+0x1b8>)
 800277c:	2100      	movs	r1, #0
 800277e:	7011      	strb	r1, [r2, #0]
            oldValue[1] = 1;
 8002780:	7053      	strb	r3, [r2, #1]
            oldValue[2] = 0;
 8002782:	7091      	strb	r1, [r2, #2]
            flagg = 1;
 8002784:	4a2b      	ldr	r2, [pc, #172]	@ (8002834 <set_old_value+0x1bc>)
 8002786:	7013      	strb	r3, [r2, #0]
 8002788:	e79c      	b.n	80026c4 <set_old_value+0x4c>
        else if ((!hall_A && hall_B && hall_C) &&
 800278a:	4b26      	ldr	r3, [pc, #152]	@ (8002824 <set_old_value+0x1ac>)
 800278c:	781b      	ldrb	r3, [r3, #0]
 800278e:	b9eb      	cbnz	r3, 80027cc <set_old_value+0x154>
 8002790:	4b25      	ldr	r3, [pc, #148]	@ (8002828 <set_old_value+0x1b0>)
 8002792:	781b      	ldrb	r3, [r3, #0]
 8002794:	b1d3      	cbz	r3, 80027cc <set_old_value+0x154>
 8002796:	4b25      	ldr	r3, [pc, #148]	@ (800282c <set_old_value+0x1b4>)
 8002798:	781b      	ldrb	r3, [r3, #0]
 800279a:	b1bb      	cbz	r3, 80027cc <set_old_value+0x154>
                 ((!oldValue[0] && !oldValue[1] && oldValue[2]) || flagg)) // 011'den 001'e gei
 800279c:	4b24      	ldr	r3, [pc, #144]	@ (8002830 <set_old_value+0x1b8>)
 800279e:	781b      	ldrb	r3, [r3, #0]
        else if ((!hall_A && hall_B && hall_C) &&
 80027a0:	b92b      	cbnz	r3, 80027ae <set_old_value+0x136>
                 ((!oldValue[0] && !oldValue[1] && oldValue[2]) || flagg)) // 011'den 001'e gei
 80027a2:	4b23      	ldr	r3, [pc, #140]	@ (8002830 <set_old_value+0x1b8>)
 80027a4:	785b      	ldrb	r3, [r3, #1]
 80027a6:	b913      	cbnz	r3, 80027ae <set_old_value+0x136>
 80027a8:	4b21      	ldr	r3, [pc, #132]	@ (8002830 <set_old_value+0x1b8>)
 80027aa:	789b      	ldrb	r3, [r3, #2]
 80027ac:	b913      	cbnz	r3, 80027b4 <set_old_value+0x13c>
 80027ae:	4b21      	ldr	r3, [pc, #132]	@ (8002834 <set_old_value+0x1bc>)
 80027b0:	781b      	ldrb	r3, [r3, #0]
 80027b2:	b15b      	cbz	r3, 80027cc <set_old_value+0x154>
            step = 2;
 80027b4:	4b20      	ldr	r3, [pc, #128]	@ (8002838 <set_old_value+0x1c0>)
 80027b6:	2202      	movs	r2, #2
 80027b8:	601a      	str	r2, [r3, #0]
            oldValue[0] = 0;
 80027ba:	4a1d      	ldr	r2, [pc, #116]	@ (8002830 <set_old_value+0x1b8>)
 80027bc:	2300      	movs	r3, #0
 80027be:	7013      	strb	r3, [r2, #0]
            oldValue[1] = 1;
 80027c0:	2301      	movs	r3, #1
 80027c2:	7053      	strb	r3, [r2, #1]
            oldValue[2] = 1;
 80027c4:	7093      	strb	r3, [r2, #2]
            flagg = 1;
 80027c6:	4a1b      	ldr	r2, [pc, #108]	@ (8002834 <set_old_value+0x1bc>)
 80027c8:	7013      	strb	r3, [r2, #0]
 80027ca:	e77b      	b.n	80026c4 <set_old_value+0x4c>
        else if ((!hall_A && !hall_B && hall_C) &&
 80027cc:	4b15      	ldr	r3, [pc, #84]	@ (8002824 <set_old_value+0x1ac>)
 80027ce:	781b      	ldrb	r3, [r3, #0]
 80027d0:	2b00      	cmp	r3, #0
 80027d2:	f47f af77 	bne.w	80026c4 <set_old_value+0x4c>
 80027d6:	4b14      	ldr	r3, [pc, #80]	@ (8002828 <set_old_value+0x1b0>)
 80027d8:	781b      	ldrb	r3, [r3, #0]
 80027da:	2b00      	cmp	r3, #0
 80027dc:	f47f af72 	bne.w	80026c4 <set_old_value+0x4c>
 80027e0:	4b12      	ldr	r3, [pc, #72]	@ (800282c <set_old_value+0x1b4>)
 80027e2:	781b      	ldrb	r3, [r3, #0]
 80027e4:	2b00      	cmp	r3, #0
 80027e6:	f43f af6d 	beq.w	80026c4 <set_old_value+0x4c>
                 ((oldValue[0] && !oldValue[1] && oldValue[2]) || flagg)) // 001'den 101'e gei
 80027ea:	4b11      	ldr	r3, [pc, #68]	@ (8002830 <set_old_value+0x1b8>)
 80027ec:	781b      	ldrb	r3, [r3, #0]
        else if ((!hall_A && !hall_B && hall_C) &&
 80027ee:	b12b      	cbz	r3, 80027fc <set_old_value+0x184>
                 ((oldValue[0] && !oldValue[1] && oldValue[2]) || flagg)) // 001'den 101'e gei
 80027f0:	4b0f      	ldr	r3, [pc, #60]	@ (8002830 <set_old_value+0x1b8>)
 80027f2:	785b      	ldrb	r3, [r3, #1]
 80027f4:	b913      	cbnz	r3, 80027fc <set_old_value+0x184>
 80027f6:	4b0e      	ldr	r3, [pc, #56]	@ (8002830 <set_old_value+0x1b8>)
 80027f8:	789b      	ldrb	r3, [r3, #2]
 80027fa:	b923      	cbnz	r3, 8002806 <set_old_value+0x18e>
 80027fc:	4b0d      	ldr	r3, [pc, #52]	@ (8002834 <set_old_value+0x1bc>)
 80027fe:	781b      	ldrb	r3, [r3, #0]
 8002800:	2b00      	cmp	r3, #0
 8002802:	f43f af5f 	beq.w	80026c4 <set_old_value+0x4c>
            step = 3;
 8002806:	4b0c      	ldr	r3, [pc, #48]	@ (8002838 <set_old_value+0x1c0>)
 8002808:	2203      	movs	r2, #3
 800280a:	601a      	str	r2, [r3, #0]
            oldValue[0] = 0;
 800280c:	4b08      	ldr	r3, [pc, #32]	@ (8002830 <set_old_value+0x1b8>)
 800280e:	2200      	movs	r2, #0
 8002810:	701a      	strb	r2, [r3, #0]
            oldValue[1] = 0;
 8002812:	705a      	strb	r2, [r3, #1]
            oldValue[2] = 1;
 8002814:	2201      	movs	r2, #1
 8002816:	709a      	strb	r2, [r3, #2]
            flagg = 1;
 8002818:	4b06      	ldr	r3, [pc, #24]	@ (8002834 <set_old_value+0x1bc>)
 800281a:	701a      	strb	r2, [r3, #0]
 800281c:	e752      	b.n	80026c4 <set_old_value+0x4c>
 800281e:	bf00      	nop
 8002820:	20000060 	.word	0x20000060
 8002824:	2000064a 	.word	0x2000064a
 8002828:	20000649 	.word	0x20000649
 800282c:	20000648 	.word	0x20000648
 8002830:	20000670 	.word	0x20000670
 8002834:	20000061 	.word	0x20000061
 8002838:	20000644 	.word	0x20000644
        if ((hall_A && !hall_B && hall_C) && ((!oldValue[0] && !oldValue[1] && oldValue[2]) || flagg))
 800283c:	4b75      	ldr	r3, [pc, #468]	@ (8002a14 <set_old_value+0x39c>)
 800283e:	781b      	ldrb	r3, [r3, #0]
 8002840:	b30b      	cbz	r3, 8002886 <set_old_value+0x20e>
 8002842:	4b75      	ldr	r3, [pc, #468]	@ (8002a18 <set_old_value+0x3a0>)
 8002844:	781b      	ldrb	r3, [r3, #0]
 8002846:	b9f3      	cbnz	r3, 8002886 <set_old_value+0x20e>
 8002848:	4b74      	ldr	r3, [pc, #464]	@ (8002a1c <set_old_value+0x3a4>)
 800284a:	781b      	ldrb	r3, [r3, #0]
 800284c:	b1db      	cbz	r3, 8002886 <set_old_value+0x20e>
 800284e:	4b74      	ldr	r3, [pc, #464]	@ (8002a20 <set_old_value+0x3a8>)
 8002850:	781b      	ldrb	r3, [r3, #0]
 8002852:	b92b      	cbnz	r3, 8002860 <set_old_value+0x1e8>
 8002854:	4b72      	ldr	r3, [pc, #456]	@ (8002a20 <set_old_value+0x3a8>)
 8002856:	785b      	ldrb	r3, [r3, #1]
 8002858:	b913      	cbnz	r3, 8002860 <set_old_value+0x1e8>
 800285a:	4b71      	ldr	r3, [pc, #452]	@ (8002a20 <set_old_value+0x3a8>)
 800285c:	789b      	ldrb	r3, [r3, #2]
 800285e:	b913      	cbnz	r3, 8002866 <set_old_value+0x1ee>
 8002860:	4b70      	ldr	r3, [pc, #448]	@ (8002a24 <set_old_value+0x3ac>)
 8002862:	781b      	ldrb	r3, [r3, #0]
 8002864:	b17b      	cbz	r3, 8002886 <set_old_value+0x20e>
            step = 1;
 8002866:	4b70      	ldr	r3, [pc, #448]	@ (8002a28 <set_old_value+0x3b0>)
 8002868:	2201      	movs	r2, #1
 800286a:	601a      	str	r2, [r3, #0]
            if (!backEMF_mode)
 800286c:	4b6f      	ldr	r3, [pc, #444]	@ (8002a2c <set_old_value+0x3b4>)
 800286e:	781b      	ldrb	r3, [r3, #0]
 8002870:	b923      	cbnz	r3, 800287c <set_old_value+0x204>
                oldValue[0] = 1;
 8002872:	4b6b      	ldr	r3, [pc, #428]	@ (8002a20 <set_old_value+0x3a8>)
 8002874:	701a      	strb	r2, [r3, #0]
                oldValue[1] = 0;
 8002876:	2100      	movs	r1, #0
 8002878:	7059      	strb	r1, [r3, #1]
                oldValue[2] = 1;
 800287a:	709a      	strb	r2, [r3, #2]
            flagg = 1;
 800287c:	4b69      	ldr	r3, [pc, #420]	@ (8002a24 <set_old_value+0x3ac>)
 800287e:	2201      	movs	r2, #1
 8002880:	701a      	strb	r2, [r3, #0]
            log_var_analysis();
 8002882:	f7ff fa01 	bl	8001c88 <log_var_analysis>
        if ((hall_A && !hall_B && !hall_C) && ((oldValue[0] && !oldValue[1] && oldValue[2]) || flagg))
 8002886:	4b63      	ldr	r3, [pc, #396]	@ (8002a14 <set_old_value+0x39c>)
 8002888:	781b      	ldrb	r3, [r3, #0]
 800288a:	b313      	cbz	r3, 80028d2 <set_old_value+0x25a>
 800288c:	4b62      	ldr	r3, [pc, #392]	@ (8002a18 <set_old_value+0x3a0>)
 800288e:	781b      	ldrb	r3, [r3, #0]
 8002890:	b9fb      	cbnz	r3, 80028d2 <set_old_value+0x25a>
 8002892:	4b62      	ldr	r3, [pc, #392]	@ (8002a1c <set_old_value+0x3a4>)
 8002894:	781b      	ldrb	r3, [r3, #0]
 8002896:	b9e3      	cbnz	r3, 80028d2 <set_old_value+0x25a>
 8002898:	4b61      	ldr	r3, [pc, #388]	@ (8002a20 <set_old_value+0x3a8>)
 800289a:	781b      	ldrb	r3, [r3, #0]
 800289c:	b12b      	cbz	r3, 80028aa <set_old_value+0x232>
 800289e:	4b60      	ldr	r3, [pc, #384]	@ (8002a20 <set_old_value+0x3a8>)
 80028a0:	785b      	ldrb	r3, [r3, #1]
 80028a2:	b913      	cbnz	r3, 80028aa <set_old_value+0x232>
 80028a4:	4b5e      	ldr	r3, [pc, #376]	@ (8002a20 <set_old_value+0x3a8>)
 80028a6:	789b      	ldrb	r3, [r3, #2]
 80028a8:	b913      	cbnz	r3, 80028b0 <set_old_value+0x238>
 80028aa:	4b5e      	ldr	r3, [pc, #376]	@ (8002a24 <set_old_value+0x3ac>)
 80028ac:	781b      	ldrb	r3, [r3, #0]
 80028ae:	b183      	cbz	r3, 80028d2 <set_old_value+0x25a>
            step = 2;
 80028b0:	4b5d      	ldr	r3, [pc, #372]	@ (8002a28 <set_old_value+0x3b0>)
 80028b2:	2202      	movs	r2, #2
 80028b4:	601a      	str	r2, [r3, #0]
            if (!backEMF_mode)
 80028b6:	4b5d      	ldr	r3, [pc, #372]	@ (8002a2c <set_old_value+0x3b4>)
 80028b8:	781b      	ldrb	r3, [r3, #0]
 80028ba:	b92b      	cbnz	r3, 80028c8 <set_old_value+0x250>
                oldValue[0] = 1;
 80028bc:	4b58      	ldr	r3, [pc, #352]	@ (8002a20 <set_old_value+0x3a8>)
 80028be:	2201      	movs	r2, #1
 80028c0:	701a      	strb	r2, [r3, #0]
                oldValue[1] = 0;
 80028c2:	2200      	movs	r2, #0
 80028c4:	705a      	strb	r2, [r3, #1]
                oldValue[2] = 0;
 80028c6:	709a      	strb	r2, [r3, #2]
            flagg = 1;
 80028c8:	4b56      	ldr	r3, [pc, #344]	@ (8002a24 <set_old_value+0x3ac>)
 80028ca:	2201      	movs	r2, #1
 80028cc:	701a      	strb	r2, [r3, #0]
            log_var_analysis();
 80028ce:	f7ff f9db 	bl	8001c88 <log_var_analysis>
        if ((hall_A && hall_B && !hall_C) && ((oldValue[0] && !oldValue[1] && !oldValue[2]) || flagg))
 80028d2:	4b50      	ldr	r3, [pc, #320]	@ (8002a14 <set_old_value+0x39c>)
 80028d4:	781b      	ldrb	r3, [r3, #0]
 80028d6:	b313      	cbz	r3, 800291e <set_old_value+0x2a6>
 80028d8:	4b4f      	ldr	r3, [pc, #316]	@ (8002a18 <set_old_value+0x3a0>)
 80028da:	781b      	ldrb	r3, [r3, #0]
 80028dc:	b1fb      	cbz	r3, 800291e <set_old_value+0x2a6>
 80028de:	4b4f      	ldr	r3, [pc, #316]	@ (8002a1c <set_old_value+0x3a4>)
 80028e0:	781b      	ldrb	r3, [r3, #0]
 80028e2:	b9e3      	cbnz	r3, 800291e <set_old_value+0x2a6>
 80028e4:	4b4e      	ldr	r3, [pc, #312]	@ (8002a20 <set_old_value+0x3a8>)
 80028e6:	781b      	ldrb	r3, [r3, #0]
 80028e8:	b12b      	cbz	r3, 80028f6 <set_old_value+0x27e>
 80028ea:	4b4d      	ldr	r3, [pc, #308]	@ (8002a20 <set_old_value+0x3a8>)
 80028ec:	785b      	ldrb	r3, [r3, #1]
 80028ee:	b913      	cbnz	r3, 80028f6 <set_old_value+0x27e>
 80028f0:	4b4b      	ldr	r3, [pc, #300]	@ (8002a20 <set_old_value+0x3a8>)
 80028f2:	789b      	ldrb	r3, [r3, #2]
 80028f4:	b113      	cbz	r3, 80028fc <set_old_value+0x284>
 80028f6:	4b4b      	ldr	r3, [pc, #300]	@ (8002a24 <set_old_value+0x3ac>)
 80028f8:	781b      	ldrb	r3, [r3, #0]
 80028fa:	b183      	cbz	r3, 800291e <set_old_value+0x2a6>
            step = 3;
 80028fc:	4b4a      	ldr	r3, [pc, #296]	@ (8002a28 <set_old_value+0x3b0>)
 80028fe:	2203      	movs	r2, #3
 8002900:	601a      	str	r2, [r3, #0]
            if (!backEMF_mode)
 8002902:	4b4a      	ldr	r3, [pc, #296]	@ (8002a2c <set_old_value+0x3b4>)
 8002904:	781b      	ldrb	r3, [r3, #0]
 8002906:	b92b      	cbnz	r3, 8002914 <set_old_value+0x29c>
                oldValue[0] = 1;
 8002908:	4b45      	ldr	r3, [pc, #276]	@ (8002a20 <set_old_value+0x3a8>)
 800290a:	2201      	movs	r2, #1
 800290c:	701a      	strb	r2, [r3, #0]
                oldValue[1] = 1;
 800290e:	705a      	strb	r2, [r3, #1]
                oldValue[2] = 0;
 8002910:	2200      	movs	r2, #0
 8002912:	709a      	strb	r2, [r3, #2]
            flagg = 1;
 8002914:	4b43      	ldr	r3, [pc, #268]	@ (8002a24 <set_old_value+0x3ac>)
 8002916:	2201      	movs	r2, #1
 8002918:	701a      	strb	r2, [r3, #0]
            log_var_analysis();
 800291a:	f7ff f9b5 	bl	8001c88 <log_var_analysis>
        if ((!hall_A && hall_B && !hall_C) && ((oldValue[0] && oldValue[1] && !oldValue[2]) || flagg))
 800291e:	4b3d      	ldr	r3, [pc, #244]	@ (8002a14 <set_old_value+0x39c>)
 8002920:	781b      	ldrb	r3, [r3, #0]
 8002922:	bb13      	cbnz	r3, 800296a <set_old_value+0x2f2>
 8002924:	4b3c      	ldr	r3, [pc, #240]	@ (8002a18 <set_old_value+0x3a0>)
 8002926:	781b      	ldrb	r3, [r3, #0]
 8002928:	b1fb      	cbz	r3, 800296a <set_old_value+0x2f2>
 800292a:	4b3c      	ldr	r3, [pc, #240]	@ (8002a1c <set_old_value+0x3a4>)
 800292c:	781b      	ldrb	r3, [r3, #0]
 800292e:	b9e3      	cbnz	r3, 800296a <set_old_value+0x2f2>
 8002930:	4b3b      	ldr	r3, [pc, #236]	@ (8002a20 <set_old_value+0x3a8>)
 8002932:	781b      	ldrb	r3, [r3, #0]
 8002934:	b12b      	cbz	r3, 8002942 <set_old_value+0x2ca>
 8002936:	4b3a      	ldr	r3, [pc, #232]	@ (8002a20 <set_old_value+0x3a8>)
 8002938:	785b      	ldrb	r3, [r3, #1]
 800293a:	b113      	cbz	r3, 8002942 <set_old_value+0x2ca>
 800293c:	4b38      	ldr	r3, [pc, #224]	@ (8002a20 <set_old_value+0x3a8>)
 800293e:	789b      	ldrb	r3, [r3, #2]
 8002940:	b113      	cbz	r3, 8002948 <set_old_value+0x2d0>
 8002942:	4b38      	ldr	r3, [pc, #224]	@ (8002a24 <set_old_value+0x3ac>)
 8002944:	781b      	ldrb	r3, [r3, #0]
 8002946:	b183      	cbz	r3, 800296a <set_old_value+0x2f2>
            step = 4;
 8002948:	4b37      	ldr	r3, [pc, #220]	@ (8002a28 <set_old_value+0x3b0>)
 800294a:	2204      	movs	r2, #4
 800294c:	601a      	str	r2, [r3, #0]
            if (!backEMF_mode)
 800294e:	4b37      	ldr	r3, [pc, #220]	@ (8002a2c <set_old_value+0x3b4>)
 8002950:	781b      	ldrb	r3, [r3, #0]
 8002952:	b92b      	cbnz	r3, 8002960 <set_old_value+0x2e8>
                oldValue[0] = 0;
 8002954:	4b32      	ldr	r3, [pc, #200]	@ (8002a20 <set_old_value+0x3a8>)
 8002956:	2200      	movs	r2, #0
 8002958:	701a      	strb	r2, [r3, #0]
                oldValue[1] = 1;
 800295a:	2101      	movs	r1, #1
 800295c:	7059      	strb	r1, [r3, #1]
                oldValue[2] = 0;
 800295e:	709a      	strb	r2, [r3, #2]
            flagg = 1;
 8002960:	4b30      	ldr	r3, [pc, #192]	@ (8002a24 <set_old_value+0x3ac>)
 8002962:	2201      	movs	r2, #1
 8002964:	701a      	strb	r2, [r3, #0]
            log_var_analysis();
 8002966:	f7ff f98f 	bl	8001c88 <log_var_analysis>
        if ((!hall_A && hall_B && hall_C) && ((!oldValue[0] && oldValue[1] && !oldValue[2]) || flagg))
 800296a:	4b2a      	ldr	r3, [pc, #168]	@ (8002a14 <set_old_value+0x39c>)
 800296c:	781b      	ldrb	r3, [r3, #0]
 800296e:	bb13      	cbnz	r3, 80029b6 <set_old_value+0x33e>
 8002970:	4b29      	ldr	r3, [pc, #164]	@ (8002a18 <set_old_value+0x3a0>)
 8002972:	781b      	ldrb	r3, [r3, #0]
 8002974:	b1fb      	cbz	r3, 80029b6 <set_old_value+0x33e>
 8002976:	4b29      	ldr	r3, [pc, #164]	@ (8002a1c <set_old_value+0x3a4>)
 8002978:	781b      	ldrb	r3, [r3, #0]
 800297a:	b1e3      	cbz	r3, 80029b6 <set_old_value+0x33e>
 800297c:	4b28      	ldr	r3, [pc, #160]	@ (8002a20 <set_old_value+0x3a8>)
 800297e:	781b      	ldrb	r3, [r3, #0]
 8002980:	b92b      	cbnz	r3, 800298e <set_old_value+0x316>
 8002982:	4b27      	ldr	r3, [pc, #156]	@ (8002a20 <set_old_value+0x3a8>)
 8002984:	785b      	ldrb	r3, [r3, #1]
 8002986:	b113      	cbz	r3, 800298e <set_old_value+0x316>
 8002988:	4b25      	ldr	r3, [pc, #148]	@ (8002a20 <set_old_value+0x3a8>)
 800298a:	789b      	ldrb	r3, [r3, #2]
 800298c:	b113      	cbz	r3, 8002994 <set_old_value+0x31c>
 800298e:	4b25      	ldr	r3, [pc, #148]	@ (8002a24 <set_old_value+0x3ac>)
 8002990:	781b      	ldrb	r3, [r3, #0]
 8002992:	b183      	cbz	r3, 80029b6 <set_old_value+0x33e>
            step = 5;
 8002994:	4b24      	ldr	r3, [pc, #144]	@ (8002a28 <set_old_value+0x3b0>)
 8002996:	2205      	movs	r2, #5
 8002998:	601a      	str	r2, [r3, #0]
            if (!backEMF_mode)
 800299a:	4b24      	ldr	r3, [pc, #144]	@ (8002a2c <set_old_value+0x3b4>)
 800299c:	781b      	ldrb	r3, [r3, #0]
 800299e:	b92b      	cbnz	r3, 80029ac <set_old_value+0x334>
                oldValue[0] = 0;
 80029a0:	4b1f      	ldr	r3, [pc, #124]	@ (8002a20 <set_old_value+0x3a8>)
 80029a2:	2200      	movs	r2, #0
 80029a4:	701a      	strb	r2, [r3, #0]
                oldValue[1] = 1;
 80029a6:	2201      	movs	r2, #1
 80029a8:	705a      	strb	r2, [r3, #1]
                oldValue[2] = 1;
 80029aa:	709a      	strb	r2, [r3, #2]
            flagg = 1;
 80029ac:	4b1d      	ldr	r3, [pc, #116]	@ (8002a24 <set_old_value+0x3ac>)
 80029ae:	2201      	movs	r2, #1
 80029b0:	701a      	strb	r2, [r3, #0]
            log_var_analysis();
 80029b2:	f7ff f969 	bl	8001c88 <log_var_analysis>
        if ((!hall_A && !hall_B && hall_C) && ((!oldValue[0] && oldValue[1] && oldValue[2]) || flagg))
 80029b6:	4b17      	ldr	r3, [pc, #92]	@ (8002a14 <set_old_value+0x39c>)
 80029b8:	781b      	ldrb	r3, [r3, #0]
 80029ba:	2b00      	cmp	r3, #0
 80029bc:	f47f ae82 	bne.w	80026c4 <set_old_value+0x4c>
 80029c0:	4b15      	ldr	r3, [pc, #84]	@ (8002a18 <set_old_value+0x3a0>)
 80029c2:	781b      	ldrb	r3, [r3, #0]
 80029c4:	2b00      	cmp	r3, #0
 80029c6:	f47f ae7d 	bne.w	80026c4 <set_old_value+0x4c>
 80029ca:	4b14      	ldr	r3, [pc, #80]	@ (8002a1c <set_old_value+0x3a4>)
 80029cc:	781b      	ldrb	r3, [r3, #0]
 80029ce:	2b00      	cmp	r3, #0
 80029d0:	f43f ae78 	beq.w	80026c4 <set_old_value+0x4c>
 80029d4:	4b12      	ldr	r3, [pc, #72]	@ (8002a20 <set_old_value+0x3a8>)
 80029d6:	781b      	ldrb	r3, [r3, #0]
 80029d8:	b92b      	cbnz	r3, 80029e6 <set_old_value+0x36e>
 80029da:	4b11      	ldr	r3, [pc, #68]	@ (8002a20 <set_old_value+0x3a8>)
 80029dc:	785b      	ldrb	r3, [r3, #1]
 80029de:	b113      	cbz	r3, 80029e6 <set_old_value+0x36e>
 80029e0:	4b0f      	ldr	r3, [pc, #60]	@ (8002a20 <set_old_value+0x3a8>)
 80029e2:	789b      	ldrb	r3, [r3, #2]
 80029e4:	b923      	cbnz	r3, 80029f0 <set_old_value+0x378>
 80029e6:	4b0f      	ldr	r3, [pc, #60]	@ (8002a24 <set_old_value+0x3ac>)
 80029e8:	781b      	ldrb	r3, [r3, #0]
 80029ea:	2b00      	cmp	r3, #0
 80029ec:	f43f ae6a 	beq.w	80026c4 <set_old_value+0x4c>
            step = 6;
 80029f0:	4b0d      	ldr	r3, [pc, #52]	@ (8002a28 <set_old_value+0x3b0>)
 80029f2:	2206      	movs	r2, #6
 80029f4:	601a      	str	r2, [r3, #0]
            if (!backEMF_mode)
 80029f6:	4b0d      	ldr	r3, [pc, #52]	@ (8002a2c <set_old_value+0x3b4>)
 80029f8:	781b      	ldrb	r3, [r3, #0]
 80029fa:	b92b      	cbnz	r3, 8002a08 <set_old_value+0x390>
                oldValue[0] = 0;
 80029fc:	4b08      	ldr	r3, [pc, #32]	@ (8002a20 <set_old_value+0x3a8>)
 80029fe:	2200      	movs	r2, #0
 8002a00:	701a      	strb	r2, [r3, #0]
                oldValue[1] = 0;
 8002a02:	705a      	strb	r2, [r3, #1]
                oldValue[2] = 1;
 8002a04:	2201      	movs	r2, #1
 8002a06:	709a      	strb	r2, [r3, #2]
            flagg = 1;
 8002a08:	4b06      	ldr	r3, [pc, #24]	@ (8002a24 <set_old_value+0x3ac>)
 8002a0a:	2201      	movs	r2, #1
 8002a0c:	701a      	strb	r2, [r3, #0]
            log_var_analysis();
 8002a0e:	f7ff f93b 	bl	8001c88 <log_var_analysis>
}
 8002a12:	e657      	b.n	80026c4 <set_old_value+0x4c>
 8002a14:	2000064a 	.word	0x2000064a
 8002a18:	20000649 	.word	0x20000649
 8002a1c:	20000648 	.word	0x20000648
 8002a20:	20000670 	.word	0x20000670
 8002a24:	20000061 	.word	0x20000061
 8002a28:	20000644 	.word	0x20000644
 8002a2c:	200005d0 	.word	0x200005d0

08002a30 <get_rpm>:
uint16_t filtered_rpm = 0;
uint32_t tim4Counter = 0;

uint16_t get_rpm(int32_t _difference_two_coummutation_time)
{
    if (_difference_two_coummutation_time == -1)
 8002a30:	f1b0 3fff 	cmp.w	r0, #4294967295	@ 0xffffffff
 8002a34:	d059      	beq.n	8002aea <get_rpm+0xba>
    {
        return 0;
    }
    rpm_sampling_array[array_index++] = _difference_two_coummutation_time;
 8002a36:	492e      	ldr	r1, [pc, #184]	@ (8002af0 <get_rpm+0xc0>)
 8002a38:	780a      	ldrb	r2, [r1, #0]
 8002a3a:	1c53      	adds	r3, r2, #1
 8002a3c:	b2db      	uxtb	r3, r3
 8002a3e:	700b      	strb	r3, [r1, #0]
 8002a40:	492c      	ldr	r1, [pc, #176]	@ (8002af4 <get_rpm+0xc4>)
 8002a42:	f841 0022 	str.w	r0, [r1, r2, lsl #2]

    if (array_index == 6)
 8002a46:	2b06      	cmp	r3, #6
 8002a48:	d001      	beq.n	8002a4e <get_rpm+0x1e>
    {
        array_index = 0;
    }

    uint32_t sum = 0;
    for (uint8_t i = 0; i < first_filterless_count; i++)
 8002a4a:	2300      	movs	r3, #0
 8002a4c:	e005      	b.n	8002a5a <get_rpm+0x2a>
        array_index = 0;
 8002a4e:	4b28      	ldr	r3, [pc, #160]	@ (8002af0 <get_rpm+0xc0>)
 8002a50:	2200      	movs	r2, #0
 8002a52:	701a      	strb	r2, [r3, #0]
 8002a54:	e7f9      	b.n	8002a4a <get_rpm+0x1a>
    for (uint8_t i = 0; i < first_filterless_count; i++)
 8002a56:	3301      	adds	r3, #1
 8002a58:	b2db      	uxtb	r3, r3
 8002a5a:	4a27      	ldr	r2, [pc, #156]	@ (8002af8 <get_rpm+0xc8>)
 8002a5c:	7812      	ldrb	r2, [r2, #0]
 8002a5e:	429a      	cmp	r2, r3
 8002a60:	d8f9      	bhi.n	8002a56 <get_rpm+0x26>
    {
        sum += rpm_sampling_array[i];
    }

    if (first_filterless_count < 6)
 8002a62:	2a05      	cmp	r2, #5
 8002a64:	d82e      	bhi.n	8002ac4 <get_rpm+0x94>
    {
        filtered_rpm = rpm_sampling_array[first_filterless_count++];
 8002a66:	1c51      	adds	r1, r2, #1
 8002a68:	4b23      	ldr	r3, [pc, #140]	@ (8002af8 <get_rpm+0xc8>)
 8002a6a:	7019      	strb	r1, [r3, #0]
 8002a6c:	4b21      	ldr	r3, [pc, #132]	@ (8002af4 <get_rpm+0xc4>)
 8002a6e:	f853 2022 	ldr.w	r2, [r3, r2, lsl #2]
 8002a72:	4b22      	ldr	r3, [pc, #136]	@ (8002afc <get_rpm+0xcc>)
 8002a74:	801a      	strh	r2, [r3, #0]
        filtered_rpm = (rpm_sampling_array[0] + rpm_sampling_array[1] + rpm_sampling_array[2] +
                        rpm_sampling_array[3] + rpm_sampling_array[4] + rpm_sampling_array[5]) /
                       6; // x microsecond / 10
    }

    if (filtered_rpm == 0)
 8002a76:	4b21      	ldr	r3, [pc, #132]	@ (8002afc <get_rpm+0xcc>)
 8002a78:	8818      	ldrh	r0, [r3, #0]
 8002a7a:	2800      	cmp	r0, #0
 8002a7c:	d036      	beq.n	8002aec <get_rpm+0xbc>
    {
        return 0;
    }

    filtered_rpm = (TIMER_SETTING / (filtered_rpm * COMMUTATIONS_PER_REVOLUTION));
 8002a7e:	eb00 0040 	add.w	r0, r0, r0, lsl #1
 8002a82:	00c0      	lsls	r0, r0, #3
 8002a84:	4b1e      	ldr	r3, [pc, #120]	@ (8002b00 <get_rpm+0xd0>)
 8002a86:	fb93 f3f0 	sdiv	r3, r3, r0
 8002a8a:	b298      	uxth	r0, r3
 8002a8c:	4b1b      	ldr	r3, [pc, #108]	@ (8002afc <get_rpm+0xcc>)
 8002a8e:	8018      	strh	r0, [r3, #0]
    if (filtered_rpm > 1450)
 8002a90:	f240 53aa 	movw	r3, #1450	@ 0x5aa
 8002a94:	4298      	cmp	r0, r3
 8002a96:	d902      	bls.n	8002a9e <get_rpm+0x6e>
        rpm_max_limit_flag = 0;
 8002a98:	4b1a      	ldr	r3, [pc, #104]	@ (8002b04 <get_rpm+0xd4>)
 8002a9a:	2200      	movs	r2, #0
 8002a9c:	801a      	strh	r2, [r3, #0]

    if (filtered_rpm > 1000)
 8002a9e:	f5b0 7f7a 	cmp.w	r0, #1000	@ 0x3e8
 8002aa2:	d905      	bls.n	8002ab0 <get_rpm+0x80>
    {
        if (backEMF_mode == 0)
 8002aa4:	4b18      	ldr	r3, [pc, #96]	@ (8002b08 <get_rpm+0xd8>)
 8002aa6:	781b      	ldrb	r3, [r3, #0]
 8002aa8:	b913      	cbnz	r3, 8002ab0 <get_rpm+0x80>
        {
            backEMF_mode = 1;
 8002aaa:	4b17      	ldr	r3, [pc, #92]	@ (8002b08 <get_rpm+0xd8>)
 8002aac:	2201      	movs	r2, #1
 8002aae:	701a      	strb	r2, [r3, #0]
        }
    }
    if (filtered_rpm < 700)
 8002ab0:	f5b0 7f2f 	cmp.w	r0, #700	@ 0x2bc
 8002ab4:	d21a      	bcs.n	8002aec <get_rpm+0xbc>
    {
        backEMF_mode = 0;
 8002ab6:	4b14      	ldr	r3, [pc, #80]	@ (8002b08 <get_rpm+0xd8>)
 8002ab8:	2200      	movs	r2, #0
 8002aba:	701a      	strb	r2, [r3, #0]
        bemf_execute_flag = 1;
 8002abc:	4b13      	ldr	r3, [pc, #76]	@ (8002b0c <get_rpm+0xdc>)
 8002abe:	2201      	movs	r2, #1
 8002ac0:	701a      	strb	r2, [r3, #0]
 8002ac2:	4770      	bx	lr
        filtered_rpm = (rpm_sampling_array[0] + rpm_sampling_array[1] + rpm_sampling_array[2] +
 8002ac4:	4a0b      	ldr	r2, [pc, #44]	@ (8002af4 <get_rpm+0xc4>)
 8002ac6:	6813      	ldr	r3, [r2, #0]
 8002ac8:	6851      	ldr	r1, [r2, #4]
 8002aca:	440b      	add	r3, r1
 8002acc:	6891      	ldr	r1, [r2, #8]
 8002ace:	440b      	add	r3, r1
                        rpm_sampling_array[3] + rpm_sampling_array[4] + rpm_sampling_array[5]) /
 8002ad0:	68d1      	ldr	r1, [r2, #12]
        filtered_rpm = (rpm_sampling_array[0] + rpm_sampling_array[1] + rpm_sampling_array[2] +
 8002ad2:	440b      	add	r3, r1
                        rpm_sampling_array[3] + rpm_sampling_array[4] + rpm_sampling_array[5]) /
 8002ad4:	6911      	ldr	r1, [r2, #16]
 8002ad6:	440b      	add	r3, r1
 8002ad8:	6952      	ldr	r2, [r2, #20]
 8002ada:	4413      	add	r3, r2
 8002adc:	4a0c      	ldr	r2, [pc, #48]	@ (8002b10 <get_rpm+0xe0>)
 8002ade:	fba2 2303 	umull	r2, r3, r2, r3
 8002ae2:	089b      	lsrs	r3, r3, #2
        filtered_rpm = (rpm_sampling_array[0] + rpm_sampling_array[1] + rpm_sampling_array[2] +
 8002ae4:	4a05      	ldr	r2, [pc, #20]	@ (8002afc <get_rpm+0xcc>)
 8002ae6:	8013      	strh	r3, [r2, #0]
 8002ae8:	e7c5      	b.n	8002a76 <get_rpm+0x46>
        return 0;
 8002aea:	2000      	movs	r0, #0
    }

    return filtered_rpm;
}
 8002aec:	4770      	bx	lr
 8002aee:	bf00      	nop
 8002af0:	2000067b 	.word	0x2000067b
 8002af4:	2000067c 	.word	0x2000067c
 8002af8:	2000067a 	.word	0x2000067a
 8002afc:	20000678 	.word	0x20000678
 8002b00:	005b8d80 	.word	0x005b8d80
 8002b04:	20000052 	.word	0x20000052
 8002b08:	200005d0 	.word	0x200005d0
 8002b0c:	20000050 	.word	0x20000050
 8002b10:	aaaaaaab 	.word	0xaaaaaaab

08002b14 <HAL_TIM_PeriodElapsedCallback>:

void HAL_TIM_PeriodElapsedCallback(TIM_HandleTypeDef *htim)
{
 8002b14:	b510      	push	{r4, lr}
 8002b16:	4604      	mov	r4, r0

    if (htim->Instance == TIM2)
 8002b18:	6803      	ldr	r3, [r0, #0]
 8002b1a:	f1b3 4f80 	cmp.w	r3, #1073741824	@ 0x40000000
 8002b1e:	d008      	beq.n	8002b32 <HAL_TIM_PeriodElapsedCallback+0x1e>
    {
        rpm = 0;
    }

    if (htim->Instance == TIM3)
 8002b20:	6822      	ldr	r2, [r4, #0]
 8002b22:	4b0d      	ldr	r3, [pc, #52]	@ (8002b58 <HAL_TIM_PeriodElapsedCallback+0x44>)
 8002b24:	429a      	cmp	r2, r3
 8002b26:	d008      	beq.n	8002b3a <HAL_TIM_PeriodElapsedCallback+0x26>
        // uint16_t a = intersection_interval;
        // LOG_VAR(a);
        HAL_TIM_Base_Stop_IT(&htim3);
    }

    if (htim->Instance == TIM4)
 8002b28:	6822      	ldr	r2, [r4, #0]
 8002b2a:	4b0c      	ldr	r3, [pc, #48]	@ (8002b5c <HAL_TIM_PeriodElapsedCallback+0x48>)
 8002b2c:	429a      	cmp	r2, r3
 8002b2e:	d00e      	beq.n	8002b4e <HAL_TIM_PeriodElapsedCallback+0x3a>
    {
        tim4Counter++;
    }
}
 8002b30:	bd10      	pop	{r4, pc}
        rpm = 0;
 8002b32:	4b0b      	ldr	r3, [pc, #44]	@ (8002b60 <HAL_TIM_PeriodElapsedCallback+0x4c>)
 8002b34:	2200      	movs	r2, #0
 8002b36:	601a      	str	r2, [r3, #0]
 8002b38:	e7f2      	b.n	8002b20 <HAL_TIM_PeriodElapsedCallback+0xc>
        if (backEMF_mode)
 8002b3a:	4b0a      	ldr	r3, [pc, #40]	@ (8002b64 <HAL_TIM_PeriodElapsedCallback+0x50>)
 8002b3c:	781b      	ldrb	r3, [r3, #0]
 8002b3e:	b91b      	cbnz	r3, 8002b48 <HAL_TIM_PeriodElapsedCallback+0x34>
        HAL_TIM_Base_Stop_IT(&htim3);
 8002b40:	4809      	ldr	r0, [pc, #36]	@ (8002b68 <HAL_TIM_PeriodElapsedCallback+0x54>)
 8002b42:	f002 facd 	bl	80050e0 <HAL_TIM_Base_Stop_IT>
 8002b46:	e7ef      	b.n	8002b28 <HAL_TIM_PeriodElapsedCallback+0x14>
            abc();
 8002b48:	f7ff f804 	bl	8001b54 <abc>
 8002b4c:	e7f8      	b.n	8002b40 <HAL_TIM_PeriodElapsedCallback+0x2c>
        tim4Counter++;
 8002b4e:	4a07      	ldr	r2, [pc, #28]	@ (8002b6c <HAL_TIM_PeriodElapsedCallback+0x58>)
 8002b50:	6813      	ldr	r3, [r2, #0]
 8002b52:	3301      	adds	r3, #1
 8002b54:	6013      	str	r3, [r2, #0]
}
 8002b56:	e7eb      	b.n	8002b30 <HAL_TIM_PeriodElapsedCallback+0x1c>
 8002b58:	40000400 	.word	0x40000400
 8002b5c:	40000800 	.word	0x40000800
 8002b60:	2000062c 	.word	0x2000062c
 8002b64:	200005d0 	.word	0x200005d0
 8002b68:	200006e4 	.word	0x200006e4
 8002b6c:	20000674 	.word	0x20000674

08002b70 <execute_step>:

#include "steps.h"

void execute_step(uint8_t _step)
{
 8002b70:	b508      	push	{r3, lr}
    if (run_status)
 8002b72:	4b37      	ldr	r3, [pc, #220]	@ (8002c50 <execute_step+0xe0>)
 8002b74:	781b      	ldrb	r3, [r3, #0]
 8002b76:	b1b3      	cbz	r3, 8002ba6 <execute_step+0x36>
    {
        switch (_step)
 8002b78:	3801      	subs	r0, #1
 8002b7a:	2805      	cmp	r0, #5
 8002b7c:	d813      	bhi.n	8002ba6 <execute_step+0x36>
 8002b7e:	e8df f000 	tbb	[pc, r0]
 8002b82:	1303      	.short	0x1303
 8002b84:	56453524 	.word	0x56453524
        {
        case 1:
            __HAL_TIM_SET_COMPARE(&htim1, TIM_CHANNEL_3, 0);
 8002b88:	4b32      	ldr	r3, [pc, #200]	@ (8002c54 <execute_step+0xe4>)
 8002b8a:	681b      	ldr	r3, [r3, #0]
 8002b8c:	2200      	movs	r2, #0
 8002b8e:	63da      	str	r2, [r3, #60]	@ 0x3c
            __HAL_TIM_SET_COMPARE(&htim1, TIM_CHANNEL_2, 0);
 8002b90:	639a      	str	r2, [r3, #56]	@ 0x38
            TIM1->CCER = 0x00C5;
 8002b92:	4a31      	ldr	r2, [pc, #196]	@ (8002c58 <execute_step+0xe8>)
 8002b94:	21c5      	movs	r1, #197	@ 0xc5
 8002b96:	6211      	str	r1, [r2, #32]
            __HAL_TIM_SET_COMPARE(&htim1, TIM_CHANNEL_1, pwm_value);
 8002b98:	4a30      	ldr	r2, [pc, #192]	@ (8002c5c <execute_step+0xec>)
 8002b9a:	6812      	ldr	r2, [r2, #0]
 8002b9c:	635a      	str	r2, [r3, #52]	@ 0x34
            previousTime2 = HAL_GetTick();
 8002b9e:	f000 f8a5 	bl	8002cec <HAL_GetTick>
 8002ba2:	4b2f      	ldr	r3, [pc, #188]	@ (8002c60 <execute_step+0xf0>)
 8002ba4:	6018      	str	r0, [r3, #0]
            __HAL_TIM_SET_COMPARE(&htim1, TIM_CHANNEL_3, pwm_value);
            previousTime2 = HAL_GetTick();
            break;
        }
    }
 8002ba6:	bd08      	pop	{r3, pc}
            __HAL_TIM_SET_COMPARE(&htim1, TIM_CHANNEL_3, 0);
 8002ba8:	4b2a      	ldr	r3, [pc, #168]	@ (8002c54 <execute_step+0xe4>)
 8002baa:	681b      	ldr	r3, [r3, #0]
 8002bac:	2200      	movs	r2, #0
 8002bae:	63da      	str	r2, [r3, #60]	@ 0x3c
            __HAL_TIM_SET_COMPARE(&htim1, TIM_CHANNEL_2, 0);
 8002bb0:	639a      	str	r2, [r3, #56]	@ 0x38
            TIM1->CCER = 0x0C05;
 8002bb2:	4a29      	ldr	r2, [pc, #164]	@ (8002c58 <execute_step+0xe8>)
 8002bb4:	f640 4105 	movw	r1, #3077	@ 0xc05
 8002bb8:	6211      	str	r1, [r2, #32]
            __HAL_TIM_SET_COMPARE(&htim1, TIM_CHANNEL_1, pwm_value);
 8002bba:	4a28      	ldr	r2, [pc, #160]	@ (8002c5c <execute_step+0xec>)
 8002bbc:	6812      	ldr	r2, [r2, #0]
 8002bbe:	635a      	str	r2, [r3, #52]	@ 0x34
            previousTime2 = HAL_GetTick();
 8002bc0:	f000 f894 	bl	8002cec <HAL_GetTick>
 8002bc4:	4b26      	ldr	r3, [pc, #152]	@ (8002c60 <execute_step+0xf0>)
 8002bc6:	6018      	str	r0, [r3, #0]
            break;
 8002bc8:	e7ed      	b.n	8002ba6 <execute_step+0x36>
            __HAL_TIM_SET_COMPARE(&htim1, TIM_CHANNEL_1, 0);
 8002bca:	4b22      	ldr	r3, [pc, #136]	@ (8002c54 <execute_step+0xe4>)
 8002bcc:	681b      	ldr	r3, [r3, #0]
 8002bce:	2200      	movs	r2, #0
 8002bd0:	635a      	str	r2, [r3, #52]	@ 0x34
            __HAL_TIM_SET_COMPARE(&htim1, TIM_CHANNEL_3, 0);
 8002bd2:	63da      	str	r2, [r3, #60]	@ 0x3c
            TIM1->CCER = 0x0C50;
 8002bd4:	4a20      	ldr	r2, [pc, #128]	@ (8002c58 <execute_step+0xe8>)
 8002bd6:	f44f 6145 	mov.w	r1, #3152	@ 0xc50
 8002bda:	6211      	str	r1, [r2, #32]
            __HAL_TIM_SET_COMPARE(&htim1, TIM_CHANNEL_2, pwm_value);
 8002bdc:	4a1f      	ldr	r2, [pc, #124]	@ (8002c5c <execute_step+0xec>)
 8002bde:	6812      	ldr	r2, [r2, #0]
 8002be0:	639a      	str	r2, [r3, #56]	@ 0x38
            previousTime2 = HAL_GetTick();
 8002be2:	f000 f883 	bl	8002cec <HAL_GetTick>
 8002be6:	4b1e      	ldr	r3, [pc, #120]	@ (8002c60 <execute_step+0xf0>)
 8002be8:	6018      	str	r0, [r3, #0]
            break;
 8002bea:	e7dc      	b.n	8002ba6 <execute_step+0x36>
            __HAL_TIM_SET_COMPARE(&htim1, TIM_CHANNEL_1, 0);
 8002bec:	4b19      	ldr	r3, [pc, #100]	@ (8002c54 <execute_step+0xe4>)
 8002bee:	681b      	ldr	r3, [r3, #0]
 8002bf0:	2200      	movs	r2, #0
 8002bf2:	635a      	str	r2, [r3, #52]	@ 0x34
            __HAL_TIM_SET_COMPARE(&htim1, TIM_CHANNEL_3, 0);
 8002bf4:	63da      	str	r2, [r3, #60]	@ 0x3c
            TIM1->CCER = 0x005C;
 8002bf6:	4a18      	ldr	r2, [pc, #96]	@ (8002c58 <execute_step+0xe8>)
 8002bf8:	215c      	movs	r1, #92	@ 0x5c
 8002bfa:	6211      	str	r1, [r2, #32]
            __HAL_TIM_SET_COMPARE(&htim1, TIM_CHANNEL_2, pwm_value);
 8002bfc:	4a17      	ldr	r2, [pc, #92]	@ (8002c5c <execute_step+0xec>)
 8002bfe:	6812      	ldr	r2, [r2, #0]
 8002c00:	639a      	str	r2, [r3, #56]	@ 0x38
            previousTime2 = HAL_GetTick();
 8002c02:	f000 f873 	bl	8002cec <HAL_GetTick>
 8002c06:	4b16      	ldr	r3, [pc, #88]	@ (8002c60 <execute_step+0xf0>)
 8002c08:	6018      	str	r0, [r3, #0]
            break;
 8002c0a:	e7cc      	b.n	8002ba6 <execute_step+0x36>
            __HAL_TIM_SET_COMPARE(&htim1, TIM_CHANNEL_1, 0);
 8002c0c:	4b11      	ldr	r3, [pc, #68]	@ (8002c54 <execute_step+0xe4>)
 8002c0e:	681b      	ldr	r3, [r3, #0]
 8002c10:	2200      	movs	r2, #0
 8002c12:	635a      	str	r2, [r3, #52]	@ 0x34
            __HAL_TIM_SET_COMPARE(&htim1, TIM_CHANNEL_2, 0);
 8002c14:	639a      	str	r2, [r3, #56]	@ 0x38
            TIM1->CCER = 0x050C;
 8002c16:	4a10      	ldr	r2, [pc, #64]	@ (8002c58 <execute_step+0xe8>)
 8002c18:	f240 510c 	movw	r1, #1292	@ 0x50c
 8002c1c:	6211      	str	r1, [r2, #32]
            __HAL_TIM_SET_COMPARE(&htim1, TIM_CHANNEL_3, pwm_value);
 8002c1e:	4a0f      	ldr	r2, [pc, #60]	@ (8002c5c <execute_step+0xec>)
 8002c20:	6812      	ldr	r2, [r2, #0]
 8002c22:	63da      	str	r2, [r3, #60]	@ 0x3c
            previousTime2 = HAL_GetTick();
 8002c24:	f000 f862 	bl	8002cec <HAL_GetTick>
 8002c28:	4b0d      	ldr	r3, [pc, #52]	@ (8002c60 <execute_step+0xf0>)
 8002c2a:	6018      	str	r0, [r3, #0]
            break;
 8002c2c:	e7bb      	b.n	8002ba6 <execute_step+0x36>
            __HAL_TIM_SET_COMPARE(&htim1, TIM_CHANNEL_1, 0);
 8002c2e:	4b09      	ldr	r3, [pc, #36]	@ (8002c54 <execute_step+0xe4>)
 8002c30:	681b      	ldr	r3, [r3, #0]
 8002c32:	2200      	movs	r2, #0
 8002c34:	635a      	str	r2, [r3, #52]	@ 0x34
            __HAL_TIM_SET_COMPARE(&htim1, TIM_CHANNEL_2, 0);
 8002c36:	639a      	str	r2, [r3, #56]	@ 0x38
            TIM1->CCER = 0x05C0;
 8002c38:	4a07      	ldr	r2, [pc, #28]	@ (8002c58 <execute_step+0xe8>)
 8002c3a:	f44f 61b8 	mov.w	r1, #1472	@ 0x5c0
 8002c3e:	6211      	str	r1, [r2, #32]
            __HAL_TIM_SET_COMPARE(&htim1, TIM_CHANNEL_3, pwm_value);
 8002c40:	4a06      	ldr	r2, [pc, #24]	@ (8002c5c <execute_step+0xec>)
 8002c42:	6812      	ldr	r2, [r2, #0]
 8002c44:	63da      	str	r2, [r3, #60]	@ 0x3c
            previousTime2 = HAL_GetTick();
 8002c46:	f000 f851 	bl	8002cec <HAL_GetTick>
 8002c4a:	4b05      	ldr	r3, [pc, #20]	@ (8002c60 <execute_step+0xf0>)
 8002c4c:	6018      	str	r0, [r3, #0]
 8002c4e:	e7aa      	b.n	8002ba6 <execute_step+0x36>
 8002c50:	2000064b 	.word	0x2000064b
 8002c54:	20000774 	.word	0x20000774
 8002c58:	40012c00 	.word	0x40012c00
 8002c5c:	20000640 	.word	0x20000640
 8002c60:	2000063c 	.word	0x2000063c

08002c64 <HAL_InitTick>:
  *       implementation  in user file.
  * @param TickPriority Tick interrupt priority.
  * @retval HAL status
  */
__weak HAL_StatusTypeDef HAL_InitTick(uint32_t TickPriority)
{
 8002c64:	b510      	push	{r4, lr}
 8002c66:	4604      	mov	r4, r0
  /* Configure the SysTick to have interrupt in 1ms time basis*/
  if (HAL_SYSTICK_Config(SystemCoreClock / (1000U / uwTickFreq)) > 0U)
 8002c68:	4b0e      	ldr	r3, [pc, #56]	@ (8002ca4 <HAL_InitTick+0x40>)
 8002c6a:	781a      	ldrb	r2, [r3, #0]
 8002c6c:	f44f 737a 	mov.w	r3, #1000	@ 0x3e8
 8002c70:	fbb3 f3f2 	udiv	r3, r3, r2
 8002c74:	4a0c      	ldr	r2, [pc, #48]	@ (8002ca8 <HAL_InitTick+0x44>)
 8002c76:	6810      	ldr	r0, [r2, #0]
 8002c78:	fbb0 f0f3 	udiv	r0, r0, r3
 8002c7c:	f000 fb1e 	bl	80032bc <HAL_SYSTICK_Config>
 8002c80:	b968      	cbnz	r0, 8002c9e <HAL_InitTick+0x3a>
  {
    return HAL_ERROR;
  }

  /* Configure the SysTick IRQ priority */
  if (TickPriority < (1UL << __NVIC_PRIO_BITS))
 8002c82:	2c0f      	cmp	r4, #15
 8002c84:	d901      	bls.n	8002c8a <HAL_InitTick+0x26>
    HAL_NVIC_SetPriority(SysTick_IRQn, TickPriority, 0U);
    uwTickPrio = TickPriority;
  }
  else
  {
    return HAL_ERROR;
 8002c86:	2001      	movs	r0, #1
 8002c88:	e00a      	b.n	8002ca0 <HAL_InitTick+0x3c>
    HAL_NVIC_SetPriority(SysTick_IRQn, TickPriority, 0U);
 8002c8a:	2200      	movs	r2, #0
 8002c8c:	4621      	mov	r1, r4
 8002c8e:	f04f 30ff 	mov.w	r0, #4294967295	@ 0xffffffff
 8002c92:	f000 faf5 	bl	8003280 <HAL_NVIC_SetPriority>
    uwTickPrio = TickPriority;
 8002c96:	4b05      	ldr	r3, [pc, #20]	@ (8002cac <HAL_InitTick+0x48>)
 8002c98:	601c      	str	r4, [r3, #0]
  }

  /* Return function status */
  return HAL_OK;
 8002c9a:	2000      	movs	r0, #0
 8002c9c:	e000      	b.n	8002ca0 <HAL_InitTick+0x3c>
    return HAL_ERROR;
 8002c9e:	2001      	movs	r0, #1
}
 8002ca0:	bd10      	pop	{r4, pc}
 8002ca2:	bf00      	nop
 8002ca4:	20000064 	.word	0x20000064
 8002ca8:	2000006c 	.word	0x2000006c
 8002cac:	20000068 	.word	0x20000068

08002cb0 <HAL_Init>:
{
 8002cb0:	b508      	push	{r3, lr}
  __HAL_FLASH_PREFETCH_BUFFER_ENABLE();
 8002cb2:	4a07      	ldr	r2, [pc, #28]	@ (8002cd0 <HAL_Init+0x20>)
 8002cb4:	6813      	ldr	r3, [r2, #0]
 8002cb6:	f043 0310 	orr.w	r3, r3, #16
 8002cba:	6013      	str	r3, [r2, #0]
  HAL_NVIC_SetPriorityGrouping(NVIC_PRIORITYGROUP_4);
 8002cbc:	2003      	movs	r0, #3
 8002cbe:	f000 facd 	bl	800325c <HAL_NVIC_SetPriorityGrouping>
  HAL_InitTick(TICK_INT_PRIORITY);
 8002cc2:	200f      	movs	r0, #15
 8002cc4:	f7ff ffce 	bl	8002c64 <HAL_InitTick>
  HAL_MspInit();
 8002cc8:	f000 fd5e 	bl	8003788 <HAL_MspInit>
}
 8002ccc:	2000      	movs	r0, #0
 8002cce:	bd08      	pop	{r3, pc}
 8002cd0:	40022000 	.word	0x40022000

08002cd4 <HAL_IncTick>:
  *      implementations in user file.
  * @retval None
  */
__weak void HAL_IncTick(void)
{
  uwTick += uwTickFreq;
 8002cd4:	4a03      	ldr	r2, [pc, #12]	@ (8002ce4 <HAL_IncTick+0x10>)
 8002cd6:	6811      	ldr	r1, [r2, #0]
 8002cd8:	4b03      	ldr	r3, [pc, #12]	@ (8002ce8 <HAL_IncTick+0x14>)
 8002cda:	781b      	ldrb	r3, [r3, #0]
 8002cdc:	440b      	add	r3, r1
 8002cde:	6013      	str	r3, [r2, #0]
}
 8002ce0:	4770      	bx	lr
 8002ce2:	bf00      	nop
 8002ce4:	20000694 	.word	0x20000694
 8002ce8:	20000064 	.word	0x20000064

08002cec <HAL_GetTick>:
  *       implementations in user file.
  * @retval tick value
  */
__weak uint32_t HAL_GetTick(void)
{
  return uwTick;
 8002cec:	4b01      	ldr	r3, [pc, #4]	@ (8002cf4 <HAL_GetTick+0x8>)
 8002cee:	6818      	ldr	r0, [r3, #0]
}
 8002cf0:	4770      	bx	lr
 8002cf2:	bf00      	nop
 8002cf4:	20000694 	.word	0x20000694

08002cf8 <HAL_Delay>:
  *       implementations in user file.
  * @param Delay specifies the delay time length, in milliseconds.
  * @retval None
  */
__weak void HAL_Delay(uint32_t Delay)
{
 8002cf8:	b538      	push	{r3, r4, r5, lr}
 8002cfa:	4604      	mov	r4, r0
  uint32_t tickstart = HAL_GetTick();
 8002cfc:	f7ff fff6 	bl	8002cec <HAL_GetTick>
 8002d00:	4605      	mov	r5, r0
  uint32_t wait = Delay;

  /* Add a freq to guarantee minimum wait */
  if (wait < HAL_MAX_DELAY)
 8002d02:	f1b4 3fff 	cmp.w	r4, #4294967295	@ 0xffffffff
 8002d06:	d002      	beq.n	8002d0e <HAL_Delay+0x16>
  {
    wait += (uint32_t)(uwTickFreq);
 8002d08:	4b04      	ldr	r3, [pc, #16]	@ (8002d1c <HAL_Delay+0x24>)
 8002d0a:	781b      	ldrb	r3, [r3, #0]
 8002d0c:	441c      	add	r4, r3
  }

  while ((HAL_GetTick() - tickstart) < wait)
 8002d0e:	f7ff ffed 	bl	8002cec <HAL_GetTick>
 8002d12:	1b40      	subs	r0, r0, r5
 8002d14:	42a0      	cmp	r0, r4
 8002d16:	d3fa      	bcc.n	8002d0e <HAL_Delay+0x16>
  {
  }
}
 8002d18:	bd38      	pop	{r3, r4, r5, pc}
 8002d1a:	bf00      	nop
 8002d1c:	20000064 	.word	0x20000064

08002d20 <ADC_DMAConvCplt>:
  * @brief  DMA transfer complete callback. 
  * @param  hdma: pointer to DMA handle.
  * @retval None
  */
void ADC_DMAConvCplt(DMA_HandleTypeDef *hdma)
{
 8002d20:	b508      	push	{r3, lr}
  /* Retrieve ADC handle corresponding to current DMA handle */
  ADC_HandleTypeDef* hadc = ( ADC_HandleTypeDef* )((DMA_HandleTypeDef* )hdma)->Parent;
 8002d22:	6a43      	ldr	r3, [r0, #36]	@ 0x24
 
  /* Update state machine on conversion status if not in error state */
  if (HAL_IS_BIT_CLR(hadc->State, HAL_ADC_STATE_ERROR_INTERNAL | HAL_ADC_STATE_ERROR_DMA))
 8002d24:	6a9a      	ldr	r2, [r3, #40]	@ 0x28
 8002d26:	f012 0f50 	tst.w	r2, #80	@ 0x50
 8002d2a:	d11e      	bne.n	8002d6a <ADC_DMAConvCplt+0x4a>
  {
    /* Update ADC state machine */
    SET_BIT(hadc->State, HAL_ADC_STATE_REG_EOC);
 8002d2c:	6a9a      	ldr	r2, [r3, #40]	@ 0x28
 8002d2e:	f442 7200 	orr.w	r2, r2, #512	@ 0x200
 8002d32:	629a      	str	r2, [r3, #40]	@ 0x28
    /* Determine whether any further conversion upcoming on group regular     */
    /* by external trigger, continuous mode or scan sequence on going.        */
    /* Note: On STM32F1 devices, in case of sequencer enabled                 */
    /*       (several ranks selected), end of conversion flag is raised       */
    /*       at the end of the sequence.                                      */
    if(ADC_IS_SOFTWARE_START_REGULAR(hadc)        && 
 8002d34:	681a      	ldr	r2, [r3, #0]
 8002d36:	6892      	ldr	r2, [r2, #8]
 8002d38:	f402 2260 	and.w	r2, r2, #917504	@ 0xe0000
 8002d3c:	f5b2 2f60 	cmp.w	r2, #917504	@ 0xe0000
 8002d40:	d003      	beq.n	8002d4a <ADC_DMAConvCplt+0x2a>
    
    /* Conversion complete callback */
#if (USE_HAL_ADC_REGISTER_CALLBACKS == 1)
    hadc->ConvCpltCallback(hadc);
#else
    HAL_ADC_ConvCpltCallback(hadc);
 8002d42:	4618      	mov	r0, r3
 8002d44:	f7ff f970 	bl	8002028 <HAL_ADC_ConvCpltCallback>
  else
  {
    /* Call DMA error callback */
    hadc->DMA_Handle->XferErrorCallback(hdma);
  }
}
 8002d48:	bd08      	pop	{r3, pc}
       (hadc->Init.ContinuousConvMode == DISABLE)   )
 8002d4a:	7b1a      	ldrb	r2, [r3, #12]
    if(ADC_IS_SOFTWARE_START_REGULAR(hadc)        && 
 8002d4c:	2a00      	cmp	r2, #0
 8002d4e:	d1f8      	bne.n	8002d42 <ADC_DMAConvCplt+0x22>
      CLEAR_BIT(hadc->State, HAL_ADC_STATE_REG_BUSY);   
 8002d50:	6a9a      	ldr	r2, [r3, #40]	@ 0x28
 8002d52:	f422 7280 	bic.w	r2, r2, #256	@ 0x100
 8002d56:	629a      	str	r2, [r3, #40]	@ 0x28
      if (HAL_IS_BIT_CLR(hadc->State, HAL_ADC_STATE_INJ_BUSY))
 8002d58:	6a9a      	ldr	r2, [r3, #40]	@ 0x28
 8002d5a:	f412 5f80 	tst.w	r2, #4096	@ 0x1000
 8002d5e:	d1f0      	bne.n	8002d42 <ADC_DMAConvCplt+0x22>
        SET_BIT(hadc->State, HAL_ADC_STATE_READY);
 8002d60:	6a9a      	ldr	r2, [r3, #40]	@ 0x28
 8002d62:	f042 0201 	orr.w	r2, r2, #1
 8002d66:	629a      	str	r2, [r3, #40]	@ 0x28
 8002d68:	e7eb      	b.n	8002d42 <ADC_DMAConvCplt+0x22>
    hadc->DMA_Handle->XferErrorCallback(hdma);
 8002d6a:	6a1b      	ldr	r3, [r3, #32]
 8002d6c:	6b1b      	ldr	r3, [r3, #48]	@ 0x30
 8002d6e:	4798      	blx	r3
}
 8002d70:	e7ea      	b.n	8002d48 <ADC_DMAConvCplt+0x28>

08002d72 <HAL_ADC_ConvHalfCpltCallback>:
}
 8002d72:	4770      	bx	lr

08002d74 <ADC_DMAHalfConvCplt>:
  * @brief  DMA half transfer complete callback. 
  * @param  hdma: pointer to DMA handle.
  * @retval None
  */
void ADC_DMAHalfConvCplt(DMA_HandleTypeDef *hdma)   
{
 8002d74:	b508      	push	{r3, lr}
  
  /* Half conversion callback */
#if (USE_HAL_ADC_REGISTER_CALLBACKS == 1)
    hadc->ConvHalfCpltCallback(hadc);
#else
  HAL_ADC_ConvHalfCpltCallback(hadc);
 8002d76:	6a40      	ldr	r0, [r0, #36]	@ 0x24
 8002d78:	f7ff fffb 	bl	8002d72 <HAL_ADC_ConvHalfCpltCallback>
#endif /* USE_HAL_ADC_REGISTER_CALLBACKS */
}
 8002d7c:	bd08      	pop	{r3, pc}

08002d7e <HAL_ADC_ErrorCallback>:
}
 8002d7e:	4770      	bx	lr

08002d80 <ADC_DMAError>:
  * @brief  DMA error callback 
  * @param  hdma: pointer to DMA handle.
  * @retval None
  */
void ADC_DMAError(DMA_HandleTypeDef *hdma)   
{
 8002d80:	b508      	push	{r3, lr}
  /* Retrieve ADC handle corresponding to current DMA handle */
  ADC_HandleTypeDef* hadc = ( ADC_HandleTypeDef* )((DMA_HandleTypeDef* )hdma)->Parent;
 8002d82:	6a40      	ldr	r0, [r0, #36]	@ 0x24
  
  /* Set ADC state */
  SET_BIT(hadc->State, HAL_ADC_STATE_ERROR_DMA);
 8002d84:	6a83      	ldr	r3, [r0, #40]	@ 0x28
 8002d86:	f043 0340 	orr.w	r3, r3, #64	@ 0x40
 8002d8a:	6283      	str	r3, [r0, #40]	@ 0x28
  
  /* Set ADC error code to DMA error */
  SET_BIT(hadc->ErrorCode, HAL_ADC_ERROR_DMA);
 8002d8c:	6ac3      	ldr	r3, [r0, #44]	@ 0x2c
 8002d8e:	f043 0304 	orr.w	r3, r3, #4
 8002d92:	62c3      	str	r3, [r0, #44]	@ 0x2c
  
  /* Error callback */
#if (USE_HAL_ADC_REGISTER_CALLBACKS == 1)
  hadc->ErrorCallback(hadc);
#else
  HAL_ADC_ErrorCallback(hadc);
 8002d94:	f7ff fff3 	bl	8002d7e <HAL_ADC_ErrorCallback>
#endif /* USE_HAL_ADC_REGISTER_CALLBACKS */
}
 8002d98:	bd08      	pop	{r3, pc}
	...

08002d9c <HAL_ADC_ConfigChannel>:
{ 
 8002d9c:	b430      	push	{r4, r5}
 8002d9e:	b082      	sub	sp, #8
  __IO uint32_t wait_loop_index = 0U;
 8002da0:	2200      	movs	r2, #0
 8002da2:	9201      	str	r2, [sp, #4]
  __HAL_LOCK(hadc);
 8002da4:	f890 2024 	ldrb.w	r2, [r0, #36]	@ 0x24
 8002da8:	2a01      	cmp	r2, #1
 8002daa:	f000 808f 	beq.w	8002ecc <HAL_ADC_ConfigChannel+0x130>
 8002dae:	4603      	mov	r3, r0
 8002db0:	2201      	movs	r2, #1
 8002db2:	f880 2024 	strb.w	r2, [r0, #36]	@ 0x24
  if (sConfig->Rank < 7U)
 8002db6:	684a      	ldr	r2, [r1, #4]
 8002db8:	2a06      	cmp	r2, #6
 8002dba:	d82d      	bhi.n	8002e18 <HAL_ADC_ConfigChannel+0x7c>
    MODIFY_REG(hadc->Instance->SQR3                        ,
 8002dbc:	6804      	ldr	r4, [r0, #0]
 8002dbe:	6b60      	ldr	r0, [r4, #52]	@ 0x34
 8002dc0:	eb02 0282 	add.w	r2, r2, r2, lsl #2
 8002dc4:	3a05      	subs	r2, #5
 8002dc6:	f04f 0c1f 	mov.w	ip, #31
 8002dca:	fa0c fc02 	lsl.w	ip, ip, r2
 8002dce:	ea20 000c 	bic.w	r0, r0, ip
 8002dd2:	680d      	ldr	r5, [r1, #0]
 8002dd4:	fa05 f202 	lsl.w	r2, r5, r2
 8002dd8:	4302      	orrs	r2, r0
 8002dda:	6362      	str	r2, [r4, #52]	@ 0x34
  if (sConfig->Channel >= ADC_CHANNEL_10)
 8002ddc:	680a      	ldr	r2, [r1, #0]
 8002dde:	2a09      	cmp	r2, #9
 8002de0:	d938      	bls.n	8002e54 <HAL_ADC_ConfigChannel+0xb8>
    MODIFY_REG(hadc->Instance->SMPR1                             ,
 8002de2:	681c      	ldr	r4, [r3, #0]
 8002de4:	68e0      	ldr	r0, [r4, #12]
 8002de6:	eb02 0242 	add.w	r2, r2, r2, lsl #1
 8002dea:	3a1e      	subs	r2, #30
 8002dec:	f04f 0c07 	mov.w	ip, #7
 8002df0:	fa0c fc02 	lsl.w	ip, ip, r2
 8002df4:	ea20 000c 	bic.w	r0, r0, ip
 8002df8:	688d      	ldr	r5, [r1, #8]
 8002dfa:	fa05 f202 	lsl.w	r2, r5, r2
 8002dfe:	4302      	orrs	r2, r0
 8002e00:	60e2      	str	r2, [r4, #12]
  if ((sConfig->Channel == ADC_CHANNEL_TEMPSENSOR) ||
 8002e02:	680a      	ldr	r2, [r1, #0]
 8002e04:	3a10      	subs	r2, #16
 8002e06:	2a01      	cmp	r2, #1
 8002e08:	d934      	bls.n	8002e74 <HAL_ADC_ConfigChannel+0xd8>
  HAL_StatusTypeDef tmp_hal_status = HAL_OK;
 8002e0a:	2000      	movs	r0, #0
  __HAL_UNLOCK(hadc);
 8002e0c:	2200      	movs	r2, #0
 8002e0e:	f883 2024 	strb.w	r2, [r3, #36]	@ 0x24
}
 8002e12:	b002      	add	sp, #8
 8002e14:	bc30      	pop	{r4, r5}
 8002e16:	4770      	bx	lr
  else if (sConfig->Rank < 13U)
 8002e18:	2a0c      	cmp	r2, #12
 8002e1a:	d80d      	bhi.n	8002e38 <HAL_ADC_ConfigChannel+0x9c>
    MODIFY_REG(hadc->Instance->SQR2                        ,
 8002e1c:	6805      	ldr	r5, [r0, #0]
 8002e1e:	6b28      	ldr	r0, [r5, #48]	@ 0x30
 8002e20:	eb02 0282 	add.w	r2, r2, r2, lsl #2
 8002e24:	3a23      	subs	r2, #35	@ 0x23
 8002e26:	241f      	movs	r4, #31
 8002e28:	4094      	lsls	r4, r2
 8002e2a:	ea20 0004 	bic.w	r0, r0, r4
 8002e2e:	680c      	ldr	r4, [r1, #0]
 8002e30:	4094      	lsls	r4, r2
 8002e32:	4320      	orrs	r0, r4
 8002e34:	6328      	str	r0, [r5, #48]	@ 0x30
 8002e36:	e7d1      	b.n	8002ddc <HAL_ADC_ConfigChannel+0x40>
    MODIFY_REG(hadc->Instance->SQR1                        ,
 8002e38:	6805      	ldr	r5, [r0, #0]
 8002e3a:	6ae8      	ldr	r0, [r5, #44]	@ 0x2c
 8002e3c:	eb02 0282 	add.w	r2, r2, r2, lsl #2
 8002e40:	3a41      	subs	r2, #65	@ 0x41
 8002e42:	241f      	movs	r4, #31
 8002e44:	4094      	lsls	r4, r2
 8002e46:	ea20 0004 	bic.w	r0, r0, r4
 8002e4a:	680c      	ldr	r4, [r1, #0]
 8002e4c:	4094      	lsls	r4, r2
 8002e4e:	4320      	orrs	r0, r4
 8002e50:	62e8      	str	r0, [r5, #44]	@ 0x2c
 8002e52:	e7c3      	b.n	8002ddc <HAL_ADC_ConfigChannel+0x40>
    MODIFY_REG(hadc->Instance->SMPR2                             ,
 8002e54:	681c      	ldr	r4, [r3, #0]
 8002e56:	6920      	ldr	r0, [r4, #16]
 8002e58:	eb02 0242 	add.w	r2, r2, r2, lsl #1
 8002e5c:	f04f 0c07 	mov.w	ip, #7
 8002e60:	fa0c fc02 	lsl.w	ip, ip, r2
 8002e64:	ea20 000c 	bic.w	r0, r0, ip
 8002e68:	688d      	ldr	r5, [r1, #8]
 8002e6a:	fa05 f202 	lsl.w	r2, r5, r2
 8002e6e:	4302      	orrs	r2, r0
 8002e70:	6122      	str	r2, [r4, #16]
 8002e72:	e7c6      	b.n	8002e02 <HAL_ADC_ConfigChannel+0x66>
    if (hadc->Instance == ADC1)
 8002e74:	681a      	ldr	r2, [r3, #0]
 8002e76:	4816      	ldr	r0, [pc, #88]	@ (8002ed0 <HAL_ADC_ConfigChannel+0x134>)
 8002e78:	4282      	cmp	r2, r0
 8002e7a:	d005      	beq.n	8002e88 <HAL_ADC_ConfigChannel+0xec>
      SET_BIT(hadc->State, HAL_ADC_STATE_ERROR_CONFIG);
 8002e7c:	6a9a      	ldr	r2, [r3, #40]	@ 0x28
 8002e7e:	f042 0220 	orr.w	r2, r2, #32
 8002e82:	629a      	str	r2, [r3, #40]	@ 0x28
      tmp_hal_status = HAL_ERROR;
 8002e84:	2001      	movs	r0, #1
 8002e86:	e7c1      	b.n	8002e0c <HAL_ADC_ConfigChannel+0x70>
      if (READ_BIT(hadc->Instance->CR2, ADC_CR2_TSVREFE) == RESET)
 8002e88:	6890      	ldr	r0, [r2, #8]
 8002e8a:	f410 0f00 	tst.w	r0, #8388608	@ 0x800000
 8002e8e:	d11b      	bne.n	8002ec8 <HAL_ADC_ConfigChannel+0x12c>
        SET_BIT(hadc->Instance->CR2, ADC_CR2_TSVREFE);
 8002e90:	6890      	ldr	r0, [r2, #8]
 8002e92:	f440 0000 	orr.w	r0, r0, #8388608	@ 0x800000
 8002e96:	6090      	str	r0, [r2, #8]
        if (sConfig->Channel == ADC_CHANNEL_TEMPSENSOR)
 8002e98:	680a      	ldr	r2, [r1, #0]
 8002e9a:	2a10      	cmp	r2, #16
 8002e9c:	d001      	beq.n	8002ea2 <HAL_ADC_ConfigChannel+0x106>
  HAL_StatusTypeDef tmp_hal_status = HAL_OK;
 8002e9e:	2000      	movs	r0, #0
 8002ea0:	e7b4      	b.n	8002e0c <HAL_ADC_ConfigChannel+0x70>
          wait_loop_index = (ADC_TEMPSENSOR_DELAY_US * (SystemCoreClock / 1000000U));
 8002ea2:	4a0c      	ldr	r2, [pc, #48]	@ (8002ed4 <HAL_ADC_ConfigChannel+0x138>)
 8002ea4:	6812      	ldr	r2, [r2, #0]
 8002ea6:	490c      	ldr	r1, [pc, #48]	@ (8002ed8 <HAL_ADC_ConfigChannel+0x13c>)
 8002ea8:	fba1 1202 	umull	r1, r2, r1, r2
 8002eac:	0c92      	lsrs	r2, r2, #18
 8002eae:	eb02 0282 	add.w	r2, r2, r2, lsl #2
 8002eb2:	0052      	lsls	r2, r2, #1
 8002eb4:	9201      	str	r2, [sp, #4]
          while(wait_loop_index != 0U)
 8002eb6:	e002      	b.n	8002ebe <HAL_ADC_ConfigChannel+0x122>
            wait_loop_index--;
 8002eb8:	9a01      	ldr	r2, [sp, #4]
 8002eba:	3a01      	subs	r2, #1
 8002ebc:	9201      	str	r2, [sp, #4]
          while(wait_loop_index != 0U)
 8002ebe:	9a01      	ldr	r2, [sp, #4]
 8002ec0:	2a00      	cmp	r2, #0
 8002ec2:	d1f9      	bne.n	8002eb8 <HAL_ADC_ConfigChannel+0x11c>
  HAL_StatusTypeDef tmp_hal_status = HAL_OK;
 8002ec4:	2000      	movs	r0, #0
 8002ec6:	e7a1      	b.n	8002e0c <HAL_ADC_ConfigChannel+0x70>
 8002ec8:	2000      	movs	r0, #0
 8002eca:	e79f      	b.n	8002e0c <HAL_ADC_ConfigChannel+0x70>
  __HAL_LOCK(hadc);
 8002ecc:	2002      	movs	r0, #2
 8002ece:	e7a0      	b.n	8002e12 <HAL_ADC_ConfigChannel+0x76>
 8002ed0:	40012400 	.word	0x40012400
 8002ed4:	2000006c 	.word	0x2000006c
 8002ed8:	431bde83 	.word	0x431bde83

08002edc <ADC_Enable>:
{
 8002edc:	b530      	push	{r4, r5, lr}
 8002ede:	b083      	sub	sp, #12
  __IO uint32_t wait_loop_index = 0U;
 8002ee0:	2300      	movs	r3, #0
 8002ee2:	9301      	str	r3, [sp, #4]
  if (ADC_IS_ENABLE(hadc) == RESET)
 8002ee4:	6803      	ldr	r3, [r0, #0]
 8002ee6:	689a      	ldr	r2, [r3, #8]
 8002ee8:	f012 0f01 	tst.w	r2, #1
 8002eec:	d133      	bne.n	8002f56 <ADC_Enable+0x7a>
 8002eee:	4604      	mov	r4, r0
    __HAL_ADC_ENABLE(hadc);
 8002ef0:	689a      	ldr	r2, [r3, #8]
 8002ef2:	f042 0201 	orr.w	r2, r2, #1
 8002ef6:	609a      	str	r2, [r3, #8]
    wait_loop_index = (ADC_STAB_DELAY_US * (SystemCoreClock / 1000000U));
 8002ef8:	4b18      	ldr	r3, [pc, #96]	@ (8002f5c <ADC_Enable+0x80>)
 8002efa:	681b      	ldr	r3, [r3, #0]
 8002efc:	4a18      	ldr	r2, [pc, #96]	@ (8002f60 <ADC_Enable+0x84>)
 8002efe:	fba2 2303 	umull	r2, r3, r2, r3
 8002f02:	0c9b      	lsrs	r3, r3, #18
 8002f04:	9301      	str	r3, [sp, #4]
    while(wait_loop_index != 0U)
 8002f06:	e002      	b.n	8002f0e <ADC_Enable+0x32>
      wait_loop_index--;
 8002f08:	9b01      	ldr	r3, [sp, #4]
 8002f0a:	3b01      	subs	r3, #1
 8002f0c:	9301      	str	r3, [sp, #4]
    while(wait_loop_index != 0U)
 8002f0e:	9b01      	ldr	r3, [sp, #4]
 8002f10:	2b00      	cmp	r3, #0
 8002f12:	d1f9      	bne.n	8002f08 <ADC_Enable+0x2c>
    tickstart = HAL_GetTick();
 8002f14:	f7ff feea 	bl	8002cec <HAL_GetTick>
 8002f18:	4605      	mov	r5, r0
    while(ADC_IS_ENABLE(hadc) == RESET)
 8002f1a:	6823      	ldr	r3, [r4, #0]
 8002f1c:	689b      	ldr	r3, [r3, #8]
 8002f1e:	f013 0f01 	tst.w	r3, #1
 8002f22:	d116      	bne.n	8002f52 <ADC_Enable+0x76>
      if((HAL_GetTick() - tickstart) > ADC_ENABLE_TIMEOUT)
 8002f24:	f7ff fee2 	bl	8002cec <HAL_GetTick>
 8002f28:	1b43      	subs	r3, r0, r5
 8002f2a:	2b02      	cmp	r3, #2
 8002f2c:	d9f5      	bls.n	8002f1a <ADC_Enable+0x3e>
        if(ADC_IS_ENABLE(hadc) == RESET)
 8002f2e:	6823      	ldr	r3, [r4, #0]
 8002f30:	689b      	ldr	r3, [r3, #8]
 8002f32:	f013 0f01 	tst.w	r3, #1
 8002f36:	d1f0      	bne.n	8002f1a <ADC_Enable+0x3e>
          SET_BIT(hadc->State, HAL_ADC_STATE_ERROR_INTERNAL);
 8002f38:	6aa3      	ldr	r3, [r4, #40]	@ 0x28
 8002f3a:	f043 0310 	orr.w	r3, r3, #16
 8002f3e:	62a3      	str	r3, [r4, #40]	@ 0x28
          SET_BIT(hadc->ErrorCode, HAL_ADC_ERROR_INTERNAL);
 8002f40:	6ae3      	ldr	r3, [r4, #44]	@ 0x2c
 8002f42:	f043 0301 	orr.w	r3, r3, #1
 8002f46:	62e3      	str	r3, [r4, #44]	@ 0x2c
          __HAL_UNLOCK(hadc);
 8002f48:	2300      	movs	r3, #0
 8002f4a:	f884 3024 	strb.w	r3, [r4, #36]	@ 0x24
          return HAL_ERROR;
 8002f4e:	2001      	movs	r0, #1
 8002f50:	e002      	b.n	8002f58 <ADC_Enable+0x7c>
  return HAL_OK;
 8002f52:	2000      	movs	r0, #0
 8002f54:	e000      	b.n	8002f58 <ADC_Enable+0x7c>
 8002f56:	2000      	movs	r0, #0
}
 8002f58:	b003      	add	sp, #12
 8002f5a:	bd30      	pop	{r4, r5, pc}
 8002f5c:	2000006c 	.word	0x2000006c
 8002f60:	431bde83 	.word	0x431bde83

08002f64 <HAL_ADC_Start_DMA>:
{
 8002f64:	b5f8      	push	{r3, r4, r5, r6, r7, lr}
 8002f66:	4604      	mov	r4, r0
 8002f68:	460d      	mov	r5, r1
 8002f6a:	4616      	mov	r6, r2
  if(ADC_MULTIMODE_IS_ENABLE(hadc) == RESET)
 8002f6c:	6801      	ldr	r1, [r0, #0]
 8002f6e:	4844      	ldr	r0, [pc, #272]	@ (8003080 <HAL_ADC_Start_DMA+0x11c>)
 8002f70:	4281      	cmp	r1, r0
 8002f72:	d059      	beq.n	8003028 <HAL_ADC_Start_DMA+0xc4>
 8002f74:	4b43      	ldr	r3, [pc, #268]	@ (8003084 <HAL_ADC_Start_DMA+0x120>)
 8002f76:	4299      	cmp	r1, r3
 8002f78:	d056      	beq.n	8003028 <HAL_ADC_Start_DMA+0xc4>
    __HAL_LOCK(hadc);
 8002f7a:	f894 3024 	ldrb.w	r3, [r4, #36]	@ 0x24
 8002f7e:	2b01      	cmp	r3, #1
 8002f80:	d07c      	beq.n	800307c <HAL_ADC_Start_DMA+0x118>
 8002f82:	2301      	movs	r3, #1
 8002f84:	f884 3024 	strb.w	r3, [r4, #36]	@ 0x24
    tmp_hal_status = ADC_Enable(hadc);
 8002f88:	4620      	mov	r0, r4
 8002f8a:	f7ff ffa7 	bl	8002edc <ADC_Enable>
    if (tmp_hal_status == HAL_OK)
 8002f8e:	4607      	mov	r7, r0
 8002f90:	2800      	cmp	r0, #0
 8002f92:	d16e      	bne.n	8003072 <HAL_ADC_Start_DMA+0x10e>
      ADC_STATE_CLR_SET(hadc->State,
 8002f94:	6aa1      	ldr	r1, [r4, #40]	@ 0x28
 8002f96:	f421 6170 	bic.w	r1, r1, #3840	@ 0xf00
 8002f9a:	f021 0101 	bic.w	r1, r1, #1
 8002f9e:	f441 7180 	orr.w	r1, r1, #256	@ 0x100
 8002fa2:	62a1      	str	r1, [r4, #40]	@ 0x28
    if (ADC_NONMULTIMODE_OR_MULTIMODEMASTER(hadc))
 8002fa4:	6822      	ldr	r2, [r4, #0]
 8002fa6:	4b37      	ldr	r3, [pc, #220]	@ (8003084 <HAL_ADC_Start_DMA+0x120>)
 8002fa8:	429a      	cmp	r2, r3
 8002faa:	d044      	beq.n	8003036 <HAL_ADC_Start_DMA+0xd2>
      CLEAR_BIT(hadc->State, HAL_ADC_STATE_MULTIMODE_SLAVE);
 8002fac:	6aa3      	ldr	r3, [r4, #40]	@ 0x28
 8002fae:	f423 1380 	bic.w	r3, r3, #1048576	@ 0x100000
 8002fb2:	62a3      	str	r3, [r4, #40]	@ 0x28
      if (READ_BIT(hadc->Instance->CR1, ADC_CR1_JAUTO) != RESET)
 8002fb4:	6853      	ldr	r3, [r2, #4]
 8002fb6:	f413 6f80 	tst.w	r3, #1024	@ 0x400
 8002fba:	d005      	beq.n	8002fc8 <HAL_ADC_Start_DMA+0x64>
        ADC_STATE_CLR_SET(hadc->State, HAL_ADC_STATE_INJ_EOC, HAL_ADC_STATE_INJ_BUSY);  
 8002fbc:	6aa3      	ldr	r3, [r4, #40]	@ 0x28
 8002fbe:	f423 5340 	bic.w	r3, r3, #12288	@ 0x3000
 8002fc2:	f443 5380 	orr.w	r3, r3, #4096	@ 0x1000
 8002fc6:	62a3      	str	r3, [r4, #40]	@ 0x28
      if (HAL_IS_BIT_SET(hadc->State, HAL_ADC_STATE_INJ_BUSY))
 8002fc8:	6aa3      	ldr	r3, [r4, #40]	@ 0x28
 8002fca:	f413 5f80 	tst.w	r3, #4096	@ 0x1000
 8002fce:	d048      	beq.n	8003062 <HAL_ADC_Start_DMA+0xfe>
        CLEAR_BIT(hadc->ErrorCode, (HAL_ADC_ERROR_OVR | HAL_ADC_ERROR_DMA));         
 8002fd0:	6ae3      	ldr	r3, [r4, #44]	@ 0x2c
 8002fd2:	f023 0306 	bic.w	r3, r3, #6
 8002fd6:	62e3      	str	r3, [r4, #44]	@ 0x2c
      __HAL_UNLOCK(hadc);
 8002fd8:	2300      	movs	r3, #0
 8002fda:	f884 3024 	strb.w	r3, [r4, #36]	@ 0x24
      hadc->DMA_Handle->XferCpltCallback = ADC_DMAConvCplt;
 8002fde:	6a23      	ldr	r3, [r4, #32]
 8002fe0:	4a29      	ldr	r2, [pc, #164]	@ (8003088 <HAL_ADC_Start_DMA+0x124>)
 8002fe2:	629a      	str	r2, [r3, #40]	@ 0x28
      hadc->DMA_Handle->XferHalfCpltCallback = ADC_DMAHalfConvCplt;
 8002fe4:	6a23      	ldr	r3, [r4, #32]
 8002fe6:	4a29      	ldr	r2, [pc, #164]	@ (800308c <HAL_ADC_Start_DMA+0x128>)
 8002fe8:	62da      	str	r2, [r3, #44]	@ 0x2c
      hadc->DMA_Handle->XferErrorCallback = ADC_DMAError;
 8002fea:	6a23      	ldr	r3, [r4, #32]
 8002fec:	4a28      	ldr	r2, [pc, #160]	@ (8003090 <HAL_ADC_Start_DMA+0x12c>)
 8002fee:	631a      	str	r2, [r3, #48]	@ 0x30
      __HAL_ADC_CLEAR_FLAG(hadc, ADC_FLAG_EOC);
 8002ff0:	6823      	ldr	r3, [r4, #0]
 8002ff2:	f06f 0202 	mvn.w	r2, #2
 8002ff6:	601a      	str	r2, [r3, #0]
      SET_BIT(hadc->Instance->CR2, ADC_CR2_DMA);
 8002ff8:	6822      	ldr	r2, [r4, #0]
 8002ffa:	6893      	ldr	r3, [r2, #8]
 8002ffc:	f443 7380 	orr.w	r3, r3, #256	@ 0x100
 8003000:	6093      	str	r3, [r2, #8]
      HAL_DMA_Start_IT(hadc->DMA_Handle, (uint32_t)&hadc->Instance->DR, (uint32_t)pData, Length);
 8003002:	6821      	ldr	r1, [r4, #0]
 8003004:	4633      	mov	r3, r6
 8003006:	462a      	mov	r2, r5
 8003008:	314c      	adds	r1, #76	@ 0x4c
 800300a:	6a20      	ldr	r0, [r4, #32]
 800300c:	f000 f9b4 	bl	8003378 <HAL_DMA_Start_IT>
      if (ADC_IS_SOFTWARE_START_REGULAR(hadc))
 8003010:	6823      	ldr	r3, [r4, #0]
 8003012:	689a      	ldr	r2, [r3, #8]
 8003014:	f402 2260 	and.w	r2, r2, #917504	@ 0xe0000
 8003018:	f5b2 2f60 	cmp.w	r2, #917504	@ 0xe0000
 800301c:	d024      	beq.n	8003068 <HAL_ADC_Start_DMA+0x104>
        SET_BIT(hadc->Instance->CR2, ADC_CR2_EXTTRIG);
 800301e:	689a      	ldr	r2, [r3, #8]
 8003020:	f442 1280 	orr.w	r2, r2, #1048576	@ 0x100000
 8003024:	609a      	str	r2, [r3, #8]
 8003026:	e027      	b.n	8003078 <HAL_ADC_Start_DMA+0x114>
  if(ADC_MULTIMODE_IS_ENABLE(hadc) == RESET)
 8003028:	4b15      	ldr	r3, [pc, #84]	@ (8003080 <HAL_ADC_Start_DMA+0x11c>)
 800302a:	685b      	ldr	r3, [r3, #4]
 800302c:	f413 2f70 	tst.w	r3, #983040	@ 0xf0000
 8003030:	d0a3      	beq.n	8002f7a <HAL_ADC_Start_DMA+0x16>
    tmp_hal_status = HAL_ERROR;
 8003032:	2701      	movs	r7, #1
 8003034:	e020      	b.n	8003078 <HAL_ADC_Start_DMA+0x114>
    if (ADC_NONMULTIMODE_OR_MULTIMODEMASTER(hadc))
 8003036:	f5a3 6380 	sub.w	r3, r3, #1024	@ 0x400
 800303a:	685b      	ldr	r3, [r3, #4]
 800303c:	f413 2f70 	tst.w	r3, #983040	@ 0xf0000
 8003040:	d0b4      	beq.n	8002fac <HAL_ADC_Start_DMA+0x48>
      SET_BIT(hadc->State, HAL_ADC_STATE_MULTIMODE_SLAVE);
 8003042:	6aa3      	ldr	r3, [r4, #40]	@ 0x28
 8003044:	f443 1380 	orr.w	r3, r3, #1048576	@ 0x100000
 8003048:	62a3      	str	r3, [r4, #40]	@ 0x28
      if (ADC_MULTIMODE_AUTO_INJECTED(hadc))
 800304a:	4b0d      	ldr	r3, [pc, #52]	@ (8003080 <HAL_ADC_Start_DMA+0x11c>)
 800304c:	685b      	ldr	r3, [r3, #4]
 800304e:	f413 6f80 	tst.w	r3, #1024	@ 0x400
 8003052:	d0b9      	beq.n	8002fc8 <HAL_ADC_Start_DMA+0x64>
        ADC_STATE_CLR_SET(hadc->State, HAL_ADC_STATE_INJ_EOC, HAL_ADC_STATE_INJ_BUSY);
 8003054:	6aa3      	ldr	r3, [r4, #40]	@ 0x28
 8003056:	f423 5340 	bic.w	r3, r3, #12288	@ 0x3000
 800305a:	f443 5380 	orr.w	r3, r3, #4096	@ 0x1000
 800305e:	62a3      	str	r3, [r4, #40]	@ 0x28
 8003060:	e7b2      	b.n	8002fc8 <HAL_ADC_Start_DMA+0x64>
        ADC_CLEAR_ERRORCODE(hadc);
 8003062:	2300      	movs	r3, #0
 8003064:	62e3      	str	r3, [r4, #44]	@ 0x2c
 8003066:	e7b7      	b.n	8002fd8 <HAL_ADC_Start_DMA+0x74>
        SET_BIT(hadc->Instance->CR2, (ADC_CR2_SWSTART | ADC_CR2_EXTTRIG));
 8003068:	689a      	ldr	r2, [r3, #8]
 800306a:	f442 02a0 	orr.w	r2, r2, #5242880	@ 0x500000
 800306e:	609a      	str	r2, [r3, #8]
 8003070:	e002      	b.n	8003078 <HAL_ADC_Start_DMA+0x114>
      __HAL_UNLOCK(hadc);
 8003072:	2300      	movs	r3, #0
 8003074:	f884 3024 	strb.w	r3, [r4, #36]	@ 0x24
}
 8003078:	4638      	mov	r0, r7
 800307a:	bdf8      	pop	{r3, r4, r5, r6, r7, pc}
    __HAL_LOCK(hadc);
 800307c:	2702      	movs	r7, #2
 800307e:	e7fb      	b.n	8003078 <HAL_ADC_Start_DMA+0x114>
 8003080:	40012400 	.word	0x40012400
 8003084:	40012800 	.word	0x40012800
 8003088:	08002d21 	.word	0x08002d21
 800308c:	08002d75 	.word	0x08002d75
 8003090:	08002d81 	.word	0x08002d81

08003094 <ADC_ConversionStop_Disable>:
{
 8003094:	b538      	push	{r3, r4, r5, lr}
  if (ADC_IS_ENABLE(hadc) != RESET)
 8003096:	6803      	ldr	r3, [r0, #0]
 8003098:	689a      	ldr	r2, [r3, #8]
 800309a:	f012 0f01 	tst.w	r2, #1
 800309e:	d101      	bne.n	80030a4 <ADC_ConversionStop_Disable+0x10>
  return HAL_OK;
 80030a0:	2000      	movs	r0, #0
}
 80030a2:	bd38      	pop	{r3, r4, r5, pc}
 80030a4:	4604      	mov	r4, r0
    __HAL_ADC_DISABLE(hadc);
 80030a6:	689a      	ldr	r2, [r3, #8]
 80030a8:	f022 0201 	bic.w	r2, r2, #1
 80030ac:	609a      	str	r2, [r3, #8]
    tickstart = HAL_GetTick();
 80030ae:	f7ff fe1d 	bl	8002cec <HAL_GetTick>
 80030b2:	4605      	mov	r5, r0
    while(ADC_IS_ENABLE(hadc) != RESET)
 80030b4:	6823      	ldr	r3, [r4, #0]
 80030b6:	689b      	ldr	r3, [r3, #8]
 80030b8:	f013 0f01 	tst.w	r3, #1
 80030bc:	d013      	beq.n	80030e6 <ADC_ConversionStop_Disable+0x52>
      if((HAL_GetTick() - tickstart) > ADC_DISABLE_TIMEOUT)
 80030be:	f7ff fe15 	bl	8002cec <HAL_GetTick>
 80030c2:	1b43      	subs	r3, r0, r5
 80030c4:	2b02      	cmp	r3, #2
 80030c6:	d9f5      	bls.n	80030b4 <ADC_ConversionStop_Disable+0x20>
        if(ADC_IS_ENABLE(hadc) != RESET)
 80030c8:	6823      	ldr	r3, [r4, #0]
 80030ca:	689b      	ldr	r3, [r3, #8]
 80030cc:	f013 0f01 	tst.w	r3, #1
 80030d0:	d0f0      	beq.n	80030b4 <ADC_ConversionStop_Disable+0x20>
          SET_BIT(hadc->State, HAL_ADC_STATE_ERROR_INTERNAL);
 80030d2:	6aa3      	ldr	r3, [r4, #40]	@ 0x28
 80030d4:	f043 0310 	orr.w	r3, r3, #16
 80030d8:	62a3      	str	r3, [r4, #40]	@ 0x28
          SET_BIT(hadc->ErrorCode, HAL_ADC_ERROR_INTERNAL);
 80030da:	6ae3      	ldr	r3, [r4, #44]	@ 0x2c
 80030dc:	f043 0301 	orr.w	r3, r3, #1
 80030e0:	62e3      	str	r3, [r4, #44]	@ 0x2c
          return HAL_ERROR;
 80030e2:	2001      	movs	r0, #1
 80030e4:	e7dd      	b.n	80030a2 <ADC_ConversionStop_Disable+0xe>
  return HAL_OK;
 80030e6:	2000      	movs	r0, #0
 80030e8:	e7db      	b.n	80030a2 <ADC_ConversionStop_Disable+0xe>
	...

080030ec <HAL_ADC_Init>:
  if(hadc == NULL)
 80030ec:	2800      	cmp	r0, #0
 80030ee:	d07b      	beq.n	80031e8 <HAL_ADC_Init+0xfc>
{
 80030f0:	b570      	push	{r4, r5, r6, lr}
 80030f2:	4604      	mov	r4, r0
  if (hadc->State == HAL_ADC_STATE_RESET)
 80030f4:	6a83      	ldr	r3, [r0, #40]	@ 0x28
 80030f6:	2b00      	cmp	r3, #0
 80030f8:	d04d      	beq.n	8003196 <HAL_ADC_Init+0xaa>
  tmp_hal_status = ADC_ConversionStop_Disable(hadc);
 80030fa:	4620      	mov	r0, r4
 80030fc:	f7ff ffca 	bl	8003094 <ADC_ConversionStop_Disable>
  if (HAL_IS_BIT_CLR(hadc->State, HAL_ADC_STATE_ERROR_INTERNAL) &&
 8003100:	6aa3      	ldr	r3, [r4, #40]	@ 0x28
 8003102:	f013 0310 	ands.w	r3, r3, #16
 8003106:	d169      	bne.n	80031dc <HAL_ADC_Init+0xf0>
 8003108:	2800      	cmp	r0, #0
 800310a:	d167      	bne.n	80031dc <HAL_ADC_Init+0xf0>
    ADC_STATE_CLR_SET(hadc->State,
 800310c:	6aa2      	ldr	r2, [r4, #40]	@ 0x28
 800310e:	f422 5288 	bic.w	r2, r2, #4352	@ 0x1100
 8003112:	f022 0202 	bic.w	r2, r2, #2
 8003116:	f042 0202 	orr.w	r2, r2, #2
 800311a:	62a2      	str	r2, [r4, #40]	@ 0x28
    tmp_cr2 |= (hadc->Init.DataAlign                                          |
 800311c:	6862      	ldr	r2, [r4, #4]
                ADC_CFGR_EXTSEL(hadc, hadc->Init.ExternalTrigConv)            |
 800311e:	69e1      	ldr	r1, [r4, #28]
    tmp_cr2 |= (hadc->Init.DataAlign                                          |
 8003120:	430a      	orrs	r2, r1
                ADC_CR2_CONTINUOUS((uint32_t)hadc->Init.ContinuousConvMode)   );
 8003122:	7b21      	ldrb	r1, [r4, #12]
                ADC_CFGR_EXTSEL(hadc, hadc->Init.ExternalTrigConv)            |
 8003124:	ea42 0241 	orr.w	r2, r2, r1, lsl #1
    tmp_cr1 |= (ADC_CR1_SCAN_SET(hadc->Init.ScanConvMode));
 8003128:	68a5      	ldr	r5, [r4, #8]
 800312a:	f5b5 7f80 	cmp.w	r5, #256	@ 0x100
 800312e:	d002      	beq.n	8003136 <HAL_ADC_Init+0x4a>
 8003130:	2d01      	cmp	r5, #1
 8003132:	d036      	beq.n	80031a2 <HAL_ADC_Init+0xb6>
 8003134:	461d      	mov	r5, r3
    if (hadc->Init.DiscontinuousConvMode == ENABLE)
 8003136:	7d26      	ldrb	r6, [r4, #20]
 8003138:	2e01      	cmp	r6, #1
 800313a:	d035      	beq.n	80031a8 <HAL_ADC_Init+0xbc>
      MODIFY_REG(hadc->Instance->CR1,
 800313c:	6826      	ldr	r6, [r4, #0]
 800313e:	6871      	ldr	r1, [r6, #4]
 8003140:	f421 4169 	bic.w	r1, r1, #59648	@ 0xe900
 8003144:	4329      	orrs	r1, r5
 8003146:	6071      	str	r1, [r6, #4]
      MODIFY_REG(hadc->Instance->CR2,
 8003148:	6825      	ldr	r5, [r4, #0]
 800314a:	68ae      	ldr	r6, [r5, #8]
 800314c:	4927      	ldr	r1, [pc, #156]	@ (80031ec <HAL_ADC_Init+0x100>)
 800314e:	4031      	ands	r1, r6
 8003150:	4311      	orrs	r1, r2
 8003152:	60a9      	str	r1, [r5, #8]
    if (ADC_CR1_SCAN_SET(hadc->Init.ScanConvMode) == ADC_SCAN_ENABLE)
 8003154:	68a1      	ldr	r1, [r4, #8]
 8003156:	f5b1 7f80 	cmp.w	r1, #256	@ 0x100
 800315a:	d001      	beq.n	8003160 <HAL_ADC_Init+0x74>
 800315c:	2901      	cmp	r1, #1
 800315e:	d102      	bne.n	8003166 <HAL_ADC_Init+0x7a>
      tmp_sqr1 = ADC_SQR1_L_SHIFT(hadc->Init.NbrOfConversion);
 8003160:	6923      	ldr	r3, [r4, #16]
 8003162:	3b01      	subs	r3, #1
 8003164:	051b      	lsls	r3, r3, #20
    MODIFY_REG(hadc->Instance->SQR1,
 8003166:	6825      	ldr	r5, [r4, #0]
 8003168:	6ae9      	ldr	r1, [r5, #44]	@ 0x2c
 800316a:	f421 0170 	bic.w	r1, r1, #15728640	@ 0xf00000
 800316e:	430b      	orrs	r3, r1
 8003170:	62eb      	str	r3, [r5, #44]	@ 0x2c
    if (READ_BIT(hadc->Instance->CR2, ~(ADC_CR2_ADON | ADC_CR2_DMA |
 8003172:	6823      	ldr	r3, [r4, #0]
 8003174:	6899      	ldr	r1, [r3, #8]
 8003176:	4b1e      	ldr	r3, [pc, #120]	@ (80031f0 <HAL_ADC_Init+0x104>)
 8003178:	400b      	ands	r3, r1
 800317a:	429a      	cmp	r2, r3
 800317c:	d025      	beq.n	80031ca <HAL_ADC_Init+0xde>
      ADC_STATE_CLR_SET(hadc->State,
 800317e:	6aa3      	ldr	r3, [r4, #40]	@ 0x28
 8003180:	f023 0312 	bic.w	r3, r3, #18
 8003184:	f043 0310 	orr.w	r3, r3, #16
 8003188:	62a3      	str	r3, [r4, #40]	@ 0x28
      SET_BIT(hadc->ErrorCode, HAL_ADC_ERROR_INTERNAL);
 800318a:	6ae3      	ldr	r3, [r4, #44]	@ 0x2c
 800318c:	f043 0301 	orr.w	r3, r3, #1
 8003190:	62e3      	str	r3, [r4, #44]	@ 0x2c
      tmp_hal_status = HAL_ERROR;
 8003192:	2001      	movs	r0, #1
 8003194:	e027      	b.n	80031e6 <HAL_ADC_Init+0xfa>
    ADC_CLEAR_ERRORCODE(hadc);
 8003196:	62c3      	str	r3, [r0, #44]	@ 0x2c
    hadc->Lock = HAL_UNLOCKED;
 8003198:	f880 3024 	strb.w	r3, [r0, #36]	@ 0x24
    HAL_ADC_MspInit(hadc);
 800319c:	f7fe fbd2 	bl	8001944 <HAL_ADC_MspInit>
 80031a0:	e7ab      	b.n	80030fa <HAL_ADC_Init+0xe>
    tmp_cr1 |= (ADC_CR1_SCAN_SET(hadc->Init.ScanConvMode));
 80031a2:	f44f 7580 	mov.w	r5, #256	@ 0x100
 80031a6:	e7c6      	b.n	8003136 <HAL_ADC_Init+0x4a>
      if (hadc->Init.ContinuousConvMode == DISABLE)
 80031a8:	b931      	cbnz	r1, 80031b8 <HAL_ADC_Init+0xcc>
        SET_BIT(tmp_cr1, ADC_CR1_DISCEN                                            |
 80031aa:	69a1      	ldr	r1, [r4, #24]
 80031ac:	3901      	subs	r1, #1
 80031ae:	ea45 3141 	orr.w	r1, r5, r1, lsl #13
 80031b2:	f441 6500 	orr.w	r5, r1, #2048	@ 0x800
 80031b6:	e7c1      	b.n	800313c <HAL_ADC_Init+0x50>
        SET_BIT(hadc->State, HAL_ADC_STATE_ERROR_CONFIG);
 80031b8:	6aa1      	ldr	r1, [r4, #40]	@ 0x28
 80031ba:	f041 0120 	orr.w	r1, r1, #32
 80031be:	62a1      	str	r1, [r4, #40]	@ 0x28
        SET_BIT(hadc->ErrorCode, HAL_ADC_ERROR_INTERNAL);
 80031c0:	6ae1      	ldr	r1, [r4, #44]	@ 0x2c
 80031c2:	f041 0101 	orr.w	r1, r1, #1
 80031c6:	62e1      	str	r1, [r4, #44]	@ 0x2c
 80031c8:	e7b8      	b.n	800313c <HAL_ADC_Init+0x50>
      ADC_CLEAR_ERRORCODE(hadc);
 80031ca:	2300      	movs	r3, #0
 80031cc:	62e3      	str	r3, [r4, #44]	@ 0x2c
      ADC_STATE_CLR_SET(hadc->State,
 80031ce:	6aa3      	ldr	r3, [r4, #40]	@ 0x28
 80031d0:	f023 0303 	bic.w	r3, r3, #3
 80031d4:	f043 0301 	orr.w	r3, r3, #1
 80031d8:	62a3      	str	r3, [r4, #40]	@ 0x28
 80031da:	e004      	b.n	80031e6 <HAL_ADC_Init+0xfa>
    SET_BIT(hadc->State, HAL_ADC_STATE_ERROR_INTERNAL);
 80031dc:	6aa3      	ldr	r3, [r4, #40]	@ 0x28
 80031de:	f043 0310 	orr.w	r3, r3, #16
 80031e2:	62a3      	str	r3, [r4, #40]	@ 0x28
    tmp_hal_status = HAL_ERROR;
 80031e4:	2001      	movs	r0, #1
}
 80031e6:	bd70      	pop	{r4, r5, r6, pc}
    return HAL_ERROR;
 80031e8:	2001      	movs	r0, #1
}
 80031ea:	4770      	bx	lr
 80031ec:	ffe1f7fd 	.word	0xffe1f7fd
 80031f0:	ff1f0efe 	.word	0xff1f0efe

080031f4 <__NVIC_SetPriority>:
  \param [in]  priority  Priority to set.
  \note    The priority cannot be set for every processor exception.
 */
__STATIC_INLINE void __NVIC_SetPriority(IRQn_Type IRQn, uint32_t priority)
{
  if ((int32_t)(IRQn) >= 0)
 80031f4:	2800      	cmp	r0, #0
 80031f6:	db08      	blt.n	800320a <__NVIC_SetPriority+0x16>
  {
    NVIC->IP[((uint32_t)IRQn)]               = (uint8_t)((priority << (8U - __NVIC_PRIO_BITS)) & (uint32_t)0xFFUL);
 80031f8:	0109      	lsls	r1, r1, #4
 80031fa:	b2c9      	uxtb	r1, r1
 80031fc:	f100 4060 	add.w	r0, r0, #3758096384	@ 0xe0000000
 8003200:	f500 4061 	add.w	r0, r0, #57600	@ 0xe100
 8003204:	f880 1300 	strb.w	r1, [r0, #768]	@ 0x300
 8003208:	4770      	bx	lr
  }
  else
  {
    SCB->SHP[(((uint32_t)IRQn) & 0xFUL)-4UL] = (uint8_t)((priority << (8U - __NVIC_PRIO_BITS)) & (uint32_t)0xFFUL);
 800320a:	f000 000f 	and.w	r0, r0, #15
 800320e:	0109      	lsls	r1, r1, #4
 8003210:	b2c9      	uxtb	r1, r1
 8003212:	4b01      	ldr	r3, [pc, #4]	@ (8003218 <__NVIC_SetPriority+0x24>)
 8003214:	5419      	strb	r1, [r3, r0]
  }
}
 8003216:	4770      	bx	lr
 8003218:	e000ed14 	.word	0xe000ed14

0800321c <NVIC_EncodePriority>:
  \param [in]   PreemptPriority  Preemptive priority value (starting from 0).
  \param [in]       SubPriority  Subpriority value (starting from 0).
  \return                        Encoded priority. Value can be used in the function \ref NVIC_SetPriority().
 */
__STATIC_INLINE uint32_t NVIC_EncodePriority (uint32_t PriorityGroup, uint32_t PreemptPriority, uint32_t SubPriority)
{
 800321c:	b500      	push	{lr}
  uint32_t PriorityGroupTmp = (PriorityGroup & (uint32_t)0x07UL);   /* only values 0..7 are used          */
 800321e:	f000 0007 	and.w	r0, r0, #7
  uint32_t PreemptPriorityBits;
  uint32_t SubPriorityBits;

  PreemptPriorityBits = ((7UL - PriorityGroupTmp) > (uint32_t)(__NVIC_PRIO_BITS)) ? (uint32_t)(__NVIC_PRIO_BITS) : (uint32_t)(7UL - PriorityGroupTmp);
 8003222:	f1c0 0c07 	rsb	ip, r0, #7
 8003226:	f1bc 0f04 	cmp.w	ip, #4
 800322a:	bf28      	it	cs
 800322c:	f04f 0c04 	movcs.w	ip, #4
  SubPriorityBits     = ((PriorityGroupTmp + (uint32_t)(__NVIC_PRIO_BITS)) < (uint32_t)7UL) ? (uint32_t)0UL : (uint32_t)((PriorityGroupTmp - 7UL) + (uint32_t)(__NVIC_PRIO_BITS));
 8003230:	1d03      	adds	r3, r0, #4
 8003232:	2b06      	cmp	r3, #6
 8003234:	d90f      	bls.n	8003256 <NVIC_EncodePriority+0x3a>
 8003236:	1ec3      	subs	r3, r0, #3

  return (
           ((PreemptPriority & (uint32_t)((1UL << (PreemptPriorityBits)) - 1UL)) << SubPriorityBits) |
 8003238:	f04f 3eff 	mov.w	lr, #4294967295	@ 0xffffffff
 800323c:	fa0e f00c 	lsl.w	r0, lr, ip
 8003240:	ea21 0100 	bic.w	r1, r1, r0
 8003244:	4099      	lsls	r1, r3
           ((SubPriority     & (uint32_t)((1UL << (SubPriorityBits    )) - 1UL)))
 8003246:	fa0e fe03 	lsl.w	lr, lr, r3
 800324a:	ea22 020e 	bic.w	r2, r2, lr
         );
}
 800324e:	ea41 0002 	orr.w	r0, r1, r2
 8003252:	f85d fb04 	ldr.w	pc, [sp], #4
  SubPriorityBits     = ((PriorityGroupTmp + (uint32_t)(__NVIC_PRIO_BITS)) < (uint32_t)7UL) ? (uint32_t)0UL : (uint32_t)((PriorityGroupTmp - 7UL) + (uint32_t)(__NVIC_PRIO_BITS));
 8003256:	2300      	movs	r3, #0
 8003258:	e7ee      	b.n	8003238 <NVIC_EncodePriority+0x1c>
	...

0800325c <HAL_NVIC_SetPriorityGrouping>:
  reg_value  =  SCB->AIRCR;                                                   /* read old register configuration    */
 800325c:	4a07      	ldr	r2, [pc, #28]	@ (800327c <HAL_NVIC_SetPriorityGrouping+0x20>)
 800325e:	68d3      	ldr	r3, [r2, #12]
  reg_value &= ~((uint32_t)(SCB_AIRCR_VECTKEY_Msk | SCB_AIRCR_PRIGROUP_Msk)); /* clear bits to change               */
 8003260:	f423 63e0 	bic.w	r3, r3, #1792	@ 0x700
 8003264:	041b      	lsls	r3, r3, #16
 8003266:	0c1b      	lsrs	r3, r3, #16
                (PriorityGroupTmp << SCB_AIRCR_PRIGROUP_Pos) );               /* Insert write key and priority group */
 8003268:	0200      	lsls	r0, r0, #8
 800326a:	f400 60e0 	and.w	r0, r0, #1792	@ 0x700
                ((uint32_t)0x5FAUL << SCB_AIRCR_VECTKEY_Pos) |
 800326e:	4303      	orrs	r3, r0
  reg_value  =  (reg_value                                   |
 8003270:	f043 63bf 	orr.w	r3, r3, #100139008	@ 0x5f80000
 8003274:	f443 3300 	orr.w	r3, r3, #131072	@ 0x20000
  SCB->AIRCR =  reg_value;
 8003278:	60d3      	str	r3, [r2, #12]
  /* Check the parameters */
  assert_param(IS_NVIC_PRIORITY_GROUP(PriorityGroup));
  
  /* Set the PRIGROUP[10:8] bits according to the PriorityGroup parameter value */
  NVIC_SetPriorityGrouping(PriorityGroup);
}
 800327a:	4770      	bx	lr
 800327c:	e000ed00 	.word	0xe000ed00

08003280 <HAL_NVIC_SetPriority>:
  *         This parameter can be a value between 0 and 15
  *         A lower priority value indicates a higher priority.          
  * @retval None
  */
void HAL_NVIC_SetPriority(IRQn_Type IRQn, uint32_t PreemptPriority, uint32_t SubPriority)
{ 
 8003280:	b510      	push	{r4, lr}
 8003282:	4604      	mov	r4, r0
  return ((uint32_t)((SCB->AIRCR & SCB_AIRCR_PRIGROUP_Msk) >> SCB_AIRCR_PRIGROUP_Pos));
 8003284:	4b05      	ldr	r3, [pc, #20]	@ (800329c <HAL_NVIC_SetPriority+0x1c>)
 8003286:	68d8      	ldr	r0, [r3, #12]
  assert_param(IS_NVIC_SUB_PRIORITY(SubPriority));
  assert_param(IS_NVIC_PREEMPTION_PRIORITY(PreemptPriority));
  
  prioritygroup = NVIC_GetPriorityGrouping();
  
  NVIC_SetPriority(IRQn, NVIC_EncodePriority(prioritygroup, PreemptPriority, SubPriority));
 8003288:	f3c0 2002 	ubfx	r0, r0, #8, #3
 800328c:	f7ff ffc6 	bl	800321c <NVIC_EncodePriority>
 8003290:	4601      	mov	r1, r0
 8003292:	4620      	mov	r0, r4
 8003294:	f7ff ffae 	bl	80031f4 <__NVIC_SetPriority>
}
 8003298:	bd10      	pop	{r4, pc}
 800329a:	bf00      	nop
 800329c:	e000ed00 	.word	0xe000ed00

080032a0 <HAL_NVIC_EnableIRQ>:
  if ((int32_t)(IRQn) >= 0)
 80032a0:	2800      	cmp	r0, #0
 80032a2:	db07      	blt.n	80032b4 <HAL_NVIC_EnableIRQ+0x14>
    NVIC->ISER[(((uint32_t)IRQn) >> 5UL)] = (uint32_t)(1UL << (((uint32_t)IRQn) & 0x1FUL));
 80032a4:	f000 021f 	and.w	r2, r0, #31
 80032a8:	0940      	lsrs	r0, r0, #5
 80032aa:	2301      	movs	r3, #1
 80032ac:	4093      	lsls	r3, r2
 80032ae:	4a02      	ldr	r2, [pc, #8]	@ (80032b8 <HAL_NVIC_EnableIRQ+0x18>)
 80032b0:	f842 3020 	str.w	r3, [r2, r0, lsl #2]
  /* Check the parameters */
  assert_param(IS_NVIC_DEVICE_IRQ(IRQn));

  /* Enable interrupt */
  NVIC_EnableIRQ(IRQn);
}
 80032b4:	4770      	bx	lr
 80032b6:	bf00      	nop
 80032b8:	e000e100 	.word	0xe000e100

080032bc <HAL_SYSTICK_Config>:
           function <b>SysTick_Config</b> is not included. In this case, the file <b><i>device</i>.h</b>
           must contain a vendor-specific implementation of this function.
 */
__STATIC_INLINE uint32_t SysTick_Config(uint32_t ticks)
{
  if ((ticks - 1UL) > SysTick_LOAD_RELOAD_Msk)
 80032bc:	3801      	subs	r0, #1
 80032be:	f1b0 7f80 	cmp.w	r0, #16777216	@ 0x1000000
 80032c2:	d20b      	bcs.n	80032dc <HAL_SYSTICK_Config+0x20>
  {
    return (1UL);                                                   /* Reload value impossible */
  }

  SysTick->LOAD  = (uint32_t)(ticks - 1UL);                         /* set reload register */
 80032c4:	f04f 23e0 	mov.w	r3, #3758153728	@ 0xe000e000
 80032c8:	6158      	str	r0, [r3, #20]
    SCB->SHP[(((uint32_t)IRQn) & 0xFUL)-4UL] = (uint8_t)((priority << (8U - __NVIC_PRIO_BITS)) & (uint32_t)0xFFUL);
 80032ca:	4a05      	ldr	r2, [pc, #20]	@ (80032e0 <HAL_SYSTICK_Config+0x24>)
 80032cc:	21f0      	movs	r1, #240	@ 0xf0
 80032ce:	f882 1023 	strb.w	r1, [r2, #35]	@ 0x23
  NVIC_SetPriority (SysTick_IRQn, (1UL << __NVIC_PRIO_BITS) - 1UL); /* set Priority for Systick Interrupt */
  SysTick->VAL   = 0UL;                                             /* Load the SysTick Counter Value */
 80032d2:	2000      	movs	r0, #0
 80032d4:	6198      	str	r0, [r3, #24]
  SysTick->CTRL  = SysTick_CTRL_CLKSOURCE_Msk |
 80032d6:	2207      	movs	r2, #7
 80032d8:	611a      	str	r2, [r3, #16]
                   SysTick_CTRL_TICKINT_Msk   |
                   SysTick_CTRL_ENABLE_Msk;                         /* Enable SysTick IRQ and SysTick Timer */
  return (0UL);                                                     /* Function successful */
 80032da:	4770      	bx	lr
    return (1UL);                                                   /* Reload value impossible */
 80032dc:	2001      	movs	r0, #1
  *                  - 1  Function failed.
  */
uint32_t HAL_SYSTICK_Config(uint32_t TicksNumb)
{
   return SysTick_Config(TicksNumb);
}
 80032de:	4770      	bx	lr
 80032e0:	e000ed00 	.word	0xe000ed00

080032e4 <DMA_SetConfig>:
  * @param  DstAddress: The destination memory Buffer address
  * @param  DataLength: The length of data to be transferred from source to destination
  * @retval HAL status
  */
static void DMA_SetConfig(DMA_HandleTypeDef *hdma, uint32_t SrcAddress, uint32_t DstAddress, uint32_t DataLength)
{
 80032e4:	b430      	push	{r4, r5}
  /* Clear all flags */
  hdma->DmaBaseAddress->IFCR = (DMA_ISR_GIF1 << hdma->ChannelIndex);
 80032e6:	2401      	movs	r4, #1
 80032e8:	6c05      	ldr	r5, [r0, #64]	@ 0x40
 80032ea:	40ac      	lsls	r4, r5
 80032ec:	6bc5      	ldr	r5, [r0, #60]	@ 0x3c
 80032ee:	606c      	str	r4, [r5, #4]

  /* Configure DMA Channel data length */
  hdma->Instance->CNDTR = DataLength;
 80032f0:	6804      	ldr	r4, [r0, #0]
 80032f2:	6063      	str	r3, [r4, #4]

  /* Memory to Peripheral */
  if((hdma->Init.Direction) == DMA_MEMORY_TO_PERIPH)
 80032f4:	6843      	ldr	r3, [r0, #4]
 80032f6:	2b10      	cmp	r3, #16
 80032f8:	d005      	beq.n	8003306 <DMA_SetConfig+0x22>
  }
  /* Peripheral to Memory */
  else
  {
    /* Configure DMA Channel source address */
    hdma->Instance->CPAR = SrcAddress;
 80032fa:	6803      	ldr	r3, [r0, #0]
 80032fc:	6099      	str	r1, [r3, #8]

    /* Configure DMA Channel destination address */
    hdma->Instance->CMAR = DstAddress;
 80032fe:	6803      	ldr	r3, [r0, #0]
 8003300:	60da      	str	r2, [r3, #12]
  }
}
 8003302:	bc30      	pop	{r4, r5}
 8003304:	4770      	bx	lr
    hdma->Instance->CPAR = DstAddress;
 8003306:	6803      	ldr	r3, [r0, #0]
 8003308:	609a      	str	r2, [r3, #8]
    hdma->Instance->CMAR = SrcAddress;
 800330a:	6803      	ldr	r3, [r0, #0]
 800330c:	60d9      	str	r1, [r3, #12]
 800330e:	e7f8      	b.n	8003302 <DMA_SetConfig+0x1e>

08003310 <HAL_DMA_Init>:
  if(hdma == NULL)
 8003310:	b350      	cbz	r0, 8003368 <HAL_DMA_Init+0x58>
{
 8003312:	b410      	push	{r4}
 8003314:	4602      	mov	r2, r0
  hdma->ChannelIndex = (((uint32_t)hdma->Instance - (uint32_t)DMA1_Channel1) / ((uint32_t)DMA1_Channel2 - (uint32_t)DMA1_Channel1)) << 2;
 8003316:	6801      	ldr	r1, [r0, #0]
 8003318:	4b14      	ldr	r3, [pc, #80]	@ (800336c <HAL_DMA_Init+0x5c>)
 800331a:	440b      	add	r3, r1
 800331c:	4814      	ldr	r0, [pc, #80]	@ (8003370 <HAL_DMA_Init+0x60>)
 800331e:	fba0 0303 	umull	r0, r3, r0, r3
 8003322:	091b      	lsrs	r3, r3, #4
 8003324:	009b      	lsls	r3, r3, #2
 8003326:	6413      	str	r3, [r2, #64]	@ 0x40
  hdma->DmaBaseAddress = DMA1;
 8003328:	4b12      	ldr	r3, [pc, #72]	@ (8003374 <HAL_DMA_Init+0x64>)
 800332a:	63d3      	str	r3, [r2, #60]	@ 0x3c
  hdma->State = HAL_DMA_STATE_BUSY;
 800332c:	2302      	movs	r3, #2
 800332e:	f882 3021 	strb.w	r3, [r2, #33]	@ 0x21
  tmp = hdma->Instance->CCR;
 8003332:	6808      	ldr	r0, [r1, #0]
  tmp &= ((uint32_t)~(DMA_CCR_PL    | DMA_CCR_MSIZE  | DMA_CCR_PSIZE  | \
 8003334:	f36f 100d 	bfc	r0, #4, #10
  tmp |=  hdma->Init.Direction        |
 8003338:	6853      	ldr	r3, [r2, #4]
 800333a:	6894      	ldr	r4, [r2, #8]
 800333c:	4323      	orrs	r3, r4
          hdma->Init.PeriphInc           | hdma->Init.MemInc           |
 800333e:	68d4      	ldr	r4, [r2, #12]
 8003340:	4323      	orrs	r3, r4
 8003342:	6914      	ldr	r4, [r2, #16]
 8003344:	4323      	orrs	r3, r4
          hdma->Init.PeriphDataAlignment | hdma->Init.MemDataAlignment |
 8003346:	6954      	ldr	r4, [r2, #20]
 8003348:	4323      	orrs	r3, r4
 800334a:	6994      	ldr	r4, [r2, #24]
 800334c:	4323      	orrs	r3, r4
          hdma->Init.Mode                | hdma->Init.Priority;
 800334e:	69d4      	ldr	r4, [r2, #28]
 8003350:	4323      	orrs	r3, r4
  tmp |=  hdma->Init.Direction        |
 8003352:	4303      	orrs	r3, r0
  hdma->Instance->CCR = tmp;
 8003354:	600b      	str	r3, [r1, #0]
  hdma->ErrorCode = HAL_DMA_ERROR_NONE;
 8003356:	2000      	movs	r0, #0
 8003358:	6390      	str	r0, [r2, #56]	@ 0x38
  hdma->State = HAL_DMA_STATE_READY;
 800335a:	2301      	movs	r3, #1
 800335c:	f882 3021 	strb.w	r3, [r2, #33]	@ 0x21
  hdma->Lock = HAL_UNLOCKED;
 8003360:	f882 0020 	strb.w	r0, [r2, #32]
}
 8003364:	bc10      	pop	{r4}
 8003366:	4770      	bx	lr
    return HAL_ERROR;
 8003368:	2001      	movs	r0, #1
}
 800336a:	4770      	bx	lr
 800336c:	bffdfff8 	.word	0xbffdfff8
 8003370:	cccccccd 	.word	0xcccccccd
 8003374:	40020000 	.word	0x40020000

08003378 <HAL_DMA_Start_IT>:
{
 8003378:	b538      	push	{r3, r4, r5, lr}
 800337a:	4604      	mov	r4, r0
  __HAL_LOCK(hdma);
 800337c:	f890 0020 	ldrb.w	r0, [r0, #32]
 8003380:	2801      	cmp	r0, #1
 8003382:	d032      	beq.n	80033ea <HAL_DMA_Start_IT+0x72>
 8003384:	2001      	movs	r0, #1
 8003386:	f884 0020 	strb.w	r0, [r4, #32]
  if(HAL_DMA_STATE_READY == hdma->State)
 800338a:	f894 0021 	ldrb.w	r0, [r4, #33]	@ 0x21
 800338e:	b2c0      	uxtb	r0, r0
 8003390:	2801      	cmp	r0, #1
 8003392:	d004      	beq.n	800339e <HAL_DMA_Start_IT+0x26>
    __HAL_UNLOCK(hdma); 
 8003394:	2300      	movs	r3, #0
 8003396:	f884 3020 	strb.w	r3, [r4, #32]
    status = HAL_BUSY;
 800339a:	2002      	movs	r0, #2
}
 800339c:	bd38      	pop	{r3, r4, r5, pc}
    hdma->State = HAL_DMA_STATE_BUSY;
 800339e:	2002      	movs	r0, #2
 80033a0:	f884 0021 	strb.w	r0, [r4, #33]	@ 0x21
    hdma->ErrorCode = HAL_DMA_ERROR_NONE;
 80033a4:	2000      	movs	r0, #0
 80033a6:	63a0      	str	r0, [r4, #56]	@ 0x38
    __HAL_DMA_DISABLE(hdma);
 80033a8:	6825      	ldr	r5, [r4, #0]
 80033aa:	6828      	ldr	r0, [r5, #0]
 80033ac:	f020 0001 	bic.w	r0, r0, #1
 80033b0:	6028      	str	r0, [r5, #0]
    DMA_SetConfig(hdma, SrcAddress, DstAddress, DataLength);
 80033b2:	4620      	mov	r0, r4
 80033b4:	f7ff ff96 	bl	80032e4 <DMA_SetConfig>
    if(NULL != hdma->XferHalfCpltCallback)
 80033b8:	6ae3      	ldr	r3, [r4, #44]	@ 0x2c
 80033ba:	b15b      	cbz	r3, 80033d4 <HAL_DMA_Start_IT+0x5c>
      __HAL_DMA_ENABLE_IT(hdma, (DMA_IT_TC | DMA_IT_HT | DMA_IT_TE));
 80033bc:	6822      	ldr	r2, [r4, #0]
 80033be:	6813      	ldr	r3, [r2, #0]
 80033c0:	f043 030e 	orr.w	r3, r3, #14
 80033c4:	6013      	str	r3, [r2, #0]
    __HAL_DMA_ENABLE(hdma);
 80033c6:	6822      	ldr	r2, [r4, #0]
 80033c8:	6813      	ldr	r3, [r2, #0]
 80033ca:	f043 0301 	orr.w	r3, r3, #1
 80033ce:	6013      	str	r3, [r2, #0]
  HAL_StatusTypeDef status = HAL_OK;
 80033d0:	2000      	movs	r0, #0
 80033d2:	e7e3      	b.n	800339c <HAL_DMA_Start_IT+0x24>
      __HAL_DMA_DISABLE_IT(hdma, DMA_IT_HT);
 80033d4:	6822      	ldr	r2, [r4, #0]
 80033d6:	6813      	ldr	r3, [r2, #0]
 80033d8:	f023 0304 	bic.w	r3, r3, #4
 80033dc:	6013      	str	r3, [r2, #0]
      __HAL_DMA_ENABLE_IT(hdma, (DMA_IT_TC | DMA_IT_TE));
 80033de:	6822      	ldr	r2, [r4, #0]
 80033e0:	6813      	ldr	r3, [r2, #0]
 80033e2:	f043 030a 	orr.w	r3, r3, #10
 80033e6:	6013      	str	r3, [r2, #0]
 80033e8:	e7ed      	b.n	80033c6 <HAL_DMA_Start_IT+0x4e>
  __HAL_LOCK(hdma);
 80033ea:	2002      	movs	r0, #2
 80033ec:	e7d6      	b.n	800339c <HAL_DMA_Start_IT+0x24>
	...

080033f0 <HAL_DMA_IRQHandler>:
{
 80033f0:	b538      	push	{r3, r4, r5, lr}
  uint32_t flag_it = hdma->DmaBaseAddress->ISR;
 80033f2:	6bc3      	ldr	r3, [r0, #60]	@ 0x3c
 80033f4:	681a      	ldr	r2, [r3, #0]
  uint32_t source_it = hdma->Instance->CCR;
 80033f6:	6804      	ldr	r4, [r0, #0]
 80033f8:	6825      	ldr	r5, [r4, #0]
  if (((flag_it & (DMA_FLAG_HT1 << hdma->ChannelIndex)) != RESET) && ((source_it & DMA_IT_HT) != RESET))
 80033fa:	6c01      	ldr	r1, [r0, #64]	@ 0x40
 80033fc:	2304      	movs	r3, #4
 80033fe:	408b      	lsls	r3, r1
 8003400:	4213      	tst	r3, r2
 8003402:	d035      	beq.n	8003470 <HAL_DMA_IRQHandler+0x80>
 8003404:	f015 0f04 	tst.w	r5, #4
 8003408:	d032      	beq.n	8003470 <HAL_DMA_IRQHandler+0x80>
    if((hdma->Instance->CCR & DMA_CCR_CIRC) == 0U)
 800340a:	6823      	ldr	r3, [r4, #0]
 800340c:	f013 0f20 	tst.w	r3, #32
 8003410:	d103      	bne.n	800341a <HAL_DMA_IRQHandler+0x2a>
      __HAL_DMA_DISABLE_IT(hdma, DMA_IT_HT);
 8003412:	6823      	ldr	r3, [r4, #0]
 8003414:	f023 0304 	bic.w	r3, r3, #4
 8003418:	6023      	str	r3, [r4, #0]
    __HAL_DMA_CLEAR_FLAG(hdma, __HAL_DMA_GET_HT_FLAG_INDEX(hdma));
 800341a:	6803      	ldr	r3, [r0, #0]
 800341c:	4a43      	ldr	r2, [pc, #268]	@ (800352c <HAL_DMA_IRQHandler+0x13c>)
 800341e:	4293      	cmp	r3, r2
 8003420:	d014      	beq.n	800344c <HAL_DMA_IRQHandler+0x5c>
 8003422:	3214      	adds	r2, #20
 8003424:	4293      	cmp	r3, r2
 8003426:	d018      	beq.n	800345a <HAL_DMA_IRQHandler+0x6a>
 8003428:	3214      	adds	r2, #20
 800342a:	4293      	cmp	r3, r2
 800342c:	d017      	beq.n	800345e <HAL_DMA_IRQHandler+0x6e>
 800342e:	3214      	adds	r2, #20
 8003430:	4293      	cmp	r3, r2
 8003432:	d017      	beq.n	8003464 <HAL_DMA_IRQHandler+0x74>
 8003434:	3214      	adds	r2, #20
 8003436:	4293      	cmp	r3, r2
 8003438:	d017      	beq.n	800346a <HAL_DMA_IRQHandler+0x7a>
 800343a:	3214      	adds	r2, #20
 800343c:	4293      	cmp	r3, r2
 800343e:	d002      	beq.n	8003446 <HAL_DMA_IRQHandler+0x56>
 8003440:	f04f 6280 	mov.w	r2, #67108864	@ 0x4000000
 8003444:	e003      	b.n	800344e <HAL_DMA_IRQHandler+0x5e>
 8003446:	f44f 0280 	mov.w	r2, #4194304	@ 0x400000
 800344a:	e000      	b.n	800344e <HAL_DMA_IRQHandler+0x5e>
 800344c:	2204      	movs	r2, #4
 800344e:	4b38      	ldr	r3, [pc, #224]	@ (8003530 <HAL_DMA_IRQHandler+0x140>)
 8003450:	605a      	str	r2, [r3, #4]
    if(hdma->XferHalfCpltCallback != NULL)
 8003452:	6ac3      	ldr	r3, [r0, #44]	@ 0x2c
 8003454:	b103      	cbz	r3, 8003458 <HAL_DMA_IRQHandler+0x68>
      hdma->XferHalfCpltCallback(hdma);
 8003456:	4798      	blx	r3
}
 8003458:	bd38      	pop	{r3, r4, r5, pc}
    __HAL_DMA_CLEAR_FLAG(hdma, __HAL_DMA_GET_HT_FLAG_INDEX(hdma));
 800345a:	2240      	movs	r2, #64	@ 0x40
 800345c:	e7f7      	b.n	800344e <HAL_DMA_IRQHandler+0x5e>
 800345e:	f44f 6280 	mov.w	r2, #1024	@ 0x400
 8003462:	e7f4      	b.n	800344e <HAL_DMA_IRQHandler+0x5e>
 8003464:	f44f 4280 	mov.w	r2, #16384	@ 0x4000
 8003468:	e7f1      	b.n	800344e <HAL_DMA_IRQHandler+0x5e>
 800346a:	f44f 2280 	mov.w	r2, #262144	@ 0x40000
 800346e:	e7ee      	b.n	800344e <HAL_DMA_IRQHandler+0x5e>
  else if (((flag_it & (DMA_FLAG_TC1 << hdma->ChannelIndex)) != RESET) && ((source_it & DMA_IT_TC) != RESET))
 8003470:	2302      	movs	r3, #2
 8003472:	408b      	lsls	r3, r1
 8003474:	4213      	tst	r3, r2
 8003476:	d03c      	beq.n	80034f2 <HAL_DMA_IRQHandler+0x102>
 8003478:	f015 0f02 	tst.w	r5, #2
 800347c:	d039      	beq.n	80034f2 <HAL_DMA_IRQHandler+0x102>
    if((hdma->Instance->CCR & DMA_CCR_CIRC) == 0U)
 800347e:	6823      	ldr	r3, [r4, #0]
 8003480:	f013 0f20 	tst.w	r3, #32
 8003484:	d106      	bne.n	8003494 <HAL_DMA_IRQHandler+0xa4>
      __HAL_DMA_DISABLE_IT(hdma, DMA_IT_TE | DMA_IT_TC);  
 8003486:	6823      	ldr	r3, [r4, #0]
 8003488:	f023 030a 	bic.w	r3, r3, #10
 800348c:	6023      	str	r3, [r4, #0]
      hdma->State = HAL_DMA_STATE_READY;
 800348e:	2301      	movs	r3, #1
 8003490:	f880 3021 	strb.w	r3, [r0, #33]	@ 0x21
      __HAL_DMA_CLEAR_FLAG(hdma, __HAL_DMA_GET_TC_FLAG_INDEX(hdma));
 8003494:	6803      	ldr	r3, [r0, #0]
 8003496:	4a25      	ldr	r2, [pc, #148]	@ (800352c <HAL_DMA_IRQHandler+0x13c>)
 8003498:	4293      	cmp	r3, r2
 800349a:	d014      	beq.n	80034c6 <HAL_DMA_IRQHandler+0xd6>
 800349c:	3214      	adds	r2, #20
 800349e:	4293      	cmp	r3, r2
 80034a0:	d01c      	beq.n	80034dc <HAL_DMA_IRQHandler+0xec>
 80034a2:	3214      	adds	r2, #20
 80034a4:	4293      	cmp	r3, r2
 80034a6:	d01b      	beq.n	80034e0 <HAL_DMA_IRQHandler+0xf0>
 80034a8:	3214      	adds	r2, #20
 80034aa:	4293      	cmp	r3, r2
 80034ac:	d01b      	beq.n	80034e6 <HAL_DMA_IRQHandler+0xf6>
 80034ae:	3214      	adds	r2, #20
 80034b0:	4293      	cmp	r3, r2
 80034b2:	d01b      	beq.n	80034ec <HAL_DMA_IRQHandler+0xfc>
 80034b4:	3214      	adds	r2, #20
 80034b6:	4293      	cmp	r3, r2
 80034b8:	d002      	beq.n	80034c0 <HAL_DMA_IRQHandler+0xd0>
 80034ba:	f04f 7200 	mov.w	r2, #33554432	@ 0x2000000
 80034be:	e003      	b.n	80034c8 <HAL_DMA_IRQHandler+0xd8>
 80034c0:	f44f 1200 	mov.w	r2, #2097152	@ 0x200000
 80034c4:	e000      	b.n	80034c8 <HAL_DMA_IRQHandler+0xd8>
 80034c6:	2202      	movs	r2, #2
 80034c8:	4b19      	ldr	r3, [pc, #100]	@ (8003530 <HAL_DMA_IRQHandler+0x140>)
 80034ca:	605a      	str	r2, [r3, #4]
    __HAL_UNLOCK(hdma);
 80034cc:	2300      	movs	r3, #0
 80034ce:	f880 3020 	strb.w	r3, [r0, #32]
    if(hdma->XferCpltCallback != NULL)
 80034d2:	6a83      	ldr	r3, [r0, #40]	@ 0x28
 80034d4:	2b00      	cmp	r3, #0
 80034d6:	d0bf      	beq.n	8003458 <HAL_DMA_IRQHandler+0x68>
      hdma->XferCpltCallback(hdma);
 80034d8:	4798      	blx	r3
 80034da:	e7bd      	b.n	8003458 <HAL_DMA_IRQHandler+0x68>
      __HAL_DMA_CLEAR_FLAG(hdma, __HAL_DMA_GET_TC_FLAG_INDEX(hdma));
 80034dc:	2220      	movs	r2, #32
 80034de:	e7f3      	b.n	80034c8 <HAL_DMA_IRQHandler+0xd8>
 80034e0:	f44f 7200 	mov.w	r2, #512	@ 0x200
 80034e4:	e7f0      	b.n	80034c8 <HAL_DMA_IRQHandler+0xd8>
 80034e6:	f44f 5200 	mov.w	r2, #8192	@ 0x2000
 80034ea:	e7ed      	b.n	80034c8 <HAL_DMA_IRQHandler+0xd8>
 80034ec:	f44f 3200 	mov.w	r2, #131072	@ 0x20000
 80034f0:	e7ea      	b.n	80034c8 <HAL_DMA_IRQHandler+0xd8>
  else if (( RESET != (flag_it & (DMA_FLAG_TE1 << hdma->ChannelIndex))) && (RESET != (source_it & DMA_IT_TE)))
 80034f2:	2308      	movs	r3, #8
 80034f4:	408b      	lsls	r3, r1
 80034f6:	4213      	tst	r3, r2
 80034f8:	d0ae      	beq.n	8003458 <HAL_DMA_IRQHandler+0x68>
 80034fa:	f015 0f08 	tst.w	r5, #8
 80034fe:	d0ab      	beq.n	8003458 <HAL_DMA_IRQHandler+0x68>
    __HAL_DMA_DISABLE_IT(hdma, (DMA_IT_TC | DMA_IT_HT | DMA_IT_TE));
 8003500:	6823      	ldr	r3, [r4, #0]
 8003502:	f023 030e 	bic.w	r3, r3, #14
 8003506:	6023      	str	r3, [r4, #0]
    hdma->DmaBaseAddress->IFCR = (DMA_ISR_GIF1 << hdma->ChannelIndex);
 8003508:	6c02      	ldr	r2, [r0, #64]	@ 0x40
 800350a:	6bc1      	ldr	r1, [r0, #60]	@ 0x3c
 800350c:	2301      	movs	r3, #1
 800350e:	fa03 f202 	lsl.w	r2, r3, r2
 8003512:	604a      	str	r2, [r1, #4]
    hdma->ErrorCode = HAL_DMA_ERROR_TE;
 8003514:	6383      	str	r3, [r0, #56]	@ 0x38
    hdma->State = HAL_DMA_STATE_READY;
 8003516:	f880 3021 	strb.w	r3, [r0, #33]	@ 0x21
    __HAL_UNLOCK(hdma);
 800351a:	2300      	movs	r3, #0
 800351c:	f880 3020 	strb.w	r3, [r0, #32]
    if (hdma->XferErrorCallback != NULL)
 8003520:	6b03      	ldr	r3, [r0, #48]	@ 0x30
 8003522:	2b00      	cmp	r3, #0
 8003524:	d098      	beq.n	8003458 <HAL_DMA_IRQHandler+0x68>
      hdma->XferErrorCallback(hdma);
 8003526:	4798      	blx	r3
  return;
 8003528:	e796      	b.n	8003458 <HAL_DMA_IRQHandler+0x68>
 800352a:	bf00      	nop
 800352c:	40020008 	.word	0x40020008
 8003530:	40020000 	.word	0x40020000

08003534 <HAL_GPIO_Init>:
  * @param  GPIO_Init: pointer to a GPIO_InitTypeDef structure that contains
  *         the configuration information for the specified GPIO peripheral.
  * @retval None
  */
void HAL_GPIO_Init(GPIO_TypeDef  *GPIOx, GPIO_InitTypeDef *GPIO_Init)
{
 8003534:	b570      	push	{r4, r5, r6, lr}
 8003536:	b082      	sub	sp, #8
  uint32_t position = 0x00u;
  uint32_t ioposition;
  uint32_t iocurrent;
  uint32_t temp;
  uint32_t config = 0x00u;
 8003538:	2400      	movs	r4, #0
  uint32_t position = 0x00u;
 800353a:	46a4      	mov	ip, r4
  assert_param(IS_GPIO_ALL_INSTANCE(GPIOx));
  assert_param(IS_GPIO_PIN(GPIO_Init->Pin));
  assert_param(IS_GPIO_MODE(GPIO_Init->Mode));

  /* Configure the port pins */
  while (((GPIO_Init->Pin) >> position) != 0x00u)
 800353c:	e0a1      	b.n	8003682 <HAL_GPIO_Init+0x14e>
    {
      /* Check the Alternate function parameters */
      assert_param(IS_GPIO_AF_INSTANCE(GPIOx));

      /* Based on the required mode, filling config variable with MODEy[1:0] and CNFy[3:2] corresponding bits */
      switch (GPIO_Init->Mode)
 800353e:	4d7e      	ldr	r5, [pc, #504]	@ (8003738 <HAL_GPIO_Init+0x204>)
 8003540:	42ab      	cmp	r3, r5
 8003542:	d014      	beq.n	800356e <HAL_GPIO_Init+0x3a>
 8003544:	d80c      	bhi.n	8003560 <HAL_GPIO_Init+0x2c>
 8003546:	f5a5 1580 	sub.w	r5, r5, #1048576	@ 0x100000
 800354a:	42ab      	cmp	r3, r5
 800354c:	d00f      	beq.n	800356e <HAL_GPIO_Init+0x3a>
 800354e:	f505 2570 	add.w	r5, r5, #983040	@ 0xf0000
 8003552:	42ab      	cmp	r3, r5
 8003554:	d00b      	beq.n	800356e <HAL_GPIO_Init+0x3a>
 8003556:	f5a5 1580 	sub.w	r5, r5, #1048576	@ 0x100000
 800355a:	42ab      	cmp	r3, r5
 800355c:	d110      	bne.n	8003580 <HAL_GPIO_Init+0x4c>
 800355e:	e006      	b.n	800356e <HAL_GPIO_Init+0x3a>
 8003560:	4d76      	ldr	r5, [pc, #472]	@ (800373c <HAL_GPIO_Init+0x208>)
 8003562:	42ab      	cmp	r3, r5
 8003564:	d003      	beq.n	800356e <HAL_GPIO_Init+0x3a>
 8003566:	f505 3580 	add.w	r5, r5, #65536	@ 0x10000
 800356a:	42ab      	cmp	r3, r5
 800356c:	d108      	bne.n	8003580 <HAL_GPIO_Init+0x4c>
        case GPIO_MODE_EVT_RISING:
        case GPIO_MODE_EVT_FALLING:
        case GPIO_MODE_EVT_RISING_FALLING:
          /* Check the GPIO pull parameter */
          assert_param(IS_GPIO_PULL(GPIO_Init->Pull));
          if (GPIO_Init->Pull == GPIO_NOPULL)
 800356e:	688b      	ldr	r3, [r1, #8]
 8003570:	2b00      	cmp	r3, #0
 8003572:	d050      	beq.n	8003616 <HAL_GPIO_Init+0xe2>
          {
            config = GPIO_CR_MODE_INPUT + GPIO_CR_CNF_INPUT_FLOATING;
          }
          else if (GPIO_Init->Pull == GPIO_PULLUP)
 8003574:	2b01      	cmp	r3, #1
 8003576:	d049      	beq.n	800360c <HAL_GPIO_Init+0xd8>
          else /* GPIO_PULLDOWN */
          {
            config = GPIO_CR_MODE_INPUT + GPIO_CR_CNF_INPUT_PU_PD;

            /* Reset the corresponding ODR bit */
            GPIOx->BRR = ioposition;
 8003578:	6142      	str	r2, [r0, #20]
            config = GPIO_CR_MODE_INPUT + GPIO_CR_CNF_INPUT_PU_PD;
 800357a:	2408      	movs	r4, #8
 800357c:	e000      	b.n	8003580 <HAL_GPIO_Init+0x4c>
          config = GPIO_Init->Speed + GPIO_CR_CNF_GP_OUTPUT_PP;
 800357e:	68cc      	ldr	r4, [r1, #12]
          break;
      }

      /* Check if the current bit belongs to first half or last half of the pin count number
       in order to address CRH or CRL register*/
      configregister = (iocurrent < GPIO_PIN_8) ? &GPIOx->CRL     : &GPIOx->CRH;
 8003580:	f1be 0fff 	cmp.w	lr, #255	@ 0xff
 8003584:	d849      	bhi.n	800361a <HAL_GPIO_Init+0xe6>
 8003586:	4606      	mov	r6, r0
      registeroffset = (iocurrent < GPIO_PIN_8) ? (position << 2u) : ((position - 8u) << 2u);
 8003588:	ea4f 028c 	mov.w	r2, ip, lsl #2

      /* Apply the new configuration of the pin to the register */
      MODIFY_REG((*configregister), ((GPIO_CRL_MODE0 | GPIO_CRL_CNF0) << registeroffset), (config << registeroffset));
 800358c:	6833      	ldr	r3, [r6, #0]
 800358e:	250f      	movs	r5, #15
 8003590:	4095      	lsls	r5, r2
 8003592:	ea23 0305 	bic.w	r3, r3, r5
 8003596:	fa04 f202 	lsl.w	r2, r4, r2
 800359a:	4313      	orrs	r3, r2
 800359c:	6033      	str	r3, [r6, #0]

      /*--------------------- EXTI Mode Configuration ------------------------*/
      /* Configure the External Interrupt or event for the current IO */
      if ((GPIO_Init->Mode & EXTI_MODE) == EXTI_MODE)
 800359e:	684b      	ldr	r3, [r1, #4]
 80035a0:	f013 5f80 	tst.w	r3, #268435456	@ 0x10000000
 80035a4:	d06b      	beq.n	800367e <HAL_GPIO_Init+0x14a>
      {
        /* Enable AFIO Clock */
        __HAL_RCC_AFIO_CLK_ENABLE();
 80035a6:	4b66      	ldr	r3, [pc, #408]	@ (8003740 <HAL_GPIO_Init+0x20c>)
 80035a8:	699a      	ldr	r2, [r3, #24]
 80035aa:	f042 0201 	orr.w	r2, r2, #1
 80035ae:	619a      	str	r2, [r3, #24]
 80035b0:	699b      	ldr	r3, [r3, #24]
 80035b2:	f003 0301 	and.w	r3, r3, #1
 80035b6:	9301      	str	r3, [sp, #4]
 80035b8:	9b01      	ldr	r3, [sp, #4]
        temp = AFIO->EXTICR[position >> 2u];
 80035ba:	ea4f 029c 	mov.w	r2, ip, lsr #2
 80035be:	1c95      	adds	r5, r2, #2
 80035c0:	4b60      	ldr	r3, [pc, #384]	@ (8003744 <HAL_GPIO_Init+0x210>)
 80035c2:	f853 6025 	ldr.w	r6, [r3, r5, lsl #2]
        CLEAR_BIT(temp, (0x0Fu) << (4u * (position & 0x03u)));
 80035c6:	f00c 0503 	and.w	r5, ip, #3
 80035ca:	00ad      	lsls	r5, r5, #2
 80035cc:	230f      	movs	r3, #15
 80035ce:	40ab      	lsls	r3, r5
 80035d0:	ea26 0603 	bic.w	r6, r6, r3
        SET_BIT(temp, (GPIO_GET_INDEX(GPIOx)) << (4u * (position & 0x03u)));
 80035d4:	4b5c      	ldr	r3, [pc, #368]	@ (8003748 <HAL_GPIO_Init+0x214>)
 80035d6:	4298      	cmp	r0, r3
 80035d8:	d026      	beq.n	8003628 <HAL_GPIO_Init+0xf4>
 80035da:	f503 6380 	add.w	r3, r3, #1024	@ 0x400
 80035de:	4298      	cmp	r0, r3
 80035e0:	f000 808c 	beq.w	80036fc <HAL_GPIO_Init+0x1c8>
 80035e4:	f503 6380 	add.w	r3, r3, #1024	@ 0x400
 80035e8:	4298      	cmp	r0, r3
 80035ea:	f000 8089 	beq.w	8003700 <HAL_GPIO_Init+0x1cc>
 80035ee:	f503 6380 	add.w	r3, r3, #1024	@ 0x400
 80035f2:	4298      	cmp	r0, r3
 80035f4:	d016      	beq.n	8003624 <HAL_GPIO_Init+0xf0>
 80035f6:	2304      	movs	r3, #4
 80035f8:	e017      	b.n	800362a <HAL_GPIO_Init+0xf6>
          config = GPIO_Init->Speed + GPIO_CR_CNF_GP_OUTPUT_OD;
 80035fa:	68cc      	ldr	r4, [r1, #12]
 80035fc:	3404      	adds	r4, #4
          break;
 80035fe:	e7bf      	b.n	8003580 <HAL_GPIO_Init+0x4c>
          config = GPIO_Init->Speed + GPIO_CR_CNF_AF_OUTPUT_PP;
 8003600:	68cc      	ldr	r4, [r1, #12]
 8003602:	3408      	adds	r4, #8
          break;
 8003604:	e7bc      	b.n	8003580 <HAL_GPIO_Init+0x4c>
          config = GPIO_Init->Speed + GPIO_CR_CNF_AF_OUTPUT_OD;
 8003606:	68cc      	ldr	r4, [r1, #12]
 8003608:	340c      	adds	r4, #12
          break;
 800360a:	e7b9      	b.n	8003580 <HAL_GPIO_Init+0x4c>
            GPIOx->BSRR = ioposition;
 800360c:	6102      	str	r2, [r0, #16]
            config = GPIO_CR_MODE_INPUT + GPIO_CR_CNF_INPUT_PU_PD;
 800360e:	2408      	movs	r4, #8
 8003610:	e7b6      	b.n	8003580 <HAL_GPIO_Init+0x4c>
          config = GPIO_CR_MODE_INPUT + GPIO_CR_CNF_ANALOG;
 8003612:	2400      	movs	r4, #0
 8003614:	e7b4      	b.n	8003580 <HAL_GPIO_Init+0x4c>
            config = GPIO_CR_MODE_INPUT + GPIO_CR_CNF_INPUT_FLOATING;
 8003616:	2404      	movs	r4, #4
 8003618:	e7b2      	b.n	8003580 <HAL_GPIO_Init+0x4c>
      configregister = (iocurrent < GPIO_PIN_8) ? &GPIOx->CRL     : &GPIOx->CRH;
 800361a:	1d06      	adds	r6, r0, #4
      registeroffset = (iocurrent < GPIO_PIN_8) ? (position << 2u) : ((position - 8u) << 2u);
 800361c:	f1ac 0208 	sub.w	r2, ip, #8
 8003620:	0092      	lsls	r2, r2, #2
 8003622:	e7b3      	b.n	800358c <HAL_GPIO_Init+0x58>
        SET_BIT(temp, (GPIO_GET_INDEX(GPIOx)) << (4u * (position & 0x03u)));
 8003624:	2303      	movs	r3, #3
 8003626:	e000      	b.n	800362a <HAL_GPIO_Init+0xf6>
 8003628:	2300      	movs	r3, #0
 800362a:	40ab      	lsls	r3, r5
 800362c:	4333      	orrs	r3, r6
        AFIO->EXTICR[position >> 2u] = temp;
 800362e:	3202      	adds	r2, #2
 8003630:	4d44      	ldr	r5, [pc, #272]	@ (8003744 <HAL_GPIO_Init+0x210>)
 8003632:	f845 3022 	str.w	r3, [r5, r2, lsl #2]


        /* Enable or disable the rising trigger */
        if ((GPIO_Init->Mode & RISING_EDGE) == RISING_EDGE)
 8003636:	684b      	ldr	r3, [r1, #4]
 8003638:	f413 1f80 	tst.w	r3, #1048576	@ 0x100000
 800363c:	d062      	beq.n	8003704 <HAL_GPIO_Init+0x1d0>
        {
          SET_BIT(EXTI->RTSR, iocurrent);
 800363e:	4a43      	ldr	r2, [pc, #268]	@ (800374c <HAL_GPIO_Init+0x218>)
 8003640:	6893      	ldr	r3, [r2, #8]
 8003642:	ea43 030e 	orr.w	r3, r3, lr
 8003646:	6093      	str	r3, [r2, #8]
        {
          CLEAR_BIT(EXTI->RTSR, iocurrent);
        }

        /* Enable or disable the falling trigger */
        if ((GPIO_Init->Mode & FALLING_EDGE) == FALLING_EDGE)
 8003648:	684b      	ldr	r3, [r1, #4]
 800364a:	f413 1f00 	tst.w	r3, #2097152	@ 0x200000
 800364e:	d05f      	beq.n	8003710 <HAL_GPIO_Init+0x1dc>
        {
          SET_BIT(EXTI->FTSR, iocurrent);
 8003650:	4a3e      	ldr	r2, [pc, #248]	@ (800374c <HAL_GPIO_Init+0x218>)
 8003652:	68d3      	ldr	r3, [r2, #12]
 8003654:	ea43 030e 	orr.w	r3, r3, lr
 8003658:	60d3      	str	r3, [r2, #12]
        {
          CLEAR_BIT(EXTI->FTSR, iocurrent);
        }

        /* Configure the event mask */
        if ((GPIO_Init->Mode & GPIO_MODE_EVT) == GPIO_MODE_EVT)
 800365a:	684b      	ldr	r3, [r1, #4]
 800365c:	f413 3f00 	tst.w	r3, #131072	@ 0x20000
 8003660:	d05c      	beq.n	800371c <HAL_GPIO_Init+0x1e8>
        {
          SET_BIT(EXTI->EMR, iocurrent);
 8003662:	4a3a      	ldr	r2, [pc, #232]	@ (800374c <HAL_GPIO_Init+0x218>)
 8003664:	6853      	ldr	r3, [r2, #4]
 8003666:	ea43 030e 	orr.w	r3, r3, lr
 800366a:	6053      	str	r3, [r2, #4]
        {
          CLEAR_BIT(EXTI->EMR, iocurrent);
        }

        /* Configure the interrupt mask */
        if ((GPIO_Init->Mode & GPIO_MODE_IT) == GPIO_MODE_IT)
 800366c:	684b      	ldr	r3, [r1, #4]
 800366e:	f413 3f80 	tst.w	r3, #65536	@ 0x10000
 8003672:	d059      	beq.n	8003728 <HAL_GPIO_Init+0x1f4>
        {
          SET_BIT(EXTI->IMR, iocurrent);
 8003674:	4a35      	ldr	r2, [pc, #212]	@ (800374c <HAL_GPIO_Init+0x218>)
 8003676:	6813      	ldr	r3, [r2, #0]
 8003678:	ea43 030e 	orr.w	r3, r3, lr
 800367c:	6013      	str	r3, [r2, #0]
          CLEAR_BIT(EXTI->IMR, iocurrent);
        }
      }
    }

	position++;
 800367e:	f10c 0c01 	add.w	ip, ip, #1
  while (((GPIO_Init->Pin) >> position) != 0x00u)
 8003682:	680b      	ldr	r3, [r1, #0]
 8003684:	fa33 f20c 	lsrs.w	r2, r3, ip
 8003688:	d054      	beq.n	8003734 <HAL_GPIO_Init+0x200>
    ioposition = (0x01uL << position);
 800368a:	2201      	movs	r2, #1
 800368c:	fa02 f20c 	lsl.w	r2, r2, ip
    iocurrent = (uint32_t)(GPIO_Init->Pin) & ioposition;
 8003690:	ea03 0e02 	and.w	lr, r3, r2
    if (iocurrent == ioposition)
 8003694:	ea32 0303 	bics.w	r3, r2, r3
 8003698:	d1f1      	bne.n	800367e <HAL_GPIO_Init+0x14a>
      switch (GPIO_Init->Mode)
 800369a:	684b      	ldr	r3, [r1, #4]
 800369c:	2b12      	cmp	r3, #18
 800369e:	f63f af4e 	bhi.w	800353e <HAL_GPIO_Init+0xa>
 80036a2:	2b12      	cmp	r3, #18
 80036a4:	f63f af6c 	bhi.w	8003580 <HAL_GPIO_Init+0x4c>
 80036a8:	a501      	add	r5, pc, #4	@ (adr r5, 80036b0 <HAL_GPIO_Init+0x17c>)
 80036aa:	f855 f023 	ldr.w	pc, [r5, r3, lsl #2]
 80036ae:	bf00      	nop
 80036b0:	0800356f 	.word	0x0800356f
 80036b4:	0800357f 	.word	0x0800357f
 80036b8:	08003601 	.word	0x08003601
 80036bc:	08003613 	.word	0x08003613
 80036c0:	08003581 	.word	0x08003581
 80036c4:	08003581 	.word	0x08003581
 80036c8:	08003581 	.word	0x08003581
 80036cc:	08003581 	.word	0x08003581
 80036d0:	08003581 	.word	0x08003581
 80036d4:	08003581 	.word	0x08003581
 80036d8:	08003581 	.word	0x08003581
 80036dc:	08003581 	.word	0x08003581
 80036e0:	08003581 	.word	0x08003581
 80036e4:	08003581 	.word	0x08003581
 80036e8:	08003581 	.word	0x08003581
 80036ec:	08003581 	.word	0x08003581
 80036f0:	08003581 	.word	0x08003581
 80036f4:	080035fb 	.word	0x080035fb
 80036f8:	08003607 	.word	0x08003607
        SET_BIT(temp, (GPIO_GET_INDEX(GPIOx)) << (4u * (position & 0x03u)));
 80036fc:	2301      	movs	r3, #1
 80036fe:	e794      	b.n	800362a <HAL_GPIO_Init+0xf6>
 8003700:	2302      	movs	r3, #2
 8003702:	e792      	b.n	800362a <HAL_GPIO_Init+0xf6>
          CLEAR_BIT(EXTI->RTSR, iocurrent);
 8003704:	4a11      	ldr	r2, [pc, #68]	@ (800374c <HAL_GPIO_Init+0x218>)
 8003706:	6893      	ldr	r3, [r2, #8]
 8003708:	ea23 030e 	bic.w	r3, r3, lr
 800370c:	6093      	str	r3, [r2, #8]
 800370e:	e79b      	b.n	8003648 <HAL_GPIO_Init+0x114>
          CLEAR_BIT(EXTI->FTSR, iocurrent);
 8003710:	4a0e      	ldr	r2, [pc, #56]	@ (800374c <HAL_GPIO_Init+0x218>)
 8003712:	68d3      	ldr	r3, [r2, #12]
 8003714:	ea23 030e 	bic.w	r3, r3, lr
 8003718:	60d3      	str	r3, [r2, #12]
 800371a:	e79e      	b.n	800365a <HAL_GPIO_Init+0x126>
          CLEAR_BIT(EXTI->EMR, iocurrent);
 800371c:	4a0b      	ldr	r2, [pc, #44]	@ (800374c <HAL_GPIO_Init+0x218>)
 800371e:	6853      	ldr	r3, [r2, #4]
 8003720:	ea23 030e 	bic.w	r3, r3, lr
 8003724:	6053      	str	r3, [r2, #4]
 8003726:	e7a1      	b.n	800366c <HAL_GPIO_Init+0x138>
          CLEAR_BIT(EXTI->IMR, iocurrent);
 8003728:	4a08      	ldr	r2, [pc, #32]	@ (800374c <HAL_GPIO_Init+0x218>)
 800372a:	6813      	ldr	r3, [r2, #0]
 800372c:	ea23 030e 	bic.w	r3, r3, lr
 8003730:	6013      	str	r3, [r2, #0]
 8003732:	e7a4      	b.n	800367e <HAL_GPIO_Init+0x14a>
  }
}
 8003734:	b002      	add	sp, #8
 8003736:	bd70      	pop	{r4, r5, r6, pc}
 8003738:	10220000 	.word	0x10220000
 800373c:	10310000 	.word	0x10310000
 8003740:	40021000 	.word	0x40021000
 8003744:	40010000 	.word	0x40010000
 8003748:	40010800 	.word	0x40010800
 800374c:	40010400 	.word	0x40010400

08003750 <HAL_GPIO_ReadPin>:
  GPIO_PinState bitstatus;

  /* Check the parameters */
  assert_param(IS_GPIO_PIN(GPIO_Pin));

  if ((GPIOx->IDR & GPIO_Pin) != (uint32_t)GPIO_PIN_RESET)
 8003750:	6883      	ldr	r3, [r0, #8]
 8003752:	4219      	tst	r1, r3
 8003754:	d001      	beq.n	800375a <HAL_GPIO_ReadPin+0xa>
  {
    bitstatus = GPIO_PIN_SET;
 8003756:	2001      	movs	r0, #1
 8003758:	4770      	bx	lr
  }
  else
  {
    bitstatus = GPIO_PIN_RESET;
 800375a:	2000      	movs	r0, #0
  }
  return bitstatus;
}
 800375c:	4770      	bx	lr

0800375e <HAL_GPIO_WritePin>:
{
  /* Check the parameters */
  assert_param(IS_GPIO_PIN(GPIO_Pin));
  assert_param(IS_GPIO_PIN_ACTION(PinState));

  if (PinState != GPIO_PIN_RESET)
 800375e:	b10a      	cbz	r2, 8003764 <HAL_GPIO_WritePin+0x6>
  {
    GPIOx->BSRR = GPIO_Pin;
 8003760:	6101      	str	r1, [r0, #16]
 8003762:	4770      	bx	lr
  }
  else
  {
    GPIOx->BSRR = (uint32_t)GPIO_Pin << 16u;
 8003764:	0409      	lsls	r1, r1, #16
 8003766:	6101      	str	r1, [r0, #16]
  }
}
 8003768:	4770      	bx	lr
	...

0800376c <HAL_GPIO_EXTI_IRQHandler>:
  * @brief  This function handles EXTI interrupt request.
  * @param  GPIO_Pin: Specifies the pins connected EXTI line
  * @retval None
  */
void HAL_GPIO_EXTI_IRQHandler(uint16_t GPIO_Pin)
{
 800376c:	b508      	push	{r3, lr}
  /* EXTI line interrupt detected */
  if (__HAL_GPIO_EXTI_GET_IT(GPIO_Pin) != 0x00u)
 800376e:	4b05      	ldr	r3, [pc, #20]	@ (8003784 <HAL_GPIO_EXTI_IRQHandler+0x18>)
 8003770:	695b      	ldr	r3, [r3, #20]
 8003772:	4203      	tst	r3, r0
 8003774:	d100      	bne.n	8003778 <HAL_GPIO_EXTI_IRQHandler+0xc>
  {
    __HAL_GPIO_EXTI_CLEAR_IT(GPIO_Pin);
    HAL_GPIO_EXTI_Callback(GPIO_Pin);
  }
}
 8003776:	bd08      	pop	{r3, pc}
    __HAL_GPIO_EXTI_CLEAR_IT(GPIO_Pin);
 8003778:	4b02      	ldr	r3, [pc, #8]	@ (8003784 <HAL_GPIO_EXTI_IRQHandler+0x18>)
 800377a:	6158      	str	r0, [r3, #20]
    HAL_GPIO_EXTI_Callback(GPIO_Pin);
 800377c:	f7fe fb58 	bl	8001e30 <HAL_GPIO_EXTI_Callback>
}
 8003780:	e7f9      	b.n	8003776 <HAL_GPIO_EXTI_IRQHandler+0xa>
 8003782:	bf00      	nop
 8003784:	40010400 	.word	0x40010400

08003788 <HAL_MspInit>:
/* USER CODE END 0 */
/**
  * Initializes the Global MSP.
  */
void HAL_MspInit(void)
{
 8003788:	b082      	sub	sp, #8

  /* USER CODE BEGIN MspInit 0 */

  /* USER CODE END MspInit 0 */

  __HAL_RCC_AFIO_CLK_ENABLE();
 800378a:	4b0e      	ldr	r3, [pc, #56]	@ (80037c4 <HAL_MspInit+0x3c>)
 800378c:	699a      	ldr	r2, [r3, #24]
 800378e:	f042 0201 	orr.w	r2, r2, #1
 8003792:	619a      	str	r2, [r3, #24]
 8003794:	699a      	ldr	r2, [r3, #24]
 8003796:	f002 0201 	and.w	r2, r2, #1
 800379a:	9200      	str	r2, [sp, #0]
 800379c:	9a00      	ldr	r2, [sp, #0]
  __HAL_RCC_PWR_CLK_ENABLE();
 800379e:	69da      	ldr	r2, [r3, #28]
 80037a0:	f042 5280 	orr.w	r2, r2, #268435456	@ 0x10000000
 80037a4:	61da      	str	r2, [r3, #28]
 80037a6:	69db      	ldr	r3, [r3, #28]
 80037a8:	f003 5380 	and.w	r3, r3, #268435456	@ 0x10000000
 80037ac:	9301      	str	r3, [sp, #4]
 80037ae:	9b01      	ldr	r3, [sp, #4]

  /* System interrupt init*/

  /** NOJTAG: JTAG-DP Disabled and SW-DP Enabled
  */
  __HAL_AFIO_REMAP_SWJ_NOJTAG();
 80037b0:	4a05      	ldr	r2, [pc, #20]	@ (80037c8 <HAL_MspInit+0x40>)
 80037b2:	6853      	ldr	r3, [r2, #4]
 80037b4:	f023 63e0 	bic.w	r3, r3, #117440512	@ 0x7000000
 80037b8:	f043 7300 	orr.w	r3, r3, #33554432	@ 0x2000000
 80037bc:	6053      	str	r3, [r2, #4]

  /* USER CODE BEGIN MspInit 1 */

  /* USER CODE END MspInit 1 */
}
 80037be:	b002      	add	sp, #8
 80037c0:	4770      	bx	lr
 80037c2:	bf00      	nop
 80037c4:	40021000 	.word	0x40021000
 80037c8:	40010000 	.word	0x40010000

080037cc <HAL_PCD_EP_DB_Receive>:
  * @param  wEPVal Last snapshot of EPRx register value taken in ISR
  * @retval HAL status
  */
static uint16_t HAL_PCD_EP_DB_Receive(PCD_HandleTypeDef *hpcd,
                                      PCD_EPTypeDef *ep, uint16_t wEPVal)
{
 80037cc:	b538      	push	{r3, r4, r5, lr}
  uint16_t count;

  /* Manage Buffer0 OUT */
  if ((wEPVal & USB_EP_DTOG_RX) != 0U)
 80037ce:	f412 4f80 	tst.w	r2, #16384	@ 0x4000
 80037d2:	d044      	beq.n	800385e <HAL_PCD_EP_DB_Receive+0x92>
  {
    /* Get count of received Data on buffer0 */
    count = (uint16_t)PCD_GET_EP_DBUF0_CNT(hpcd->Instance, ep->num);
 80037d4:	6804      	ldr	r4, [r0, #0]
 80037d6:	f8b4 3050 	ldrh.w	r3, [r4, #80]	@ 0x50
 80037da:	b29b      	uxth	r3, r3
 80037dc:	f891 c000 	ldrb.w	ip, [r1]
 80037e0:	eb03 03cc 	add.w	r3, r3, ip, lsl #3
 80037e4:	3302      	adds	r3, #2
 80037e6:	eb04 0443 	add.w	r4, r4, r3, lsl #1
 80037ea:	f8b4 4400 	ldrh.w	r4, [r4, #1024]	@ 0x400
 80037ee:	f3c4 0409 	ubfx	r4, r4, #0, #10

    if (ep->xfer_len >= count)
 80037f2:	698b      	ldr	r3, [r1, #24]
 80037f4:	42a3      	cmp	r3, r4
 80037f6:	d328      	bcc.n	800384a <HAL_PCD_EP_DB_Receive+0x7e>
    {
      ep->xfer_len -= count;
 80037f8:	1b1b      	subs	r3, r3, r4
 80037fa:	618b      	str	r3, [r1, #24]
    else
    {
      ep->xfer_len = 0U;
    }

    if (ep->xfer_len == 0U)
 80037fc:	698b      	ldr	r3, [r1, #24]
 80037fe:	b97b      	cbnz	r3, 8003820 <HAL_PCD_EP_DB_Receive+0x54>
    {
      /* set NAK to OUT endpoint since double buffer is enabled */
      PCD_SET_EP_RX_STATUS(hpcd->Instance, ep->num, USB_EP_RX_NAK);
 8003800:	6805      	ldr	r5, [r0, #0]
 8003802:	f835 302c 	ldrh.w	r3, [r5, ip, lsl #2]
 8003806:	b29b      	uxth	r3, r3
 8003808:	f423 4380 	bic.w	r3, r3, #16384	@ 0x4000
 800380c:	f023 0370 	bic.w	r3, r3, #112	@ 0x70
 8003810:	f483 5300 	eor.w	r3, r3, #8192	@ 0x2000
 8003814:	f443 4300 	orr.w	r3, r3, #32768	@ 0x8000
 8003818:	f043 0380 	orr.w	r3, r3, #128	@ 0x80
 800381c:	f825 302c 	strh.w	r3, [r5, ip, lsl #2]
    }

    /* Check if Buffer1 is in blocked state which requires to toggle */
    if ((wEPVal & USB_EP_DTOG_TX) != 0U)
 8003820:	f012 0f40 	tst.w	r2, #64	@ 0x40
 8003824:	d00e      	beq.n	8003844 <HAL_PCD_EP_DB_Receive+0x78>
    {
      PCD_FREE_USER_BUFFER(hpcd->Instance, ep->num, 0U);
 8003826:	6802      	ldr	r2, [r0, #0]
 8003828:	780d      	ldrb	r5, [r1, #0]
 800382a:	f832 3025 	ldrh.w	r3, [r2, r5, lsl #2]
 800382e:	b29b      	uxth	r3, r3
 8003830:	f423 43e0 	bic.w	r3, r3, #28672	@ 0x7000
 8003834:	f023 0370 	bic.w	r3, r3, #112	@ 0x70
 8003838:	f443 4300 	orr.w	r3, r3, #32768	@ 0x8000
 800383c:	f043 03c0 	orr.w	r3, r3, #192	@ 0xc0
 8003840:	f822 3025 	strh.w	r3, [r2, r5, lsl #2]
    }

    if (count != 0U)
 8003844:	b924      	cbnz	r4, 8003850 <HAL_PCD_EP_DB_Receive+0x84>
      USB_ReadPMA(hpcd->Instance, ep->xfer_buff, ep->pmaaddr1, count);
    }
  }

  return count;
}
 8003846:	4620      	mov	r0, r4
 8003848:	bd38      	pop	{r3, r4, r5, pc}
      ep->xfer_len = 0U;
 800384a:	2300      	movs	r3, #0
 800384c:	618b      	str	r3, [r1, #24]
 800384e:	e7d5      	b.n	80037fc <HAL_PCD_EP_DB_Receive+0x30>
      USB_ReadPMA(hpcd->Instance, ep->xfer_buff, ep->pmaaddr0, count);
 8003850:	4623      	mov	r3, r4
 8003852:	890a      	ldrh	r2, [r1, #8]
 8003854:	6949      	ldr	r1, [r1, #20]
 8003856:	6800      	ldr	r0, [r0, #0]
 8003858:	f002 ffe9 	bl	800682e <USB_ReadPMA>
 800385c:	e7f3      	b.n	8003846 <HAL_PCD_EP_DB_Receive+0x7a>
    count = (uint16_t)PCD_GET_EP_DBUF1_CNT(hpcd->Instance, ep->num);
 800385e:	6804      	ldr	r4, [r0, #0]
 8003860:	f8b4 3050 	ldrh.w	r3, [r4, #80]	@ 0x50
 8003864:	b29b      	uxth	r3, r3
 8003866:	f891 c000 	ldrb.w	ip, [r1]
 800386a:	eb03 03cc 	add.w	r3, r3, ip, lsl #3
 800386e:	3306      	adds	r3, #6
 8003870:	eb04 0443 	add.w	r4, r4, r3, lsl #1
 8003874:	f8b4 4400 	ldrh.w	r4, [r4, #1024]	@ 0x400
 8003878:	f3c4 0409 	ubfx	r4, r4, #0, #10
    if (ep->xfer_len >= count)
 800387c:	698b      	ldr	r3, [r1, #24]
 800387e:	42a3      	cmp	r3, r4
 8003880:	d32f      	bcc.n	80038e2 <HAL_PCD_EP_DB_Receive+0x116>
      ep->xfer_len -= count;
 8003882:	1b1b      	subs	r3, r3, r4
 8003884:	618b      	str	r3, [r1, #24]
    if (ep->xfer_len == 0U)
 8003886:	698b      	ldr	r3, [r1, #24]
 8003888:	b97b      	cbnz	r3, 80038aa <HAL_PCD_EP_DB_Receive+0xde>
      PCD_SET_EP_RX_STATUS(hpcd->Instance, ep->num, USB_EP_RX_NAK);
 800388a:	6805      	ldr	r5, [r0, #0]
 800388c:	f835 302c 	ldrh.w	r3, [r5, ip, lsl #2]
 8003890:	b29b      	uxth	r3, r3
 8003892:	f423 4380 	bic.w	r3, r3, #16384	@ 0x4000
 8003896:	f023 0370 	bic.w	r3, r3, #112	@ 0x70
 800389a:	f483 5300 	eor.w	r3, r3, #8192	@ 0x2000
 800389e:	f443 4300 	orr.w	r3, r3, #32768	@ 0x8000
 80038a2:	f043 0380 	orr.w	r3, r3, #128	@ 0x80
 80038a6:	f825 302c 	strh.w	r3, [r5, ip, lsl #2]
    if ((wEPVal & USB_EP_DTOG_TX) == 0U)
 80038aa:	f012 0f40 	tst.w	r2, #64	@ 0x40
 80038ae:	d10f      	bne.n	80038d0 <HAL_PCD_EP_DB_Receive+0x104>
      PCD_FREE_USER_BUFFER(hpcd->Instance, ep->num, 0U);
 80038b0:	6802      	ldr	r2, [r0, #0]
 80038b2:	f891 c000 	ldrb.w	ip, [r1]
 80038b6:	f832 302c 	ldrh.w	r3, [r2, ip, lsl #2]
 80038ba:	b29b      	uxth	r3, r3
 80038bc:	f423 43e0 	bic.w	r3, r3, #28672	@ 0x7000
 80038c0:	f023 0370 	bic.w	r3, r3, #112	@ 0x70
 80038c4:	f443 4300 	orr.w	r3, r3, #32768	@ 0x8000
 80038c8:	f043 03c0 	orr.w	r3, r3, #192	@ 0xc0
 80038cc:	f822 302c 	strh.w	r3, [r2, ip, lsl #2]
    if (count != 0U)
 80038d0:	2c00      	cmp	r4, #0
 80038d2:	d0b8      	beq.n	8003846 <HAL_PCD_EP_DB_Receive+0x7a>
      USB_ReadPMA(hpcd->Instance, ep->xfer_buff, ep->pmaaddr1, count);
 80038d4:	4623      	mov	r3, r4
 80038d6:	894a      	ldrh	r2, [r1, #10]
 80038d8:	6949      	ldr	r1, [r1, #20]
 80038da:	6800      	ldr	r0, [r0, #0]
 80038dc:	f002 ffa7 	bl	800682e <USB_ReadPMA>
 80038e0:	e7b1      	b.n	8003846 <HAL_PCD_EP_DB_Receive+0x7a>
      ep->xfer_len = 0U;
 80038e2:	2300      	movs	r3, #0
 80038e4:	618b      	str	r3, [r1, #24]
 80038e6:	e7ce      	b.n	8003886 <HAL_PCD_EP_DB_Receive+0xba>

080038e8 <HAL_PCD_Init>:
{
 80038e8:	b538      	push	{r3, r4, r5, lr}
  if (hpcd == NULL)
 80038ea:	2800      	cmp	r0, #0
 80038ec:	d06e      	beq.n	80039cc <HAL_PCD_Init+0xe4>
 80038ee:	4604      	mov	r4, r0
  if (hpcd->State == HAL_PCD_STATE_RESET)
 80038f0:	f890 3291 	ldrb.w	r3, [r0, #657]	@ 0x291
 80038f4:	b1a3      	cbz	r3, 8003920 <HAL_PCD_Init+0x38>
  hpcd->State = HAL_PCD_STATE_BUSY;
 80038f6:	2303      	movs	r3, #3
 80038f8:	f884 3291 	strb.w	r3, [r4, #657]	@ 0x291
  hpcd->Init.dma_enable = 0U;
 80038fc:	2300      	movs	r3, #0
 80038fe:	7163      	strb	r3, [r4, #5]
  __HAL_PCD_DISABLE(hpcd);
 8003900:	6820      	ldr	r0, [r4, #0]
 8003902:	f002 f827 	bl	8005954 <USB_DisableGlobalInt>
  if (USB_CoreInit(hpcd->Instance, hpcd->Init) != HAL_OK)
 8003906:	4623      	mov	r3, r4
 8003908:	f853 0b04 	ldr.w	r0, [r3], #4
 800390c:	cb0e      	ldmia	r3, {r1, r2, r3}
 800390e:	f002 f811 	bl	8005934 <USB_CoreInit>
 8003912:	b150      	cbz	r0, 800392a <HAL_PCD_Init+0x42>
    hpcd->State = HAL_PCD_STATE_ERROR;
 8003914:	2302      	movs	r3, #2
 8003916:	f884 3291 	strb.w	r3, [r4, #657]	@ 0x291
    return HAL_ERROR;
 800391a:	2501      	movs	r5, #1
}
 800391c:	4628      	mov	r0, r5
 800391e:	bd38      	pop	{r3, r4, r5, pc}
    hpcd->Lock = HAL_UNLOCKED;
 8003920:	f880 3290 	strb.w	r3, [r0, #656]	@ 0x290
    HAL_PCD_MspInit(hpcd);
 8003924:	f003 fba8 	bl	8007078 <HAL_PCD_MspInit>
 8003928:	e7e5      	b.n	80038f6 <HAL_PCD_Init+0xe>
  if (USB_SetCurrentMode(hpcd->Instance, USB_DEVICE_MODE) != HAL_OK)
 800392a:	2100      	movs	r1, #0
 800392c:	6820      	ldr	r0, [r4, #0]
 800392e:	f002 f81b 	bl	8005968 <USB_SetCurrentMode>
 8003932:	4603      	mov	r3, r0
 8003934:	b908      	cbnz	r0, 800393a <HAL_PCD_Init+0x52>
  for (i = 0U; i < hpcd->Init.dev_endpoints; i++)
 8003936:	4602      	mov	r2, r0
 8003938:	e015      	b.n	8003966 <HAL_PCD_Init+0x7e>
    hpcd->State = HAL_PCD_STATE_ERROR;
 800393a:	2302      	movs	r3, #2
 800393c:	f884 3291 	strb.w	r3, [r4, #657]	@ 0x291
    return HAL_ERROR;
 8003940:	2501      	movs	r5, #1
 8003942:	e7eb      	b.n	800391c <HAL_PCD_Init+0x34>
    hpcd->IN_ep[i].is_in = 1U;
 8003944:	eb02 0182 	add.w	r1, r2, r2, lsl #2
 8003948:	eb04 01c1 	add.w	r1, r4, r1, lsl #3
 800394c:	2001      	movs	r0, #1
 800394e:	7448      	strb	r0, [r1, #17]
    hpcd->IN_ep[i].num = i;
 8003950:	740a      	strb	r2, [r1, #16]
    hpcd->IN_ep[i].type = EP_TYPE_CTRL;
 8003952:	2000      	movs	r0, #0
 8003954:	74c8      	strb	r0, [r1, #19]
    hpcd->IN_ep[i].maxpacket = 0U;
 8003956:	6208      	str	r0, [r1, #32]
    hpcd->IN_ep[i].xfer_buff = 0U;
 8003958:	6248      	str	r0, [r1, #36]	@ 0x24
    hpcd->IN_ep[i].xfer_len = 0U;
 800395a:	3201      	adds	r2, #1
 800395c:	eb02 0182 	add.w	r1, r2, r2, lsl #2
 8003960:	00c9      	lsls	r1, r1, #3
 8003962:	5060      	str	r0, [r4, r1]
  for (i = 0U; i < hpcd->Init.dev_endpoints; i++)
 8003964:	b2d2      	uxtb	r2, r2
 8003966:	7920      	ldrb	r0, [r4, #4]
 8003968:	4290      	cmp	r0, r2
 800396a:	d8eb      	bhi.n	8003944 <HAL_PCD_Init+0x5c>
 800396c:	e016      	b.n	800399c <HAL_PCD_Init+0xb4>
    hpcd->OUT_ep[i].is_in = 0U;
 800396e:	eb03 0283 	add.w	r2, r3, r3, lsl #2
 8003972:	eb04 02c2 	add.w	r2, r4, r2, lsl #3
 8003976:	2100      	movs	r1, #0
 8003978:	f882 1151 	strb.w	r1, [r2, #337]	@ 0x151
    hpcd->OUT_ep[i].num = i;
 800397c:	f882 3150 	strb.w	r3, [r2, #336]	@ 0x150
    hpcd->OUT_ep[i].type = EP_TYPE_CTRL;
 8003980:	f882 1153 	strb.w	r1, [r2, #339]	@ 0x153
    hpcd->OUT_ep[i].maxpacket = 0U;
 8003984:	f8c2 1160 	str.w	r1, [r2, #352]	@ 0x160
    hpcd->OUT_ep[i].xfer_buff = 0U;
 8003988:	f8c2 1164 	str.w	r1, [r2, #356]	@ 0x164
    hpcd->OUT_ep[i].xfer_len = 0U;
 800398c:	eb03 0283 	add.w	r2, r3, r3, lsl #2
 8003990:	eb04 02c2 	add.w	r2, r4, r2, lsl #3
 8003994:	f8c2 1168 	str.w	r1, [r2, #360]	@ 0x168
  for (i = 0U; i < hpcd->Init.dev_endpoints; i++)
 8003998:	3301      	adds	r3, #1
 800399a:	b2db      	uxtb	r3, r3
 800399c:	4298      	cmp	r0, r3
 800399e:	d8e6      	bhi.n	800396e <HAL_PCD_Init+0x86>
  if (USB_DevInit(hpcd->Instance, hpcd->Init) != HAL_OK)
 80039a0:	4623      	mov	r3, r4
 80039a2:	f853 0b04 	ldr.w	r0, [r3], #4
 80039a6:	cb0e      	ldmia	r3, {r1, r2, r3}
 80039a8:	f001 ffe0 	bl	800596c <USB_DevInit>
 80039ac:	4605      	mov	r5, r0
 80039ae:	b120      	cbz	r0, 80039ba <HAL_PCD_Init+0xd2>
    hpcd->State = HAL_PCD_STATE_ERROR;
 80039b0:	2302      	movs	r3, #2
 80039b2:	f884 3291 	strb.w	r3, [r4, #657]	@ 0x291
    return HAL_ERROR;
 80039b6:	2501      	movs	r5, #1
 80039b8:	e7b0      	b.n	800391c <HAL_PCD_Init+0x34>
  hpcd->USB_Address = 0U;
 80039ba:	2300      	movs	r3, #0
 80039bc:	7363      	strb	r3, [r4, #13]
  hpcd->State = HAL_PCD_STATE_READY;
 80039be:	2301      	movs	r3, #1
 80039c0:	f884 3291 	strb.w	r3, [r4, #657]	@ 0x291
  (void)USB_DevDisconnect(hpcd->Instance);
 80039c4:	6820      	ldr	r0, [r4, #0]
 80039c6:	f002 fb30 	bl	800602a <USB_DevDisconnect>
  return HAL_OK;
 80039ca:	e7a7      	b.n	800391c <HAL_PCD_Init+0x34>
    return HAL_ERROR;
 80039cc:	2501      	movs	r5, #1
 80039ce:	e7a5      	b.n	800391c <HAL_PCD_Init+0x34>

080039d0 <HAL_PCD_Start>:
{
 80039d0:	b538      	push	{r3, r4, r5, lr}
  __HAL_LOCK(hpcd);
 80039d2:	f890 3290 	ldrb.w	r3, [r0, #656]	@ 0x290
 80039d6:	2b01      	cmp	r3, #1
 80039d8:	d011      	beq.n	80039fe <HAL_PCD_Start+0x2e>
 80039da:	4604      	mov	r4, r0
 80039dc:	2501      	movs	r5, #1
 80039de:	f880 5290 	strb.w	r5, [r0, #656]	@ 0x290
  __HAL_PCD_ENABLE(hpcd);
 80039e2:	6800      	ldr	r0, [r0, #0]
 80039e4:	f001 ffad 	bl	8005942 <USB_EnableGlobalInt>
  HAL_PCDEx_SetConnectionState(hpcd, 1U);
 80039e8:	4629      	mov	r1, r5
 80039ea:	4620      	mov	r0, r4
 80039ec:	f003 fc59 	bl	80072a2 <HAL_PCDEx_SetConnectionState>
  (void)USB_DevConnect(hpcd->Instance);
 80039f0:	6820      	ldr	r0, [r4, #0]
 80039f2:	f002 fb18 	bl	8006026 <USB_DevConnect>
  __HAL_UNLOCK(hpcd);
 80039f6:	2000      	movs	r0, #0
 80039f8:	f884 0290 	strb.w	r0, [r4, #656]	@ 0x290
}
 80039fc:	bd38      	pop	{r3, r4, r5, pc}
  __HAL_LOCK(hpcd);
 80039fe:	2002      	movs	r0, #2
 8003a00:	e7fc      	b.n	80039fc <HAL_PCD_Start+0x2c>

08003a02 <HAL_PCD_EP_DB_Transmit>:
  * @param  wEPVal Last snapshot of EPRx register value taken in ISR
  * @retval HAL status
  */
static HAL_StatusTypeDef HAL_PCD_EP_DB_Transmit(PCD_HandleTypeDef *hpcd,
                                                PCD_EPTypeDef *ep, uint16_t wEPVal)
{
 8003a02:	b570      	push	{r4, r5, r6, lr}
 8003a04:	4605      	mov	r5, r0
 8003a06:	460c      	mov	r4, r1
 8003a08:	4616      	mov	r6, r2
  uint32_t len;
  uint16_t TxPctSize;

  /* Data Buffer0 ACK received */
  if ((wEPVal & USB_EP_DTOG_TX) != 0U)
 8003a0a:	f012 0f40 	tst.w	r2, #64	@ 0x40
 8003a0e:	f000 810e 	beq.w	8003c2e <HAL_PCD_EP_DB_Transmit+0x22c>
  {
    /* multi-packet on the NON control IN endpoint */
    TxPctSize = (uint16_t)PCD_GET_EP_DBUF0_CNT(hpcd->Instance, ep->num);
 8003a12:	6802      	ldr	r2, [r0, #0]
 8003a14:	f8b2 3050 	ldrh.w	r3, [r2, #80]	@ 0x50
 8003a18:	b29b      	uxth	r3, r3
 8003a1a:	7809      	ldrb	r1, [r1, #0]
 8003a1c:	eb03 03c1 	add.w	r3, r3, r1, lsl #3
 8003a20:	3302      	adds	r3, #2
 8003a22:	eb02 0243 	add.w	r2, r2, r3, lsl #1
 8003a26:	f8b2 2400 	ldrh.w	r2, [r2, #1024]	@ 0x400
 8003a2a:	f3c2 0209 	ubfx	r2, r2, #0, #10

    if (ep->xfer_len > TxPctSize)
 8003a2e:	69a3      	ldr	r3, [r4, #24]
 8003a30:	4293      	cmp	r3, r2
 8003a32:	d94e      	bls.n	8003ad2 <HAL_PCD_EP_DB_Transmit+0xd0>
    {
      ep->xfer_len -= TxPctSize;
 8003a34:	1a9b      	subs	r3, r3, r2
 8003a36:	61a3      	str	r3, [r4, #24]
    {
      ep->xfer_len = 0U;
    }

    /* Transfer is completed */
    if (ep->xfer_len == 0U)
 8003a38:	69a3      	ldr	r3, [r4, #24]
 8003a3a:	2b00      	cmp	r3, #0
 8003a3c:	d166      	bne.n	8003b0c <HAL_PCD_EP_DB_Transmit+0x10a>
    {
      PCD_SET_EP_DBUF0_CNT(hpcd->Instance, ep->num, ep->is_in, 0U);
 8003a3e:	7863      	ldrb	r3, [r4, #1]
 8003a40:	2b00      	cmp	r3, #0
 8003a42:	d149      	bne.n	8003ad8 <HAL_PCD_EP_DB_Transmit+0xd6>
 8003a44:	682b      	ldr	r3, [r5, #0]
 8003a46:	f8b3 2050 	ldrh.w	r2, [r3, #80]	@ 0x50
 8003a4a:	b292      	uxth	r2, r2
 8003a4c:	4413      	add	r3, r2
 8003a4e:	eb03 1301 	add.w	r3, r3, r1, lsl #4
 8003a52:	f8b3 2404 	ldrh.w	r2, [r3, #1028]	@ 0x404
 8003a56:	f3c2 0209 	ubfx	r2, r2, #0, #10
 8003a5a:	f8a3 2404 	strh.w	r2, [r3, #1028]	@ 0x404
 8003a5e:	f8b3 2404 	ldrh.w	r2, [r3, #1028]	@ 0x404
 8003a62:	ea6f 4242 	mvn.w	r2, r2, lsl #17
 8003a66:	ea6f 4252 	mvn.w	r2, r2, lsr #17
 8003a6a:	b292      	uxth	r2, r2
 8003a6c:	f8a3 2404 	strh.w	r2, [r3, #1028]	@ 0x404
      PCD_SET_EP_DBUF1_CNT(hpcd->Instance, ep->num, ep->is_in, 0U);
 8003a70:	682b      	ldr	r3, [r5, #0]
 8003a72:	7862      	ldrb	r2, [r4, #1]
 8003a74:	2a00      	cmp	r2, #0
 8003a76:	d13c      	bne.n	8003af2 <HAL_PCD_EP_DB_Transmit+0xf0>
 8003a78:	f8b3 2050 	ldrh.w	r2, [r3, #80]	@ 0x50
 8003a7c:	b292      	uxth	r2, r2
 8003a7e:	4413      	add	r3, r2
 8003a80:	7822      	ldrb	r2, [r4, #0]
 8003a82:	eb03 1302 	add.w	r3, r3, r2, lsl #4
 8003a86:	f8b3 240c 	ldrh.w	r2, [r3, #1036]	@ 0x40c
 8003a8a:	f3c2 0209 	ubfx	r2, r2, #0, #10
 8003a8e:	f8a3 240c 	strh.w	r2, [r3, #1036]	@ 0x40c
 8003a92:	f8b3 240c 	ldrh.w	r2, [r3, #1036]	@ 0x40c
 8003a96:	ea6f 4242 	mvn.w	r2, r2, lsl #17
 8003a9a:	ea6f 4252 	mvn.w	r2, r2, lsr #17
 8003a9e:	b292      	uxth	r2, r2
 8003aa0:	f8a3 240c 	strh.w	r2, [r3, #1036]	@ 0x40c

      /* TX COMPLETE */
#if (USE_HAL_PCD_REGISTER_CALLBACKS == 1U)
      hpcd->DataInStageCallback(hpcd, ep->num);
#else
      HAL_PCD_DataInStageCallback(hpcd, ep->num);
 8003aa4:	7821      	ldrb	r1, [r4, #0]
 8003aa6:	4628      	mov	r0, r5
 8003aa8:	f003 fb1a 	bl	80070e0 <HAL_PCD_DataInStageCallback>
#endif /* USE_HAL_PCD_REGISTER_CALLBACKS */

      if ((wEPVal & USB_EP_DTOG_RX) != 0U)
 8003aac:	f416 4f80 	tst.w	r6, #16384	@ 0x4000
 8003ab0:	d041      	beq.n	8003b36 <HAL_PCD_EP_DB_Transmit+0x134>
      {
        PCD_FREE_USER_BUFFER(hpcd->Instance, ep->num, 1U);
 8003ab2:	682a      	ldr	r2, [r5, #0]
 8003ab4:	7821      	ldrb	r1, [r4, #0]
 8003ab6:	f832 3021 	ldrh.w	r3, [r2, r1, lsl #2]
 8003aba:	b29b      	uxth	r3, r3
 8003abc:	f423 43e0 	bic.w	r3, r3, #28672	@ 0x7000
 8003ac0:	f023 0370 	bic.w	r3, r3, #112	@ 0x70
 8003ac4:	f443 4340 	orr.w	r3, r3, #49152	@ 0xc000
 8003ac8:	f043 0380 	orr.w	r3, r3, #128	@ 0x80
 8003acc:	f822 3021 	strh.w	r3, [r2, r1, lsl #2]
 8003ad0:	e031      	b.n	8003b36 <HAL_PCD_EP_DB_Transmit+0x134>
      ep->xfer_len = 0U;
 8003ad2:	2300      	movs	r3, #0
 8003ad4:	61a3      	str	r3, [r4, #24]
 8003ad6:	e7af      	b.n	8003a38 <HAL_PCD_EP_DB_Transmit+0x36>
      PCD_SET_EP_DBUF0_CNT(hpcd->Instance, ep->num, ep->is_in, 0U);
 8003ad8:	2b01      	cmp	r3, #1
 8003ada:	d1c9      	bne.n	8003a70 <HAL_PCD_EP_DB_Transmit+0x6e>
 8003adc:	682b      	ldr	r3, [r5, #0]
 8003ade:	f8b3 2050 	ldrh.w	r2, [r3, #80]	@ 0x50
 8003ae2:	b292      	uxth	r2, r2
 8003ae4:	4413      	add	r3, r2
 8003ae6:	eb03 1301 	add.w	r3, r3, r1, lsl #4
 8003aea:	2200      	movs	r2, #0
 8003aec:	f8a3 2404 	strh.w	r2, [r3, #1028]	@ 0x404
 8003af0:	e7be      	b.n	8003a70 <HAL_PCD_EP_DB_Transmit+0x6e>
      PCD_SET_EP_DBUF1_CNT(hpcd->Instance, ep->num, ep->is_in, 0U);
 8003af2:	2a01      	cmp	r2, #1
 8003af4:	d1d6      	bne.n	8003aa4 <HAL_PCD_EP_DB_Transmit+0xa2>
 8003af6:	f8b3 2050 	ldrh.w	r2, [r3, #80]	@ 0x50
 8003afa:	b292      	uxth	r2, r2
 8003afc:	4413      	add	r3, r2
 8003afe:	7822      	ldrb	r2, [r4, #0]
 8003b00:	eb03 1302 	add.w	r3, r3, r2, lsl #4
 8003b04:	2200      	movs	r2, #0
 8003b06:	f8a3 240c 	strh.w	r2, [r3, #1036]	@ 0x40c
 8003b0a:	e7cb      	b.n	8003aa4 <HAL_PCD_EP_DB_Transmit+0xa2>
      }
    }
    else /* Transfer is not yet Done */
    {
      /* need to Free USB Buff */
      if ((wEPVal & USB_EP_DTOG_RX) != 0U)
 8003b0c:	f416 4f80 	tst.w	r6, #16384	@ 0x4000
 8003b10:	d00d      	beq.n	8003b2e <HAL_PCD_EP_DB_Transmit+0x12c>
      {
        PCD_FREE_USER_BUFFER(hpcd->Instance, ep->num, 1U);
 8003b12:	6828      	ldr	r0, [r5, #0]
 8003b14:	f830 3021 	ldrh.w	r3, [r0, r1, lsl #2]
 8003b18:	b29b      	uxth	r3, r3
 8003b1a:	f423 43e0 	bic.w	r3, r3, #28672	@ 0x7000
 8003b1e:	f023 0370 	bic.w	r3, r3, #112	@ 0x70
 8003b22:	f443 4340 	orr.w	r3, r3, #49152	@ 0xc000
 8003b26:	f043 0380 	orr.w	r3, r3, #128	@ 0x80
 8003b2a:	f820 3021 	strh.w	r3, [r0, r1, lsl #2]
      }

      /* Still there is data to Fill in the next Buffer */
      if (ep->xfer_fill_db == 1U)
 8003b2e:	f894 3024 	ldrb.w	r3, [r4, #36]	@ 0x24
 8003b32:	2b01      	cmp	r3, #1
 8003b34:	d012      	beq.n	8003b5c <HAL_PCD_EP_DB_Transmit+0x15a>
      }
    }
  }

  /*enable endpoint IN*/
  PCD_SET_EP_TX_STATUS(hpcd->Instance, ep->num, USB_EP_TX_VALID);
 8003b36:	682a      	ldr	r2, [r5, #0]
 8003b38:	7821      	ldrb	r1, [r4, #0]
 8003b3a:	f832 3021 	ldrh.w	r3, [r2, r1, lsl #2]
 8003b3e:	b29b      	uxth	r3, r3
 8003b40:	f423 43e0 	bic.w	r3, r3, #28672	@ 0x7000
 8003b44:	f023 0340 	bic.w	r3, r3, #64	@ 0x40
 8003b48:	f083 0330 	eor.w	r3, r3, #48	@ 0x30
 8003b4c:	f443 4300 	orr.w	r3, r3, #32768	@ 0x8000
 8003b50:	f043 0380 	orr.w	r3, r3, #128	@ 0x80
 8003b54:	f822 3021 	strh.w	r3, [r2, r1, lsl #2]

  return HAL_OK;
}
 8003b58:	2000      	movs	r0, #0
 8003b5a:	bd70      	pop	{r4, r5, r6, pc}
        ep->xfer_buff += TxPctSize;
 8003b5c:	6963      	ldr	r3, [r4, #20]
 8003b5e:	4413      	add	r3, r2
 8003b60:	6163      	str	r3, [r4, #20]
        ep->xfer_count += TxPctSize;
 8003b62:	69e3      	ldr	r3, [r4, #28]
 8003b64:	4413      	add	r3, r2
 8003b66:	61e3      	str	r3, [r4, #28]
        if (ep->xfer_len_db >= ep->maxpacket)
 8003b68:	6a21      	ldr	r1, [r4, #32]
 8003b6a:	6923      	ldr	r3, [r4, #16]
 8003b6c:	4299      	cmp	r1, r3
 8003b6e:	d324      	bcc.n	8003bba <HAL_PCD_EP_DB_Transmit+0x1b8>
          ep->xfer_len_db -= len;
 8003b70:	1ac9      	subs	r1, r1, r3
 8003b72:	6221      	str	r1, [r4, #32]
        PCD_SET_EP_DBUF0_CNT(hpcd->Instance, ep->num, ep->is_in, len);
 8003b74:	7862      	ldrb	r2, [r4, #1]
 8003b76:	2a00      	cmp	r2, #0
 8003b78:	d144      	bne.n	8003c04 <HAL_PCD_EP_DB_Transmit+0x202>
 8003b7a:	682a      	ldr	r2, [r5, #0]
 8003b7c:	f8b2 1050 	ldrh.w	r1, [r2, #80]	@ 0x50
 8003b80:	b289      	uxth	r1, r1
 8003b82:	440a      	add	r2, r1
 8003b84:	7821      	ldrb	r1, [r4, #0]
 8003b86:	eb02 1201 	add.w	r2, r2, r1, lsl #4
 8003b8a:	f8b2 1404 	ldrh.w	r1, [r2, #1028]	@ 0x404
 8003b8e:	f3c1 0109 	ubfx	r1, r1, #0, #10
 8003b92:	f8a2 1404 	strh.w	r1, [r2, #1028]	@ 0x404
 8003b96:	2b3e      	cmp	r3, #62	@ 0x3e
 8003b98:	d91b      	bls.n	8003bd2 <HAL_PCD_EP_DB_Transmit+0x1d0>
 8003b9a:	0958      	lsrs	r0, r3, #5
 8003b9c:	f013 0f1f 	tst.w	r3, #31
 8003ba0:	d100      	bne.n	8003ba4 <HAL_PCD_EP_DB_Transmit+0x1a2>
 8003ba2:	3801      	subs	r0, #1
 8003ba4:	f8b2 1404 	ldrh.w	r1, [r2, #1028]	@ 0x404
 8003ba8:	b289      	uxth	r1, r1
 8003baa:	0280      	lsls	r0, r0, #10
 8003bac:	b280      	uxth	r0, r0
 8003bae:	4301      	orrs	r1, r0
 8003bb0:	f441 4100 	orr.w	r1, r1, #32768	@ 0x8000
 8003bb4:	f8a2 1404 	strh.w	r1, [r2, #1028]	@ 0x404
 8003bb8:	e026      	b.n	8003c08 <HAL_PCD_EP_DB_Transmit+0x206>
        else if (ep->xfer_len_db == 0U)
 8003bba:	b921      	cbnz	r1, 8003bc6 <HAL_PCD_EP_DB_Transmit+0x1c4>
          ep->xfer_fill_db = 0U;
 8003bbc:	2300      	movs	r3, #0
 8003bbe:	f884 3024 	strb.w	r3, [r4, #36]	@ 0x24
          len = TxPctSize;
 8003bc2:	4613      	mov	r3, r2
 8003bc4:	e7d6      	b.n	8003b74 <HAL_PCD_EP_DB_Transmit+0x172>
          ep->xfer_fill_db = 0U;
 8003bc6:	2300      	movs	r3, #0
 8003bc8:	f884 3024 	strb.w	r3, [r4, #36]	@ 0x24
          ep->xfer_len_db = 0U;
 8003bcc:	6223      	str	r3, [r4, #32]
          len = ep->xfer_len_db;
 8003bce:	460b      	mov	r3, r1
 8003bd0:	e7d0      	b.n	8003b74 <HAL_PCD_EP_DB_Transmit+0x172>
        PCD_SET_EP_DBUF0_CNT(hpcd->Instance, ep->num, ep->is_in, len);
 8003bd2:	b94b      	cbnz	r3, 8003be8 <HAL_PCD_EP_DB_Transmit+0x1e6>
 8003bd4:	f8b2 1404 	ldrh.w	r1, [r2, #1028]	@ 0x404
 8003bd8:	ea6f 4141 	mvn.w	r1, r1, lsl #17
 8003bdc:	ea6f 4151 	mvn.w	r1, r1, lsr #17
 8003be0:	b289      	uxth	r1, r1
 8003be2:	f8a2 1404 	strh.w	r1, [r2, #1028]	@ 0x404
 8003be6:	e00f      	b.n	8003c08 <HAL_PCD_EP_DB_Transmit+0x206>
 8003be8:	0859      	lsrs	r1, r3, #1
 8003bea:	f013 0f01 	tst.w	r3, #1
 8003bee:	d000      	beq.n	8003bf2 <HAL_PCD_EP_DB_Transmit+0x1f0>
 8003bf0:	3101      	adds	r1, #1
 8003bf2:	f8b2 0404 	ldrh.w	r0, [r2, #1028]	@ 0x404
 8003bf6:	b280      	uxth	r0, r0
 8003bf8:	0289      	lsls	r1, r1, #10
 8003bfa:	b289      	uxth	r1, r1
 8003bfc:	4301      	orrs	r1, r0
 8003bfe:	f8a2 1404 	strh.w	r1, [r2, #1028]	@ 0x404
 8003c02:	e001      	b.n	8003c08 <HAL_PCD_EP_DB_Transmit+0x206>
 8003c04:	2a01      	cmp	r2, #1
 8003c06:	d006      	beq.n	8003c16 <HAL_PCD_EP_DB_Transmit+0x214>
        USB_WritePMA(hpcd->Instance, ep->xfer_buff,  ep->pmaaddr0, (uint16_t)len);
 8003c08:	b29b      	uxth	r3, r3
 8003c0a:	8922      	ldrh	r2, [r4, #8]
 8003c0c:	6961      	ldr	r1, [r4, #20]
 8003c0e:	6828      	ldr	r0, [r5, #0]
 8003c10:	f002 fa13 	bl	800603a <USB_WritePMA>
 8003c14:	e78f      	b.n	8003b36 <HAL_PCD_EP_DB_Transmit+0x134>
        PCD_SET_EP_DBUF0_CNT(hpcd->Instance, ep->num, ep->is_in, len);
 8003c16:	682a      	ldr	r2, [r5, #0]
 8003c18:	f8b2 1050 	ldrh.w	r1, [r2, #80]	@ 0x50
 8003c1c:	b289      	uxth	r1, r1
 8003c1e:	440a      	add	r2, r1
 8003c20:	7821      	ldrb	r1, [r4, #0]
 8003c22:	eb02 1201 	add.w	r2, r2, r1, lsl #4
 8003c26:	b299      	uxth	r1, r3
 8003c28:	f8a2 1404 	strh.w	r1, [r2, #1028]	@ 0x404
 8003c2c:	e7ec      	b.n	8003c08 <HAL_PCD_EP_DB_Transmit+0x206>
    TxPctSize = (uint16_t)PCD_GET_EP_DBUF1_CNT(hpcd->Instance, ep->num);
 8003c2e:	6802      	ldr	r2, [r0, #0]
 8003c30:	f8b2 3050 	ldrh.w	r3, [r2, #80]	@ 0x50
 8003c34:	b29b      	uxth	r3, r3
 8003c36:	7809      	ldrb	r1, [r1, #0]
 8003c38:	eb03 03c1 	add.w	r3, r3, r1, lsl #3
 8003c3c:	3306      	adds	r3, #6
 8003c3e:	eb02 0243 	add.w	r2, r2, r3, lsl #1
 8003c42:	f8b2 2400 	ldrh.w	r2, [r2, #1024]	@ 0x400
 8003c46:	f3c2 0209 	ubfx	r2, r2, #0, #10
    if (ep->xfer_len >= TxPctSize)
 8003c4a:	69a3      	ldr	r3, [r4, #24]
 8003c4c:	4293      	cmp	r3, r2
 8003c4e:	d34f      	bcc.n	8003cf0 <HAL_PCD_EP_DB_Transmit+0x2ee>
      ep->xfer_len -= TxPctSize;
 8003c50:	1a9b      	subs	r3, r3, r2
 8003c52:	61a3      	str	r3, [r4, #24]
    if (ep->xfer_len == 0U)
 8003c54:	69a3      	ldr	r3, [r4, #24]
 8003c56:	2b00      	cmp	r3, #0
 8003c58:	d167      	bne.n	8003d2a <HAL_PCD_EP_DB_Transmit+0x328>
      PCD_SET_EP_DBUF0_CNT(hpcd->Instance, ep->num, ep->is_in, 0U);
 8003c5a:	7863      	ldrb	r3, [r4, #1]
 8003c5c:	2b00      	cmp	r3, #0
 8003c5e:	d14a      	bne.n	8003cf6 <HAL_PCD_EP_DB_Transmit+0x2f4>
 8003c60:	682b      	ldr	r3, [r5, #0]
 8003c62:	f8b3 2050 	ldrh.w	r2, [r3, #80]	@ 0x50
 8003c66:	b292      	uxth	r2, r2
 8003c68:	4413      	add	r3, r2
 8003c6a:	eb03 1301 	add.w	r3, r3, r1, lsl #4
 8003c6e:	f8b3 2404 	ldrh.w	r2, [r3, #1028]	@ 0x404
 8003c72:	f3c2 0209 	ubfx	r2, r2, #0, #10
 8003c76:	f8a3 2404 	strh.w	r2, [r3, #1028]	@ 0x404
 8003c7a:	f8b3 2404 	ldrh.w	r2, [r3, #1028]	@ 0x404
 8003c7e:	ea6f 4242 	mvn.w	r2, r2, lsl #17
 8003c82:	ea6f 4252 	mvn.w	r2, r2, lsr #17
 8003c86:	b292      	uxth	r2, r2
 8003c88:	f8a3 2404 	strh.w	r2, [r3, #1028]	@ 0x404
      PCD_SET_EP_DBUF1_CNT(hpcd->Instance, ep->num, ep->is_in, 0U);
 8003c8c:	682b      	ldr	r3, [r5, #0]
 8003c8e:	7862      	ldrb	r2, [r4, #1]
 8003c90:	2a00      	cmp	r2, #0
 8003c92:	d13d      	bne.n	8003d10 <HAL_PCD_EP_DB_Transmit+0x30e>
 8003c94:	f8b3 2050 	ldrh.w	r2, [r3, #80]	@ 0x50
 8003c98:	b292      	uxth	r2, r2
 8003c9a:	4413      	add	r3, r2
 8003c9c:	7822      	ldrb	r2, [r4, #0]
 8003c9e:	eb03 1302 	add.w	r3, r3, r2, lsl #4
 8003ca2:	f8b3 240c 	ldrh.w	r2, [r3, #1036]	@ 0x40c
 8003ca6:	f3c2 0209 	ubfx	r2, r2, #0, #10
 8003caa:	f8a3 240c 	strh.w	r2, [r3, #1036]	@ 0x40c
 8003cae:	f8b3 240c 	ldrh.w	r2, [r3, #1036]	@ 0x40c
 8003cb2:	ea6f 4242 	mvn.w	r2, r2, lsl #17
 8003cb6:	ea6f 4252 	mvn.w	r2, r2, lsr #17
 8003cba:	b292      	uxth	r2, r2
 8003cbc:	f8a3 240c 	strh.w	r2, [r3, #1036]	@ 0x40c
      HAL_PCD_DataInStageCallback(hpcd, ep->num);
 8003cc0:	7821      	ldrb	r1, [r4, #0]
 8003cc2:	4628      	mov	r0, r5
 8003cc4:	f003 fa0c 	bl	80070e0 <HAL_PCD_DataInStageCallback>
      if ((wEPVal & USB_EP_DTOG_RX) == 0U)
 8003cc8:	f416 4f80 	tst.w	r6, #16384	@ 0x4000
 8003ccc:	f47f af33 	bne.w	8003b36 <HAL_PCD_EP_DB_Transmit+0x134>
        PCD_FREE_USER_BUFFER(hpcd->Instance, ep->num, 1U);
 8003cd0:	682a      	ldr	r2, [r5, #0]
 8003cd2:	7821      	ldrb	r1, [r4, #0]
 8003cd4:	f832 3021 	ldrh.w	r3, [r2, r1, lsl #2]
 8003cd8:	b29b      	uxth	r3, r3
 8003cda:	f423 43e0 	bic.w	r3, r3, #28672	@ 0x7000
 8003cde:	f023 0370 	bic.w	r3, r3, #112	@ 0x70
 8003ce2:	f443 4340 	orr.w	r3, r3, #49152	@ 0xc000
 8003ce6:	f043 0380 	orr.w	r3, r3, #128	@ 0x80
 8003cea:	f822 3021 	strh.w	r3, [r2, r1, lsl #2]
 8003cee:	e722      	b.n	8003b36 <HAL_PCD_EP_DB_Transmit+0x134>
      ep->xfer_len = 0U;
 8003cf0:	2300      	movs	r3, #0
 8003cf2:	61a3      	str	r3, [r4, #24]
 8003cf4:	e7ae      	b.n	8003c54 <HAL_PCD_EP_DB_Transmit+0x252>
      PCD_SET_EP_DBUF0_CNT(hpcd->Instance, ep->num, ep->is_in, 0U);
 8003cf6:	2b01      	cmp	r3, #1
 8003cf8:	d1c8      	bne.n	8003c8c <HAL_PCD_EP_DB_Transmit+0x28a>
 8003cfa:	682b      	ldr	r3, [r5, #0]
 8003cfc:	f8b3 2050 	ldrh.w	r2, [r3, #80]	@ 0x50
 8003d00:	b292      	uxth	r2, r2
 8003d02:	4413      	add	r3, r2
 8003d04:	eb03 1301 	add.w	r3, r3, r1, lsl #4
 8003d08:	2200      	movs	r2, #0
 8003d0a:	f8a3 2404 	strh.w	r2, [r3, #1028]	@ 0x404
 8003d0e:	e7bd      	b.n	8003c8c <HAL_PCD_EP_DB_Transmit+0x28a>
      PCD_SET_EP_DBUF1_CNT(hpcd->Instance, ep->num, ep->is_in, 0U);
 8003d10:	2a01      	cmp	r2, #1
 8003d12:	d1d5      	bne.n	8003cc0 <HAL_PCD_EP_DB_Transmit+0x2be>
 8003d14:	f8b3 2050 	ldrh.w	r2, [r3, #80]	@ 0x50
 8003d18:	b292      	uxth	r2, r2
 8003d1a:	4413      	add	r3, r2
 8003d1c:	7822      	ldrb	r2, [r4, #0]
 8003d1e:	eb03 1302 	add.w	r3, r3, r2, lsl #4
 8003d22:	2200      	movs	r2, #0
 8003d24:	f8a3 240c 	strh.w	r2, [r3, #1036]	@ 0x40c
 8003d28:	e7ca      	b.n	8003cc0 <HAL_PCD_EP_DB_Transmit+0x2be>
      if ((wEPVal & USB_EP_DTOG_RX) == 0U)
 8003d2a:	f416 4f80 	tst.w	r6, #16384	@ 0x4000
 8003d2e:	d10d      	bne.n	8003d4c <HAL_PCD_EP_DB_Transmit+0x34a>
        PCD_FREE_USER_BUFFER(hpcd->Instance, ep->num, 1U);
 8003d30:	6828      	ldr	r0, [r5, #0]
 8003d32:	f830 3021 	ldrh.w	r3, [r0, r1, lsl #2]
 8003d36:	b29b      	uxth	r3, r3
 8003d38:	f423 43e0 	bic.w	r3, r3, #28672	@ 0x7000
 8003d3c:	f023 0370 	bic.w	r3, r3, #112	@ 0x70
 8003d40:	f443 4340 	orr.w	r3, r3, #49152	@ 0xc000
 8003d44:	f043 0380 	orr.w	r3, r3, #128	@ 0x80
 8003d48:	f820 3021 	strh.w	r3, [r0, r1, lsl #2]
      if (ep->xfer_fill_db == 1U)
 8003d4c:	f894 3024 	ldrb.w	r3, [r4, #36]	@ 0x24
 8003d50:	2b01      	cmp	r3, #1
 8003d52:	f47f aef0 	bne.w	8003b36 <HAL_PCD_EP_DB_Transmit+0x134>
        ep->xfer_buff += TxPctSize;
 8003d56:	6963      	ldr	r3, [r4, #20]
 8003d58:	4413      	add	r3, r2
 8003d5a:	6163      	str	r3, [r4, #20]
        ep->xfer_count += TxPctSize;
 8003d5c:	69e3      	ldr	r3, [r4, #28]
 8003d5e:	4413      	add	r3, r2
 8003d60:	61e3      	str	r3, [r4, #28]
        if (ep->xfer_len_db >= ep->maxpacket)
 8003d62:	6a21      	ldr	r1, [r4, #32]
 8003d64:	6923      	ldr	r3, [r4, #16]
 8003d66:	4299      	cmp	r1, r3
 8003d68:	d324      	bcc.n	8003db4 <HAL_PCD_EP_DB_Transmit+0x3b2>
          ep->xfer_len_db -= len;
 8003d6a:	1ac9      	subs	r1, r1, r3
 8003d6c:	6221      	str	r1, [r4, #32]
        PCD_SET_EP_DBUF1_CNT(hpcd->Instance, ep->num, ep->is_in, len);
 8003d6e:	682a      	ldr	r2, [r5, #0]
 8003d70:	7861      	ldrb	r1, [r4, #1]
 8003d72:	2900      	cmp	r1, #0
 8003d74:	d143      	bne.n	8003dfe <HAL_PCD_EP_DB_Transmit+0x3fc>
 8003d76:	f8b2 1050 	ldrh.w	r1, [r2, #80]	@ 0x50
 8003d7a:	b289      	uxth	r1, r1
 8003d7c:	440a      	add	r2, r1
 8003d7e:	7821      	ldrb	r1, [r4, #0]
 8003d80:	eb02 1201 	add.w	r2, r2, r1, lsl #4
 8003d84:	f8b2 140c 	ldrh.w	r1, [r2, #1036]	@ 0x40c
 8003d88:	f3c1 0109 	ubfx	r1, r1, #0, #10
 8003d8c:	f8a2 140c 	strh.w	r1, [r2, #1036]	@ 0x40c
 8003d90:	2b3e      	cmp	r3, #62	@ 0x3e
 8003d92:	d91b      	bls.n	8003dcc <HAL_PCD_EP_DB_Transmit+0x3ca>
 8003d94:	0958      	lsrs	r0, r3, #5
 8003d96:	f013 0f1f 	tst.w	r3, #31
 8003d9a:	d100      	bne.n	8003d9e <HAL_PCD_EP_DB_Transmit+0x39c>
 8003d9c:	3801      	subs	r0, #1
 8003d9e:	f8b2 140c 	ldrh.w	r1, [r2, #1036]	@ 0x40c
 8003da2:	b289      	uxth	r1, r1
 8003da4:	0280      	lsls	r0, r0, #10
 8003da6:	b280      	uxth	r0, r0
 8003da8:	4301      	orrs	r1, r0
 8003daa:	f441 4100 	orr.w	r1, r1, #32768	@ 0x8000
 8003dae:	f8a2 140c 	strh.w	r1, [r2, #1036]	@ 0x40c
 8003db2:	e026      	b.n	8003e02 <HAL_PCD_EP_DB_Transmit+0x400>
        else if (ep->xfer_len_db == 0U)
 8003db4:	b921      	cbnz	r1, 8003dc0 <HAL_PCD_EP_DB_Transmit+0x3be>
          ep->xfer_fill_db = 0U;
 8003db6:	2300      	movs	r3, #0
 8003db8:	f884 3024 	strb.w	r3, [r4, #36]	@ 0x24
          len = TxPctSize;
 8003dbc:	4613      	mov	r3, r2
 8003dbe:	e7d6      	b.n	8003d6e <HAL_PCD_EP_DB_Transmit+0x36c>
          ep->xfer_len_db = 0U;
 8003dc0:	2300      	movs	r3, #0
 8003dc2:	6223      	str	r3, [r4, #32]
          ep->xfer_fill_db = 0;
 8003dc4:	f884 3024 	strb.w	r3, [r4, #36]	@ 0x24
          len = ep->xfer_len_db;
 8003dc8:	460b      	mov	r3, r1
 8003dca:	e7d0      	b.n	8003d6e <HAL_PCD_EP_DB_Transmit+0x36c>
        PCD_SET_EP_DBUF1_CNT(hpcd->Instance, ep->num, ep->is_in, len);
 8003dcc:	b94b      	cbnz	r3, 8003de2 <HAL_PCD_EP_DB_Transmit+0x3e0>
 8003dce:	f8b2 140c 	ldrh.w	r1, [r2, #1036]	@ 0x40c
 8003dd2:	ea6f 4141 	mvn.w	r1, r1, lsl #17
 8003dd6:	ea6f 4151 	mvn.w	r1, r1, lsr #17
 8003dda:	b289      	uxth	r1, r1
 8003ddc:	f8a2 140c 	strh.w	r1, [r2, #1036]	@ 0x40c
 8003de0:	e00f      	b.n	8003e02 <HAL_PCD_EP_DB_Transmit+0x400>
 8003de2:	0859      	lsrs	r1, r3, #1
 8003de4:	f013 0f01 	tst.w	r3, #1
 8003de8:	d000      	beq.n	8003dec <HAL_PCD_EP_DB_Transmit+0x3ea>
 8003dea:	3101      	adds	r1, #1
 8003dec:	f8b2 040c 	ldrh.w	r0, [r2, #1036]	@ 0x40c
 8003df0:	b280      	uxth	r0, r0
 8003df2:	0289      	lsls	r1, r1, #10
 8003df4:	b289      	uxth	r1, r1
 8003df6:	4301      	orrs	r1, r0
 8003df8:	f8a2 140c 	strh.w	r1, [r2, #1036]	@ 0x40c
 8003dfc:	e001      	b.n	8003e02 <HAL_PCD_EP_DB_Transmit+0x400>
 8003dfe:	2901      	cmp	r1, #1
 8003e00:	d006      	beq.n	8003e10 <HAL_PCD_EP_DB_Transmit+0x40e>
        USB_WritePMA(hpcd->Instance, ep->xfer_buff,  ep->pmaaddr1, (uint16_t)len);
 8003e02:	b29b      	uxth	r3, r3
 8003e04:	8962      	ldrh	r2, [r4, #10]
 8003e06:	6961      	ldr	r1, [r4, #20]
 8003e08:	6828      	ldr	r0, [r5, #0]
 8003e0a:	f002 f916 	bl	800603a <USB_WritePMA>
 8003e0e:	e692      	b.n	8003b36 <HAL_PCD_EP_DB_Transmit+0x134>
        PCD_SET_EP_DBUF1_CNT(hpcd->Instance, ep->num, ep->is_in, len);
 8003e10:	f8b2 1050 	ldrh.w	r1, [r2, #80]	@ 0x50
 8003e14:	b289      	uxth	r1, r1
 8003e16:	440a      	add	r2, r1
 8003e18:	7821      	ldrb	r1, [r4, #0]
 8003e1a:	eb02 1201 	add.w	r2, r2, r1, lsl #4
 8003e1e:	b299      	uxth	r1, r3
 8003e20:	f8a2 140c 	strh.w	r1, [r2, #1036]	@ 0x40c
 8003e24:	e7ed      	b.n	8003e02 <HAL_PCD_EP_DB_Transmit+0x400>

08003e26 <PCD_EP_ISR_Handler>:
{
 8003e26:	e92d 41f0 	stmdb	sp!, {r4, r5, r6, r7, r8, lr}
 8003e2a:	4605      	mov	r5, r0
  while ((hpcd->Instance->ISTR & USB_ISTR_CTR) != 0U)
 8003e2c:	6828      	ldr	r0, [r5, #0]
 8003e2e:	f8b0 3044 	ldrh.w	r3, [r0, #68]	@ 0x44
 8003e32:	f413 4f00 	tst.w	r3, #32768	@ 0x8000
 8003e36:	f000 829d 	beq.w	8004374 <PCD_EP_ISR_Handler+0x54e>
    wIstr = hpcd->Instance->ISTR;
 8003e3a:	f8b0 4044 	ldrh.w	r4, [r0, #68]	@ 0x44
 8003e3e:	b2a3      	uxth	r3, r4
    if (epindex == 0U)
 8003e40:	f014 040f 	ands.w	r4, r4, #15
 8003e44:	f040 80de 	bne.w	8004004 <PCD_EP_ISR_Handler+0x1de>
      if ((wIstr & USB_ISTR_DIR) == 0U)
 8003e48:	f013 0f10 	tst.w	r3, #16
 8003e4c:	d06b      	beq.n	8003f26 <PCD_EP_ISR_Handler+0x100>
        wEPVal = PCD_GET_ENDPOINT(hpcd->Instance, PCD_ENDP0);
 8003e4e:	8803      	ldrh	r3, [r0, #0]
 8003e50:	b29a      	uxth	r2, r3
        if ((wEPVal & USB_EP_SETUP) != 0U)
 8003e52:	f413 6f00 	tst.w	r3, #2048	@ 0x800
 8003e56:	f040 8099 	bne.w	8003f8c <PCD_EP_ISR_Handler+0x166>
        else if ((wEPVal & USB_EP_CTR_RX) != 0U)
 8003e5a:	f412 4f00 	tst.w	r2, #32768	@ 0x8000
 8003e5e:	d0e5      	beq.n	8003e2c <PCD_EP_ISR_Handler+0x6>
          PCD_CLEAR_RX_EP_CTR(hpcd->Instance, PCD_ENDP0);
 8003e60:	8803      	ldrh	r3, [r0, #0]
 8003e62:	f023 0370 	bic.w	r3, r3, #112	@ 0x70
 8003e66:	051b      	lsls	r3, r3, #20
 8003e68:	0d1b      	lsrs	r3, r3, #20
 8003e6a:	f043 0380 	orr.w	r3, r3, #128	@ 0x80
 8003e6e:	8003      	strh	r3, [r0, #0]
          ep->xfer_count = PCD_GET_EP_RX_CNT(hpcd->Instance, ep->num);
 8003e70:	6828      	ldr	r0, [r5, #0]
 8003e72:	f8b0 3050 	ldrh.w	r3, [r0, #80]	@ 0x50
 8003e76:	b29b      	uxth	r3, r3
 8003e78:	f895 2150 	ldrb.w	r2, [r5, #336]	@ 0x150
 8003e7c:	eb03 03c2 	add.w	r3, r3, r2, lsl #3
 8003e80:	3306      	adds	r3, #6
 8003e82:	eb00 0343 	add.w	r3, r0, r3, lsl #1
 8003e86:	f8b3 3400 	ldrh.w	r3, [r3, #1024]	@ 0x400
 8003e8a:	f3c3 0309 	ubfx	r3, r3, #0, #10
 8003e8e:	f8c5 316c 	str.w	r3, [r5, #364]	@ 0x16c
          if ((ep->xfer_count != 0U) && (ep->xfer_buff != 0U))
 8003e92:	b18b      	cbz	r3, 8003eb8 <PCD_EP_ISR_Handler+0x92>
 8003e94:	f8d5 1164 	ldr.w	r1, [r5, #356]	@ 0x164
 8003e98:	b171      	cbz	r1, 8003eb8 <PCD_EP_ISR_Handler+0x92>
            USB_ReadPMA(hpcd->Instance, ep->xfer_buff,
 8003e9a:	f8b5 2156 	ldrh.w	r2, [r5, #342]	@ 0x156
 8003e9e:	f002 fcc6 	bl	800682e <USB_ReadPMA>
            ep->xfer_buff += ep->xfer_count;
 8003ea2:	f8d5 3164 	ldr.w	r3, [r5, #356]	@ 0x164
 8003ea6:	f8d5 216c 	ldr.w	r2, [r5, #364]	@ 0x16c
 8003eaa:	4413      	add	r3, r2
 8003eac:	f8c5 3164 	str.w	r3, [r5, #356]	@ 0x164
            HAL_PCD_DataOutStageCallback(hpcd, 0U);
 8003eb0:	2100      	movs	r1, #0
 8003eb2:	4628      	mov	r0, r5
 8003eb4:	f003 f908 	bl	80070c8 <HAL_PCD_DataOutStageCallback>
          wEPVal = (uint16_t)PCD_GET_ENDPOINT(hpcd->Instance, PCD_ENDP0);
 8003eb8:	682a      	ldr	r2, [r5, #0]
 8003eba:	8813      	ldrh	r3, [r2, #0]
 8003ebc:	b299      	uxth	r1, r3
          if (((wEPVal & USB_EP_SETUP) == 0U) && ((wEPVal & USB_EP_RX_STRX) != USB_EP_RX_VALID))
 8003ebe:	f413 6f00 	tst.w	r3, #2048	@ 0x800
 8003ec2:	d1b3      	bne.n	8003e2c <PCD_EP_ISR_Handler+0x6>
 8003ec4:	f401 5140 	and.w	r1, r1, #12288	@ 0x3000
 8003ec8:	f5b1 5f40 	cmp.w	r1, #12288	@ 0x3000
 8003ecc:	d0ae      	beq.n	8003e2c <PCD_EP_ISR_Handler+0x6>
            PCD_SET_EP_RX_CNT(hpcd->Instance, PCD_ENDP0, ep->maxpacket);
 8003ece:	f8b2 3050 	ldrh.w	r3, [r2, #80]	@ 0x50
 8003ed2:	b29b      	uxth	r3, r3
 8003ed4:	441a      	add	r2, r3
 8003ed6:	f8b2 340c 	ldrh.w	r3, [r2, #1036]	@ 0x40c
 8003eda:	f3c3 0309 	ubfx	r3, r3, #0, #10
 8003ede:	f8a2 340c 	strh.w	r3, [r2, #1036]	@ 0x40c
 8003ee2:	f8d5 3160 	ldr.w	r3, [r5, #352]	@ 0x160
 8003ee6:	2b3e      	cmp	r3, #62	@ 0x3e
 8003ee8:	d973      	bls.n	8003fd2 <PCD_EP_ISR_Handler+0x1ac>
 8003eea:	0959      	lsrs	r1, r3, #5
 8003eec:	f013 0f1f 	tst.w	r3, #31
 8003ef0:	d100      	bne.n	8003ef4 <PCD_EP_ISR_Handler+0xce>
 8003ef2:	3901      	subs	r1, #1
 8003ef4:	f8b2 340c 	ldrh.w	r3, [r2, #1036]	@ 0x40c
 8003ef8:	b29b      	uxth	r3, r3
 8003efa:	0289      	lsls	r1, r1, #10
 8003efc:	b289      	uxth	r1, r1
 8003efe:	430b      	orrs	r3, r1
 8003f00:	f443 4300 	orr.w	r3, r3, #32768	@ 0x8000
 8003f04:	f8a2 340c 	strh.w	r3, [r2, #1036]	@ 0x40c
            PCD_SET_EP_RX_STATUS(hpcd->Instance, PCD_ENDP0, USB_EP_RX_VALID);
 8003f08:	682a      	ldr	r2, [r5, #0]
 8003f0a:	8813      	ldrh	r3, [r2, #0]
 8003f0c:	b29b      	uxth	r3, r3
 8003f0e:	f423 4380 	bic.w	r3, r3, #16384	@ 0x4000
 8003f12:	f023 0370 	bic.w	r3, r3, #112	@ 0x70
 8003f16:	f483 5340 	eor.w	r3, r3, #12288	@ 0x3000
 8003f1a:	f443 4300 	orr.w	r3, r3, #32768	@ 0x8000
 8003f1e:	f043 0380 	orr.w	r3, r3, #128	@ 0x80
 8003f22:	8013      	strh	r3, [r2, #0]
 8003f24:	e782      	b.n	8003e2c <PCD_EP_ISR_Handler+0x6>
        PCD_CLEAR_TX_EP_CTR(hpcd->Instance, PCD_ENDP0);
 8003f26:	8803      	ldrh	r3, [r0, #0]
 8003f28:	b29b      	uxth	r3, r3
 8003f2a:	f423 43e1 	bic.w	r3, r3, #28800	@ 0x7080
 8003f2e:	f023 0370 	bic.w	r3, r3, #112	@ 0x70
 8003f32:	ea6f 4343 	mvn.w	r3, r3, lsl #17
 8003f36:	ea6f 4353 	mvn.w	r3, r3, lsr #17
 8003f3a:	b29b      	uxth	r3, r3
 8003f3c:	8003      	strh	r3, [r0, #0]
        ep->xfer_count = PCD_GET_EP_TX_CNT(hpcd->Instance, ep->num);
 8003f3e:	682a      	ldr	r2, [r5, #0]
 8003f40:	f8b2 3050 	ldrh.w	r3, [r2, #80]	@ 0x50
 8003f44:	b29b      	uxth	r3, r3
 8003f46:	7c29      	ldrb	r1, [r5, #16]
 8003f48:	eb03 03c1 	add.w	r3, r3, r1, lsl #3
 8003f4c:	3302      	adds	r3, #2
 8003f4e:	eb02 0243 	add.w	r2, r2, r3, lsl #1
 8003f52:	f8b2 3400 	ldrh.w	r3, [r2, #1024]	@ 0x400
 8003f56:	f3c3 0309 	ubfx	r3, r3, #0, #10
 8003f5a:	62eb      	str	r3, [r5, #44]	@ 0x2c
        ep->xfer_buff += ep->xfer_count;
 8003f5c:	6a6a      	ldr	r2, [r5, #36]	@ 0x24
 8003f5e:	441a      	add	r2, r3
 8003f60:	626a      	str	r2, [r5, #36]	@ 0x24
        HAL_PCD_DataInStageCallback(hpcd, 0U);
 8003f62:	2100      	movs	r1, #0
 8003f64:	4628      	mov	r0, r5
 8003f66:	f003 f8bb 	bl	80070e0 <HAL_PCD_DataInStageCallback>
        if ((hpcd->USB_Address > 0U) && (ep->xfer_len == 0U))
 8003f6a:	7b6b      	ldrb	r3, [r5, #13]
 8003f6c:	2b00      	cmp	r3, #0
 8003f6e:	f43f af5d 	beq.w	8003e2c <PCD_EP_ISR_Handler+0x6>
 8003f72:	6aab      	ldr	r3, [r5, #40]	@ 0x28
 8003f74:	2b00      	cmp	r3, #0
 8003f76:	f47f af59 	bne.w	8003e2c <PCD_EP_ISR_Handler+0x6>
          hpcd->Instance->DADDR = ((uint16_t)hpcd->USB_Address | USB_DADDR_EF);
 8003f7a:	7b6b      	ldrb	r3, [r5, #13]
 8003f7c:	682a      	ldr	r2, [r5, #0]
 8003f7e:	f043 0380 	orr.w	r3, r3, #128	@ 0x80
 8003f82:	f8a2 304c 	strh.w	r3, [r2, #76]	@ 0x4c
          hpcd->USB_Address = 0U;
 8003f86:	2300      	movs	r3, #0
 8003f88:	736b      	strb	r3, [r5, #13]
 8003f8a:	e74f      	b.n	8003e2c <PCD_EP_ISR_Handler+0x6>
          ep->xfer_count = PCD_GET_EP_RX_CNT(hpcd->Instance, ep->num);
 8003f8c:	f8b0 3050 	ldrh.w	r3, [r0, #80]	@ 0x50
 8003f90:	b29b      	uxth	r3, r3
 8003f92:	f895 2150 	ldrb.w	r2, [r5, #336]	@ 0x150
 8003f96:	eb03 03c2 	add.w	r3, r3, r2, lsl #3
 8003f9a:	3306      	adds	r3, #6
 8003f9c:	eb00 0343 	add.w	r3, r0, r3, lsl #1
 8003fa0:	f8b3 3400 	ldrh.w	r3, [r3, #1024]	@ 0x400
 8003fa4:	f3c3 0309 	ubfx	r3, r3, #0, #10
 8003fa8:	f8c5 316c 	str.w	r3, [r5, #364]	@ 0x16c
          USB_ReadPMA(hpcd->Instance, (uint8_t *)hpcd->Setup,
 8003fac:	f8b5 2156 	ldrh.w	r2, [r5, #342]	@ 0x156
 8003fb0:	f505 7126 	add.w	r1, r5, #664	@ 0x298
 8003fb4:	f002 fc3b 	bl	800682e <USB_ReadPMA>
          PCD_CLEAR_RX_EP_CTR(hpcd->Instance, PCD_ENDP0);
 8003fb8:	682a      	ldr	r2, [r5, #0]
 8003fba:	8813      	ldrh	r3, [r2, #0]
 8003fbc:	f023 0370 	bic.w	r3, r3, #112	@ 0x70
 8003fc0:	051b      	lsls	r3, r3, #20
 8003fc2:	0d1b      	lsrs	r3, r3, #20
 8003fc4:	f043 0380 	orr.w	r3, r3, #128	@ 0x80
 8003fc8:	8013      	strh	r3, [r2, #0]
          HAL_PCD_SetupStageCallback(hpcd);
 8003fca:	4628      	mov	r0, r5
 8003fcc:	f003 f874 	bl	80070b8 <HAL_PCD_SetupStageCallback>
 8003fd0:	e72c      	b.n	8003e2c <PCD_EP_ISR_Handler+0x6>
            PCD_SET_EP_RX_CNT(hpcd->Instance, PCD_ENDP0, ep->maxpacket);
 8003fd2:	b94b      	cbnz	r3, 8003fe8 <PCD_EP_ISR_Handler+0x1c2>
 8003fd4:	f8b2 340c 	ldrh.w	r3, [r2, #1036]	@ 0x40c
 8003fd8:	ea6f 4343 	mvn.w	r3, r3, lsl #17
 8003fdc:	ea6f 4353 	mvn.w	r3, r3, lsr #17
 8003fe0:	b29b      	uxth	r3, r3
 8003fe2:	f8a2 340c 	strh.w	r3, [r2, #1036]	@ 0x40c
 8003fe6:	e78f      	b.n	8003f08 <PCD_EP_ISR_Handler+0xe2>
 8003fe8:	0859      	lsrs	r1, r3, #1
 8003fea:	f013 0f01 	tst.w	r3, #1
 8003fee:	d000      	beq.n	8003ff2 <PCD_EP_ISR_Handler+0x1cc>
 8003ff0:	3101      	adds	r1, #1
 8003ff2:	f8b2 340c 	ldrh.w	r3, [r2, #1036]	@ 0x40c
 8003ff6:	b298      	uxth	r0, r3
 8003ff8:	028b      	lsls	r3, r1, #10
 8003ffa:	b29b      	uxth	r3, r3
 8003ffc:	4303      	orrs	r3, r0
 8003ffe:	f8a2 340c 	strh.w	r3, [r2, #1036]	@ 0x40c
 8004002:	e781      	b.n	8003f08 <PCD_EP_ISR_Handler+0xe2>
      wEPVal = PCD_GET_ENDPOINT(hpcd->Instance, epindex);
 8004004:	f830 3024 	ldrh.w	r3, [r0, r4, lsl #2]
 8004008:	b29e      	uxth	r6, r3
      if ((wEPVal & USB_EP_CTR_RX) != 0U)
 800400a:	f413 4f00 	tst.w	r3, #32768	@ 0x8000
 800400e:	d150      	bne.n	80040b2 <PCD_EP_ISR_Handler+0x28c>
      if ((wEPVal & USB_EP_CTR_TX) != 0U)
 8004010:	f016 0f80 	tst.w	r6, #128	@ 0x80
 8004014:	f43f af0a 	beq.w	8003e2c <PCD_EP_ISR_Handler+0x6>
        ep = &hpcd->IN_ep[epindex];
 8004018:	eb04 0184 	add.w	r1, r4, r4, lsl #2
 800401c:	00c9      	lsls	r1, r1, #3
 800401e:	3110      	adds	r1, #16
 8004020:	4429      	add	r1, r5
        PCD_CLEAR_TX_EP_CTR(hpcd->Instance, epindex);
 8004022:	682a      	ldr	r2, [r5, #0]
 8004024:	f832 3024 	ldrh.w	r3, [r2, r4, lsl #2]
 8004028:	b29b      	uxth	r3, r3
 800402a:	f423 43e1 	bic.w	r3, r3, #28800	@ 0x7080
 800402e:	f023 0370 	bic.w	r3, r3, #112	@ 0x70
 8004032:	ea6f 4343 	mvn.w	r3, r3, lsl #17
 8004036:	ea6f 4353 	mvn.w	r3, r3, lsr #17
 800403a:	b29b      	uxth	r3, r3
 800403c:	f822 3024 	strh.w	r3, [r2, r4, lsl #2]
        if (ep->type == EP_TYPE_ISOC)
 8004040:	eb04 0384 	add.w	r3, r4, r4, lsl #2
 8004044:	eb05 03c3 	add.w	r3, r5, r3, lsl #3
 8004048:	7cdb      	ldrb	r3, [r3, #19]
 800404a:	2b01      	cmp	r3, #1
 800404c:	f000 80f2 	beq.w	8004234 <PCD_EP_ISR_Handler+0x40e>
          if ((wEPVal & USB_EP_KIND) == 0U)
 8004050:	f416 7f80 	tst.w	r6, #256	@ 0x100
 8004054:	f040 8189 	bne.w	800436a <PCD_EP_ISR_Handler+0x544>
            TxPctSize = (uint16_t)PCD_GET_EP_TX_CNT(hpcd->Instance, ep->num);
 8004058:	6828      	ldr	r0, [r5, #0]
 800405a:	f8b0 3050 	ldrh.w	r3, [r0, #80]	@ 0x50
 800405e:	b29b      	uxth	r3, r3
 8004060:	eb04 0284 	add.w	r2, r4, r4, lsl #2
 8004064:	eb05 02c2 	add.w	r2, r5, r2, lsl #3
 8004068:	7c16      	ldrb	r6, [r2, #16]
 800406a:	eb03 03c6 	add.w	r3, r3, r6, lsl #3
 800406e:	3302      	adds	r3, #2
 8004070:	eb00 0343 	add.w	r3, r0, r3, lsl #1
 8004074:	f8b3 3400 	ldrh.w	r3, [r3, #1024]	@ 0x400
 8004078:	f3c3 0309 	ubfx	r3, r3, #0, #10
            if (ep->xfer_len > TxPctSize)
 800407c:	1c62      	adds	r2, r4, #1
 800407e:	eb02 0282 	add.w	r2, r2, r2, lsl #2
 8004082:	f855 2032 	ldr.w	r2, [r5, r2, lsl #3]
 8004086:	429a      	cmp	r2, r3
 8004088:	f240 8152 	bls.w	8004330 <PCD_EP_ISR_Handler+0x50a>
              ep->xfer_len -= TxPctSize;
 800408c:	1c67      	adds	r7, r4, #1
 800408e:	eb07 0787 	add.w	r7, r7, r7, lsl #2
 8004092:	1ad2      	subs	r2, r2, r3
 8004094:	f845 2037 	str.w	r2, [r5, r7, lsl #3]
            if (ep->xfer_len == 0U)
 8004098:	1c62      	adds	r2, r4, #1
 800409a:	eb02 0282 	add.w	r2, r2, r2, lsl #2
 800409e:	f855 2032 	ldr.w	r2, [r5, r2, lsl #3]
 80040a2:	2a00      	cmp	r2, #0
 80040a4:	f040 814b 	bne.w	800433e <PCD_EP_ISR_Handler+0x518>
              HAL_PCD_DataInStageCallback(hpcd, ep->num);
 80040a8:	4631      	mov	r1, r6
 80040aa:	4628      	mov	r0, r5
 80040ac:	f003 f818 	bl	80070e0 <HAL_PCD_DataInStageCallback>
 80040b0:	e6bc      	b.n	8003e2c <PCD_EP_ISR_Handler+0x6>
        PCD_CLEAR_RX_EP_CTR(hpcd->Instance, epindex);
 80040b2:	f830 3024 	ldrh.w	r3, [r0, r4, lsl #2]
 80040b6:	f023 0370 	bic.w	r3, r3, #112	@ 0x70
 80040ba:	051b      	lsls	r3, r3, #20
 80040bc:	0d1b      	lsrs	r3, r3, #20
 80040be:	f043 0380 	orr.w	r3, r3, #128	@ 0x80
 80040c2:	f820 3024 	strh.w	r3, [r0, r4, lsl #2]
        ep = &hpcd->OUT_ep[epindex];
 80040c6:	eb04 0184 	add.w	r1, r4, r4, lsl #2
 80040ca:	00c9      	lsls	r1, r1, #3
 80040cc:	f501 71a8 	add.w	r1, r1, #336	@ 0x150
 80040d0:	eb05 0801 	add.w	r8, r5, r1
        if (ep->doublebuffer == 0U)
 80040d4:	eb04 0384 	add.w	r3, r4, r4, lsl #2
 80040d8:	eb05 03c3 	add.w	r3, r5, r3, lsl #3
 80040dc:	f893 315c 	ldrb.w	r3, [r3, #348]	@ 0x15c
 80040e0:	2b00      	cmp	r3, #0
 80040e2:	d142      	bne.n	800416a <PCD_EP_ISR_Handler+0x344>
          count = (uint16_t)PCD_GET_EP_RX_CNT(hpcd->Instance, ep->num);
 80040e4:	6828      	ldr	r0, [r5, #0]
 80040e6:	f8b0 3050 	ldrh.w	r3, [r0, #80]	@ 0x50
 80040ea:	b29b      	uxth	r3, r3
 80040ec:	eb04 0284 	add.w	r2, r4, r4, lsl #2
 80040f0:	eb05 02c2 	add.w	r2, r5, r2, lsl #3
 80040f4:	f892 2150 	ldrb.w	r2, [r2, #336]	@ 0x150
 80040f8:	eb03 03c2 	add.w	r3, r3, r2, lsl #3
 80040fc:	3306      	adds	r3, #6
 80040fe:	eb00 0343 	add.w	r3, r0, r3, lsl #1
 8004102:	f8b3 7400 	ldrh.w	r7, [r3, #1024]	@ 0x400
 8004106:	f3c7 0709 	ubfx	r7, r7, #0, #10
          if (count != 0U)
 800410a:	bb17      	cbnz	r7, 8004152 <PCD_EP_ISR_Handler+0x32c>
        ep->xfer_count += count;
 800410c:	eb04 0384 	add.w	r3, r4, r4, lsl #2
 8004110:	eb05 03c3 	add.w	r3, r5, r3, lsl #3
 8004114:	f8d3 216c 	ldr.w	r2, [r3, #364]	@ 0x16c
 8004118:	443a      	add	r2, r7
 800411a:	f8c3 216c 	str.w	r2, [r3, #364]	@ 0x16c
        ep->xfer_buff += count;
 800411e:	f8d3 2164 	ldr.w	r2, [r3, #356]	@ 0x164
 8004122:	443a      	add	r2, r7
 8004124:	f8c3 2164 	str.w	r2, [r3, #356]	@ 0x164
        if ((ep->xfer_len == 0U) || (count < ep->maxpacket))
 8004128:	f8d3 3168 	ldr.w	r3, [r3, #360]	@ 0x168
 800412c:	b13b      	cbz	r3, 800413e <PCD_EP_ISR_Handler+0x318>
 800412e:	eb04 0384 	add.w	r3, r4, r4, lsl #2
 8004132:	eb05 03c3 	add.w	r3, r5, r3, lsl #3
 8004136:	f8d3 3160 	ldr.w	r3, [r3, #352]	@ 0x160
 800413a:	429f      	cmp	r7, r3
 800413c:	d275      	bcs.n	800422a <PCD_EP_ISR_Handler+0x404>
          HAL_PCD_DataOutStageCallback(hpcd, ep->num);
 800413e:	eb04 0384 	add.w	r3, r4, r4, lsl #2
 8004142:	eb05 03c3 	add.w	r3, r5, r3, lsl #3
 8004146:	f893 1150 	ldrb.w	r1, [r3, #336]	@ 0x150
 800414a:	4628      	mov	r0, r5
 800414c:	f002 ffbc 	bl	80070c8 <HAL_PCD_DataOutStageCallback>
 8004150:	e75e      	b.n	8004010 <PCD_EP_ISR_Handler+0x1ea>
            USB_ReadPMA(hpcd->Instance, ep->xfer_buff, ep->pmaadress, count);
 8004152:	eb04 0184 	add.w	r1, r4, r4, lsl #2
 8004156:	eb05 01c1 	add.w	r1, r5, r1, lsl #3
 800415a:	463b      	mov	r3, r7
 800415c:	f8b1 2156 	ldrh.w	r2, [r1, #342]	@ 0x156
 8004160:	f8d1 1164 	ldr.w	r1, [r1, #356]	@ 0x164
 8004164:	f002 fb63 	bl	800682e <USB_ReadPMA>
 8004168:	e7d0      	b.n	800410c <PCD_EP_ISR_Handler+0x2e6>
          if (ep->type == EP_TYPE_BULK)
 800416a:	eb04 0384 	add.w	r3, r4, r4, lsl #2
 800416e:	eb05 03c3 	add.w	r3, r5, r3, lsl #3
 8004172:	f893 3153 	ldrb.w	r3, [r3, #339]	@ 0x153
 8004176:	2b02      	cmp	r3, #2
 8004178:	d035      	beq.n	80041e6 <PCD_EP_ISR_Handler+0x3c0>
            PCD_FREE_USER_BUFFER(hpcd->Instance, ep->num, 0U);
 800417a:	6829      	ldr	r1, [r5, #0]
 800417c:	eb04 0284 	add.w	r2, r4, r4, lsl #2
 8004180:	eb05 02c2 	add.w	r2, r5, r2, lsl #3
 8004184:	f892 0150 	ldrb.w	r0, [r2, #336]	@ 0x150
 8004188:	f831 3020 	ldrh.w	r3, [r1, r0, lsl #2]
 800418c:	b29b      	uxth	r3, r3
 800418e:	f423 43e0 	bic.w	r3, r3, #28672	@ 0x7000
 8004192:	f023 0370 	bic.w	r3, r3, #112	@ 0x70
 8004196:	f443 4300 	orr.w	r3, r3, #32768	@ 0x8000
 800419a:	f043 03c0 	orr.w	r3, r3, #192	@ 0xc0
 800419e:	f821 3020 	strh.w	r3, [r1, r0, lsl #2]
            if ((PCD_GET_ENDPOINT(hpcd->Instance, ep->num) & USB_EP_DTOG_RX) != 0U)
 80041a2:	6828      	ldr	r0, [r5, #0]
 80041a4:	f892 2150 	ldrb.w	r2, [r2, #336]	@ 0x150
 80041a8:	f830 3022 	ldrh.w	r3, [r0, r2, lsl #2]
 80041ac:	f413 4f80 	tst.w	r3, #16384	@ 0x4000
 80041b0:	d020      	beq.n	80041f4 <PCD_EP_ISR_Handler+0x3ce>
              count = (uint16_t)PCD_GET_EP_DBUF0_CNT(hpcd->Instance, ep->num);
 80041b2:	f8b0 3050 	ldrh.w	r3, [r0, #80]	@ 0x50
 80041b6:	b29b      	uxth	r3, r3
 80041b8:	eb03 03c2 	add.w	r3, r3, r2, lsl #3
 80041bc:	3302      	adds	r3, #2
 80041be:	eb00 0343 	add.w	r3, r0, r3, lsl #1
 80041c2:	f8b3 7400 	ldrh.w	r7, [r3, #1024]	@ 0x400
 80041c6:	f3c7 0709 	ubfx	r7, r7, #0, #10
              if (count != 0U)
 80041ca:	2f00      	cmp	r7, #0
 80041cc:	d09e      	beq.n	800410c <PCD_EP_ISR_Handler+0x2e6>
                USB_ReadPMA(hpcd->Instance, ep->xfer_buff, ep->pmaaddr0, count);
 80041ce:	eb04 0184 	add.w	r1, r4, r4, lsl #2
 80041d2:	eb05 01c1 	add.w	r1, r5, r1, lsl #3
 80041d6:	463b      	mov	r3, r7
 80041d8:	f8b1 2158 	ldrh.w	r2, [r1, #344]	@ 0x158
 80041dc:	f8d1 1164 	ldr.w	r1, [r1, #356]	@ 0x164
 80041e0:	f002 fb25 	bl	800682e <USB_ReadPMA>
 80041e4:	e792      	b.n	800410c <PCD_EP_ISR_Handler+0x2e6>
            count = HAL_PCD_EP_DB_Receive(hpcd, ep, wEPVal);
 80041e6:	4632      	mov	r2, r6
 80041e8:	4641      	mov	r1, r8
 80041ea:	4628      	mov	r0, r5
 80041ec:	f7ff faee 	bl	80037cc <HAL_PCD_EP_DB_Receive>
 80041f0:	4607      	mov	r7, r0
 80041f2:	e78b      	b.n	800410c <PCD_EP_ISR_Handler+0x2e6>
              count = (uint16_t)PCD_GET_EP_DBUF1_CNT(hpcd->Instance, ep->num);
 80041f4:	f8b0 3050 	ldrh.w	r3, [r0, #80]	@ 0x50
 80041f8:	b29b      	uxth	r3, r3
 80041fa:	eb03 03c2 	add.w	r3, r3, r2, lsl #3
 80041fe:	3306      	adds	r3, #6
 8004200:	eb00 0343 	add.w	r3, r0, r3, lsl #1
 8004204:	f8b3 7400 	ldrh.w	r7, [r3, #1024]	@ 0x400
 8004208:	f3c7 0709 	ubfx	r7, r7, #0, #10
              if (count != 0U)
 800420c:	2f00      	cmp	r7, #0
 800420e:	f43f af7d 	beq.w	800410c <PCD_EP_ISR_Handler+0x2e6>
                USB_ReadPMA(hpcd->Instance, ep->xfer_buff, ep->pmaaddr1, count);
 8004212:	eb04 0184 	add.w	r1, r4, r4, lsl #2
 8004216:	eb05 01c1 	add.w	r1, r5, r1, lsl #3
 800421a:	463b      	mov	r3, r7
 800421c:	f8b1 215a 	ldrh.w	r2, [r1, #346]	@ 0x15a
 8004220:	f8d1 1164 	ldr.w	r1, [r1, #356]	@ 0x164
 8004224:	f002 fb03 	bl	800682e <USB_ReadPMA>
 8004228:	e770      	b.n	800410c <PCD_EP_ISR_Handler+0x2e6>
          (void)USB_EPStartXfer(hpcd->Instance, ep);
 800422a:	4641      	mov	r1, r8
 800422c:	6828      	ldr	r0, [r5, #0]
 800422e:	f001 ff17 	bl	8006060 <USB_EPStartXfer>
 8004232:	e6ed      	b.n	8004010 <PCD_EP_ISR_Handler+0x1ea>
          ep->xfer_len = 0U;
 8004234:	1c63      	adds	r3, r4, #1
 8004236:	eb03 0383 	add.w	r3, r3, r3, lsl #2
 800423a:	00db      	lsls	r3, r3, #3
 800423c:	2200      	movs	r2, #0
 800423e:	50ea      	str	r2, [r5, r3]
          if (ep->doublebuffer != 0U)
 8004240:	eb04 0384 	add.w	r3, r4, r4, lsl #2
 8004244:	eb05 03c3 	add.w	r3, r5, r3, lsl #3
 8004248:	7f1b      	ldrb	r3, [r3, #28]
 800424a:	b31b      	cbz	r3, 8004294 <PCD_EP_ISR_Handler+0x46e>
            if ((wEPVal & USB_EP_DTOG_TX) != 0U)
 800424c:	f016 0f40 	tst.w	r6, #64	@ 0x40
 8004250:	d03b      	beq.n	80042ca <PCD_EP_ISR_Handler+0x4a4>
              PCD_SET_EP_DBUF0_CNT(hpcd->Instance, ep->num, ep->is_in, 0U);
 8004252:	eb04 0384 	add.w	r3, r4, r4, lsl #2
 8004256:	eb05 03c3 	add.w	r3, r5, r3, lsl #3
 800425a:	7c5b      	ldrb	r3, [r3, #17]
 800425c:	bb1b      	cbnz	r3, 80042a6 <PCD_EP_ISR_Handler+0x480>
 800425e:	682b      	ldr	r3, [r5, #0]
 8004260:	f8b3 2050 	ldrh.w	r2, [r3, #80]	@ 0x50
 8004264:	b292      	uxth	r2, r2
 8004266:	4413      	add	r3, r2
 8004268:	eb04 0284 	add.w	r2, r4, r4, lsl #2
 800426c:	eb05 02c2 	add.w	r2, r5, r2, lsl #3
 8004270:	7c12      	ldrb	r2, [r2, #16]
 8004272:	eb03 1302 	add.w	r3, r3, r2, lsl #4
 8004276:	f8b3 2404 	ldrh.w	r2, [r3, #1028]	@ 0x404
 800427a:	f3c2 0209 	ubfx	r2, r2, #0, #10
 800427e:	f8a3 2404 	strh.w	r2, [r3, #1028]	@ 0x404
 8004282:	f8b3 2404 	ldrh.w	r2, [r3, #1028]	@ 0x404
 8004286:	ea6f 4242 	mvn.w	r2, r2, lsl #17
 800428a:	ea6f 4252 	mvn.w	r2, r2, lsr #17
 800428e:	b292      	uxth	r2, r2
 8004290:	f8a3 2404 	strh.w	r2, [r3, #1028]	@ 0x404
          HAL_PCD_DataInStageCallback(hpcd, ep->num);
 8004294:	eb04 0484 	add.w	r4, r4, r4, lsl #2
 8004298:	eb05 04c4 	add.w	r4, r5, r4, lsl #3
 800429c:	7c21      	ldrb	r1, [r4, #16]
 800429e:	4628      	mov	r0, r5
 80042a0:	f002 ff1e 	bl	80070e0 <HAL_PCD_DataInStageCallback>
 80042a4:	e5c2      	b.n	8003e2c <PCD_EP_ISR_Handler+0x6>
              PCD_SET_EP_DBUF0_CNT(hpcd->Instance, ep->num, ep->is_in, 0U);
 80042a6:	2b01      	cmp	r3, #1
 80042a8:	d1f4      	bne.n	8004294 <PCD_EP_ISR_Handler+0x46e>
 80042aa:	682b      	ldr	r3, [r5, #0]
 80042ac:	f8b3 2050 	ldrh.w	r2, [r3, #80]	@ 0x50
 80042b0:	b292      	uxth	r2, r2
 80042b2:	4413      	add	r3, r2
 80042b4:	eb04 0284 	add.w	r2, r4, r4, lsl #2
 80042b8:	eb05 02c2 	add.w	r2, r5, r2, lsl #3
 80042bc:	7c12      	ldrb	r2, [r2, #16]
 80042be:	eb03 1302 	add.w	r3, r3, r2, lsl #4
 80042c2:	2200      	movs	r2, #0
 80042c4:	f8a3 2404 	strh.w	r2, [r3, #1028]	@ 0x404
 80042c8:	e7e4      	b.n	8004294 <PCD_EP_ISR_Handler+0x46e>
              PCD_SET_EP_DBUF1_CNT(hpcd->Instance, ep->num, ep->is_in, 0U);
 80042ca:	682b      	ldr	r3, [r5, #0]
 80042cc:	eb04 0284 	add.w	r2, r4, r4, lsl #2
 80042d0:	eb05 02c2 	add.w	r2, r5, r2, lsl #3
 80042d4:	7c52      	ldrb	r2, [r2, #17]
 80042d6:	b9d2      	cbnz	r2, 800430e <PCD_EP_ISR_Handler+0x4e8>
 80042d8:	f8b3 2050 	ldrh.w	r2, [r3, #80]	@ 0x50
 80042dc:	b292      	uxth	r2, r2
 80042de:	4413      	add	r3, r2
 80042e0:	eb04 0284 	add.w	r2, r4, r4, lsl #2
 80042e4:	eb05 02c2 	add.w	r2, r5, r2, lsl #3
 80042e8:	7c12      	ldrb	r2, [r2, #16]
 80042ea:	eb03 1302 	add.w	r3, r3, r2, lsl #4
 80042ee:	f8b3 240c 	ldrh.w	r2, [r3, #1036]	@ 0x40c
 80042f2:	f3c2 0209 	ubfx	r2, r2, #0, #10
 80042f6:	f8a3 240c 	strh.w	r2, [r3, #1036]	@ 0x40c
 80042fa:	f8b3 240c 	ldrh.w	r2, [r3, #1036]	@ 0x40c
 80042fe:	ea6f 4242 	mvn.w	r2, r2, lsl #17
 8004302:	ea6f 4252 	mvn.w	r2, r2, lsr #17
 8004306:	b292      	uxth	r2, r2
 8004308:	f8a3 240c 	strh.w	r2, [r3, #1036]	@ 0x40c
 800430c:	e7c2      	b.n	8004294 <PCD_EP_ISR_Handler+0x46e>
 800430e:	2a01      	cmp	r2, #1
 8004310:	d1c0      	bne.n	8004294 <PCD_EP_ISR_Handler+0x46e>
 8004312:	f8b3 2050 	ldrh.w	r2, [r3, #80]	@ 0x50
 8004316:	b292      	uxth	r2, r2
 8004318:	4413      	add	r3, r2
 800431a:	eb04 0284 	add.w	r2, r4, r4, lsl #2
 800431e:	eb05 02c2 	add.w	r2, r5, r2, lsl #3
 8004322:	7c12      	ldrb	r2, [r2, #16]
 8004324:	eb03 1302 	add.w	r3, r3, r2, lsl #4
 8004328:	2200      	movs	r2, #0
 800432a:	f8a3 240c 	strh.w	r2, [r3, #1036]	@ 0x40c
 800432e:	e7b1      	b.n	8004294 <PCD_EP_ISR_Handler+0x46e>
              ep->xfer_len = 0U;
 8004330:	1c62      	adds	r2, r4, #1
 8004332:	eb02 0282 	add.w	r2, r2, r2, lsl #2
 8004336:	00d2      	lsls	r2, r2, #3
 8004338:	2700      	movs	r7, #0
 800433a:	50af      	str	r7, [r5, r2]
 800433c:	e6ac      	b.n	8004098 <PCD_EP_ISR_Handler+0x272>
              ep->xfer_buff += TxPctSize;
 800433e:	eb04 0284 	add.w	r2, r4, r4, lsl #2
 8004342:	eb05 02c2 	add.w	r2, r5, r2, lsl #3
 8004346:	6a56      	ldr	r6, [r2, #36]	@ 0x24
 8004348:	441e      	add	r6, r3
 800434a:	6256      	str	r6, [r2, #36]	@ 0x24
              ep->xfer_count += TxPctSize;
 800434c:	3401      	adds	r4, #1
 800434e:	eb04 0284 	add.w	r2, r4, r4, lsl #2
 8004352:	eb05 02c2 	add.w	r2, r5, r2, lsl #3
 8004356:	6852      	ldr	r2, [r2, #4]
 8004358:	eb04 0484 	add.w	r4, r4, r4, lsl #2
 800435c:	eb05 04c4 	add.w	r4, r5, r4, lsl #3
 8004360:	4413      	add	r3, r2
 8004362:	6063      	str	r3, [r4, #4]
              (void)USB_EPStartXfer(hpcd->Instance, ep);
 8004364:	f001 fe7c 	bl	8006060 <USB_EPStartXfer>
 8004368:	e560      	b.n	8003e2c <PCD_EP_ISR_Handler+0x6>
            (void)HAL_PCD_EP_DB_Transmit(hpcd, ep, wEPVal);
 800436a:	4632      	mov	r2, r6
 800436c:	4628      	mov	r0, r5
 800436e:	f7ff fb48 	bl	8003a02 <HAL_PCD_EP_DB_Transmit>
 8004372:	e55b      	b.n	8003e2c <PCD_EP_ISR_Handler+0x6>
}
 8004374:	2000      	movs	r0, #0
 8004376:	e8bd 81f0 	ldmia.w	sp!, {r4, r5, r6, r7, r8, pc}

0800437a <HAL_PCD_SetAddress>:
  __HAL_LOCK(hpcd);
 800437a:	f890 3290 	ldrb.w	r3, [r0, #656]	@ 0x290
 800437e:	2b01      	cmp	r3, #1
 8004380:	d00c      	beq.n	800439c <HAL_PCD_SetAddress+0x22>
{
 8004382:	b510      	push	{r4, lr}
 8004384:	4604      	mov	r4, r0
  __HAL_LOCK(hpcd);
 8004386:	2301      	movs	r3, #1
 8004388:	f880 3290 	strb.w	r3, [r0, #656]	@ 0x290
  hpcd->USB_Address = address;
 800438c:	7341      	strb	r1, [r0, #13]
  (void)USB_SetDevAddress(hpcd->Instance, address);
 800438e:	6800      	ldr	r0, [r0, #0]
 8004390:	f001 fe43 	bl	800601a <USB_SetDevAddress>
  __HAL_UNLOCK(hpcd);
 8004394:	2000      	movs	r0, #0
 8004396:	f884 0290 	strb.w	r0, [r4, #656]	@ 0x290
}
 800439a:	bd10      	pop	{r4, pc}
  __HAL_LOCK(hpcd);
 800439c:	2002      	movs	r0, #2
}
 800439e:	4770      	bx	lr

080043a0 <HAL_PCD_IRQHandler>:
{
 80043a0:	b510      	push	{r4, lr}
 80043a2:	b084      	sub	sp, #16
 80043a4:	4604      	mov	r4, r0
  uint32_t wIstr = USB_ReadInterrupts(hpcd->Instance);
 80043a6:	6800      	ldr	r0, [r0, #0]
 80043a8:	f001 fe41 	bl	800602e <USB_ReadInterrupts>
  if ((wIstr & USB_ISTR_CTR) == USB_ISTR_CTR)
 80043ac:	f410 4f00 	tst.w	r0, #32768	@ 0x8000
 80043b0:	d120      	bne.n	80043f4 <HAL_PCD_IRQHandler+0x54>
  if ((wIstr & USB_ISTR_RESET) == USB_ISTR_RESET)
 80043b2:	f410 6f80 	tst.w	r0, #1024	@ 0x400
 80043b6:	d121      	bne.n	80043fc <HAL_PCD_IRQHandler+0x5c>
  if ((wIstr & USB_ISTR_PMAOVR) == USB_ISTR_PMAOVR)
 80043b8:	f410 4f80 	tst.w	r0, #16384	@ 0x4000
 80043bc:	d12f      	bne.n	800441e <HAL_PCD_IRQHandler+0x7e>
  if ((wIstr & USB_ISTR_ERR) == USB_ISTR_ERR)
 80043be:	f410 5f00 	tst.w	r0, #8192	@ 0x2000
 80043c2:	d137      	bne.n	8004434 <HAL_PCD_IRQHandler+0x94>
  if ((wIstr & USB_ISTR_WKUP) == USB_ISTR_WKUP)
 80043c4:	f410 5f80 	tst.w	r0, #4096	@ 0x1000
 80043c8:	d13e      	bne.n	8004448 <HAL_PCD_IRQHandler+0xa8>
  if ((wIstr & USB_ISTR_SUSP) == USB_ISTR_SUSP)
 80043ca:	f410 6f00 	tst.w	r0, #2048	@ 0x800
 80043ce:	f040 8087 	bne.w	80044e0 <HAL_PCD_IRQHandler+0x140>
  if ((wIstr & USB_ISTR_SOF) == USB_ISTR_SOF)
 80043d2:	f410 7f00 	tst.w	r0, #512	@ 0x200
 80043d6:	f040 80ae 	bne.w	8004536 <HAL_PCD_IRQHandler+0x196>
  if ((wIstr & USB_ISTR_ESOF) == USB_ISTR_ESOF)
 80043da:	f410 7f80 	tst.w	r0, #256	@ 0x100
 80043de:	d027      	beq.n	8004430 <HAL_PCD_IRQHandler+0x90>
    __HAL_PCD_CLEAR_FLAG(hpcd, USB_ISTR_ESOF);
 80043e0:	6822      	ldr	r2, [r4, #0]
 80043e2:	f8b2 3044 	ldrh.w	r3, [r2, #68]	@ 0x44
 80043e6:	b29b      	uxth	r3, r3
 80043e8:	f423 7380 	bic.w	r3, r3, #256	@ 0x100
 80043ec:	b29b      	uxth	r3, r3
 80043ee:	f8a2 3044 	strh.w	r3, [r2, #68]	@ 0x44
    return;
 80043f2:	e01d      	b.n	8004430 <HAL_PCD_IRQHandler+0x90>
    (void)PCD_EP_ISR_Handler(hpcd);
 80043f4:	4620      	mov	r0, r4
 80043f6:	f7ff fd16 	bl	8003e26 <PCD_EP_ISR_Handler>
    return;
 80043fa:	e019      	b.n	8004430 <HAL_PCD_IRQHandler+0x90>
    __HAL_PCD_CLEAR_FLAG(hpcd, USB_ISTR_RESET);
 80043fc:	6822      	ldr	r2, [r4, #0]
 80043fe:	f8b2 3044 	ldrh.w	r3, [r2, #68]	@ 0x44
 8004402:	b29b      	uxth	r3, r3
 8004404:	f423 6380 	bic.w	r3, r3, #1024	@ 0x400
 8004408:	b29b      	uxth	r3, r3
 800440a:	f8a2 3044 	strh.w	r3, [r2, #68]	@ 0x44
    HAL_PCD_ResetCallback(hpcd);
 800440e:	4620      	mov	r0, r4
 8004410:	f002 fe77 	bl	8007102 <HAL_PCD_ResetCallback>
    (void)HAL_PCD_SetAddress(hpcd, 0U);
 8004414:	2100      	movs	r1, #0
 8004416:	4620      	mov	r0, r4
 8004418:	f7ff ffaf 	bl	800437a <HAL_PCD_SetAddress>
    return;
 800441c:	e008      	b.n	8004430 <HAL_PCD_IRQHandler+0x90>
    __HAL_PCD_CLEAR_FLAG(hpcd, USB_ISTR_PMAOVR);
 800441e:	6822      	ldr	r2, [r4, #0]
 8004420:	f8b2 3044 	ldrh.w	r3, [r2, #68]	@ 0x44
 8004424:	b29b      	uxth	r3, r3
 8004426:	f423 4380 	bic.w	r3, r3, #16384	@ 0x4000
 800442a:	b29b      	uxth	r3, r3
 800442c:	f8a2 3044 	strh.w	r3, [r2, #68]	@ 0x44
}
 8004430:	b004      	add	sp, #16
 8004432:	bd10      	pop	{r4, pc}
    __HAL_PCD_CLEAR_FLAG(hpcd, USB_ISTR_ERR);
 8004434:	6822      	ldr	r2, [r4, #0]
 8004436:	f8b2 3044 	ldrh.w	r3, [r2, #68]	@ 0x44
 800443a:	b29b      	uxth	r3, r3
 800443c:	f423 5300 	bic.w	r3, r3, #8192	@ 0x2000
 8004440:	b29b      	uxth	r3, r3
 8004442:	f8a2 3044 	strh.w	r3, [r2, #68]	@ 0x44
    return;
 8004446:	e7f3      	b.n	8004430 <HAL_PCD_IRQHandler+0x90>
    hpcd->Instance->CNTR &= (uint16_t) ~(USB_CNTR_LP_MODE);
 8004448:	6822      	ldr	r2, [r4, #0]
 800444a:	f8b2 3040 	ldrh.w	r3, [r2, #64]	@ 0x40
 800444e:	b29b      	uxth	r3, r3
 8004450:	f023 0304 	bic.w	r3, r3, #4
 8004454:	b29b      	uxth	r3, r3
 8004456:	f8a2 3040 	strh.w	r3, [r2, #64]	@ 0x40
    hpcd->Instance->CNTR &= (uint16_t) ~(USB_CNTR_FSUSP);
 800445a:	6822      	ldr	r2, [r4, #0]
 800445c:	f8b2 3040 	ldrh.w	r3, [r2, #64]	@ 0x40
 8004460:	b29b      	uxth	r3, r3
 8004462:	f023 0308 	bic.w	r3, r3, #8
 8004466:	b29b      	uxth	r3, r3
 8004468:	f8a2 3040 	strh.w	r3, [r2, #64]	@ 0x40
    HAL_PCD_ResumeCallback(hpcd);
 800446c:	4620      	mov	r0, r4
 800446e:	f002 fe6b 	bl	8007148 <HAL_PCD_ResumeCallback>
    __HAL_PCD_CLEAR_FLAG(hpcd, USB_ISTR_WKUP);
 8004472:	6822      	ldr	r2, [r4, #0]
 8004474:	f8b2 3044 	ldrh.w	r3, [r2, #68]	@ 0x44
 8004478:	b29b      	uxth	r3, r3
 800447a:	f423 5380 	bic.w	r3, r3, #4096	@ 0x1000
 800447e:	b29b      	uxth	r3, r3
 8004480:	f8a2 3044 	strh.w	r3, [r2, #68]	@ 0x44
    return;
 8004484:	e7d4      	b.n	8004430 <HAL_PCD_IRQHandler+0x90>
      store_ep[i] = PCD_GET_ENDPOINT(hpcd->Instance, i);
 8004486:	6822      	ldr	r2, [r4, #0]
 8004488:	f832 1023 	ldrh.w	r1, [r2, r3, lsl #2]
 800448c:	aa04      	add	r2, sp, #16
 800448e:	eb02 0243 	add.w	r2, r2, r3, lsl #1
 8004492:	f822 1c10 	strh.w	r1, [r2, #-16]
    for (i = 0U; i < 8U; i++)
 8004496:	3301      	adds	r3, #1
 8004498:	b2db      	uxtb	r3, r3
 800449a:	2b07      	cmp	r3, #7
 800449c:	d9f3      	bls.n	8004486 <HAL_PCD_IRQHandler+0xe6>
    hpcd->Instance->CNTR |= (uint16_t)(USB_CNTR_FRES);
 800449e:	6822      	ldr	r2, [r4, #0]
 80044a0:	f8b2 3040 	ldrh.w	r3, [r2, #64]	@ 0x40
 80044a4:	b29b      	uxth	r3, r3
 80044a6:	f043 0301 	orr.w	r3, r3, #1
 80044aa:	f8a2 3040 	strh.w	r3, [r2, #64]	@ 0x40
    hpcd->Instance->CNTR &= (uint16_t)(~USB_CNTR_FRES);
 80044ae:	6822      	ldr	r2, [r4, #0]
 80044b0:	f8b2 3040 	ldrh.w	r3, [r2, #64]	@ 0x40
 80044b4:	b29b      	uxth	r3, r3
 80044b6:	f023 0301 	bic.w	r3, r3, #1
 80044ba:	b29b      	uxth	r3, r3
 80044bc:	f8a2 3040 	strh.w	r3, [r2, #64]	@ 0x40
    while ((hpcd->Instance->ISTR & USB_ISTR_RESET) == 0U)
 80044c0:	6823      	ldr	r3, [r4, #0]
 80044c2:	f8b3 2044 	ldrh.w	r2, [r3, #68]	@ 0x44
 80044c6:	f412 6f80 	tst.w	r2, #1024	@ 0x400
 80044ca:	d0f9      	beq.n	80044c0 <HAL_PCD_IRQHandler+0x120>
    __HAL_PCD_CLEAR_FLAG(hpcd, USB_ISTR_RESET);
 80044cc:	f8b3 2044 	ldrh.w	r2, [r3, #68]	@ 0x44
 80044d0:	b292      	uxth	r2, r2
 80044d2:	f422 6280 	bic.w	r2, r2, #1024	@ 0x400
 80044d6:	b292      	uxth	r2, r2
 80044d8:	f8a3 2044 	strh.w	r2, [r3, #68]	@ 0x44
    for (i = 0U; i < 8U; i++)
 80044dc:	2300      	movs	r3, #0
 80044de:	e00b      	b.n	80044f8 <HAL_PCD_IRQHandler+0x158>
    for (i = 0U; i < 8U; i++)
 80044e0:	2300      	movs	r3, #0
 80044e2:	e7da      	b.n	800449a <HAL_PCD_IRQHandler+0xfa>
      PCD_SET_ENDPOINT(hpcd->Instance, i, store_ep[i]);
 80044e4:	6822      	ldr	r2, [r4, #0]
 80044e6:	a904      	add	r1, sp, #16
 80044e8:	eb01 0143 	add.w	r1, r1, r3, lsl #1
 80044ec:	f831 1c10 	ldrh.w	r1, [r1, #-16]
 80044f0:	f822 1023 	strh.w	r1, [r2, r3, lsl #2]
    for (i = 0U; i < 8U; i++)
 80044f4:	3301      	adds	r3, #1
 80044f6:	b2db      	uxtb	r3, r3
 80044f8:	2b07      	cmp	r3, #7
 80044fa:	d9f3      	bls.n	80044e4 <HAL_PCD_IRQHandler+0x144>
    hpcd->Instance->CNTR |= (uint16_t)USB_CNTR_FSUSP;
 80044fc:	6822      	ldr	r2, [r4, #0]
 80044fe:	f8b2 3040 	ldrh.w	r3, [r2, #64]	@ 0x40
 8004502:	b29b      	uxth	r3, r3
 8004504:	f043 0308 	orr.w	r3, r3, #8
 8004508:	f8a2 3040 	strh.w	r3, [r2, #64]	@ 0x40
    __HAL_PCD_CLEAR_FLAG(hpcd, USB_ISTR_SUSP);
 800450c:	6822      	ldr	r2, [r4, #0]
 800450e:	f8b2 3044 	ldrh.w	r3, [r2, #68]	@ 0x44
 8004512:	b29b      	uxth	r3, r3
 8004514:	f423 6300 	bic.w	r3, r3, #2048	@ 0x800
 8004518:	b29b      	uxth	r3, r3
 800451a:	f8a2 3044 	strh.w	r3, [r2, #68]	@ 0x44
    hpcd->Instance->CNTR |= (uint16_t)USB_CNTR_LP_MODE;
 800451e:	6822      	ldr	r2, [r4, #0]
 8004520:	f8b2 3040 	ldrh.w	r3, [r2, #64]	@ 0x40
 8004524:	b29b      	uxth	r3, r3
 8004526:	f043 0304 	orr.w	r3, r3, #4
 800452a:	f8a2 3040 	strh.w	r3, [r2, #64]	@ 0x40
    HAL_PCD_SuspendCallback(hpcd);
 800452e:	4620      	mov	r0, r4
 8004530:	f002 fdfa 	bl	8007128 <HAL_PCD_SuspendCallback>
    return;
 8004534:	e77c      	b.n	8004430 <HAL_PCD_IRQHandler+0x90>
    __HAL_PCD_CLEAR_FLAG(hpcd, USB_ISTR_SOF);
 8004536:	6822      	ldr	r2, [r4, #0]
 8004538:	f8b2 3044 	ldrh.w	r3, [r2, #68]	@ 0x44
 800453c:	b29b      	uxth	r3, r3
 800453e:	f423 7300 	bic.w	r3, r3, #512	@ 0x200
 8004542:	b29b      	uxth	r3, r3
 8004544:	f8a2 3044 	strh.w	r3, [r2, #68]	@ 0x44
    HAL_PCD_SOFCallback(hpcd);
 8004548:	4620      	mov	r0, r4
 800454a:	f002 fdd4 	bl	80070f6 <HAL_PCD_SOFCallback>
    return;
 800454e:	e76f      	b.n	8004430 <HAL_PCD_IRQHandler+0x90>

08004550 <HAL_PCD_EP_Open>:
{
 8004550:	b510      	push	{r4, lr}
 8004552:	4604      	mov	r4, r0
 8004554:	4608      	mov	r0, r1
  if ((ep_addr & 0x80U) == 0x80U)
 8004556:	f011 0f80 	tst.w	r1, #128	@ 0x80
 800455a:	d126      	bne.n	80045aa <HAL_PCD_EP_Open+0x5a>
    ep = &hpcd->OUT_ep[ep_addr & EP_ADDR_MSK];
 800455c:	f001 0c07 	and.w	ip, r1, #7
 8004560:	eb0c 0e8c 	add.w	lr, ip, ip, lsl #2
 8004564:	ea4f 0ece 	mov.w	lr, lr, lsl #3
 8004568:	f50e 7ea8 	add.w	lr, lr, #336	@ 0x150
 800456c:	eb04 010e 	add.w	r1, r4, lr
    ep->is_in = 0U;
 8004570:	eb0c 0c8c 	add.w	ip, ip, ip, lsl #2
 8004574:	eb04 0ccc 	add.w	ip, r4, ip, lsl #3
 8004578:	f04f 0e00 	mov.w	lr, #0
 800457c:	f88c e151 	strb.w	lr, [ip, #337]	@ 0x151
  ep->num = ep_addr & EP_ADDR_MSK;
 8004580:	f000 0007 	and.w	r0, r0, #7
 8004584:	7008      	strb	r0, [r1, #0]
  ep->maxpacket = ep_mps;
 8004586:	610a      	str	r2, [r1, #16]
  ep->type = ep_type;
 8004588:	70cb      	strb	r3, [r1, #3]
  if (ep_type == EP_TYPE_BULK)
 800458a:	2b02      	cmp	r3, #2
 800458c:	d01d      	beq.n	80045ca <HAL_PCD_EP_Open+0x7a>
  __HAL_LOCK(hpcd);
 800458e:	f894 3290 	ldrb.w	r3, [r4, #656]	@ 0x290
 8004592:	2b01      	cmp	r3, #1
 8004594:	d01c      	beq.n	80045d0 <HAL_PCD_EP_Open+0x80>
 8004596:	2301      	movs	r3, #1
 8004598:	f884 3290 	strb.w	r3, [r4, #656]	@ 0x290
  (void)USB_ActivateEndpoint(hpcd->Instance, ep);
 800459c:	6820      	ldr	r0, [r4, #0]
 800459e:	f001 f9f6 	bl	800598e <USB_ActivateEndpoint>
  __HAL_UNLOCK(hpcd);
 80045a2:	2000      	movs	r0, #0
 80045a4:	f884 0290 	strb.w	r0, [r4, #656]	@ 0x290
}
 80045a8:	bd10      	pop	{r4, pc}
    ep = &hpcd->IN_ep[ep_addr & EP_ADDR_MSK];
 80045aa:	f001 0c07 	and.w	ip, r1, #7
 80045ae:	eb0c 018c 	add.w	r1, ip, ip, lsl #2
 80045b2:	00c9      	lsls	r1, r1, #3
 80045b4:	3110      	adds	r1, #16
 80045b6:	4421      	add	r1, r4
    ep->is_in = 1U;
 80045b8:	eb0c 0c8c 	add.w	ip, ip, ip, lsl #2
 80045bc:	eb04 0ccc 	add.w	ip, r4, ip, lsl #3
 80045c0:	f04f 0e01 	mov.w	lr, #1
 80045c4:	f88c e011 	strb.w	lr, [ip, #17]
 80045c8:	e7da      	b.n	8004580 <HAL_PCD_EP_Open+0x30>
    ep->data_pid_start = 0U;
 80045ca:	2300      	movs	r3, #0
 80045cc:	710b      	strb	r3, [r1, #4]
 80045ce:	e7de      	b.n	800458e <HAL_PCD_EP_Open+0x3e>
  __HAL_LOCK(hpcd);
 80045d0:	2002      	movs	r0, #2
 80045d2:	e7e9      	b.n	80045a8 <HAL_PCD_EP_Open+0x58>

080045d4 <HAL_PCD_EP_Close>:
{
 80045d4:	b510      	push	{r4, lr}
 80045d6:	4604      	mov	r4, r0
 80045d8:	460a      	mov	r2, r1
  if ((ep_addr & 0x80U) == 0x80U)
 80045da:	f011 0f80 	tst.w	r1, #128	@ 0x80
 80045de:	d11f      	bne.n	8004620 <HAL_PCD_EP_Close+0x4c>
    ep = &hpcd->OUT_ep[ep_addr & EP_ADDR_MSK];
 80045e0:	f001 0007 	and.w	r0, r1, #7
 80045e4:	eb00 0380 	add.w	r3, r0, r0, lsl #2
 80045e8:	00db      	lsls	r3, r3, #3
 80045ea:	f503 73a8 	add.w	r3, r3, #336	@ 0x150
 80045ee:	18e1      	adds	r1, r4, r3
    ep->is_in = 0U;
 80045f0:	eb00 0080 	add.w	r0, r0, r0, lsl #2
 80045f4:	eb04 00c0 	add.w	r0, r4, r0, lsl #3
 80045f8:	2300      	movs	r3, #0
 80045fa:	f880 3151 	strb.w	r3, [r0, #337]	@ 0x151
  ep->num = ep_addr & EP_ADDR_MSK;
 80045fe:	f002 0207 	and.w	r2, r2, #7
 8004602:	700a      	strb	r2, [r1, #0]
  __HAL_LOCK(hpcd);
 8004604:	f894 3290 	ldrb.w	r3, [r4, #656]	@ 0x290
 8004608:	2b01      	cmp	r3, #1
 800460a:	d017      	beq.n	800463c <HAL_PCD_EP_Close+0x68>
 800460c:	2301      	movs	r3, #1
 800460e:	f884 3290 	strb.w	r3, [r4, #656]	@ 0x290
  (void)USB_DeactivateEndpoint(hpcd->Instance, ep);
 8004612:	6820      	ldr	r0, [r4, #0]
 8004614:	f001 fba0 	bl	8005d58 <USB_DeactivateEndpoint>
  __HAL_UNLOCK(hpcd);
 8004618:	2000      	movs	r0, #0
 800461a:	f884 0290 	strb.w	r0, [r4, #656]	@ 0x290
}
 800461e:	bd10      	pop	{r4, pc}
    ep = &hpcd->IN_ep[ep_addr & EP_ADDR_MSK];
 8004620:	f001 0007 	and.w	r0, r1, #7
 8004624:	eb00 0380 	add.w	r3, r0, r0, lsl #2
 8004628:	00db      	lsls	r3, r3, #3
 800462a:	3310      	adds	r3, #16
 800462c:	18e1      	adds	r1, r4, r3
    ep->is_in = 1U;
 800462e:	eb00 0080 	add.w	r0, r0, r0, lsl #2
 8004632:	eb04 00c0 	add.w	r0, r4, r0, lsl #3
 8004636:	2301      	movs	r3, #1
 8004638:	7443      	strb	r3, [r0, #17]
 800463a:	e7e0      	b.n	80045fe <HAL_PCD_EP_Close+0x2a>
  __HAL_LOCK(hpcd);
 800463c:	2002      	movs	r0, #2
 800463e:	e7ee      	b.n	800461e <HAL_PCD_EP_Close+0x4a>

08004640 <HAL_PCD_EP_Receive>:
{
 8004640:	b510      	push	{r4, lr}
  ep = &hpcd->OUT_ep[ep_addr & EP_ADDR_MSK];
 8004642:	f001 0c07 	and.w	ip, r1, #7
 8004646:	eb0c 018c 	add.w	r1, ip, ip, lsl #2
 800464a:	00c9      	lsls	r1, r1, #3
 800464c:	f501 71a8 	add.w	r1, r1, #336	@ 0x150
  ep->xfer_buff = pBuf;
 8004650:	eb0c 0e8c 	add.w	lr, ip, ip, lsl #2
 8004654:	eb00 0ece 	add.w	lr, r0, lr, lsl #3
 8004658:	f8ce 2164 	str.w	r2, [lr, #356]	@ 0x164
  ep->xfer_len = len;
 800465c:	f8ce 3168 	str.w	r3, [lr, #360]	@ 0x168
  ep->xfer_count = 0U;
 8004660:	2400      	movs	r4, #0
 8004662:	f8ce 416c 	str.w	r4, [lr, #364]	@ 0x16c
  ep->is_in = 0U;
 8004666:	f88e 4151 	strb.w	r4, [lr, #337]	@ 0x151
  ep->num = ep_addr & EP_ADDR_MSK;
 800466a:	f88e c150 	strb.w	ip, [lr, #336]	@ 0x150
  (void)USB_EPStartXfer(hpcd->Instance, ep);
 800466e:	4401      	add	r1, r0
 8004670:	6800      	ldr	r0, [r0, #0]
 8004672:	f001 fcf5 	bl	8006060 <USB_EPStartXfer>
}
 8004676:	4620      	mov	r0, r4
 8004678:	bd10      	pop	{r4, pc}

0800467a <HAL_PCD_EP_GetRxCount>:
  return hpcd->OUT_ep[ep_addr & EP_ADDR_MSK].xfer_count;
 800467a:	f001 0107 	and.w	r1, r1, #7
 800467e:	eb01 0181 	add.w	r1, r1, r1, lsl #2
 8004682:	eb00 00c1 	add.w	r0, r0, r1, lsl #3
}
 8004686:	f8d0 016c 	ldr.w	r0, [r0, #364]	@ 0x16c
 800468a:	4770      	bx	lr

0800468c <HAL_PCD_EP_Transmit>:
{
 800468c:	b538      	push	{r3, r4, r5, lr}
  ep = &hpcd->IN_ep[ep_addr & EP_ADDR_MSK];
 800468e:	f001 0c07 	and.w	ip, r1, #7
 8004692:	eb0c 018c 	add.w	r1, ip, ip, lsl #2
 8004696:	00c9      	lsls	r1, r1, #3
 8004698:	3110      	adds	r1, #16
  ep->xfer_buff = pBuf;
 800469a:	eb0c 0e8c 	add.w	lr, ip, ip, lsl #2
 800469e:	eb00 0ece 	add.w	lr, r0, lr, lsl #3
 80046a2:	f8ce 2024 	str.w	r2, [lr, #36]	@ 0x24
  ep->xfer_len = len;
 80046a6:	f10c 0201 	add.w	r2, ip, #1
 80046aa:	eb02 0482 	add.w	r4, r2, r2, lsl #2
 80046ae:	f840 3034 	str.w	r3, [r0, r4, lsl #3]
  ep->xfer_fill_db = 1U;
 80046b2:	2501      	movs	r5, #1
 80046b4:	f88e 5034 	strb.w	r5, [lr, #52]	@ 0x34
  ep->xfer_len_db = len;
 80046b8:	f8ce 3030 	str.w	r3, [lr, #48]	@ 0x30
  ep->xfer_count = 0U;
 80046bc:	eb00 02c4 	add.w	r2, r0, r4, lsl #3
 80046c0:	2400      	movs	r4, #0
 80046c2:	6054      	str	r4, [r2, #4]
  ep->is_in = 1U;
 80046c4:	f88e 5011 	strb.w	r5, [lr, #17]
  ep->num = ep_addr & EP_ADDR_MSK;
 80046c8:	f88e c010 	strb.w	ip, [lr, #16]
  (void)USB_EPStartXfer(hpcd->Instance, ep);
 80046cc:	4401      	add	r1, r0
 80046ce:	6800      	ldr	r0, [r0, #0]
 80046d0:	f001 fcc6 	bl	8006060 <USB_EPStartXfer>
}
 80046d4:	4620      	mov	r0, r4
 80046d6:	bd38      	pop	{r3, r4, r5, pc}

080046d8 <HAL_PCD_EP_SetStall>:
{
 80046d8:	b538      	push	{r3, r4, r5, lr}
  if (((uint32_t)ep_addr & EP_ADDR_MSK) > hpcd->Init.dev_endpoints)
 80046da:	f001 0507 	and.w	r5, r1, #7
 80046de:	7902      	ldrb	r2, [r0, #4]
 80046e0:	42aa      	cmp	r2, r5
 80046e2:	d335      	bcc.n	8004750 <HAL_PCD_EP_SetStall+0x78>
 80046e4:	4604      	mov	r4, r0
 80046e6:	460b      	mov	r3, r1
  if ((0x80U & ep_addr) == 0x80U)
 80046e8:	f011 0f80 	tst.w	r1, #128	@ 0x80
 80046ec:	d11e      	bne.n	800472c <HAL_PCD_EP_SetStall+0x54>
    ep = &hpcd->OUT_ep[ep_addr];
 80046ee:	eb01 0181 	add.w	r1, r1, r1, lsl #2
 80046f2:	00c9      	lsls	r1, r1, #3
 80046f4:	f501 71a8 	add.w	r1, r1, #336	@ 0x150
 80046f8:	4401      	add	r1, r0
    ep->is_in = 0U;
 80046fa:	eb03 0383 	add.w	r3, r3, r3, lsl #2
 80046fe:	eb00 03c3 	add.w	r3, r0, r3, lsl #3
 8004702:	2200      	movs	r2, #0
 8004704:	f883 2151 	strb.w	r2, [r3, #337]	@ 0x151
  ep->is_stall = 1U;
 8004708:	2301      	movs	r3, #1
 800470a:	708b      	strb	r3, [r1, #2]
  ep->num = ep_addr & EP_ADDR_MSK;
 800470c:	700d      	strb	r5, [r1, #0]
  __HAL_LOCK(hpcd);
 800470e:	f894 3290 	ldrb.w	r3, [r4, #656]	@ 0x290
 8004712:	2b01      	cmp	r3, #1
 8004714:	d01e      	beq.n	8004754 <HAL_PCD_EP_SetStall+0x7c>
 8004716:	2301      	movs	r3, #1
 8004718:	f884 3290 	strb.w	r3, [r4, #656]	@ 0x290
  (void)USB_EPSetStall(hpcd->Instance, ep);
 800471c:	6820      	ldr	r0, [r4, #0]
 800471e:	f001 fc06 	bl	8005f2e <USB_EPSetStall>
  if ((ep_addr & EP_ADDR_MSK) == 0U)
 8004722:	b17d      	cbz	r5, 8004744 <HAL_PCD_EP_SetStall+0x6c>
  __HAL_UNLOCK(hpcd);
 8004724:	2000      	movs	r0, #0
 8004726:	f884 0290 	strb.w	r0, [r4, #656]	@ 0x290
}
 800472a:	bd38      	pop	{r3, r4, r5, pc}
    ep = &hpcd->IN_ep[ep_addr & EP_ADDR_MSK];
 800472c:	eb05 0185 	add.w	r1, r5, r5, lsl #2
 8004730:	00c9      	lsls	r1, r1, #3
 8004732:	3110      	adds	r1, #16
 8004734:	4401      	add	r1, r0
    ep->is_in = 1U;
 8004736:	eb05 0385 	add.w	r3, r5, r5, lsl #2
 800473a:	eb00 03c3 	add.w	r3, r0, r3, lsl #3
 800473e:	2201      	movs	r2, #1
 8004740:	745a      	strb	r2, [r3, #17]
 8004742:	e7e1      	b.n	8004708 <HAL_PCD_EP_SetStall+0x30>
    (void)USB_EP0_OutStart(hpcd->Instance, (uint8_t *)hpcd->Setup);
 8004744:	f504 7126 	add.w	r1, r4, #664	@ 0x298
 8004748:	6820      	ldr	r0, [r4, #0]
 800474a:	f001 fc74 	bl	8006036 <USB_EP0_OutStart>
 800474e:	e7e9      	b.n	8004724 <HAL_PCD_EP_SetStall+0x4c>
    return HAL_ERROR;
 8004750:	2001      	movs	r0, #1
 8004752:	e7ea      	b.n	800472a <HAL_PCD_EP_SetStall+0x52>
  __HAL_LOCK(hpcd);
 8004754:	2002      	movs	r0, #2
 8004756:	e7e8      	b.n	800472a <HAL_PCD_EP_SetStall+0x52>

08004758 <HAL_PCD_EP_ClrStall>:
{
 8004758:	460b      	mov	r3, r1
  if (((uint32_t)ep_addr & 0x0FU) > hpcd->Init.dev_endpoints)
 800475a:	7901      	ldrb	r1, [r0, #4]
 800475c:	f003 020f 	and.w	r2, r3, #15
 8004760:	4291      	cmp	r1, r2
 8004762:	d334      	bcc.n	80047ce <HAL_PCD_EP_ClrStall+0x76>
{
 8004764:	b510      	push	{r4, lr}
 8004766:	4604      	mov	r4, r0
  if ((0x80U & ep_addr) == 0x80U)
 8004768:	f013 0f80 	tst.w	r3, #128	@ 0x80
 800476c:	d121      	bne.n	80047b2 <HAL_PCD_EP_ClrStall+0x5a>
    ep = &hpcd->OUT_ep[ep_addr & EP_ADDR_MSK];
 800476e:	f003 0207 	and.w	r2, r3, #7
 8004772:	eb02 0182 	add.w	r1, r2, r2, lsl #2
 8004776:	00c9      	lsls	r1, r1, #3
 8004778:	f501 71a8 	add.w	r1, r1, #336	@ 0x150
 800477c:	4401      	add	r1, r0
    ep->is_in = 0U;
 800477e:	eb02 0282 	add.w	r2, r2, r2, lsl #2
 8004782:	eb00 02c2 	add.w	r2, r0, r2, lsl #3
 8004786:	2000      	movs	r0, #0
 8004788:	f882 0151 	strb.w	r0, [r2, #337]	@ 0x151
  ep->is_stall = 0U;
 800478c:	2200      	movs	r2, #0
 800478e:	708a      	strb	r2, [r1, #2]
  ep->num = ep_addr & EP_ADDR_MSK;
 8004790:	f003 0307 	and.w	r3, r3, #7
 8004794:	700b      	strb	r3, [r1, #0]
  __HAL_LOCK(hpcd);
 8004796:	f894 3290 	ldrb.w	r3, [r4, #656]	@ 0x290
 800479a:	2b01      	cmp	r3, #1
 800479c:	d019      	beq.n	80047d2 <HAL_PCD_EP_ClrStall+0x7a>
 800479e:	2301      	movs	r3, #1
 80047a0:	f884 3290 	strb.w	r3, [r4, #656]	@ 0x290
  (void)USB_EPClearStall(hpcd->Instance, ep);
 80047a4:	6820      	ldr	r0, [r4, #0]
 80047a6:	f001 fbe7 	bl	8005f78 <USB_EPClearStall>
  __HAL_UNLOCK(hpcd);
 80047aa:	2000      	movs	r0, #0
 80047ac:	f884 0290 	strb.w	r0, [r4, #656]	@ 0x290
}
 80047b0:	bd10      	pop	{r4, pc}
    ep = &hpcd->IN_ep[ep_addr & EP_ADDR_MSK];
 80047b2:	f003 0207 	and.w	r2, r3, #7
 80047b6:	eb02 0182 	add.w	r1, r2, r2, lsl #2
 80047ba:	00c9      	lsls	r1, r1, #3
 80047bc:	3110      	adds	r1, #16
 80047be:	4401      	add	r1, r0
    ep->is_in = 1U;
 80047c0:	eb02 0282 	add.w	r2, r2, r2, lsl #2
 80047c4:	eb00 02c2 	add.w	r2, r0, r2, lsl #3
 80047c8:	2001      	movs	r0, #1
 80047ca:	7450      	strb	r0, [r2, #17]
 80047cc:	e7de      	b.n	800478c <HAL_PCD_EP_ClrStall+0x34>
    return HAL_ERROR;
 80047ce:	2001      	movs	r0, #1
}
 80047d0:	4770      	bx	lr
  __HAL_LOCK(hpcd);
 80047d2:	2002      	movs	r0, #2
 80047d4:	e7ec      	b.n	80047b0 <HAL_PCD_EP_ClrStall+0x58>

080047d6 <HAL_PCDEx_PMAConfig>:
                                       uint16_t ep_kind, uint32_t pmaadress)
{
  PCD_EPTypeDef *ep;

  /* initialize ep structure*/
  if ((0x80U & ep_addr) == 0x80U)
 80047d6:	f011 0f80 	tst.w	r1, #128	@ 0x80
 80047da:	d00b      	beq.n	80047f4 <HAL_PCDEx_PMAConfig+0x1e>
  {
    ep = &hpcd->IN_ep[ep_addr & EP_ADDR_MSK];
 80047dc:	f001 0107 	and.w	r1, r1, #7
 80047e0:	eb01 0181 	add.w	r1, r1, r1, lsl #2
 80047e4:	00c9      	lsls	r1, r1, #3
 80047e6:	3110      	adds	r1, #16
 80047e8:	4408      	add	r0, r1
  {
    ep = &hpcd->OUT_ep[ep_addr];
  }

  /* Here we check if the endpoint is single or double Buffer*/
  if (ep_kind == PCD_SNG_BUF)
 80047ea:	b952      	cbnz	r2, 8004802 <HAL_PCDEx_PMAConfig+0x2c>
  {
    /* Single Buffer */
    ep->doublebuffer = 0U;
 80047ec:	7302      	strb	r2, [r0, #12]
    /* Configure the PMA */
    ep->pmaadress = (uint16_t)pmaadress;
 80047ee:	80c3      	strh	r3, [r0, #6]
    ep->pmaaddr1 = (uint16_t)((pmaadress & 0xFFFF0000U) >> 16);
  }
#endif /* (USE_USB_DOUBLE_BUFFER == 1U) */

  return HAL_OK;
}
 80047f0:	2000      	movs	r0, #0
 80047f2:	4770      	bx	lr
    ep = &hpcd->OUT_ep[ep_addr];
 80047f4:	eb01 0181 	add.w	r1, r1, r1, lsl #2
 80047f8:	00c9      	lsls	r1, r1, #3
 80047fa:	f501 71a8 	add.w	r1, r1, #336	@ 0x150
 80047fe:	4408      	add	r0, r1
 8004800:	e7f3      	b.n	80047ea <HAL_PCDEx_PMAConfig+0x14>
    ep->doublebuffer = 1U;
 8004802:	2201      	movs	r2, #1
 8004804:	7302      	strb	r2, [r0, #12]
    ep->pmaaddr0 = (uint16_t)(pmaadress & 0xFFFFU);
 8004806:	8103      	strh	r3, [r0, #8]
    ep->pmaaddr1 = (uint16_t)((pmaadress & 0xFFFF0000U) >> 16);
 8004808:	0c1b      	lsrs	r3, r3, #16
 800480a:	8143      	strh	r3, [r0, #10]
 800480c:	e7f0      	b.n	80047f0 <HAL_PCDEx_PMAConfig+0x1a>
	...

08004810 <RCC_Delay>:
  * @brief  This function provides delay (in milliseconds) based on CPU cycles method.
  * @param  mdelay: specifies the delay time length, in milliseconds.
  * @retval None
  */
static void RCC_Delay(uint32_t mdelay)
{
 8004810:	b082      	sub	sp, #8
  __IO uint32_t Delay = mdelay * (SystemCoreClock / 8U / 1000U);
 8004812:	4b08      	ldr	r3, [pc, #32]	@ (8004834 <RCC_Delay+0x24>)
 8004814:	681b      	ldr	r3, [r3, #0]
 8004816:	4a08      	ldr	r2, [pc, #32]	@ (8004838 <RCC_Delay+0x28>)
 8004818:	fba2 2303 	umull	r2, r3, r2, r3
 800481c:	0a5b      	lsrs	r3, r3, #9
 800481e:	fb00 f303 	mul.w	r3, r0, r3
 8004822:	9301      	str	r3, [sp, #4]
  do
  {
    __NOP();
 8004824:	bf00      	nop
  }
  while (Delay --);
 8004826:	9b01      	ldr	r3, [sp, #4]
 8004828:	1e5a      	subs	r2, r3, #1
 800482a:	9201      	str	r2, [sp, #4]
 800482c:	2b00      	cmp	r3, #0
 800482e:	d1f9      	bne.n	8004824 <RCC_Delay+0x14>
}
 8004830:	b002      	add	sp, #8
 8004832:	4770      	bx	lr
 8004834:	2000006c 	.word	0x2000006c
 8004838:	10624dd3 	.word	0x10624dd3

0800483c <HAL_RCC_OscConfig>:
  if (RCC_OscInitStruct == NULL)
 800483c:	2800      	cmp	r0, #0
 800483e:	f000 81f1 	beq.w	8004c24 <HAL_RCC_OscConfig+0x3e8>
{
 8004842:	b570      	push	{r4, r5, r6, lr}
 8004844:	b082      	sub	sp, #8
 8004846:	4604      	mov	r4, r0
  if (((RCC_OscInitStruct->OscillatorType) & RCC_OSCILLATORTYPE_HSE) == RCC_OSCILLATORTYPE_HSE)
 8004848:	6803      	ldr	r3, [r0, #0]
 800484a:	f013 0f01 	tst.w	r3, #1
 800484e:	d02c      	beq.n	80048aa <HAL_RCC_OscConfig+0x6e>
    if ((__HAL_RCC_GET_SYSCLK_SOURCE() == RCC_SYSCLKSOURCE_STATUS_HSE)
 8004850:	4b99      	ldr	r3, [pc, #612]	@ (8004ab8 <HAL_RCC_OscConfig+0x27c>)
 8004852:	685b      	ldr	r3, [r3, #4]
 8004854:	f003 030c 	and.w	r3, r3, #12
 8004858:	2b04      	cmp	r3, #4
 800485a:	d01d      	beq.n	8004898 <HAL_RCC_OscConfig+0x5c>
        || ((__HAL_RCC_GET_SYSCLK_SOURCE() == RCC_SYSCLKSOURCE_STATUS_PLLCLK) && (__HAL_RCC_GET_PLL_OSCSOURCE() == RCC_PLLSOURCE_HSE)))
 800485c:	4b96      	ldr	r3, [pc, #600]	@ (8004ab8 <HAL_RCC_OscConfig+0x27c>)
 800485e:	685b      	ldr	r3, [r3, #4]
 8004860:	f003 030c 	and.w	r3, r3, #12
 8004864:	2b08      	cmp	r3, #8
 8004866:	d012      	beq.n	800488e <HAL_RCC_OscConfig+0x52>
      __HAL_RCC_HSE_CONFIG(RCC_OscInitStruct->HSEState);
 8004868:	6863      	ldr	r3, [r4, #4]
 800486a:	f5b3 3f80 	cmp.w	r3, #65536	@ 0x10000
 800486e:	d041      	beq.n	80048f4 <HAL_RCC_OscConfig+0xb8>
 8004870:	2b00      	cmp	r3, #0
 8004872:	d155      	bne.n	8004920 <HAL_RCC_OscConfig+0xe4>
 8004874:	f103 4380 	add.w	r3, r3, #1073741824	@ 0x40000000
 8004878:	f503 3304 	add.w	r3, r3, #135168	@ 0x21000
 800487c:	681a      	ldr	r2, [r3, #0]
 800487e:	f422 3280 	bic.w	r2, r2, #65536	@ 0x10000
 8004882:	601a      	str	r2, [r3, #0]
 8004884:	681a      	ldr	r2, [r3, #0]
 8004886:	f422 2280 	bic.w	r2, r2, #262144	@ 0x40000
 800488a:	601a      	str	r2, [r3, #0]
 800488c:	e037      	b.n	80048fe <HAL_RCC_OscConfig+0xc2>
        || ((__HAL_RCC_GET_SYSCLK_SOURCE() == RCC_SYSCLKSOURCE_STATUS_PLLCLK) && (__HAL_RCC_GET_PLL_OSCSOURCE() == RCC_PLLSOURCE_HSE)))
 800488e:	4b8a      	ldr	r3, [pc, #552]	@ (8004ab8 <HAL_RCC_OscConfig+0x27c>)
 8004890:	685b      	ldr	r3, [r3, #4]
 8004892:	f413 3f80 	tst.w	r3, #65536	@ 0x10000
 8004896:	d0e7      	beq.n	8004868 <HAL_RCC_OscConfig+0x2c>
      if ((__HAL_RCC_GET_FLAG(RCC_FLAG_HSERDY) != RESET) && (RCC_OscInitStruct->HSEState == RCC_HSE_OFF))
 8004898:	4b87      	ldr	r3, [pc, #540]	@ (8004ab8 <HAL_RCC_OscConfig+0x27c>)
 800489a:	681b      	ldr	r3, [r3, #0]
 800489c:	f413 3f00 	tst.w	r3, #131072	@ 0x20000
 80048a0:	d003      	beq.n	80048aa <HAL_RCC_OscConfig+0x6e>
 80048a2:	6863      	ldr	r3, [r4, #4]
 80048a4:	2b00      	cmp	r3, #0
 80048a6:	f000 81bf 	beq.w	8004c28 <HAL_RCC_OscConfig+0x3ec>
  if (((RCC_OscInitStruct->OscillatorType) & RCC_OSCILLATORTYPE_HSI) == RCC_OSCILLATORTYPE_HSI)
 80048aa:	6823      	ldr	r3, [r4, #0]
 80048ac:	f013 0f02 	tst.w	r3, #2
 80048b0:	d075      	beq.n	800499e <HAL_RCC_OscConfig+0x162>
    if ((__HAL_RCC_GET_SYSCLK_SOURCE() == RCC_SYSCLKSOURCE_STATUS_HSI)
 80048b2:	4b81      	ldr	r3, [pc, #516]	@ (8004ab8 <HAL_RCC_OscConfig+0x27c>)
 80048b4:	685b      	ldr	r3, [r3, #4]
 80048b6:	f013 0f0c 	tst.w	r3, #12
 80048ba:	d05f      	beq.n	800497c <HAL_RCC_OscConfig+0x140>
        || ((__HAL_RCC_GET_SYSCLK_SOURCE() == RCC_SYSCLKSOURCE_STATUS_PLLCLK) && (__HAL_RCC_GET_PLL_OSCSOURCE() == RCC_PLLSOURCE_HSI_DIV2)))
 80048bc:	4b7e      	ldr	r3, [pc, #504]	@ (8004ab8 <HAL_RCC_OscConfig+0x27c>)
 80048be:	685b      	ldr	r3, [r3, #4]
 80048c0:	f003 030c 	and.w	r3, r3, #12
 80048c4:	2b08      	cmp	r3, #8
 80048c6:	d054      	beq.n	8004972 <HAL_RCC_OscConfig+0x136>
      if (RCC_OscInitStruct->HSIState != RCC_HSI_OFF)
 80048c8:	6923      	ldr	r3, [r4, #16]
 80048ca:	2b00      	cmp	r3, #0
 80048cc:	f000 808a 	beq.w	80049e4 <HAL_RCC_OscConfig+0x1a8>
        __HAL_RCC_HSI_ENABLE();
 80048d0:	4b7a      	ldr	r3, [pc, #488]	@ (8004abc <HAL_RCC_OscConfig+0x280>)
 80048d2:	2201      	movs	r2, #1
 80048d4:	601a      	str	r2, [r3, #0]
        tickstart = HAL_GetTick();
 80048d6:	f7fe fa09 	bl	8002cec <HAL_GetTick>
 80048da:	4605      	mov	r5, r0
        while (__HAL_RCC_GET_FLAG(RCC_FLAG_HSIRDY) == RESET)
 80048dc:	4b76      	ldr	r3, [pc, #472]	@ (8004ab8 <HAL_RCC_OscConfig+0x27c>)
 80048de:	681b      	ldr	r3, [r3, #0]
 80048e0:	f013 0f02 	tst.w	r3, #2
 80048e4:	d175      	bne.n	80049d2 <HAL_RCC_OscConfig+0x196>
          if ((HAL_GetTick() - tickstart) > HSI_TIMEOUT_VALUE)
 80048e6:	f7fe fa01 	bl	8002cec <HAL_GetTick>
 80048ea:	1b40      	subs	r0, r0, r5
 80048ec:	2802      	cmp	r0, #2
 80048ee:	d9f5      	bls.n	80048dc <HAL_RCC_OscConfig+0xa0>
            return HAL_TIMEOUT;
 80048f0:	2003      	movs	r0, #3
 80048f2:	e19e      	b.n	8004c32 <HAL_RCC_OscConfig+0x3f6>
      __HAL_RCC_HSE_CONFIG(RCC_OscInitStruct->HSEState);
 80048f4:	4a70      	ldr	r2, [pc, #448]	@ (8004ab8 <HAL_RCC_OscConfig+0x27c>)
 80048f6:	6813      	ldr	r3, [r2, #0]
 80048f8:	f443 3380 	orr.w	r3, r3, #65536	@ 0x10000
 80048fc:	6013      	str	r3, [r2, #0]
      if (RCC_OscInitStruct->HSEState != RCC_HSE_OFF)
 80048fe:	6863      	ldr	r3, [r4, #4]
 8004900:	b343      	cbz	r3, 8004954 <HAL_RCC_OscConfig+0x118>
        tickstart = HAL_GetTick();
 8004902:	f7fe f9f3 	bl	8002cec <HAL_GetTick>
 8004906:	4605      	mov	r5, r0
        while (__HAL_RCC_GET_FLAG(RCC_FLAG_HSERDY) == RESET)
 8004908:	4b6b      	ldr	r3, [pc, #428]	@ (8004ab8 <HAL_RCC_OscConfig+0x27c>)
 800490a:	681b      	ldr	r3, [r3, #0]
 800490c:	f413 3f00 	tst.w	r3, #131072	@ 0x20000
 8004910:	d1cb      	bne.n	80048aa <HAL_RCC_OscConfig+0x6e>
          if ((HAL_GetTick() - tickstart) > HSE_TIMEOUT_VALUE)
 8004912:	f7fe f9eb 	bl	8002cec <HAL_GetTick>
 8004916:	1b40      	subs	r0, r0, r5
 8004918:	2864      	cmp	r0, #100	@ 0x64
 800491a:	d9f5      	bls.n	8004908 <HAL_RCC_OscConfig+0xcc>
            return HAL_TIMEOUT;
 800491c:	2003      	movs	r0, #3
 800491e:	e188      	b.n	8004c32 <HAL_RCC_OscConfig+0x3f6>
      __HAL_RCC_HSE_CONFIG(RCC_OscInitStruct->HSEState);
 8004920:	f5b3 2fa0 	cmp.w	r3, #327680	@ 0x50000
 8004924:	d009      	beq.n	800493a <HAL_RCC_OscConfig+0xfe>
 8004926:	4b64      	ldr	r3, [pc, #400]	@ (8004ab8 <HAL_RCC_OscConfig+0x27c>)
 8004928:	681a      	ldr	r2, [r3, #0]
 800492a:	f422 3280 	bic.w	r2, r2, #65536	@ 0x10000
 800492e:	601a      	str	r2, [r3, #0]
 8004930:	681a      	ldr	r2, [r3, #0]
 8004932:	f422 2280 	bic.w	r2, r2, #262144	@ 0x40000
 8004936:	601a      	str	r2, [r3, #0]
 8004938:	e7e1      	b.n	80048fe <HAL_RCC_OscConfig+0xc2>
 800493a:	f103 4380 	add.w	r3, r3, #1073741824	@ 0x40000000
 800493e:	f5a3 333c 	sub.w	r3, r3, #192512	@ 0x2f000
 8004942:	681a      	ldr	r2, [r3, #0]
 8004944:	f442 2280 	orr.w	r2, r2, #262144	@ 0x40000
 8004948:	601a      	str	r2, [r3, #0]
 800494a:	681a      	ldr	r2, [r3, #0]
 800494c:	f442 3280 	orr.w	r2, r2, #65536	@ 0x10000
 8004950:	601a      	str	r2, [r3, #0]
 8004952:	e7d4      	b.n	80048fe <HAL_RCC_OscConfig+0xc2>
        tickstart = HAL_GetTick();
 8004954:	f7fe f9ca 	bl	8002cec <HAL_GetTick>
 8004958:	4605      	mov	r5, r0
        while (__HAL_RCC_GET_FLAG(RCC_FLAG_HSERDY) != RESET)
 800495a:	4b57      	ldr	r3, [pc, #348]	@ (8004ab8 <HAL_RCC_OscConfig+0x27c>)
 800495c:	681b      	ldr	r3, [r3, #0]
 800495e:	f413 3f00 	tst.w	r3, #131072	@ 0x20000
 8004962:	d0a2      	beq.n	80048aa <HAL_RCC_OscConfig+0x6e>
          if ((HAL_GetTick() - tickstart) > HSE_TIMEOUT_VALUE)
 8004964:	f7fe f9c2 	bl	8002cec <HAL_GetTick>
 8004968:	1b40      	subs	r0, r0, r5
 800496a:	2864      	cmp	r0, #100	@ 0x64
 800496c:	d9f5      	bls.n	800495a <HAL_RCC_OscConfig+0x11e>
            return HAL_TIMEOUT;
 800496e:	2003      	movs	r0, #3
 8004970:	e15f      	b.n	8004c32 <HAL_RCC_OscConfig+0x3f6>
        || ((__HAL_RCC_GET_SYSCLK_SOURCE() == RCC_SYSCLKSOURCE_STATUS_PLLCLK) && (__HAL_RCC_GET_PLL_OSCSOURCE() == RCC_PLLSOURCE_HSI_DIV2)))
 8004972:	4b51      	ldr	r3, [pc, #324]	@ (8004ab8 <HAL_RCC_OscConfig+0x27c>)
 8004974:	685b      	ldr	r3, [r3, #4]
 8004976:	f413 3f80 	tst.w	r3, #65536	@ 0x10000
 800497a:	d1a5      	bne.n	80048c8 <HAL_RCC_OscConfig+0x8c>
      if ((__HAL_RCC_GET_FLAG(RCC_FLAG_HSIRDY) != RESET) && (RCC_OscInitStruct->HSIState != RCC_HSI_ON))
 800497c:	4b4e      	ldr	r3, [pc, #312]	@ (8004ab8 <HAL_RCC_OscConfig+0x27c>)
 800497e:	681b      	ldr	r3, [r3, #0]
 8004980:	f013 0f02 	tst.w	r3, #2
 8004984:	d003      	beq.n	800498e <HAL_RCC_OscConfig+0x152>
 8004986:	6923      	ldr	r3, [r4, #16]
 8004988:	2b01      	cmp	r3, #1
 800498a:	f040 814f 	bne.w	8004c2c <HAL_RCC_OscConfig+0x3f0>
        __HAL_RCC_HSI_CALIBRATIONVALUE_ADJUST(RCC_OscInitStruct->HSICalibrationValue);
 800498e:	4a4a      	ldr	r2, [pc, #296]	@ (8004ab8 <HAL_RCC_OscConfig+0x27c>)
 8004990:	6813      	ldr	r3, [r2, #0]
 8004992:	f023 03f8 	bic.w	r3, r3, #248	@ 0xf8
 8004996:	6961      	ldr	r1, [r4, #20]
 8004998:	ea43 03c1 	orr.w	r3, r3, r1, lsl #3
 800499c:	6013      	str	r3, [r2, #0]
  if (((RCC_OscInitStruct->OscillatorType) & RCC_OSCILLATORTYPE_LSI) == RCC_OSCILLATORTYPE_LSI)
 800499e:	6823      	ldr	r3, [r4, #0]
 80049a0:	f013 0f08 	tst.w	r3, #8
 80049a4:	d033      	beq.n	8004a0e <HAL_RCC_OscConfig+0x1d2>
    if (RCC_OscInitStruct->LSIState != RCC_LSI_OFF)
 80049a6:	69a3      	ldr	r3, [r4, #24]
 80049a8:	2b00      	cmp	r3, #0
 80049aa:	d05c      	beq.n	8004a66 <HAL_RCC_OscConfig+0x22a>
      __HAL_RCC_LSI_ENABLE();
 80049ac:	4b43      	ldr	r3, [pc, #268]	@ (8004abc <HAL_RCC_OscConfig+0x280>)
 80049ae:	2201      	movs	r2, #1
 80049b0:	f8c3 2480 	str.w	r2, [r3, #1152]	@ 0x480
      tickstart = HAL_GetTick();
 80049b4:	f7fe f99a 	bl	8002cec <HAL_GetTick>
 80049b8:	4605      	mov	r5, r0
      while (__HAL_RCC_GET_FLAG(RCC_FLAG_LSIRDY) == RESET)
 80049ba:	4b3f      	ldr	r3, [pc, #252]	@ (8004ab8 <HAL_RCC_OscConfig+0x27c>)
 80049bc:	6a5b      	ldr	r3, [r3, #36]	@ 0x24
 80049be:	f013 0f02 	tst.w	r3, #2
 80049c2:	d121      	bne.n	8004a08 <HAL_RCC_OscConfig+0x1cc>
        if ((HAL_GetTick() - tickstart) > LSI_TIMEOUT_VALUE)
 80049c4:	f7fe f992 	bl	8002cec <HAL_GetTick>
 80049c8:	1b40      	subs	r0, r0, r5
 80049ca:	2802      	cmp	r0, #2
 80049cc:	d9f5      	bls.n	80049ba <HAL_RCC_OscConfig+0x17e>
          return HAL_TIMEOUT;
 80049ce:	2003      	movs	r0, #3
 80049d0:	e12f      	b.n	8004c32 <HAL_RCC_OscConfig+0x3f6>
        __HAL_RCC_HSI_CALIBRATIONVALUE_ADJUST(RCC_OscInitStruct->HSICalibrationValue);
 80049d2:	4a39      	ldr	r2, [pc, #228]	@ (8004ab8 <HAL_RCC_OscConfig+0x27c>)
 80049d4:	6813      	ldr	r3, [r2, #0]
 80049d6:	f023 03f8 	bic.w	r3, r3, #248	@ 0xf8
 80049da:	6961      	ldr	r1, [r4, #20]
 80049dc:	ea43 03c1 	orr.w	r3, r3, r1, lsl #3
 80049e0:	6013      	str	r3, [r2, #0]
 80049e2:	e7dc      	b.n	800499e <HAL_RCC_OscConfig+0x162>
        __HAL_RCC_HSI_DISABLE();
 80049e4:	4b35      	ldr	r3, [pc, #212]	@ (8004abc <HAL_RCC_OscConfig+0x280>)
 80049e6:	2200      	movs	r2, #0
 80049e8:	601a      	str	r2, [r3, #0]
        tickstart = HAL_GetTick();
 80049ea:	f7fe f97f 	bl	8002cec <HAL_GetTick>
 80049ee:	4605      	mov	r5, r0
        while (__HAL_RCC_GET_FLAG(RCC_FLAG_HSIRDY) != RESET)
 80049f0:	4b31      	ldr	r3, [pc, #196]	@ (8004ab8 <HAL_RCC_OscConfig+0x27c>)
 80049f2:	681b      	ldr	r3, [r3, #0]
 80049f4:	f013 0f02 	tst.w	r3, #2
 80049f8:	d0d1      	beq.n	800499e <HAL_RCC_OscConfig+0x162>
          if ((HAL_GetTick() - tickstart) > HSI_TIMEOUT_VALUE)
 80049fa:	f7fe f977 	bl	8002cec <HAL_GetTick>
 80049fe:	1b40      	subs	r0, r0, r5
 8004a00:	2802      	cmp	r0, #2
 8004a02:	d9f5      	bls.n	80049f0 <HAL_RCC_OscConfig+0x1b4>
            return HAL_TIMEOUT;
 8004a04:	2003      	movs	r0, #3
 8004a06:	e114      	b.n	8004c32 <HAL_RCC_OscConfig+0x3f6>
      RCC_Delay(1);
 8004a08:	2001      	movs	r0, #1
 8004a0a:	f7ff ff01 	bl	8004810 <RCC_Delay>
  if (((RCC_OscInitStruct->OscillatorType) & RCC_OSCILLATORTYPE_LSE) == RCC_OSCILLATORTYPE_LSE)
 8004a0e:	6823      	ldr	r3, [r4, #0]
 8004a10:	f013 0f04 	tst.w	r3, #4
 8004a14:	f000 8096 	beq.w	8004b44 <HAL_RCC_OscConfig+0x308>
    if (__HAL_RCC_PWR_IS_CLK_DISABLED())
 8004a18:	4b27      	ldr	r3, [pc, #156]	@ (8004ab8 <HAL_RCC_OscConfig+0x27c>)
 8004a1a:	69db      	ldr	r3, [r3, #28]
 8004a1c:	f013 5f80 	tst.w	r3, #268435456	@ 0x10000000
 8004a20:	d134      	bne.n	8004a8c <HAL_RCC_OscConfig+0x250>
      __HAL_RCC_PWR_CLK_ENABLE();
 8004a22:	4b25      	ldr	r3, [pc, #148]	@ (8004ab8 <HAL_RCC_OscConfig+0x27c>)
 8004a24:	69da      	ldr	r2, [r3, #28]
 8004a26:	f042 5280 	orr.w	r2, r2, #268435456	@ 0x10000000
 8004a2a:	61da      	str	r2, [r3, #28]
 8004a2c:	69db      	ldr	r3, [r3, #28]
 8004a2e:	f003 5380 	and.w	r3, r3, #268435456	@ 0x10000000
 8004a32:	9301      	str	r3, [sp, #4]
 8004a34:	9b01      	ldr	r3, [sp, #4]
      pwrclkchanged = SET;
 8004a36:	2501      	movs	r5, #1
    if (HAL_IS_BIT_CLR(PWR->CR, PWR_CR_DBP))
 8004a38:	4b21      	ldr	r3, [pc, #132]	@ (8004ac0 <HAL_RCC_OscConfig+0x284>)
 8004a3a:	681b      	ldr	r3, [r3, #0]
 8004a3c:	f413 7f80 	tst.w	r3, #256	@ 0x100
 8004a40:	d026      	beq.n	8004a90 <HAL_RCC_OscConfig+0x254>
    __HAL_RCC_LSE_CONFIG(RCC_OscInitStruct->LSEState);
 8004a42:	68e3      	ldr	r3, [r4, #12]
 8004a44:	2b01      	cmp	r3, #1
 8004a46:	d03d      	beq.n	8004ac4 <HAL_RCC_OscConfig+0x288>
 8004a48:	2b00      	cmp	r3, #0
 8004a4a:	d153      	bne.n	8004af4 <HAL_RCC_OscConfig+0x2b8>
 8004a4c:	f103 4380 	add.w	r3, r3, #1073741824	@ 0x40000000
 8004a50:	f503 3304 	add.w	r3, r3, #135168	@ 0x21000
 8004a54:	6a1a      	ldr	r2, [r3, #32]
 8004a56:	f022 0201 	bic.w	r2, r2, #1
 8004a5a:	621a      	str	r2, [r3, #32]
 8004a5c:	6a1a      	ldr	r2, [r3, #32]
 8004a5e:	f022 0204 	bic.w	r2, r2, #4
 8004a62:	621a      	str	r2, [r3, #32]
 8004a64:	e033      	b.n	8004ace <HAL_RCC_OscConfig+0x292>
      __HAL_RCC_LSI_DISABLE();
 8004a66:	4b15      	ldr	r3, [pc, #84]	@ (8004abc <HAL_RCC_OscConfig+0x280>)
 8004a68:	2200      	movs	r2, #0
 8004a6a:	f8c3 2480 	str.w	r2, [r3, #1152]	@ 0x480
      tickstart = HAL_GetTick();
 8004a6e:	f7fe f93d 	bl	8002cec <HAL_GetTick>
 8004a72:	4605      	mov	r5, r0
      while (__HAL_RCC_GET_FLAG(RCC_FLAG_LSIRDY) != RESET)
 8004a74:	4b10      	ldr	r3, [pc, #64]	@ (8004ab8 <HAL_RCC_OscConfig+0x27c>)
 8004a76:	6a5b      	ldr	r3, [r3, #36]	@ 0x24
 8004a78:	f013 0f02 	tst.w	r3, #2
 8004a7c:	d0c7      	beq.n	8004a0e <HAL_RCC_OscConfig+0x1d2>
        if ((HAL_GetTick() - tickstart) > LSI_TIMEOUT_VALUE)
 8004a7e:	f7fe f935 	bl	8002cec <HAL_GetTick>
 8004a82:	1b40      	subs	r0, r0, r5
 8004a84:	2802      	cmp	r0, #2
 8004a86:	d9f5      	bls.n	8004a74 <HAL_RCC_OscConfig+0x238>
          return HAL_TIMEOUT;
 8004a88:	2003      	movs	r0, #3
 8004a8a:	e0d2      	b.n	8004c32 <HAL_RCC_OscConfig+0x3f6>
    FlagStatus       pwrclkchanged = RESET;
 8004a8c:	2500      	movs	r5, #0
 8004a8e:	e7d3      	b.n	8004a38 <HAL_RCC_OscConfig+0x1fc>
      SET_BIT(PWR->CR, PWR_CR_DBP);
 8004a90:	4a0b      	ldr	r2, [pc, #44]	@ (8004ac0 <HAL_RCC_OscConfig+0x284>)
 8004a92:	6813      	ldr	r3, [r2, #0]
 8004a94:	f443 7380 	orr.w	r3, r3, #256	@ 0x100
 8004a98:	6013      	str	r3, [r2, #0]
      tickstart = HAL_GetTick();
 8004a9a:	f7fe f927 	bl	8002cec <HAL_GetTick>
 8004a9e:	4606      	mov	r6, r0
      while (HAL_IS_BIT_CLR(PWR->CR, PWR_CR_DBP))
 8004aa0:	4b07      	ldr	r3, [pc, #28]	@ (8004ac0 <HAL_RCC_OscConfig+0x284>)
 8004aa2:	681b      	ldr	r3, [r3, #0]
 8004aa4:	f413 7f80 	tst.w	r3, #256	@ 0x100
 8004aa8:	d1cb      	bne.n	8004a42 <HAL_RCC_OscConfig+0x206>
        if ((HAL_GetTick() - tickstart) > RCC_DBP_TIMEOUT_VALUE)
 8004aaa:	f7fe f91f 	bl	8002cec <HAL_GetTick>
 8004aae:	1b80      	subs	r0, r0, r6
 8004ab0:	2864      	cmp	r0, #100	@ 0x64
 8004ab2:	d9f5      	bls.n	8004aa0 <HAL_RCC_OscConfig+0x264>
          return HAL_TIMEOUT;
 8004ab4:	2003      	movs	r0, #3
 8004ab6:	e0bc      	b.n	8004c32 <HAL_RCC_OscConfig+0x3f6>
 8004ab8:	40021000 	.word	0x40021000
 8004abc:	42420000 	.word	0x42420000
 8004ac0:	40007000 	.word	0x40007000
    __HAL_RCC_LSE_CONFIG(RCC_OscInitStruct->LSEState);
 8004ac4:	4a5f      	ldr	r2, [pc, #380]	@ (8004c44 <HAL_RCC_OscConfig+0x408>)
 8004ac6:	6a13      	ldr	r3, [r2, #32]
 8004ac8:	f043 0301 	orr.w	r3, r3, #1
 8004acc:	6213      	str	r3, [r2, #32]
    if (RCC_OscInitStruct->LSEState != RCC_LSE_OFF)
 8004ace:	68e3      	ldr	r3, [r4, #12]
 8004ad0:	b333      	cbz	r3, 8004b20 <HAL_RCC_OscConfig+0x2e4>
      tickstart = HAL_GetTick();
 8004ad2:	f7fe f90b 	bl	8002cec <HAL_GetTick>
 8004ad6:	4606      	mov	r6, r0
      while (__HAL_RCC_GET_FLAG(RCC_FLAG_LSERDY) == RESET)
 8004ad8:	4b5a      	ldr	r3, [pc, #360]	@ (8004c44 <HAL_RCC_OscConfig+0x408>)
 8004ada:	6a1b      	ldr	r3, [r3, #32]
 8004adc:	f013 0f02 	tst.w	r3, #2
 8004ae0:	d12f      	bne.n	8004b42 <HAL_RCC_OscConfig+0x306>
        if ((HAL_GetTick() - tickstart) > RCC_LSE_TIMEOUT_VALUE)
 8004ae2:	f7fe f903 	bl	8002cec <HAL_GetTick>
 8004ae6:	1b80      	subs	r0, r0, r6
 8004ae8:	f241 3388 	movw	r3, #5000	@ 0x1388
 8004aec:	4298      	cmp	r0, r3
 8004aee:	d9f3      	bls.n	8004ad8 <HAL_RCC_OscConfig+0x29c>
          return HAL_TIMEOUT;
 8004af0:	2003      	movs	r0, #3
 8004af2:	e09e      	b.n	8004c32 <HAL_RCC_OscConfig+0x3f6>
    __HAL_RCC_LSE_CONFIG(RCC_OscInitStruct->LSEState);
 8004af4:	2b05      	cmp	r3, #5
 8004af6:	d009      	beq.n	8004b0c <HAL_RCC_OscConfig+0x2d0>
 8004af8:	4b52      	ldr	r3, [pc, #328]	@ (8004c44 <HAL_RCC_OscConfig+0x408>)
 8004afa:	6a1a      	ldr	r2, [r3, #32]
 8004afc:	f022 0201 	bic.w	r2, r2, #1
 8004b00:	621a      	str	r2, [r3, #32]
 8004b02:	6a1a      	ldr	r2, [r3, #32]
 8004b04:	f022 0204 	bic.w	r2, r2, #4
 8004b08:	621a      	str	r2, [r3, #32]
 8004b0a:	e7e0      	b.n	8004ace <HAL_RCC_OscConfig+0x292>
 8004b0c:	4b4d      	ldr	r3, [pc, #308]	@ (8004c44 <HAL_RCC_OscConfig+0x408>)
 8004b0e:	6a1a      	ldr	r2, [r3, #32]
 8004b10:	f042 0204 	orr.w	r2, r2, #4
 8004b14:	621a      	str	r2, [r3, #32]
 8004b16:	6a1a      	ldr	r2, [r3, #32]
 8004b18:	f042 0201 	orr.w	r2, r2, #1
 8004b1c:	621a      	str	r2, [r3, #32]
 8004b1e:	e7d6      	b.n	8004ace <HAL_RCC_OscConfig+0x292>
      tickstart = HAL_GetTick();
 8004b20:	f7fe f8e4 	bl	8002cec <HAL_GetTick>
 8004b24:	4606      	mov	r6, r0
      while (__HAL_RCC_GET_FLAG(RCC_FLAG_LSERDY) != RESET)
 8004b26:	4b47      	ldr	r3, [pc, #284]	@ (8004c44 <HAL_RCC_OscConfig+0x408>)
 8004b28:	6a1b      	ldr	r3, [r3, #32]
 8004b2a:	f013 0f02 	tst.w	r3, #2
 8004b2e:	d008      	beq.n	8004b42 <HAL_RCC_OscConfig+0x306>
        if ((HAL_GetTick() - tickstart) > RCC_LSE_TIMEOUT_VALUE)
 8004b30:	f7fe f8dc 	bl	8002cec <HAL_GetTick>
 8004b34:	1b80      	subs	r0, r0, r6
 8004b36:	f241 3388 	movw	r3, #5000	@ 0x1388
 8004b3a:	4298      	cmp	r0, r3
 8004b3c:	d9f3      	bls.n	8004b26 <HAL_RCC_OscConfig+0x2ea>
          return HAL_TIMEOUT;
 8004b3e:	2003      	movs	r0, #3
 8004b40:	e077      	b.n	8004c32 <HAL_RCC_OscConfig+0x3f6>
    if (pwrclkchanged == SET)
 8004b42:	b9e5      	cbnz	r5, 8004b7e <HAL_RCC_OscConfig+0x342>
  if ((RCC_OscInitStruct->PLL.PLLState) != RCC_PLL_NONE)
 8004b44:	69e3      	ldr	r3, [r4, #28]
 8004b46:	2b00      	cmp	r3, #0
 8004b48:	d072      	beq.n	8004c30 <HAL_RCC_OscConfig+0x3f4>
    if (__HAL_RCC_GET_SYSCLK_SOURCE() != RCC_SYSCLKSOURCE_STATUS_PLLCLK)
 8004b4a:	4a3e      	ldr	r2, [pc, #248]	@ (8004c44 <HAL_RCC_OscConfig+0x408>)
 8004b4c:	6852      	ldr	r2, [r2, #4]
 8004b4e:	f002 020c 	and.w	r2, r2, #12
 8004b52:	2a08      	cmp	r2, #8
 8004b54:	d056      	beq.n	8004c04 <HAL_RCC_OscConfig+0x3c8>
      if ((RCC_OscInitStruct->PLL.PLLState) == RCC_PLL_ON)
 8004b56:	2b02      	cmp	r3, #2
 8004b58:	d017      	beq.n	8004b8a <HAL_RCC_OscConfig+0x34e>
        __HAL_RCC_PLL_DISABLE();
 8004b5a:	4b3b      	ldr	r3, [pc, #236]	@ (8004c48 <HAL_RCC_OscConfig+0x40c>)
 8004b5c:	2200      	movs	r2, #0
 8004b5e:	661a      	str	r2, [r3, #96]	@ 0x60
        tickstart = HAL_GetTick();
 8004b60:	f7fe f8c4 	bl	8002cec <HAL_GetTick>
 8004b64:	4604      	mov	r4, r0
        while (__HAL_RCC_GET_FLAG(RCC_FLAG_PLLRDY)  != RESET)
 8004b66:	4b37      	ldr	r3, [pc, #220]	@ (8004c44 <HAL_RCC_OscConfig+0x408>)
 8004b68:	681b      	ldr	r3, [r3, #0]
 8004b6a:	f013 7f00 	tst.w	r3, #33554432	@ 0x2000000
 8004b6e:	d047      	beq.n	8004c00 <HAL_RCC_OscConfig+0x3c4>
          if ((HAL_GetTick() - tickstart) > PLL_TIMEOUT_VALUE)
 8004b70:	f7fe f8bc 	bl	8002cec <HAL_GetTick>
 8004b74:	1b00      	subs	r0, r0, r4
 8004b76:	2802      	cmp	r0, #2
 8004b78:	d9f5      	bls.n	8004b66 <HAL_RCC_OscConfig+0x32a>
            return HAL_TIMEOUT;
 8004b7a:	2003      	movs	r0, #3
 8004b7c:	e059      	b.n	8004c32 <HAL_RCC_OscConfig+0x3f6>
      __HAL_RCC_PWR_CLK_DISABLE();
 8004b7e:	4a31      	ldr	r2, [pc, #196]	@ (8004c44 <HAL_RCC_OscConfig+0x408>)
 8004b80:	69d3      	ldr	r3, [r2, #28]
 8004b82:	f023 5380 	bic.w	r3, r3, #268435456	@ 0x10000000
 8004b86:	61d3      	str	r3, [r2, #28]
 8004b88:	e7dc      	b.n	8004b44 <HAL_RCC_OscConfig+0x308>
        __HAL_RCC_PLL_DISABLE();
 8004b8a:	4b2f      	ldr	r3, [pc, #188]	@ (8004c48 <HAL_RCC_OscConfig+0x40c>)
 8004b8c:	2200      	movs	r2, #0
 8004b8e:	661a      	str	r2, [r3, #96]	@ 0x60
        tickstart = HAL_GetTick();
 8004b90:	f7fe f8ac 	bl	8002cec <HAL_GetTick>
 8004b94:	4605      	mov	r5, r0
        while (__HAL_RCC_GET_FLAG(RCC_FLAG_PLLRDY)  != RESET)
 8004b96:	4b2b      	ldr	r3, [pc, #172]	@ (8004c44 <HAL_RCC_OscConfig+0x408>)
 8004b98:	681b      	ldr	r3, [r3, #0]
 8004b9a:	f013 7f00 	tst.w	r3, #33554432	@ 0x2000000
 8004b9e:	d006      	beq.n	8004bae <HAL_RCC_OscConfig+0x372>
          if ((HAL_GetTick() - tickstart) > PLL_TIMEOUT_VALUE)
 8004ba0:	f7fe f8a4 	bl	8002cec <HAL_GetTick>
 8004ba4:	1b40      	subs	r0, r0, r5
 8004ba6:	2802      	cmp	r0, #2
 8004ba8:	d9f5      	bls.n	8004b96 <HAL_RCC_OscConfig+0x35a>
            return HAL_TIMEOUT;
 8004baa:	2003      	movs	r0, #3
 8004bac:	e041      	b.n	8004c32 <HAL_RCC_OscConfig+0x3f6>
        if (RCC_OscInitStruct->PLL.PLLSource == RCC_PLLSOURCE_HSE)
 8004bae:	6a23      	ldr	r3, [r4, #32]
 8004bb0:	f5b3 3f80 	cmp.w	r3, #65536	@ 0x10000
 8004bb4:	d01a      	beq.n	8004bec <HAL_RCC_OscConfig+0x3b0>
        __HAL_RCC_PLL_CONFIG(RCC_OscInitStruct->PLL.PLLSource,
 8004bb6:	4923      	ldr	r1, [pc, #140]	@ (8004c44 <HAL_RCC_OscConfig+0x408>)
 8004bb8:	684b      	ldr	r3, [r1, #4]
 8004bba:	f423 1374 	bic.w	r3, r3, #3997696	@ 0x3d0000
 8004bbe:	6a22      	ldr	r2, [r4, #32]
 8004bc0:	6a60      	ldr	r0, [r4, #36]	@ 0x24
 8004bc2:	4302      	orrs	r2, r0
 8004bc4:	4313      	orrs	r3, r2
 8004bc6:	604b      	str	r3, [r1, #4]
        __HAL_RCC_PLL_ENABLE();
 8004bc8:	4b1f      	ldr	r3, [pc, #124]	@ (8004c48 <HAL_RCC_OscConfig+0x40c>)
 8004bca:	2201      	movs	r2, #1
 8004bcc:	661a      	str	r2, [r3, #96]	@ 0x60
        tickstart = HAL_GetTick();
 8004bce:	f7fe f88d 	bl	8002cec <HAL_GetTick>
 8004bd2:	4604      	mov	r4, r0
        while (__HAL_RCC_GET_FLAG(RCC_FLAG_PLLRDY)  == RESET)
 8004bd4:	4b1b      	ldr	r3, [pc, #108]	@ (8004c44 <HAL_RCC_OscConfig+0x408>)
 8004bd6:	681b      	ldr	r3, [r3, #0]
 8004bd8:	f013 7f00 	tst.w	r3, #33554432	@ 0x2000000
 8004bdc:	d10e      	bne.n	8004bfc <HAL_RCC_OscConfig+0x3c0>
          if ((HAL_GetTick() - tickstart) > PLL_TIMEOUT_VALUE)
 8004bde:	f7fe f885 	bl	8002cec <HAL_GetTick>
 8004be2:	1b00      	subs	r0, r0, r4
 8004be4:	2802      	cmp	r0, #2
 8004be6:	d9f5      	bls.n	8004bd4 <HAL_RCC_OscConfig+0x398>
            return HAL_TIMEOUT;
 8004be8:	2003      	movs	r0, #3
 8004bea:	e022      	b.n	8004c32 <HAL_RCC_OscConfig+0x3f6>
          __HAL_RCC_HSE_PREDIV_CONFIG(RCC_OscInitStruct->HSEPredivValue);
 8004bec:	4a15      	ldr	r2, [pc, #84]	@ (8004c44 <HAL_RCC_OscConfig+0x408>)
 8004bee:	6853      	ldr	r3, [r2, #4]
 8004bf0:	f423 3300 	bic.w	r3, r3, #131072	@ 0x20000
 8004bf4:	68a1      	ldr	r1, [r4, #8]
 8004bf6:	430b      	orrs	r3, r1
 8004bf8:	6053      	str	r3, [r2, #4]
 8004bfa:	e7dc      	b.n	8004bb6 <HAL_RCC_OscConfig+0x37a>
  return HAL_OK;
 8004bfc:	2000      	movs	r0, #0
 8004bfe:	e018      	b.n	8004c32 <HAL_RCC_OscConfig+0x3f6>
 8004c00:	2000      	movs	r0, #0
 8004c02:	e016      	b.n	8004c32 <HAL_RCC_OscConfig+0x3f6>
      if ((RCC_OscInitStruct->PLL.PLLState) == RCC_PLL_OFF)
 8004c04:	2b01      	cmp	r3, #1
 8004c06:	d016      	beq.n	8004c36 <HAL_RCC_OscConfig+0x3fa>
        pll_config = RCC->CFGR;
 8004c08:	4b0e      	ldr	r3, [pc, #56]	@ (8004c44 <HAL_RCC_OscConfig+0x408>)
 8004c0a:	685b      	ldr	r3, [r3, #4]
        if ((READ_BIT(pll_config, RCC_CFGR_PLLSRC) != RCC_OscInitStruct->PLL.PLLSource) ||
 8004c0c:	f403 3180 	and.w	r1, r3, #65536	@ 0x10000
 8004c10:	6a22      	ldr	r2, [r4, #32]
 8004c12:	4291      	cmp	r1, r2
 8004c14:	d111      	bne.n	8004c3a <HAL_RCC_OscConfig+0x3fe>
            (READ_BIT(pll_config, RCC_CFGR_PLLMULL) != RCC_OscInitStruct->PLL.PLLMUL))
 8004c16:	f403 1370 	and.w	r3, r3, #3932160	@ 0x3c0000
 8004c1a:	6a62      	ldr	r2, [r4, #36]	@ 0x24
        if ((READ_BIT(pll_config, RCC_CFGR_PLLSRC) != RCC_OscInitStruct->PLL.PLLSource) ||
 8004c1c:	4293      	cmp	r3, r2
 8004c1e:	d10e      	bne.n	8004c3e <HAL_RCC_OscConfig+0x402>
  return HAL_OK;
 8004c20:	2000      	movs	r0, #0
 8004c22:	e006      	b.n	8004c32 <HAL_RCC_OscConfig+0x3f6>
    return HAL_ERROR;
 8004c24:	2001      	movs	r0, #1
}
 8004c26:	4770      	bx	lr
        return HAL_ERROR;
 8004c28:	2001      	movs	r0, #1
 8004c2a:	e002      	b.n	8004c32 <HAL_RCC_OscConfig+0x3f6>
        return HAL_ERROR;
 8004c2c:	2001      	movs	r0, #1
 8004c2e:	e000      	b.n	8004c32 <HAL_RCC_OscConfig+0x3f6>
  return HAL_OK;
 8004c30:	2000      	movs	r0, #0
}
 8004c32:	b002      	add	sp, #8
 8004c34:	bd70      	pop	{r4, r5, r6, pc}
        return HAL_ERROR;
 8004c36:	2001      	movs	r0, #1
 8004c38:	e7fb      	b.n	8004c32 <HAL_RCC_OscConfig+0x3f6>
          return HAL_ERROR;
 8004c3a:	2001      	movs	r0, #1
 8004c3c:	e7f9      	b.n	8004c32 <HAL_RCC_OscConfig+0x3f6>
 8004c3e:	2001      	movs	r0, #1
 8004c40:	e7f7      	b.n	8004c32 <HAL_RCC_OscConfig+0x3f6>
 8004c42:	bf00      	nop
 8004c44:	40021000 	.word	0x40021000
 8004c48:	42420000 	.word	0x42420000

08004c4c <HAL_RCC_GetSysClockFreq>:
  tmpreg = RCC->CFGR;
 8004c4c:	4b0f      	ldr	r3, [pc, #60]	@ (8004c8c <HAL_RCC_GetSysClockFreq+0x40>)
 8004c4e:	685b      	ldr	r3, [r3, #4]
  switch (tmpreg & RCC_CFGR_SWS)
 8004c50:	f003 020c 	and.w	r2, r3, #12
 8004c54:	2a08      	cmp	r2, #8
 8004c56:	d001      	beq.n	8004c5c <HAL_RCC_GetSysClockFreq+0x10>
      sysclockfreq = HSE_VALUE;
 8004c58:	480d      	ldr	r0, [pc, #52]	@ (8004c90 <HAL_RCC_GetSysClockFreq+0x44>)
}
 8004c5a:	4770      	bx	lr
      pllmul = aPLLMULFactorTable[(uint32_t)(tmpreg & RCC_CFGR_PLLMULL) >> RCC_CFGR_PLLMULL_Pos];
 8004c5c:	f3c3 4283 	ubfx	r2, r3, #18, #4
 8004c60:	490c      	ldr	r1, [pc, #48]	@ (8004c94 <HAL_RCC_GetSysClockFreq+0x48>)
 8004c62:	5c88      	ldrb	r0, [r1, r2]
      if ((tmpreg & RCC_CFGR_PLLSRC) != RCC_PLLSOURCE_HSI_DIV2)
 8004c64:	f413 3f80 	tst.w	r3, #65536	@ 0x10000
 8004c68:	d00b      	beq.n	8004c82 <HAL_RCC_GetSysClockFreq+0x36>
        prediv = aPredivFactorTable[(uint32_t)(RCC->CFGR & RCC_CFGR_PLLXTPRE) >> RCC_CFGR_PLLXTPRE_Pos];
 8004c6a:	4b08      	ldr	r3, [pc, #32]	@ (8004c8c <HAL_RCC_GetSysClockFreq+0x40>)
 8004c6c:	685b      	ldr	r3, [r3, #4]
 8004c6e:	f3c3 4340 	ubfx	r3, r3, #17, #1
 8004c72:	4a09      	ldr	r2, [pc, #36]	@ (8004c98 <HAL_RCC_GetSysClockFreq+0x4c>)
 8004c74:	5cd3      	ldrb	r3, [r2, r3]
        pllclk = (uint32_t)((HSE_VALUE  * pllmul) / prediv);
 8004c76:	4a06      	ldr	r2, [pc, #24]	@ (8004c90 <HAL_RCC_GetSysClockFreq+0x44>)
 8004c78:	fb02 f000 	mul.w	r0, r2, r0
 8004c7c:	fbb0 f0f3 	udiv	r0, r0, r3
 8004c80:	4770      	bx	lr
        pllclk = (uint32_t)((HSI_VALUE >> 1) * pllmul);
 8004c82:	4b06      	ldr	r3, [pc, #24]	@ (8004c9c <HAL_RCC_GetSysClockFreq+0x50>)
 8004c84:	fb03 f000 	mul.w	r0, r3, r0
 8004c88:	4770      	bx	lr
 8004c8a:	bf00      	nop
 8004c8c:	40021000 	.word	0x40021000
 8004c90:	007a1200 	.word	0x007a1200
 8004c94:	08007e6c 	.word	0x08007e6c
 8004c98:	08007e68 	.word	0x08007e68
 8004c9c:	003d0900 	.word	0x003d0900

08004ca0 <HAL_RCC_ClockConfig>:
  if (RCC_ClkInitStruct == NULL)
 8004ca0:	2800      	cmp	r0, #0
 8004ca2:	f000 80a0 	beq.w	8004de6 <HAL_RCC_ClockConfig+0x146>
{
 8004ca6:	b570      	push	{r4, r5, r6, lr}
 8004ca8:	460d      	mov	r5, r1
 8004caa:	4604      	mov	r4, r0
  if (FLatency > __HAL_FLASH_GET_LATENCY())
 8004cac:	4b52      	ldr	r3, [pc, #328]	@ (8004df8 <HAL_RCC_ClockConfig+0x158>)
 8004cae:	681b      	ldr	r3, [r3, #0]
 8004cb0:	f003 0307 	and.w	r3, r3, #7
 8004cb4:	428b      	cmp	r3, r1
 8004cb6:	d20b      	bcs.n	8004cd0 <HAL_RCC_ClockConfig+0x30>
    __HAL_FLASH_SET_LATENCY(FLatency);
 8004cb8:	4a4f      	ldr	r2, [pc, #316]	@ (8004df8 <HAL_RCC_ClockConfig+0x158>)
 8004cba:	6813      	ldr	r3, [r2, #0]
 8004cbc:	f023 0307 	bic.w	r3, r3, #7
 8004cc0:	430b      	orrs	r3, r1
 8004cc2:	6013      	str	r3, [r2, #0]
    if (__HAL_FLASH_GET_LATENCY() != FLatency)
 8004cc4:	6813      	ldr	r3, [r2, #0]
 8004cc6:	f003 0307 	and.w	r3, r3, #7
 8004cca:	428b      	cmp	r3, r1
 8004ccc:	f040 808d 	bne.w	8004dea <HAL_RCC_ClockConfig+0x14a>
if (((RCC_ClkInitStruct->ClockType) & RCC_CLOCKTYPE_HCLK) == RCC_CLOCKTYPE_HCLK)
 8004cd0:	6823      	ldr	r3, [r4, #0]
 8004cd2:	f013 0f02 	tst.w	r3, #2
 8004cd6:	d017      	beq.n	8004d08 <HAL_RCC_ClockConfig+0x68>
    if (((RCC_ClkInitStruct->ClockType) & RCC_CLOCKTYPE_PCLK1) == RCC_CLOCKTYPE_PCLK1)
 8004cd8:	f013 0f04 	tst.w	r3, #4
 8004cdc:	d004      	beq.n	8004ce8 <HAL_RCC_ClockConfig+0x48>
      MODIFY_REG(RCC->CFGR, RCC_CFGR_PPRE1, RCC_HCLK_DIV16);
 8004cde:	4a47      	ldr	r2, [pc, #284]	@ (8004dfc <HAL_RCC_ClockConfig+0x15c>)
 8004ce0:	6853      	ldr	r3, [r2, #4]
 8004ce2:	f443 63e0 	orr.w	r3, r3, #1792	@ 0x700
 8004ce6:	6053      	str	r3, [r2, #4]
    if (((RCC_ClkInitStruct->ClockType) & RCC_CLOCKTYPE_PCLK2) == RCC_CLOCKTYPE_PCLK2)
 8004ce8:	6823      	ldr	r3, [r4, #0]
 8004cea:	f013 0f08 	tst.w	r3, #8
 8004cee:	d004      	beq.n	8004cfa <HAL_RCC_ClockConfig+0x5a>
      MODIFY_REG(RCC->CFGR, RCC_CFGR_PPRE2, (RCC_HCLK_DIV16 << 3));
 8004cf0:	4a42      	ldr	r2, [pc, #264]	@ (8004dfc <HAL_RCC_ClockConfig+0x15c>)
 8004cf2:	6853      	ldr	r3, [r2, #4]
 8004cf4:	f443 5360 	orr.w	r3, r3, #14336	@ 0x3800
 8004cf8:	6053      	str	r3, [r2, #4]
    MODIFY_REG(RCC->CFGR, RCC_CFGR_HPRE, RCC_ClkInitStruct->AHBCLKDivider);
 8004cfa:	4a40      	ldr	r2, [pc, #256]	@ (8004dfc <HAL_RCC_ClockConfig+0x15c>)
 8004cfc:	6853      	ldr	r3, [r2, #4]
 8004cfe:	f023 03f0 	bic.w	r3, r3, #240	@ 0xf0
 8004d02:	68a1      	ldr	r1, [r4, #8]
 8004d04:	430b      	orrs	r3, r1
 8004d06:	6053      	str	r3, [r2, #4]
  if (((RCC_ClkInitStruct->ClockType) & RCC_CLOCKTYPE_SYSCLK) == RCC_CLOCKTYPE_SYSCLK)
 8004d08:	6823      	ldr	r3, [r4, #0]
 8004d0a:	f013 0f01 	tst.w	r3, #1
 8004d0e:	d031      	beq.n	8004d74 <HAL_RCC_ClockConfig+0xd4>
    if (RCC_ClkInitStruct->SYSCLKSource == RCC_SYSCLKSOURCE_HSE)
 8004d10:	6863      	ldr	r3, [r4, #4]
 8004d12:	2b01      	cmp	r3, #1
 8004d14:	d020      	beq.n	8004d58 <HAL_RCC_ClockConfig+0xb8>
    else if (RCC_ClkInitStruct->SYSCLKSource == RCC_SYSCLKSOURCE_PLLCLK)
 8004d16:	2b02      	cmp	r3, #2
 8004d18:	d025      	beq.n	8004d66 <HAL_RCC_ClockConfig+0xc6>
      if (__HAL_RCC_GET_FLAG(RCC_FLAG_HSIRDY) == RESET)
 8004d1a:	4a38      	ldr	r2, [pc, #224]	@ (8004dfc <HAL_RCC_ClockConfig+0x15c>)
 8004d1c:	6812      	ldr	r2, [r2, #0]
 8004d1e:	f012 0f02 	tst.w	r2, #2
 8004d22:	d064      	beq.n	8004dee <HAL_RCC_ClockConfig+0x14e>
    __HAL_RCC_SYSCLK_CONFIG(RCC_ClkInitStruct->SYSCLKSource);
 8004d24:	4935      	ldr	r1, [pc, #212]	@ (8004dfc <HAL_RCC_ClockConfig+0x15c>)
 8004d26:	684a      	ldr	r2, [r1, #4]
 8004d28:	f022 0203 	bic.w	r2, r2, #3
 8004d2c:	4313      	orrs	r3, r2
 8004d2e:	604b      	str	r3, [r1, #4]
    tickstart = HAL_GetTick();
 8004d30:	f7fd ffdc 	bl	8002cec <HAL_GetTick>
 8004d34:	4606      	mov	r6, r0
    while (__HAL_RCC_GET_SYSCLK_SOURCE() != (RCC_ClkInitStruct->SYSCLKSource << RCC_CFGR_SWS_Pos))
 8004d36:	4b31      	ldr	r3, [pc, #196]	@ (8004dfc <HAL_RCC_ClockConfig+0x15c>)
 8004d38:	685b      	ldr	r3, [r3, #4]
 8004d3a:	f003 030c 	and.w	r3, r3, #12
 8004d3e:	6862      	ldr	r2, [r4, #4]
 8004d40:	ebb3 0f82 	cmp.w	r3, r2, lsl #2
 8004d44:	d016      	beq.n	8004d74 <HAL_RCC_ClockConfig+0xd4>
      if ((HAL_GetTick() - tickstart) > CLOCKSWITCH_TIMEOUT_VALUE)
 8004d46:	f7fd ffd1 	bl	8002cec <HAL_GetTick>
 8004d4a:	1b80      	subs	r0, r0, r6
 8004d4c:	f241 3388 	movw	r3, #5000	@ 0x1388
 8004d50:	4298      	cmp	r0, r3
 8004d52:	d9f0      	bls.n	8004d36 <HAL_RCC_ClockConfig+0x96>
        return HAL_TIMEOUT;
 8004d54:	2003      	movs	r0, #3
 8004d56:	e045      	b.n	8004de4 <HAL_RCC_ClockConfig+0x144>
      if (__HAL_RCC_GET_FLAG(RCC_FLAG_HSERDY) == RESET)
 8004d58:	4a28      	ldr	r2, [pc, #160]	@ (8004dfc <HAL_RCC_ClockConfig+0x15c>)
 8004d5a:	6812      	ldr	r2, [r2, #0]
 8004d5c:	f412 3f00 	tst.w	r2, #131072	@ 0x20000
 8004d60:	d1e0      	bne.n	8004d24 <HAL_RCC_ClockConfig+0x84>
        return HAL_ERROR;
 8004d62:	2001      	movs	r0, #1
 8004d64:	e03e      	b.n	8004de4 <HAL_RCC_ClockConfig+0x144>
      if (__HAL_RCC_GET_FLAG(RCC_FLAG_PLLRDY) == RESET)
 8004d66:	4a25      	ldr	r2, [pc, #148]	@ (8004dfc <HAL_RCC_ClockConfig+0x15c>)
 8004d68:	6812      	ldr	r2, [r2, #0]
 8004d6a:	f012 7f00 	tst.w	r2, #33554432	@ 0x2000000
 8004d6e:	d1d9      	bne.n	8004d24 <HAL_RCC_ClockConfig+0x84>
        return HAL_ERROR;
 8004d70:	2001      	movs	r0, #1
 8004d72:	e037      	b.n	8004de4 <HAL_RCC_ClockConfig+0x144>
  if (FLatency < __HAL_FLASH_GET_LATENCY())
 8004d74:	4b20      	ldr	r3, [pc, #128]	@ (8004df8 <HAL_RCC_ClockConfig+0x158>)
 8004d76:	681b      	ldr	r3, [r3, #0]
 8004d78:	f003 0307 	and.w	r3, r3, #7
 8004d7c:	42ab      	cmp	r3, r5
 8004d7e:	d90a      	bls.n	8004d96 <HAL_RCC_ClockConfig+0xf6>
    __HAL_FLASH_SET_LATENCY(FLatency);
 8004d80:	4a1d      	ldr	r2, [pc, #116]	@ (8004df8 <HAL_RCC_ClockConfig+0x158>)
 8004d82:	6813      	ldr	r3, [r2, #0]
 8004d84:	f023 0307 	bic.w	r3, r3, #7
 8004d88:	432b      	orrs	r3, r5
 8004d8a:	6013      	str	r3, [r2, #0]
    if (__HAL_FLASH_GET_LATENCY() != FLatency)
 8004d8c:	6813      	ldr	r3, [r2, #0]
 8004d8e:	f003 0307 	and.w	r3, r3, #7
 8004d92:	42ab      	cmp	r3, r5
 8004d94:	d12d      	bne.n	8004df2 <HAL_RCC_ClockConfig+0x152>
if (((RCC_ClkInitStruct->ClockType) & RCC_CLOCKTYPE_PCLK1) == RCC_CLOCKTYPE_PCLK1)
 8004d96:	6823      	ldr	r3, [r4, #0]
 8004d98:	f013 0f04 	tst.w	r3, #4
 8004d9c:	d006      	beq.n	8004dac <HAL_RCC_ClockConfig+0x10c>
    MODIFY_REG(RCC->CFGR, RCC_CFGR_PPRE1, RCC_ClkInitStruct->APB1CLKDivider);
 8004d9e:	4a17      	ldr	r2, [pc, #92]	@ (8004dfc <HAL_RCC_ClockConfig+0x15c>)
 8004da0:	6853      	ldr	r3, [r2, #4]
 8004da2:	f423 63e0 	bic.w	r3, r3, #1792	@ 0x700
 8004da6:	68e1      	ldr	r1, [r4, #12]
 8004da8:	430b      	orrs	r3, r1
 8004daa:	6053      	str	r3, [r2, #4]
  if (((RCC_ClkInitStruct->ClockType) & RCC_CLOCKTYPE_PCLK2) == RCC_CLOCKTYPE_PCLK2)
 8004dac:	6823      	ldr	r3, [r4, #0]
 8004dae:	f013 0f08 	tst.w	r3, #8
 8004db2:	d007      	beq.n	8004dc4 <HAL_RCC_ClockConfig+0x124>
    MODIFY_REG(RCC->CFGR, RCC_CFGR_PPRE2, ((RCC_ClkInitStruct->APB2CLKDivider) << 3));
 8004db4:	4a11      	ldr	r2, [pc, #68]	@ (8004dfc <HAL_RCC_ClockConfig+0x15c>)
 8004db6:	6853      	ldr	r3, [r2, #4]
 8004db8:	f423 5360 	bic.w	r3, r3, #14336	@ 0x3800
 8004dbc:	6921      	ldr	r1, [r4, #16]
 8004dbe:	ea43 03c1 	orr.w	r3, r3, r1, lsl #3
 8004dc2:	6053      	str	r3, [r2, #4]
  SystemCoreClock = HAL_RCC_GetSysClockFreq() >> AHBPrescTable[(RCC->CFGR & RCC_CFGR_HPRE) >> RCC_CFGR_HPRE_Pos];
 8004dc4:	f7ff ff42 	bl	8004c4c <HAL_RCC_GetSysClockFreq>
 8004dc8:	4b0c      	ldr	r3, [pc, #48]	@ (8004dfc <HAL_RCC_ClockConfig+0x15c>)
 8004dca:	685b      	ldr	r3, [r3, #4]
 8004dcc:	f3c3 1303 	ubfx	r3, r3, #4, #4
 8004dd0:	4a0b      	ldr	r2, [pc, #44]	@ (8004e00 <HAL_RCC_ClockConfig+0x160>)
 8004dd2:	5cd3      	ldrb	r3, [r2, r3]
 8004dd4:	40d8      	lsrs	r0, r3
 8004dd6:	4b0b      	ldr	r3, [pc, #44]	@ (8004e04 <HAL_RCC_ClockConfig+0x164>)
 8004dd8:	6018      	str	r0, [r3, #0]
  HAL_InitTick(uwTickPrio);
 8004dda:	4b0b      	ldr	r3, [pc, #44]	@ (8004e08 <HAL_RCC_ClockConfig+0x168>)
 8004ddc:	6818      	ldr	r0, [r3, #0]
 8004dde:	f7fd ff41 	bl	8002c64 <HAL_InitTick>
  return HAL_OK;
 8004de2:	2000      	movs	r0, #0
}
 8004de4:	bd70      	pop	{r4, r5, r6, pc}
    return HAL_ERROR;
 8004de6:	2001      	movs	r0, #1
}
 8004de8:	4770      	bx	lr
    return HAL_ERROR;
 8004dea:	2001      	movs	r0, #1
 8004dec:	e7fa      	b.n	8004de4 <HAL_RCC_ClockConfig+0x144>
        return HAL_ERROR;
 8004dee:	2001      	movs	r0, #1
 8004df0:	e7f8      	b.n	8004de4 <HAL_RCC_ClockConfig+0x144>
    return HAL_ERROR;
 8004df2:	2001      	movs	r0, #1
 8004df4:	e7f6      	b.n	8004de4 <HAL_RCC_ClockConfig+0x144>
 8004df6:	bf00      	nop
 8004df8:	40022000 	.word	0x40022000
 8004dfc:	40021000 	.word	0x40021000
 8004e00:	08007e7c 	.word	0x08007e7c
 8004e04:	2000006c 	.word	0x2000006c
 8004e08:	20000068 	.word	0x20000068

08004e0c <HAL_RCCEx_PeriphCLKConfig>:
  *         manually disable it.
  *
  * @retval HAL status
  */
HAL_StatusTypeDef HAL_RCCEx_PeriphCLKConfig(RCC_PeriphCLKInitTypeDef  *PeriphClkInit)
{
 8004e0c:	b570      	push	{r4, r5, r6, lr}
 8004e0e:	b082      	sub	sp, #8
 8004e10:	4604      	mov	r4, r0

  /* Check the parameters */
  assert_param(IS_RCC_PERIPHCLOCK(PeriphClkInit->PeriphClockSelection));

  /*------------------------------- RTC/LCD Configuration ------------------------*/
  if ((((PeriphClkInit->PeriphClockSelection) & RCC_PERIPHCLK_RTC) == RCC_PERIPHCLK_RTC))
 8004e12:	6803      	ldr	r3, [r0, #0]
 8004e14:	f013 0f01 	tst.w	r3, #1
 8004e18:	d036      	beq.n	8004e88 <HAL_RCCEx_PeriphCLKConfig+0x7c>
    assert_param(IS_RCC_RTCCLKSOURCE(PeriphClkInit->RTCClockSelection));

    /* As soon as function is called to change RTC clock source, activation of the
       power domain is done. */
    /* Requires to enable write access to Backup Domain of necessary */
    if (__HAL_RCC_PWR_IS_CLK_DISABLED())
 8004e1a:	4b3f      	ldr	r3, [pc, #252]	@ (8004f18 <HAL_RCCEx_PeriphCLKConfig+0x10c>)
 8004e1c:	69db      	ldr	r3, [r3, #28]
 8004e1e:	f013 5f80 	tst.w	r3, #268435456	@ 0x10000000
 8004e22:	d149      	bne.n	8004eb8 <HAL_RCCEx_PeriphCLKConfig+0xac>
    {
      __HAL_RCC_PWR_CLK_ENABLE();
 8004e24:	4b3c      	ldr	r3, [pc, #240]	@ (8004f18 <HAL_RCCEx_PeriphCLKConfig+0x10c>)
 8004e26:	69da      	ldr	r2, [r3, #28]
 8004e28:	f042 5280 	orr.w	r2, r2, #268435456	@ 0x10000000
 8004e2c:	61da      	str	r2, [r3, #28]
 8004e2e:	69db      	ldr	r3, [r3, #28]
 8004e30:	f003 5380 	and.w	r3, r3, #268435456	@ 0x10000000
 8004e34:	9301      	str	r3, [sp, #4]
 8004e36:	9b01      	ldr	r3, [sp, #4]
      pwrclkchanged = SET;
 8004e38:	2501      	movs	r5, #1
    }

    if (HAL_IS_BIT_CLR(PWR->CR, PWR_CR_DBP))
 8004e3a:	4b38      	ldr	r3, [pc, #224]	@ (8004f1c <HAL_RCCEx_PeriphCLKConfig+0x110>)
 8004e3c:	681b      	ldr	r3, [r3, #0]
 8004e3e:	f413 7f80 	tst.w	r3, #256	@ 0x100
 8004e42:	d03b      	beq.n	8004ebc <HAL_RCCEx_PeriphCLKConfig+0xb0>
        }
      }
    }

    /* Reset the Backup domain only if the RTC Clock source selection is modified from reset value */
    temp_reg = (RCC->BDCR & RCC_BDCR_RTCSEL);
 8004e44:	4b34      	ldr	r3, [pc, #208]	@ (8004f18 <HAL_RCCEx_PeriphCLKConfig+0x10c>)
 8004e46:	6a1b      	ldr	r3, [r3, #32]
    if ((temp_reg != 0x00000000U) && (temp_reg != (PeriphClkInit->RTCClockSelection & RCC_BDCR_RTCSEL)))
 8004e48:	f413 7340 	ands.w	r3, r3, #768	@ 0x300
 8004e4c:	d013      	beq.n	8004e76 <HAL_RCCEx_PeriphCLKConfig+0x6a>
 8004e4e:	6862      	ldr	r2, [r4, #4]
 8004e50:	f402 7240 	and.w	r2, r2, #768	@ 0x300
 8004e54:	429a      	cmp	r2, r3
 8004e56:	d00e      	beq.n	8004e76 <HAL_RCCEx_PeriphCLKConfig+0x6a>
    {
      /* Store the content of BDCR register before the reset of Backup Domain */
      temp_reg = (RCC->BDCR & ~(RCC_BDCR_RTCSEL));
 8004e58:	4a2f      	ldr	r2, [pc, #188]	@ (8004f18 <HAL_RCCEx_PeriphCLKConfig+0x10c>)
 8004e5a:	6a13      	ldr	r3, [r2, #32]
 8004e5c:	f423 7040 	bic.w	r0, r3, #768	@ 0x300
      /* RTC Clock selection can be changed only if the Backup Domain is reset */
      __HAL_RCC_BACKUPRESET_FORCE();
 8004e60:	492f      	ldr	r1, [pc, #188]	@ (8004f20 <HAL_RCCEx_PeriphCLKConfig+0x114>)
 8004e62:	2601      	movs	r6, #1
 8004e64:	f8c1 6440 	str.w	r6, [r1, #1088]	@ 0x440
      __HAL_RCC_BACKUPRESET_RELEASE();
 8004e68:	2600      	movs	r6, #0
 8004e6a:	f8c1 6440 	str.w	r6, [r1, #1088]	@ 0x440
      /* Restore the Content of BDCR register */
      RCC->BDCR = temp_reg;
 8004e6e:	6210      	str	r0, [r2, #32]

      /* Wait for LSERDY if LSE was enabled */
      if (HAL_IS_BIT_SET(temp_reg, RCC_BDCR_LSEON))
 8004e70:	f013 0f01 	tst.w	r3, #1
 8004e74:	d136      	bne.n	8004ee4 <HAL_RCCEx_PeriphCLKConfig+0xd8>
            return HAL_TIMEOUT;
          }
        }
      }
    }
    __HAL_RCC_RTC_CONFIG(PeriphClkInit->RTCClockSelection);
 8004e76:	4a28      	ldr	r2, [pc, #160]	@ (8004f18 <HAL_RCCEx_PeriphCLKConfig+0x10c>)
 8004e78:	6a13      	ldr	r3, [r2, #32]
 8004e7a:	f423 7340 	bic.w	r3, r3, #768	@ 0x300
 8004e7e:	6861      	ldr	r1, [r4, #4]
 8004e80:	430b      	orrs	r3, r1
 8004e82:	6213      	str	r3, [r2, #32]

    /* Require to disable power clock if necessary */
    if (pwrclkchanged == SET)
 8004e84:	2d00      	cmp	r5, #0
 8004e86:	d13e      	bne.n	8004f06 <HAL_RCCEx_PeriphCLKConfig+0xfa>
      __HAL_RCC_PWR_CLK_DISABLE();
    }
  }

  /*------------------------------ ADC clock Configuration ------------------*/
  if (((PeriphClkInit->PeriphClockSelection) & RCC_PERIPHCLK_ADC) == RCC_PERIPHCLK_ADC)
 8004e88:	6823      	ldr	r3, [r4, #0]
 8004e8a:	f013 0f02 	tst.w	r3, #2
 8004e8e:	d006      	beq.n	8004e9e <HAL_RCCEx_PeriphCLKConfig+0x92>
  {
    /* Check the parameters */
    assert_param(IS_RCC_ADCPLLCLK_DIV(PeriphClkInit->AdcClockSelection));

    /* Configure the ADC clock source */
    __HAL_RCC_ADC_CONFIG(PeriphClkInit->AdcClockSelection);
 8004e90:	4a21      	ldr	r2, [pc, #132]	@ (8004f18 <HAL_RCCEx_PeriphCLKConfig+0x10c>)
 8004e92:	6853      	ldr	r3, [r2, #4]
 8004e94:	f423 4340 	bic.w	r3, r3, #49152	@ 0xc000
 8004e98:	68a1      	ldr	r1, [r4, #8]
 8004e9a:	430b      	orrs	r3, r1
 8004e9c:	6053      	str	r3, [r2, #4]

#if defined(STM32F102x6) || defined(STM32F102xB) || defined(STM32F103x6)\
 || defined(STM32F103xB) || defined(STM32F103xE) || defined(STM32F103xG)\
 || defined(STM32F105xC) || defined(STM32F107xC)
  /*------------------------------ USB clock Configuration ------------------*/
  if (((PeriphClkInit->PeriphClockSelection) & RCC_PERIPHCLK_USB) == RCC_PERIPHCLK_USB)
 8004e9e:	6823      	ldr	r3, [r4, #0]
 8004ea0:	f013 0f10 	tst.w	r3, #16
 8004ea4:	d034      	beq.n	8004f10 <HAL_RCCEx_PeriphCLKConfig+0x104>
  {
    /* Check the parameters */
    assert_param(IS_RCC_USBPLLCLK_DIV(PeriphClkInit->UsbClockSelection));

    /* Configure the USB clock source */
    __HAL_RCC_USB_CONFIG(PeriphClkInit->UsbClockSelection);
 8004ea6:	4a1c      	ldr	r2, [pc, #112]	@ (8004f18 <HAL_RCCEx_PeriphCLKConfig+0x10c>)
 8004ea8:	6853      	ldr	r3, [r2, #4]
 8004eaa:	f423 0380 	bic.w	r3, r3, #4194304	@ 0x400000
 8004eae:	68e1      	ldr	r1, [r4, #12]
 8004eb0:	430b      	orrs	r3, r1
 8004eb2:	6053      	str	r3, [r2, #4]
  }
#endif /* STM32F102x6 || STM32F102xB || STM32F103x6 || STM32F103xB || STM32F103xE || STM32F103xG || STM32F105xC || STM32F107xC */

  return HAL_OK;
 8004eb4:	2000      	movs	r0, #0
 8004eb6:	e02c      	b.n	8004f12 <HAL_RCCEx_PeriphCLKConfig+0x106>
    FlagStatus pwrclkchanged = RESET;
 8004eb8:	2500      	movs	r5, #0
 8004eba:	e7be      	b.n	8004e3a <HAL_RCCEx_PeriphCLKConfig+0x2e>
      SET_BIT(PWR->CR, PWR_CR_DBP);
 8004ebc:	4a17      	ldr	r2, [pc, #92]	@ (8004f1c <HAL_RCCEx_PeriphCLKConfig+0x110>)
 8004ebe:	6813      	ldr	r3, [r2, #0]
 8004ec0:	f443 7380 	orr.w	r3, r3, #256	@ 0x100
 8004ec4:	6013      	str	r3, [r2, #0]
      tickstart = HAL_GetTick();
 8004ec6:	f7fd ff11 	bl	8002cec <HAL_GetTick>
 8004eca:	4606      	mov	r6, r0
      while (HAL_IS_BIT_CLR(PWR->CR, PWR_CR_DBP))
 8004ecc:	4b13      	ldr	r3, [pc, #76]	@ (8004f1c <HAL_RCCEx_PeriphCLKConfig+0x110>)
 8004ece:	681b      	ldr	r3, [r3, #0]
 8004ed0:	f413 7f80 	tst.w	r3, #256	@ 0x100
 8004ed4:	d1b6      	bne.n	8004e44 <HAL_RCCEx_PeriphCLKConfig+0x38>
        if ((HAL_GetTick() - tickstart) > RCC_DBP_TIMEOUT_VALUE)
 8004ed6:	f7fd ff09 	bl	8002cec <HAL_GetTick>
 8004eda:	1b80      	subs	r0, r0, r6
 8004edc:	2864      	cmp	r0, #100	@ 0x64
 8004ede:	d9f5      	bls.n	8004ecc <HAL_RCCEx_PeriphCLKConfig+0xc0>
          return HAL_TIMEOUT;
 8004ee0:	2003      	movs	r0, #3
 8004ee2:	e016      	b.n	8004f12 <HAL_RCCEx_PeriphCLKConfig+0x106>
        tickstart = HAL_GetTick();
 8004ee4:	f7fd ff02 	bl	8002cec <HAL_GetTick>
 8004ee8:	4606      	mov	r6, r0
        while (__HAL_RCC_GET_FLAG(RCC_FLAG_LSERDY) == RESET)
 8004eea:	4b0b      	ldr	r3, [pc, #44]	@ (8004f18 <HAL_RCCEx_PeriphCLKConfig+0x10c>)
 8004eec:	6a1b      	ldr	r3, [r3, #32]
 8004eee:	f013 0f02 	tst.w	r3, #2
 8004ef2:	d1c0      	bne.n	8004e76 <HAL_RCCEx_PeriphCLKConfig+0x6a>
          if ((HAL_GetTick() - tickstart) > RCC_LSE_TIMEOUT_VALUE)
 8004ef4:	f7fd fefa 	bl	8002cec <HAL_GetTick>
 8004ef8:	1b80      	subs	r0, r0, r6
 8004efa:	f241 3388 	movw	r3, #5000	@ 0x1388
 8004efe:	4298      	cmp	r0, r3
 8004f00:	d9f3      	bls.n	8004eea <HAL_RCCEx_PeriphCLKConfig+0xde>
            return HAL_TIMEOUT;
 8004f02:	2003      	movs	r0, #3
 8004f04:	e005      	b.n	8004f12 <HAL_RCCEx_PeriphCLKConfig+0x106>
      __HAL_RCC_PWR_CLK_DISABLE();
 8004f06:	69d3      	ldr	r3, [r2, #28]
 8004f08:	f023 5380 	bic.w	r3, r3, #268435456	@ 0x10000000
 8004f0c:	61d3      	str	r3, [r2, #28]
 8004f0e:	e7bb      	b.n	8004e88 <HAL_RCCEx_PeriphCLKConfig+0x7c>
  return HAL_OK;
 8004f10:	2000      	movs	r0, #0
}
 8004f12:	b002      	add	sp, #8
 8004f14:	bd70      	pop	{r4, r5, r6, pc}
 8004f16:	bf00      	nop
 8004f18:	40021000 	.word	0x40021000
 8004f1c:	40007000 	.word	0x40007000
 8004f20:	42420000 	.word	0x42420000

08004f24 <TIM_OC1_SetConfig>:
  * @param  TIMx to select the TIM peripheral
  * @param  OC_Config The output configuration structure
  * @retval None
  */
static void TIM_OC1_SetConfig(TIM_TypeDef *TIMx, const TIM_OC_InitTypeDef *OC_Config)
{
 8004f24:	b430      	push	{r4, r5}
  uint32_t tmpccmrx;
  uint32_t tmpccer;
  uint32_t tmpcr2;

  /* Get the TIMx CCER register value */
  tmpccer = TIMx->CCER;
 8004f26:	6a02      	ldr	r2, [r0, #32]

  /* Disable the Channel 1: Reset the CC1E Bit */
  TIMx->CCER &= ~TIM_CCER_CC1E;
 8004f28:	6a03      	ldr	r3, [r0, #32]
 8004f2a:	f023 0301 	bic.w	r3, r3, #1
 8004f2e:	6203      	str	r3, [r0, #32]

  /* Get the TIMx CR2 register value */
  tmpcr2 =  TIMx->CR2;
 8004f30:	6845      	ldr	r5, [r0, #4]

  /* Get the TIMx CCMR1 register value */
  tmpccmrx = TIMx->CCMR1;
 8004f32:	6983      	ldr	r3, [r0, #24]

  /* Reset the Output Compare Mode Bits */
  tmpccmrx &= ~TIM_CCMR1_OC1M;
  tmpccmrx &= ~TIM_CCMR1_CC1S;
 8004f34:	f023 0373 	bic.w	r3, r3, #115	@ 0x73
  /* Select the Output Compare Mode */
  tmpccmrx |= OC_Config->OCMode;
 8004f38:	680c      	ldr	r4, [r1, #0]
 8004f3a:	431c      	orrs	r4, r3

  /* Reset the Output Polarity level */
  tmpccer &= ~TIM_CCER_CC1P;
 8004f3c:	f022 0202 	bic.w	r2, r2, #2
  /* Set the Output Compare Polarity */
  tmpccer |= OC_Config->OCPolarity;
 8004f40:	688b      	ldr	r3, [r1, #8]
 8004f42:	4313      	orrs	r3, r2

  if (IS_TIM_CCXN_INSTANCE(TIMx, TIM_CHANNEL_1))
 8004f44:	4a0b      	ldr	r2, [pc, #44]	@ (8004f74 <TIM_OC1_SetConfig+0x50>)
 8004f46:	4290      	cmp	r0, r2
 8004f48:	d006      	beq.n	8004f58 <TIM_OC1_SetConfig+0x34>
    /* Set the Output N Idle state */
    tmpcr2 |= OC_Config->OCNIdleState;
  }

  /* Write to TIMx CR2 */
  TIMx->CR2 = tmpcr2;
 8004f4a:	6045      	str	r5, [r0, #4]

  /* Write to TIMx CCMR1 */
  TIMx->CCMR1 = tmpccmrx;
 8004f4c:	6184      	str	r4, [r0, #24]

  /* Set the Capture Compare Register value */
  TIMx->CCR1 = OC_Config->Pulse;
 8004f4e:	684a      	ldr	r2, [r1, #4]
 8004f50:	6342      	str	r2, [r0, #52]	@ 0x34

  /* Write to TIMx CCER */
  TIMx->CCER = tmpccer;
 8004f52:	6203      	str	r3, [r0, #32]
}
 8004f54:	bc30      	pop	{r4, r5}
 8004f56:	4770      	bx	lr
    tmpccer &= ~TIM_CCER_CC1NP;
 8004f58:	f023 0308 	bic.w	r3, r3, #8
    tmpccer |= OC_Config->OCNPolarity;
 8004f5c:	68ca      	ldr	r2, [r1, #12]
 8004f5e:	431a      	orrs	r2, r3
    tmpccer &= ~TIM_CCER_CC1NE;
 8004f60:	f022 0304 	bic.w	r3, r2, #4
    tmpcr2 &= ~TIM_CR2_OIS1N;
 8004f64:	f425 7540 	bic.w	r5, r5, #768	@ 0x300
    tmpcr2 |= OC_Config->OCIdleState;
 8004f68:	694a      	ldr	r2, [r1, #20]
 8004f6a:	432a      	orrs	r2, r5
    tmpcr2 |= OC_Config->OCNIdleState;
 8004f6c:	698d      	ldr	r5, [r1, #24]
 8004f6e:	4315      	orrs	r5, r2
 8004f70:	e7eb      	b.n	8004f4a <TIM_OC1_SetConfig+0x26>
 8004f72:	bf00      	nop
 8004f74:	40012c00 	.word	0x40012c00

08004f78 <TIM_OC3_SetConfig>:
  * @param  TIMx to select the TIM peripheral
  * @param  OC_Config The output configuration structure
  * @retval None
  */
static void TIM_OC3_SetConfig(TIM_TypeDef *TIMx, const TIM_OC_InitTypeDef *OC_Config)
{
 8004f78:	b430      	push	{r4, r5}
  uint32_t tmpccmrx;
  uint32_t tmpccer;
  uint32_t tmpcr2;

  /* Get the TIMx CCER register value */
  tmpccer = TIMx->CCER;
 8004f7a:	6a03      	ldr	r3, [r0, #32]

  /* Disable the Channel 3: Reset the CC2E Bit */
  TIMx->CCER &= ~TIM_CCER_CC3E;
 8004f7c:	6a02      	ldr	r2, [r0, #32]
 8004f7e:	f422 7280 	bic.w	r2, r2, #256	@ 0x100
 8004f82:	6202      	str	r2, [r0, #32]

  /* Get the TIMx CR2 register value */
  tmpcr2 =  TIMx->CR2;
 8004f84:	6844      	ldr	r4, [r0, #4]

  /* Get the TIMx CCMR2 register value */
  tmpccmrx = TIMx->CCMR2;
 8004f86:	69c2      	ldr	r2, [r0, #28]

  /* Reset the Output Compare mode and Capture/Compare selection Bits */
  tmpccmrx &= ~TIM_CCMR2_OC3M;
  tmpccmrx &= ~TIM_CCMR2_CC3S;
 8004f88:	f022 0273 	bic.w	r2, r2, #115	@ 0x73
  /* Select the Output Compare Mode */
  tmpccmrx |= OC_Config->OCMode;
 8004f8c:	680d      	ldr	r5, [r1, #0]
 8004f8e:	4315      	orrs	r5, r2

  /* Reset the Output Polarity level */
  tmpccer &= ~TIM_CCER_CC3P;
 8004f90:	f423 7300 	bic.w	r3, r3, #512	@ 0x200
  /* Set the Output Compare Polarity */
  tmpccer |= (OC_Config->OCPolarity << 8U);
 8004f94:	688a      	ldr	r2, [r1, #8]
 8004f96:	ea43 2302 	orr.w	r3, r3, r2, lsl #8

  if (IS_TIM_CCXN_INSTANCE(TIMx, TIM_CHANNEL_3))
 8004f9a:	4a0d      	ldr	r2, [pc, #52]	@ (8004fd0 <TIM_OC3_SetConfig+0x58>)
 8004f9c:	4290      	cmp	r0, r2
 8004f9e:	d006      	beq.n	8004fae <TIM_OC3_SetConfig+0x36>
    /* Set the Output N Idle state */
    tmpcr2 |= (OC_Config->OCNIdleState << 4U);
  }

  /* Write to TIMx CR2 */
  TIMx->CR2 = tmpcr2;
 8004fa0:	6044      	str	r4, [r0, #4]

  /* Write to TIMx CCMR2 */
  TIMx->CCMR2 = tmpccmrx;
 8004fa2:	61c5      	str	r5, [r0, #28]

  /* Set the Capture Compare Register value */
  TIMx->CCR3 = OC_Config->Pulse;
 8004fa4:	684a      	ldr	r2, [r1, #4]
 8004fa6:	63c2      	str	r2, [r0, #60]	@ 0x3c

  /* Write to TIMx CCER */
  TIMx->CCER = tmpccer;
 8004fa8:	6203      	str	r3, [r0, #32]
}
 8004faa:	bc30      	pop	{r4, r5}
 8004fac:	4770      	bx	lr
    tmpccer &= ~TIM_CCER_CC3NP;
 8004fae:	f423 6300 	bic.w	r3, r3, #2048	@ 0x800
    tmpccer |= (OC_Config->OCNPolarity << 8U);
 8004fb2:	68ca      	ldr	r2, [r1, #12]
 8004fb4:	ea43 2302 	orr.w	r3, r3, r2, lsl #8
    tmpccer &= ~TIM_CCER_CC3NE;
 8004fb8:	f423 6380 	bic.w	r3, r3, #1024	@ 0x400
    tmpcr2 &= ~TIM_CR2_OIS3N;
 8004fbc:	f424 5440 	bic.w	r4, r4, #12288	@ 0x3000
    tmpcr2 |= (OC_Config->OCIdleState << 4U);
 8004fc0:	694a      	ldr	r2, [r1, #20]
 8004fc2:	ea44 1402 	orr.w	r4, r4, r2, lsl #4
    tmpcr2 |= (OC_Config->OCNIdleState << 4U);
 8004fc6:	698a      	ldr	r2, [r1, #24]
 8004fc8:	ea44 1402 	orr.w	r4, r4, r2, lsl #4
 8004fcc:	e7e8      	b.n	8004fa0 <TIM_OC3_SetConfig+0x28>
 8004fce:	bf00      	nop
 8004fd0:	40012c00 	.word	0x40012c00

08004fd4 <TIM_OC4_SetConfig>:
  * @param  TIMx to select the TIM peripheral
  * @param  OC_Config The output configuration structure
  * @retval None
  */
static void TIM_OC4_SetConfig(TIM_TypeDef *TIMx, const TIM_OC_InitTypeDef *OC_Config)
{
 8004fd4:	b430      	push	{r4, r5}
  uint32_t tmpccmrx;
  uint32_t tmpccer;
  uint32_t tmpcr2;

  /* Get the TIMx CCER register value */
  tmpccer = TIMx->CCER;
 8004fd6:	6a03      	ldr	r3, [r0, #32]

  /* Disable the Channel 4: Reset the CC4E Bit */
  TIMx->CCER &= ~TIM_CCER_CC4E;
 8004fd8:	6a02      	ldr	r2, [r0, #32]
 8004fda:	f422 5280 	bic.w	r2, r2, #4096	@ 0x1000
 8004fde:	6202      	str	r2, [r0, #32]

  /* Get the TIMx CR2 register value */
  tmpcr2 =  TIMx->CR2;
 8004fe0:	6844      	ldr	r4, [r0, #4]

  /* Get the TIMx CCMR2 register value */
  tmpccmrx = TIMx->CCMR2;
 8004fe2:	69c2      	ldr	r2, [r0, #28]

  /* Reset the Output Compare mode and Capture/Compare selection Bits */
  tmpccmrx &= ~TIM_CCMR2_OC4M;
  tmpccmrx &= ~TIM_CCMR2_CC4S;
 8004fe4:	f422 42e6 	bic.w	r2, r2, #29440	@ 0x7300

  /* Select the Output Compare Mode */
  tmpccmrx |= (OC_Config->OCMode << 8U);
 8004fe8:	680d      	ldr	r5, [r1, #0]
 8004fea:	ea42 2205 	orr.w	r2, r2, r5, lsl #8

  /* Reset the Output Polarity level */
  tmpccer &= ~TIM_CCER_CC4P;
 8004fee:	f423 5300 	bic.w	r3, r3, #8192	@ 0x2000
  /* Set the Output Compare Polarity */
  tmpccer |= (OC_Config->OCPolarity << 12U);
 8004ff2:	688d      	ldr	r5, [r1, #8]
 8004ff4:	ea43 3305 	orr.w	r3, r3, r5, lsl #12

  if (IS_TIM_BREAK_INSTANCE(TIMx))
 8004ff8:	4d07      	ldr	r5, [pc, #28]	@ (8005018 <TIM_OC4_SetConfig+0x44>)
 8004ffa:	42a8      	cmp	r0, r5
 8004ffc:	d006      	beq.n	800500c <TIM_OC4_SetConfig+0x38>
    /* Set the Output Idle state */
    tmpcr2 |= (OC_Config->OCIdleState << 6U);
  }

  /* Write to TIMx CR2 */
  TIMx->CR2 = tmpcr2;
 8004ffe:	6044      	str	r4, [r0, #4]

  /* Write to TIMx CCMR2 */
  TIMx->CCMR2 = tmpccmrx;
 8005000:	61c2      	str	r2, [r0, #28]

  /* Set the Capture Compare Register value */
  TIMx->CCR4 = OC_Config->Pulse;
 8005002:	684a      	ldr	r2, [r1, #4]
 8005004:	6402      	str	r2, [r0, #64]	@ 0x40

  /* Write to TIMx CCER */
  TIMx->CCER = tmpccer;
 8005006:	6203      	str	r3, [r0, #32]
}
 8005008:	bc30      	pop	{r4, r5}
 800500a:	4770      	bx	lr
    tmpcr2 &= ~TIM_CR2_OIS4;
 800500c:	f424 4480 	bic.w	r4, r4, #16384	@ 0x4000
    tmpcr2 |= (OC_Config->OCIdleState << 6U);
 8005010:	694d      	ldr	r5, [r1, #20]
 8005012:	ea44 1485 	orr.w	r4, r4, r5, lsl #6
 8005016:	e7f2      	b.n	8004ffe <TIM_OC4_SetConfig+0x2a>
 8005018:	40012c00 	.word	0x40012c00

0800501c <TIM_TI1_ConfigInputStage>:
  * @param  TIM_ICFilter Specifies the Input Capture Filter.
  *          This parameter must be a value between 0x00 and 0x0F.
  * @retval None
  */
static void TIM_TI1_ConfigInputStage(TIM_TypeDef *TIMx, uint32_t TIM_ICPolarity, uint32_t TIM_ICFilter)
{
 800501c:	b410      	push	{r4}
  uint32_t tmpccmr1;
  uint32_t tmpccer;

  /* Disable the Channel 1: Reset the CC1E Bit */
  tmpccer = TIMx->CCER;
 800501e:	6a03      	ldr	r3, [r0, #32]
  TIMx->CCER &= ~TIM_CCER_CC1E;
 8005020:	6a04      	ldr	r4, [r0, #32]
 8005022:	f024 0401 	bic.w	r4, r4, #1
 8005026:	6204      	str	r4, [r0, #32]
  tmpccmr1 = TIMx->CCMR1;
 8005028:	6984      	ldr	r4, [r0, #24]

  /* Set the filter */
  tmpccmr1 &= ~TIM_CCMR1_IC1F;
 800502a:	f024 0cf0 	bic.w	ip, r4, #240	@ 0xf0
  tmpccmr1 |= (TIM_ICFilter << 4U);
 800502e:	ea4c 1202 	orr.w	r2, ip, r2, lsl #4

  /* Select the Polarity and set the CC1E Bit */
  tmpccer &= ~(TIM_CCER_CC1P | TIM_CCER_CC1NP);
 8005032:	f023 030a 	bic.w	r3, r3, #10
  tmpccer |= TIM_ICPolarity;
 8005036:	430b      	orrs	r3, r1

  /* Write to TIMx CCMR1 and CCER registers */
  TIMx->CCMR1 = tmpccmr1;
 8005038:	6182      	str	r2, [r0, #24]
  TIMx->CCER = tmpccer;
 800503a:	6203      	str	r3, [r0, #32]
}
 800503c:	bc10      	pop	{r4}
 800503e:	4770      	bx	lr

08005040 <TIM_TI2_ConfigInputStage>:
  * @param  TIM_ICFilter Specifies the Input Capture Filter.
  *          This parameter must be a value between 0x00 and 0x0F.
  * @retval None
  */
static void TIM_TI2_ConfigInputStage(TIM_TypeDef *TIMx, uint32_t TIM_ICPolarity, uint32_t TIM_ICFilter)
{
 8005040:	b410      	push	{r4}
  uint32_t tmpccmr1;
  uint32_t tmpccer;

  /* Disable the Channel 2: Reset the CC2E Bit */
  tmpccer = TIMx->CCER;
 8005042:	6a03      	ldr	r3, [r0, #32]
  TIMx->CCER &= ~TIM_CCER_CC2E;
 8005044:	6a04      	ldr	r4, [r0, #32]
 8005046:	f024 0410 	bic.w	r4, r4, #16
 800504a:	6204      	str	r4, [r0, #32]
  tmpccmr1 = TIMx->CCMR1;
 800504c:	6984      	ldr	r4, [r0, #24]

  /* Set the filter */
  tmpccmr1 &= ~TIM_CCMR1_IC2F;
 800504e:	f424 4c70 	bic.w	ip, r4, #61440	@ 0xf000
  tmpccmr1 |= (TIM_ICFilter << 12U);
 8005052:	ea4c 3202 	orr.w	r2, ip, r2, lsl #12

  /* Select the Polarity and set the CC2E Bit */
  tmpccer &= ~(TIM_CCER_CC2P | TIM_CCER_CC2NP);
 8005056:	f023 03a0 	bic.w	r3, r3, #160	@ 0xa0
  tmpccer |= (TIM_ICPolarity << 4U);
 800505a:	ea43 1301 	orr.w	r3, r3, r1, lsl #4

  /* Write to TIMx CCMR1 and CCER registers */
  TIMx->CCMR1 = tmpccmr1 ;
 800505e:	6182      	str	r2, [r0, #24]
  TIMx->CCER = tmpccer;
 8005060:	6203      	str	r3, [r0, #32]
}
 8005062:	bc10      	pop	{r4}
 8005064:	4770      	bx	lr

08005066 <TIM_ITRx_SetConfig>:
static void TIM_ITRx_SetConfig(TIM_TypeDef *TIMx, uint32_t InputTriggerSource)
{
  uint32_t tmpsmcr;

  /* Get the TIMx SMCR register value */
  tmpsmcr = TIMx->SMCR;
 8005066:	6883      	ldr	r3, [r0, #8]
  /* Reset the TS Bits */
  tmpsmcr &= ~TIM_SMCR_TS;
 8005068:	f023 0370 	bic.w	r3, r3, #112	@ 0x70
  /* Set the Input Trigger source and the slave mode*/
  tmpsmcr |= (InputTriggerSource | TIM_SLAVEMODE_EXTERNAL1);
 800506c:	430b      	orrs	r3, r1
 800506e:	f043 0307 	orr.w	r3, r3, #7
  /* Write to TIMx SMCR */
  TIMx->SMCR = tmpsmcr;
 8005072:	6083      	str	r3, [r0, #8]
}
 8005074:	4770      	bx	lr
	...

08005078 <HAL_TIM_Base_Start_IT>:
  if (htim->State != HAL_TIM_STATE_READY)
 8005078:	f890 303d 	ldrb.w	r3, [r0, #61]	@ 0x3d
 800507c:	b2db      	uxtb	r3, r3
 800507e:	2b01      	cmp	r3, #1
 8005080:	d127      	bne.n	80050d2 <HAL_TIM_Base_Start_IT+0x5a>
  htim->State = HAL_TIM_STATE_BUSY;
 8005082:	2302      	movs	r3, #2
 8005084:	f880 303d 	strb.w	r3, [r0, #61]	@ 0x3d
  __HAL_TIM_ENABLE_IT(htim, TIM_IT_UPDATE);
 8005088:	6802      	ldr	r2, [r0, #0]
 800508a:	68d3      	ldr	r3, [r2, #12]
 800508c:	f043 0301 	orr.w	r3, r3, #1
 8005090:	60d3      	str	r3, [r2, #12]
  if (IS_TIM_SLAVE_INSTANCE(htim->Instance))
 8005092:	6803      	ldr	r3, [r0, #0]
 8005094:	4a11      	ldr	r2, [pc, #68]	@ (80050dc <HAL_TIM_Base_Start_IT+0x64>)
 8005096:	4293      	cmp	r3, r2
 8005098:	d010      	beq.n	80050bc <HAL_TIM_Base_Start_IT+0x44>
 800509a:	f1b3 4f80 	cmp.w	r3, #1073741824	@ 0x40000000
 800509e:	d00d      	beq.n	80050bc <HAL_TIM_Base_Start_IT+0x44>
 80050a0:	f5a2 3294 	sub.w	r2, r2, #75776	@ 0x12800
 80050a4:	4293      	cmp	r3, r2
 80050a6:	d009      	beq.n	80050bc <HAL_TIM_Base_Start_IT+0x44>
 80050a8:	f502 6280 	add.w	r2, r2, #1024	@ 0x400
 80050ac:	4293      	cmp	r3, r2
 80050ae:	d005      	beq.n	80050bc <HAL_TIM_Base_Start_IT+0x44>
    __HAL_TIM_ENABLE(htim);
 80050b0:	681a      	ldr	r2, [r3, #0]
 80050b2:	f042 0201 	orr.w	r2, r2, #1
 80050b6:	601a      	str	r2, [r3, #0]
  return HAL_OK;
 80050b8:	2000      	movs	r0, #0
 80050ba:	4770      	bx	lr
    tmpsmcr = htim->Instance->SMCR & TIM_SMCR_SMS;
 80050bc:	689a      	ldr	r2, [r3, #8]
 80050be:	f002 0207 	and.w	r2, r2, #7
    if (!IS_TIM_SLAVEMODE_TRIGGER_ENABLED(tmpsmcr))
 80050c2:	2a06      	cmp	r2, #6
 80050c4:	d007      	beq.n	80050d6 <HAL_TIM_Base_Start_IT+0x5e>
      __HAL_TIM_ENABLE(htim);
 80050c6:	681a      	ldr	r2, [r3, #0]
 80050c8:	f042 0201 	orr.w	r2, r2, #1
 80050cc:	601a      	str	r2, [r3, #0]
  return HAL_OK;
 80050ce:	2000      	movs	r0, #0
 80050d0:	4770      	bx	lr
    return HAL_ERROR;
 80050d2:	2001      	movs	r0, #1
 80050d4:	4770      	bx	lr
  return HAL_OK;
 80050d6:	2000      	movs	r0, #0
}
 80050d8:	4770      	bx	lr
 80050da:	bf00      	nop
 80050dc:	40012c00 	.word	0x40012c00

080050e0 <HAL_TIM_Base_Stop_IT>:
  __HAL_TIM_DISABLE_IT(htim, TIM_IT_UPDATE);
 80050e0:	6802      	ldr	r2, [r0, #0]
 80050e2:	68d3      	ldr	r3, [r2, #12]
 80050e4:	f023 0301 	bic.w	r3, r3, #1
 80050e8:	60d3      	str	r3, [r2, #12]
  __HAL_TIM_DISABLE(htim);
 80050ea:	6803      	ldr	r3, [r0, #0]
 80050ec:	6a19      	ldr	r1, [r3, #32]
 80050ee:	f241 1211 	movw	r2, #4369	@ 0x1111
 80050f2:	4211      	tst	r1, r2
 80050f4:	d108      	bne.n	8005108 <HAL_TIM_Base_Stop_IT+0x28>
 80050f6:	6a19      	ldr	r1, [r3, #32]
 80050f8:	f240 4244 	movw	r2, #1092	@ 0x444
 80050fc:	4211      	tst	r1, r2
 80050fe:	d103      	bne.n	8005108 <HAL_TIM_Base_Stop_IT+0x28>
 8005100:	681a      	ldr	r2, [r3, #0]
 8005102:	f022 0201 	bic.w	r2, r2, #1
 8005106:	601a      	str	r2, [r3, #0]
  htim->State = HAL_TIM_STATE_READY;
 8005108:	2301      	movs	r3, #1
 800510a:	f880 303d 	strb.w	r3, [r0, #61]	@ 0x3d
}
 800510e:	2000      	movs	r0, #0
 8005110:	4770      	bx	lr

08005112 <HAL_TIM_PWM_MspInit>:
}
 8005112:	4770      	bx	lr

08005114 <HAL_TIM_OC_DelayElapsedCallback>:
}
 8005114:	4770      	bx	lr

08005116 <HAL_TIM_IC_CaptureCallback>:
}
 8005116:	4770      	bx	lr

08005118 <HAL_TIM_PWM_PulseFinishedCallback>:
}
 8005118:	4770      	bx	lr

0800511a <HAL_TIM_TriggerCallback>:
}
 800511a:	4770      	bx	lr

0800511c <HAL_TIM_IRQHandler>:
{
 800511c:	b570      	push	{r4, r5, r6, lr}
 800511e:	4604      	mov	r4, r0
  uint32_t itsource = htim->Instance->DIER;
 8005120:	6803      	ldr	r3, [r0, #0]
 8005122:	68de      	ldr	r6, [r3, #12]
  uint32_t itflag   = htim->Instance->SR;
 8005124:	691d      	ldr	r5, [r3, #16]
  if ((itflag & (TIM_FLAG_CC1)) == (TIM_FLAG_CC1))
 8005126:	f015 0f02 	tst.w	r5, #2
 800512a:	d010      	beq.n	800514e <HAL_TIM_IRQHandler+0x32>
    if ((itsource & (TIM_IT_CC1)) == (TIM_IT_CC1))
 800512c:	f016 0f02 	tst.w	r6, #2
 8005130:	d00d      	beq.n	800514e <HAL_TIM_IRQHandler+0x32>
        __HAL_TIM_CLEAR_FLAG(htim, TIM_FLAG_CC1);
 8005132:	f06f 0202 	mvn.w	r2, #2
 8005136:	611a      	str	r2, [r3, #16]
        htim->Channel = HAL_TIM_ACTIVE_CHANNEL_1;
 8005138:	2301      	movs	r3, #1
 800513a:	7703      	strb	r3, [r0, #28]
        if ((htim->Instance->CCMR1 & TIM_CCMR1_CC1S) != 0x00U)
 800513c:	6803      	ldr	r3, [r0, #0]
 800513e:	699b      	ldr	r3, [r3, #24]
 8005140:	f013 0f03 	tst.w	r3, #3
 8005144:	d05e      	beq.n	8005204 <HAL_TIM_IRQHandler+0xe8>
          HAL_TIM_IC_CaptureCallback(htim);
 8005146:	f7ff ffe6 	bl	8005116 <HAL_TIM_IC_CaptureCallback>
        htim->Channel = HAL_TIM_ACTIVE_CHANNEL_CLEARED;
 800514a:	2300      	movs	r3, #0
 800514c:	7723      	strb	r3, [r4, #28]
  if ((itflag & (TIM_FLAG_CC2)) == (TIM_FLAG_CC2))
 800514e:	f015 0f04 	tst.w	r5, #4
 8005152:	d012      	beq.n	800517a <HAL_TIM_IRQHandler+0x5e>
    if ((itsource & (TIM_IT_CC2)) == (TIM_IT_CC2))
 8005154:	f016 0f04 	tst.w	r6, #4
 8005158:	d00f      	beq.n	800517a <HAL_TIM_IRQHandler+0x5e>
      __HAL_TIM_CLEAR_FLAG(htim, TIM_FLAG_CC2);
 800515a:	6823      	ldr	r3, [r4, #0]
 800515c:	f06f 0204 	mvn.w	r2, #4
 8005160:	611a      	str	r2, [r3, #16]
      htim->Channel = HAL_TIM_ACTIVE_CHANNEL_2;
 8005162:	2302      	movs	r3, #2
 8005164:	7723      	strb	r3, [r4, #28]
      if ((htim->Instance->CCMR1 & TIM_CCMR1_CC2S) != 0x00U)
 8005166:	6823      	ldr	r3, [r4, #0]
 8005168:	699b      	ldr	r3, [r3, #24]
 800516a:	f413 7f40 	tst.w	r3, #768	@ 0x300
 800516e:	d04f      	beq.n	8005210 <HAL_TIM_IRQHandler+0xf4>
        HAL_TIM_IC_CaptureCallback(htim);
 8005170:	4620      	mov	r0, r4
 8005172:	f7ff ffd0 	bl	8005116 <HAL_TIM_IC_CaptureCallback>
      htim->Channel = HAL_TIM_ACTIVE_CHANNEL_CLEARED;
 8005176:	2300      	movs	r3, #0
 8005178:	7723      	strb	r3, [r4, #28]
  if ((itflag & (TIM_FLAG_CC3)) == (TIM_FLAG_CC3))
 800517a:	f015 0f08 	tst.w	r5, #8
 800517e:	d012      	beq.n	80051a6 <HAL_TIM_IRQHandler+0x8a>
    if ((itsource & (TIM_IT_CC3)) == (TIM_IT_CC3))
 8005180:	f016 0f08 	tst.w	r6, #8
 8005184:	d00f      	beq.n	80051a6 <HAL_TIM_IRQHandler+0x8a>
      __HAL_TIM_CLEAR_FLAG(htim, TIM_FLAG_CC3);
 8005186:	6823      	ldr	r3, [r4, #0]
 8005188:	f06f 0208 	mvn.w	r2, #8
 800518c:	611a      	str	r2, [r3, #16]
      htim->Channel = HAL_TIM_ACTIVE_CHANNEL_3;
 800518e:	2304      	movs	r3, #4
 8005190:	7723      	strb	r3, [r4, #28]
      if ((htim->Instance->CCMR2 & TIM_CCMR2_CC3S) != 0x00U)
 8005192:	6823      	ldr	r3, [r4, #0]
 8005194:	69db      	ldr	r3, [r3, #28]
 8005196:	f013 0f03 	tst.w	r3, #3
 800519a:	d040      	beq.n	800521e <HAL_TIM_IRQHandler+0x102>
        HAL_TIM_IC_CaptureCallback(htim);
 800519c:	4620      	mov	r0, r4
 800519e:	f7ff ffba 	bl	8005116 <HAL_TIM_IC_CaptureCallback>
      htim->Channel = HAL_TIM_ACTIVE_CHANNEL_CLEARED;
 80051a2:	2300      	movs	r3, #0
 80051a4:	7723      	strb	r3, [r4, #28]
  if ((itflag & (TIM_FLAG_CC4)) == (TIM_FLAG_CC4))
 80051a6:	f015 0f10 	tst.w	r5, #16
 80051aa:	d012      	beq.n	80051d2 <HAL_TIM_IRQHandler+0xb6>
    if ((itsource & (TIM_IT_CC4)) == (TIM_IT_CC4))
 80051ac:	f016 0f10 	tst.w	r6, #16
 80051b0:	d00f      	beq.n	80051d2 <HAL_TIM_IRQHandler+0xb6>
      __HAL_TIM_CLEAR_FLAG(htim, TIM_FLAG_CC4);
 80051b2:	6823      	ldr	r3, [r4, #0]
 80051b4:	f06f 0210 	mvn.w	r2, #16
 80051b8:	611a      	str	r2, [r3, #16]
      htim->Channel = HAL_TIM_ACTIVE_CHANNEL_4;
 80051ba:	2308      	movs	r3, #8
 80051bc:	7723      	strb	r3, [r4, #28]
      if ((htim->Instance->CCMR2 & TIM_CCMR2_CC4S) != 0x00U)
 80051be:	6823      	ldr	r3, [r4, #0]
 80051c0:	69db      	ldr	r3, [r3, #28]
 80051c2:	f413 7f40 	tst.w	r3, #768	@ 0x300
 80051c6:	d031      	beq.n	800522c <HAL_TIM_IRQHandler+0x110>
        HAL_TIM_IC_CaptureCallback(htim);
 80051c8:	4620      	mov	r0, r4
 80051ca:	f7ff ffa4 	bl	8005116 <HAL_TIM_IC_CaptureCallback>
      htim->Channel = HAL_TIM_ACTIVE_CHANNEL_CLEARED;
 80051ce:	2300      	movs	r3, #0
 80051d0:	7723      	strb	r3, [r4, #28]
  if ((itflag & (TIM_FLAG_UPDATE)) == (TIM_FLAG_UPDATE))
 80051d2:	f015 0f01 	tst.w	r5, #1
 80051d6:	d002      	beq.n	80051de <HAL_TIM_IRQHandler+0xc2>
    if ((itsource & (TIM_IT_UPDATE)) == (TIM_IT_UPDATE))
 80051d8:	f016 0f01 	tst.w	r6, #1
 80051dc:	d12d      	bne.n	800523a <HAL_TIM_IRQHandler+0x11e>
  if ((itflag & (TIM_FLAG_BREAK)) == (TIM_FLAG_BREAK))
 80051de:	f015 0f80 	tst.w	r5, #128	@ 0x80
 80051e2:	d002      	beq.n	80051ea <HAL_TIM_IRQHandler+0xce>
    if ((itsource & (TIM_IT_BREAK)) == (TIM_IT_BREAK))
 80051e4:	f016 0f80 	tst.w	r6, #128	@ 0x80
 80051e8:	d12f      	bne.n	800524a <HAL_TIM_IRQHandler+0x12e>
  if ((itflag & (TIM_FLAG_TRIGGER)) == (TIM_FLAG_TRIGGER))
 80051ea:	f015 0f40 	tst.w	r5, #64	@ 0x40
 80051ee:	d002      	beq.n	80051f6 <HAL_TIM_IRQHandler+0xda>
    if ((itsource & (TIM_IT_TRIGGER)) == (TIM_IT_TRIGGER))
 80051f0:	f016 0f40 	tst.w	r6, #64	@ 0x40
 80051f4:	d131      	bne.n	800525a <HAL_TIM_IRQHandler+0x13e>
  if ((itflag & (TIM_FLAG_COM)) == (TIM_FLAG_COM))
 80051f6:	f015 0f20 	tst.w	r5, #32
 80051fa:	d002      	beq.n	8005202 <HAL_TIM_IRQHandler+0xe6>
    if ((itsource & (TIM_IT_COM)) == (TIM_IT_COM))
 80051fc:	f016 0f20 	tst.w	r6, #32
 8005200:	d133      	bne.n	800526a <HAL_TIM_IRQHandler+0x14e>
}
 8005202:	bd70      	pop	{r4, r5, r6, pc}
          HAL_TIM_OC_DelayElapsedCallback(htim);
 8005204:	f7ff ff86 	bl	8005114 <HAL_TIM_OC_DelayElapsedCallback>
          HAL_TIM_PWM_PulseFinishedCallback(htim);
 8005208:	4620      	mov	r0, r4
 800520a:	f7ff ff85 	bl	8005118 <HAL_TIM_PWM_PulseFinishedCallback>
 800520e:	e79c      	b.n	800514a <HAL_TIM_IRQHandler+0x2e>
        HAL_TIM_OC_DelayElapsedCallback(htim);
 8005210:	4620      	mov	r0, r4
 8005212:	f7ff ff7f 	bl	8005114 <HAL_TIM_OC_DelayElapsedCallback>
        HAL_TIM_PWM_PulseFinishedCallback(htim);
 8005216:	4620      	mov	r0, r4
 8005218:	f7ff ff7e 	bl	8005118 <HAL_TIM_PWM_PulseFinishedCallback>
 800521c:	e7ab      	b.n	8005176 <HAL_TIM_IRQHandler+0x5a>
        HAL_TIM_OC_DelayElapsedCallback(htim);
 800521e:	4620      	mov	r0, r4
 8005220:	f7ff ff78 	bl	8005114 <HAL_TIM_OC_DelayElapsedCallback>
        HAL_TIM_PWM_PulseFinishedCallback(htim);
 8005224:	4620      	mov	r0, r4
 8005226:	f7ff ff77 	bl	8005118 <HAL_TIM_PWM_PulseFinishedCallback>
 800522a:	e7ba      	b.n	80051a2 <HAL_TIM_IRQHandler+0x86>
        HAL_TIM_OC_DelayElapsedCallback(htim);
 800522c:	4620      	mov	r0, r4
 800522e:	f7ff ff71 	bl	8005114 <HAL_TIM_OC_DelayElapsedCallback>
        HAL_TIM_PWM_PulseFinishedCallback(htim);
 8005232:	4620      	mov	r0, r4
 8005234:	f7ff ff70 	bl	8005118 <HAL_TIM_PWM_PulseFinishedCallback>
 8005238:	e7c9      	b.n	80051ce <HAL_TIM_IRQHandler+0xb2>
      __HAL_TIM_CLEAR_FLAG(htim, TIM_FLAG_UPDATE);
 800523a:	6823      	ldr	r3, [r4, #0]
 800523c:	f06f 0201 	mvn.w	r2, #1
 8005240:	611a      	str	r2, [r3, #16]
      HAL_TIM_PeriodElapsedCallback(htim);
 8005242:	4620      	mov	r0, r4
 8005244:	f7fd fc66 	bl	8002b14 <HAL_TIM_PeriodElapsedCallback>
 8005248:	e7c9      	b.n	80051de <HAL_TIM_IRQHandler+0xc2>
      __HAL_TIM_CLEAR_FLAG(htim, TIM_FLAG_BREAK);
 800524a:	6823      	ldr	r3, [r4, #0]
 800524c:	f06f 0280 	mvn.w	r2, #128	@ 0x80
 8005250:	611a      	str	r2, [r3, #16]
      HAL_TIMEx_BreakCallback(htim);
 8005252:	4620      	mov	r0, r4
 8005254:	f000 fb2a 	bl	80058ac <HAL_TIMEx_BreakCallback>
 8005258:	e7c7      	b.n	80051ea <HAL_TIM_IRQHandler+0xce>
      __HAL_TIM_CLEAR_FLAG(htim, TIM_FLAG_TRIGGER);
 800525a:	6823      	ldr	r3, [r4, #0]
 800525c:	f06f 0240 	mvn.w	r2, #64	@ 0x40
 8005260:	611a      	str	r2, [r3, #16]
      HAL_TIM_TriggerCallback(htim);
 8005262:	4620      	mov	r0, r4
 8005264:	f7ff ff59 	bl	800511a <HAL_TIM_TriggerCallback>
 8005268:	e7c5      	b.n	80051f6 <HAL_TIM_IRQHandler+0xda>
      __HAL_TIM_CLEAR_FLAG(htim, TIM_FLAG_COM);
 800526a:	6823      	ldr	r3, [r4, #0]
 800526c:	f06f 0220 	mvn.w	r2, #32
 8005270:	611a      	str	r2, [r3, #16]
      HAL_TIMEx_CommutCallback(htim);
 8005272:	4620      	mov	r0, r4
 8005274:	f000 fb19 	bl	80058aa <HAL_TIMEx_CommutCallback>
}
 8005278:	e7c3      	b.n	8005202 <HAL_TIM_IRQHandler+0xe6>
	...

0800527c <TIM_Base_SetConfig>:
  tmpcr1 = TIMx->CR1;
 800527c:	6803      	ldr	r3, [r0, #0]
  if (IS_TIM_COUNTER_MODE_SELECT_INSTANCE(TIMx))
 800527e:	4a1f      	ldr	r2, [pc, #124]	@ (80052fc <TIM_Base_SetConfig+0x80>)
 8005280:	4290      	cmp	r0, r2
 8005282:	d00a      	beq.n	800529a <TIM_Base_SetConfig+0x1e>
 8005284:	f1b0 4f80 	cmp.w	r0, #1073741824	@ 0x40000000
 8005288:	d007      	beq.n	800529a <TIM_Base_SetConfig+0x1e>
 800528a:	f5a2 3294 	sub.w	r2, r2, #75776	@ 0x12800
 800528e:	4290      	cmp	r0, r2
 8005290:	d003      	beq.n	800529a <TIM_Base_SetConfig+0x1e>
 8005292:	f502 6280 	add.w	r2, r2, #1024	@ 0x400
 8005296:	4290      	cmp	r0, r2
 8005298:	d103      	bne.n	80052a2 <TIM_Base_SetConfig+0x26>
    tmpcr1 &= ~(TIM_CR1_DIR | TIM_CR1_CMS);
 800529a:	f023 0370 	bic.w	r3, r3, #112	@ 0x70
    tmpcr1 |= Structure->CounterMode;
 800529e:	684a      	ldr	r2, [r1, #4]
 80052a0:	4313      	orrs	r3, r2
  if (IS_TIM_CLOCK_DIVISION_INSTANCE(TIMx))
 80052a2:	4a16      	ldr	r2, [pc, #88]	@ (80052fc <TIM_Base_SetConfig+0x80>)
 80052a4:	4290      	cmp	r0, r2
 80052a6:	d00a      	beq.n	80052be <TIM_Base_SetConfig+0x42>
 80052a8:	f1b0 4f80 	cmp.w	r0, #1073741824	@ 0x40000000
 80052ac:	d007      	beq.n	80052be <TIM_Base_SetConfig+0x42>
 80052ae:	f5a2 3294 	sub.w	r2, r2, #75776	@ 0x12800
 80052b2:	4290      	cmp	r0, r2
 80052b4:	d003      	beq.n	80052be <TIM_Base_SetConfig+0x42>
 80052b6:	f502 6280 	add.w	r2, r2, #1024	@ 0x400
 80052ba:	4290      	cmp	r0, r2
 80052bc:	d103      	bne.n	80052c6 <TIM_Base_SetConfig+0x4a>
    tmpcr1 &= ~TIM_CR1_CKD;
 80052be:	f423 7340 	bic.w	r3, r3, #768	@ 0x300
    tmpcr1 |= (uint32_t)Structure->ClockDivision;
 80052c2:	68ca      	ldr	r2, [r1, #12]
 80052c4:	4313      	orrs	r3, r2
  MODIFY_REG(tmpcr1, TIM_CR1_ARPE, Structure->AutoReloadPreload);
 80052c6:	f023 0380 	bic.w	r3, r3, #128	@ 0x80
 80052ca:	694a      	ldr	r2, [r1, #20]
 80052cc:	4313      	orrs	r3, r2
  TIMx->CR1 = tmpcr1;
 80052ce:	6003      	str	r3, [r0, #0]
  TIMx->ARR = (uint32_t)Structure->Period ;
 80052d0:	688b      	ldr	r3, [r1, #8]
 80052d2:	62c3      	str	r3, [r0, #44]	@ 0x2c
  TIMx->PSC = Structure->Prescaler;
 80052d4:	680b      	ldr	r3, [r1, #0]
 80052d6:	6283      	str	r3, [r0, #40]	@ 0x28
  if (IS_TIM_REPETITION_COUNTER_INSTANCE(TIMx))
 80052d8:	4b08      	ldr	r3, [pc, #32]	@ (80052fc <TIM_Base_SetConfig+0x80>)
 80052da:	4298      	cmp	r0, r3
 80052dc:	d00a      	beq.n	80052f4 <TIM_Base_SetConfig+0x78>
  TIMx->EGR = TIM_EGR_UG;
 80052de:	2301      	movs	r3, #1
 80052e0:	6143      	str	r3, [r0, #20]
  if (HAL_IS_BIT_SET(TIMx->SR, TIM_FLAG_UPDATE))
 80052e2:	6903      	ldr	r3, [r0, #16]
 80052e4:	f013 0f01 	tst.w	r3, #1
 80052e8:	d003      	beq.n	80052f2 <TIM_Base_SetConfig+0x76>
    CLEAR_BIT(TIMx->SR, TIM_FLAG_UPDATE);
 80052ea:	6903      	ldr	r3, [r0, #16]
 80052ec:	f023 0301 	bic.w	r3, r3, #1
 80052f0:	6103      	str	r3, [r0, #16]
}
 80052f2:	4770      	bx	lr
    TIMx->RCR = Structure->RepetitionCounter;
 80052f4:	690b      	ldr	r3, [r1, #16]
 80052f6:	6303      	str	r3, [r0, #48]	@ 0x30
 80052f8:	e7f1      	b.n	80052de <TIM_Base_SetConfig+0x62>
 80052fa:	bf00      	nop
 80052fc:	40012c00 	.word	0x40012c00

08005300 <HAL_TIM_Base_Init>:
  if (htim == NULL)
 8005300:	b340      	cbz	r0, 8005354 <HAL_TIM_Base_Init+0x54>
{
 8005302:	b510      	push	{r4, lr}
 8005304:	4604      	mov	r4, r0
  if (htim->State == HAL_TIM_STATE_RESET)
 8005306:	f890 303d 	ldrb.w	r3, [r0, #61]	@ 0x3d
 800530a:	b1f3      	cbz	r3, 800534a <HAL_TIM_Base_Init+0x4a>
  htim->State = HAL_TIM_STATE_BUSY;
 800530c:	2302      	movs	r3, #2
 800530e:	f884 303d 	strb.w	r3, [r4, #61]	@ 0x3d
  TIM_Base_SetConfig(htim->Instance, &htim->Init);
 8005312:	4621      	mov	r1, r4
 8005314:	f851 0b04 	ldr.w	r0, [r1], #4
 8005318:	f7ff ffb0 	bl	800527c <TIM_Base_SetConfig>
  htim->DMABurstState = HAL_DMA_BURST_STATE_READY;
 800531c:	2301      	movs	r3, #1
 800531e:	f884 3046 	strb.w	r3, [r4, #70]	@ 0x46
  TIM_CHANNEL_STATE_SET_ALL(htim, HAL_TIM_CHANNEL_STATE_READY);
 8005322:	f884 303e 	strb.w	r3, [r4, #62]	@ 0x3e
 8005326:	f884 303f 	strb.w	r3, [r4, #63]	@ 0x3f
 800532a:	f884 3040 	strb.w	r3, [r4, #64]	@ 0x40
 800532e:	f884 3041 	strb.w	r3, [r4, #65]	@ 0x41
  TIM_CHANNEL_N_STATE_SET_ALL(htim, HAL_TIM_CHANNEL_STATE_READY);
 8005332:	f884 3042 	strb.w	r3, [r4, #66]	@ 0x42
 8005336:	f884 3043 	strb.w	r3, [r4, #67]	@ 0x43
 800533a:	f884 3044 	strb.w	r3, [r4, #68]	@ 0x44
 800533e:	f884 3045 	strb.w	r3, [r4, #69]	@ 0x45
  htim->State = HAL_TIM_STATE_READY;
 8005342:	f884 303d 	strb.w	r3, [r4, #61]	@ 0x3d
  return HAL_OK;
 8005346:	2000      	movs	r0, #0
}
 8005348:	bd10      	pop	{r4, pc}
    htim->Lock = HAL_UNLOCKED;
 800534a:	f880 303c 	strb.w	r3, [r0, #60]	@ 0x3c
    HAL_TIM_Base_MspInit(htim);
 800534e:	f001 fb55 	bl	80069fc <HAL_TIM_Base_MspInit>
 8005352:	e7db      	b.n	800530c <HAL_TIM_Base_Init+0xc>
    return HAL_ERROR;
 8005354:	2001      	movs	r0, #1
}
 8005356:	4770      	bx	lr

08005358 <HAL_TIM_PWM_Init>:
  if (htim == NULL)
 8005358:	b340      	cbz	r0, 80053ac <HAL_TIM_PWM_Init+0x54>
{
 800535a:	b510      	push	{r4, lr}
 800535c:	4604      	mov	r4, r0
  if (htim->State == HAL_TIM_STATE_RESET)
 800535e:	f890 303d 	ldrb.w	r3, [r0, #61]	@ 0x3d
 8005362:	b1f3      	cbz	r3, 80053a2 <HAL_TIM_PWM_Init+0x4a>
  htim->State = HAL_TIM_STATE_BUSY;
 8005364:	2302      	movs	r3, #2
 8005366:	f884 303d 	strb.w	r3, [r4, #61]	@ 0x3d
  TIM_Base_SetConfig(htim->Instance, &htim->Init);
 800536a:	4621      	mov	r1, r4
 800536c:	f851 0b04 	ldr.w	r0, [r1], #4
 8005370:	f7ff ff84 	bl	800527c <TIM_Base_SetConfig>
  htim->DMABurstState = HAL_DMA_BURST_STATE_READY;
 8005374:	2301      	movs	r3, #1
 8005376:	f884 3046 	strb.w	r3, [r4, #70]	@ 0x46
  TIM_CHANNEL_STATE_SET_ALL(htim, HAL_TIM_CHANNEL_STATE_READY);
 800537a:	f884 303e 	strb.w	r3, [r4, #62]	@ 0x3e
 800537e:	f884 303f 	strb.w	r3, [r4, #63]	@ 0x3f
 8005382:	f884 3040 	strb.w	r3, [r4, #64]	@ 0x40
 8005386:	f884 3041 	strb.w	r3, [r4, #65]	@ 0x41
  TIM_CHANNEL_N_STATE_SET_ALL(htim, HAL_TIM_CHANNEL_STATE_READY);
 800538a:	f884 3042 	strb.w	r3, [r4, #66]	@ 0x42
 800538e:	f884 3043 	strb.w	r3, [r4, #67]	@ 0x43
 8005392:	f884 3044 	strb.w	r3, [r4, #68]	@ 0x44
 8005396:	f884 3045 	strb.w	r3, [r4, #69]	@ 0x45
  htim->State = HAL_TIM_STATE_READY;
 800539a:	f884 303d 	strb.w	r3, [r4, #61]	@ 0x3d
  return HAL_OK;
 800539e:	2000      	movs	r0, #0
}
 80053a0:	bd10      	pop	{r4, pc}
    htim->Lock = HAL_UNLOCKED;
 80053a2:	f880 303c 	strb.w	r3, [r0, #60]	@ 0x3c
    HAL_TIM_PWM_MspInit(htim);
 80053a6:	f7ff feb4 	bl	8005112 <HAL_TIM_PWM_MspInit>
 80053aa:	e7db      	b.n	8005364 <HAL_TIM_PWM_Init+0xc>
    return HAL_ERROR;
 80053ac:	2001      	movs	r0, #1
}
 80053ae:	4770      	bx	lr

080053b0 <TIM_OC2_SetConfig>:
{
 80053b0:	b430      	push	{r4, r5}
  tmpccer = TIMx->CCER;
 80053b2:	6a03      	ldr	r3, [r0, #32]
  TIMx->CCER &= ~TIM_CCER_CC2E;
 80053b4:	6a02      	ldr	r2, [r0, #32]
 80053b6:	f022 0210 	bic.w	r2, r2, #16
 80053ba:	6202      	str	r2, [r0, #32]
  tmpcr2 =  TIMx->CR2;
 80053bc:	6844      	ldr	r4, [r0, #4]
  tmpccmrx = TIMx->CCMR1;
 80053be:	6982      	ldr	r2, [r0, #24]
  tmpccmrx &= ~TIM_CCMR1_CC2S;
 80053c0:	f422 42e6 	bic.w	r2, r2, #29440	@ 0x7300
  tmpccmrx |= (OC_Config->OCMode << 8U);
 80053c4:	680d      	ldr	r5, [r1, #0]
 80053c6:	ea42 2205 	orr.w	r2, r2, r5, lsl #8
  tmpccer &= ~TIM_CCER_CC2P;
 80053ca:	f023 0320 	bic.w	r3, r3, #32
  tmpccer |= (OC_Config->OCPolarity << 4U);
 80053ce:	688d      	ldr	r5, [r1, #8]
 80053d0:	ea43 1305 	orr.w	r3, r3, r5, lsl #4
  if (IS_TIM_CCXN_INSTANCE(TIMx, TIM_CHANNEL_2))
 80053d4:	4d0c      	ldr	r5, [pc, #48]	@ (8005408 <TIM_OC2_SetConfig+0x58>)
 80053d6:	42a8      	cmp	r0, r5
 80053d8:	d006      	beq.n	80053e8 <TIM_OC2_SetConfig+0x38>
  TIMx->CR2 = tmpcr2;
 80053da:	6044      	str	r4, [r0, #4]
  TIMx->CCMR1 = tmpccmrx;
 80053dc:	6182      	str	r2, [r0, #24]
  TIMx->CCR2 = OC_Config->Pulse;
 80053de:	684a      	ldr	r2, [r1, #4]
 80053e0:	6382      	str	r2, [r0, #56]	@ 0x38
  TIMx->CCER = tmpccer;
 80053e2:	6203      	str	r3, [r0, #32]
}
 80053e4:	bc30      	pop	{r4, r5}
 80053e6:	4770      	bx	lr
    tmpccer &= ~TIM_CCER_CC2NP;
 80053e8:	f023 0380 	bic.w	r3, r3, #128	@ 0x80
    tmpccer |= (OC_Config->OCNPolarity << 4U);
 80053ec:	68cd      	ldr	r5, [r1, #12]
 80053ee:	ea43 1305 	orr.w	r3, r3, r5, lsl #4
    tmpccer &= ~TIM_CCER_CC2NE;
 80053f2:	f023 0340 	bic.w	r3, r3, #64	@ 0x40
    tmpcr2 &= ~TIM_CR2_OIS2N;
 80053f6:	f424 6440 	bic.w	r4, r4, #3072	@ 0xc00
    tmpcr2 |= (OC_Config->OCIdleState << 2U);
 80053fa:	694d      	ldr	r5, [r1, #20]
 80053fc:	ea44 0485 	orr.w	r4, r4, r5, lsl #2
    tmpcr2 |= (OC_Config->OCNIdleState << 2U);
 8005400:	698d      	ldr	r5, [r1, #24]
 8005402:	ea44 0485 	orr.w	r4, r4, r5, lsl #2
 8005406:	e7e8      	b.n	80053da <TIM_OC2_SetConfig+0x2a>
 8005408:	40012c00 	.word	0x40012c00

0800540c <HAL_TIM_PWM_ConfigChannel>:
{
 800540c:	b538      	push	{r3, r4, r5, lr}
  __HAL_LOCK(htim);
 800540e:	f890 303c 	ldrb.w	r3, [r0, #60]	@ 0x3c
 8005412:	2b01      	cmp	r3, #1
 8005414:	d066      	beq.n	80054e4 <HAL_TIM_PWM_ConfigChannel+0xd8>
 8005416:	4604      	mov	r4, r0
 8005418:	460d      	mov	r5, r1
 800541a:	2301      	movs	r3, #1
 800541c:	f880 303c 	strb.w	r3, [r0, #60]	@ 0x3c
  switch (Channel)
 8005420:	2a0c      	cmp	r2, #12
 8005422:	d85a      	bhi.n	80054da <HAL_TIM_PWM_ConfigChannel+0xce>
 8005424:	e8df f002 	tbb	[pc, r2]
 8005428:	59595907 	.word	0x59595907
 800542c:	5959591b 	.word	0x5959591b
 8005430:	59595930 	.word	0x59595930
 8005434:	44          	.byte	0x44
 8005435:	00          	.byte	0x00
      TIM_OC1_SetConfig(htim->Instance, sConfig);
 8005436:	6800      	ldr	r0, [r0, #0]
 8005438:	f7ff fd74 	bl	8004f24 <TIM_OC1_SetConfig>
      htim->Instance->CCMR1 |= TIM_CCMR1_OC1PE;
 800543c:	6822      	ldr	r2, [r4, #0]
 800543e:	6993      	ldr	r3, [r2, #24]
 8005440:	f043 0308 	orr.w	r3, r3, #8
 8005444:	6193      	str	r3, [r2, #24]
      htim->Instance->CCMR1 &= ~TIM_CCMR1_OC1FE;
 8005446:	6822      	ldr	r2, [r4, #0]
 8005448:	6993      	ldr	r3, [r2, #24]
 800544a:	f023 0304 	bic.w	r3, r3, #4
 800544e:	6193      	str	r3, [r2, #24]
      htim->Instance->CCMR1 |= sConfig->OCFastMode;
 8005450:	6822      	ldr	r2, [r4, #0]
 8005452:	6993      	ldr	r3, [r2, #24]
 8005454:	6929      	ldr	r1, [r5, #16]
 8005456:	430b      	orrs	r3, r1
 8005458:	6193      	str	r3, [r2, #24]
  HAL_StatusTypeDef status = HAL_OK;
 800545a:	2000      	movs	r0, #0
      break;
 800545c:	e03e      	b.n	80054dc <HAL_TIM_PWM_ConfigChannel+0xd0>
      TIM_OC2_SetConfig(htim->Instance, sConfig);
 800545e:	6800      	ldr	r0, [r0, #0]
 8005460:	f7ff ffa6 	bl	80053b0 <TIM_OC2_SetConfig>
      htim->Instance->CCMR1 |= TIM_CCMR1_OC2PE;
 8005464:	6822      	ldr	r2, [r4, #0]
 8005466:	6993      	ldr	r3, [r2, #24]
 8005468:	f443 6300 	orr.w	r3, r3, #2048	@ 0x800
 800546c:	6193      	str	r3, [r2, #24]
      htim->Instance->CCMR1 &= ~TIM_CCMR1_OC2FE;
 800546e:	6822      	ldr	r2, [r4, #0]
 8005470:	6993      	ldr	r3, [r2, #24]
 8005472:	f423 6380 	bic.w	r3, r3, #1024	@ 0x400
 8005476:	6193      	str	r3, [r2, #24]
      htim->Instance->CCMR1 |= sConfig->OCFastMode << 8U;
 8005478:	6822      	ldr	r2, [r4, #0]
 800547a:	6993      	ldr	r3, [r2, #24]
 800547c:	6929      	ldr	r1, [r5, #16]
 800547e:	ea43 2301 	orr.w	r3, r3, r1, lsl #8
 8005482:	6193      	str	r3, [r2, #24]
  HAL_StatusTypeDef status = HAL_OK;
 8005484:	2000      	movs	r0, #0
      break;
 8005486:	e029      	b.n	80054dc <HAL_TIM_PWM_ConfigChannel+0xd0>
      TIM_OC3_SetConfig(htim->Instance, sConfig);
 8005488:	6800      	ldr	r0, [r0, #0]
 800548a:	f7ff fd75 	bl	8004f78 <TIM_OC3_SetConfig>
      htim->Instance->CCMR2 |= TIM_CCMR2_OC3PE;
 800548e:	6822      	ldr	r2, [r4, #0]
 8005490:	69d3      	ldr	r3, [r2, #28]
 8005492:	f043 0308 	orr.w	r3, r3, #8
 8005496:	61d3      	str	r3, [r2, #28]
      htim->Instance->CCMR2 &= ~TIM_CCMR2_OC3FE;
 8005498:	6822      	ldr	r2, [r4, #0]
 800549a:	69d3      	ldr	r3, [r2, #28]
 800549c:	f023 0304 	bic.w	r3, r3, #4
 80054a0:	61d3      	str	r3, [r2, #28]
      htim->Instance->CCMR2 |= sConfig->OCFastMode;
 80054a2:	6822      	ldr	r2, [r4, #0]
 80054a4:	69d3      	ldr	r3, [r2, #28]
 80054a6:	6929      	ldr	r1, [r5, #16]
 80054a8:	430b      	orrs	r3, r1
 80054aa:	61d3      	str	r3, [r2, #28]
  HAL_StatusTypeDef status = HAL_OK;
 80054ac:	2000      	movs	r0, #0
      break;
 80054ae:	e015      	b.n	80054dc <HAL_TIM_PWM_ConfigChannel+0xd0>
      TIM_OC4_SetConfig(htim->Instance, sConfig);
 80054b0:	6800      	ldr	r0, [r0, #0]
 80054b2:	f7ff fd8f 	bl	8004fd4 <TIM_OC4_SetConfig>
      htim->Instance->CCMR2 |= TIM_CCMR2_OC4PE;
 80054b6:	6822      	ldr	r2, [r4, #0]
 80054b8:	69d3      	ldr	r3, [r2, #28]
 80054ba:	f443 6300 	orr.w	r3, r3, #2048	@ 0x800
 80054be:	61d3      	str	r3, [r2, #28]
      htim->Instance->CCMR2 &= ~TIM_CCMR2_OC4FE;
 80054c0:	6822      	ldr	r2, [r4, #0]
 80054c2:	69d3      	ldr	r3, [r2, #28]
 80054c4:	f423 6380 	bic.w	r3, r3, #1024	@ 0x400
 80054c8:	61d3      	str	r3, [r2, #28]
      htim->Instance->CCMR2 |= sConfig->OCFastMode << 8U;
 80054ca:	6822      	ldr	r2, [r4, #0]
 80054cc:	69d3      	ldr	r3, [r2, #28]
 80054ce:	6929      	ldr	r1, [r5, #16]
 80054d0:	ea43 2301 	orr.w	r3, r3, r1, lsl #8
 80054d4:	61d3      	str	r3, [r2, #28]
  HAL_StatusTypeDef status = HAL_OK;
 80054d6:	2000      	movs	r0, #0
      break;
 80054d8:	e000      	b.n	80054dc <HAL_TIM_PWM_ConfigChannel+0xd0>
  switch (Channel)
 80054da:	2001      	movs	r0, #1
  __HAL_UNLOCK(htim);
 80054dc:	2300      	movs	r3, #0
 80054de:	f884 303c 	strb.w	r3, [r4, #60]	@ 0x3c
}
 80054e2:	bd38      	pop	{r3, r4, r5, pc}
  __HAL_LOCK(htim);
 80054e4:	2002      	movs	r0, #2
 80054e6:	e7fc      	b.n	80054e2 <HAL_TIM_PWM_ConfigChannel+0xd6>

080054e8 <TIM_ETR_SetConfig>:
  *          This parameter must be a value between 0x00 and 0x0F
  * @retval None
  */
void TIM_ETR_SetConfig(TIM_TypeDef *TIMx, uint32_t TIM_ExtTRGPrescaler,
                       uint32_t TIM_ExtTRGPolarity, uint32_t ExtTRGFilter)
{
 80054e8:	b410      	push	{r4}
  uint32_t tmpsmcr;

  tmpsmcr = TIMx->SMCR;
 80054ea:	6884      	ldr	r4, [r0, #8]

  /* Reset the ETR Bits */
  tmpsmcr &= ~(TIM_SMCR_ETF | TIM_SMCR_ETPS | TIM_SMCR_ECE | TIM_SMCR_ETP);
 80054ec:	f424 4c7f 	bic.w	ip, r4, #65280	@ 0xff00

  /* Set the Prescaler, the Filter value and the Polarity */
  tmpsmcr |= (uint32_t)(TIM_ExtTRGPrescaler | (TIM_ExtTRGPolarity | (ExtTRGFilter << 8U)));
 80054f0:	ea42 2203 	orr.w	r2, r2, r3, lsl #8
 80054f4:	430a      	orrs	r2, r1
 80054f6:	ea42 020c 	orr.w	r2, r2, ip

  /* Write to TIMx SMCR */
  TIMx->SMCR = tmpsmcr;
 80054fa:	6082      	str	r2, [r0, #8]
}
 80054fc:	bc10      	pop	{r4}
 80054fe:	4770      	bx	lr

08005500 <HAL_TIM_ConfigClockSource>:
  __HAL_LOCK(htim);
 8005500:	f890 303c 	ldrb.w	r3, [r0, #60]	@ 0x3c
 8005504:	2b01      	cmp	r3, #1
 8005506:	d078      	beq.n	80055fa <HAL_TIM_ConfigClockSource+0xfa>
{
 8005508:	b510      	push	{r4, lr}
 800550a:	4604      	mov	r4, r0
  __HAL_LOCK(htim);
 800550c:	2301      	movs	r3, #1
 800550e:	f880 303c 	strb.w	r3, [r0, #60]	@ 0x3c
  htim->State = HAL_TIM_STATE_BUSY;
 8005512:	2302      	movs	r3, #2
 8005514:	f880 303d 	strb.w	r3, [r0, #61]	@ 0x3d
  tmpsmcr = htim->Instance->SMCR;
 8005518:	6802      	ldr	r2, [r0, #0]
 800551a:	6893      	ldr	r3, [r2, #8]
  tmpsmcr &= ~(TIM_SMCR_ETF | TIM_SMCR_ETPS | TIM_SMCR_ECE | TIM_SMCR_ETP);
 800551c:	f423 437f 	bic.w	r3, r3, #65280	@ 0xff00
 8005520:	f023 0377 	bic.w	r3, r3, #119	@ 0x77
  htim->Instance->SMCR = tmpsmcr;
 8005524:	6093      	str	r3, [r2, #8]
  switch (sClockSourceConfig->ClockSource)
 8005526:	680b      	ldr	r3, [r1, #0]
 8005528:	2b60      	cmp	r3, #96	@ 0x60
 800552a:	d04c      	beq.n	80055c6 <HAL_TIM_ConfigClockSource+0xc6>
 800552c:	d823      	bhi.n	8005576 <HAL_TIM_ConfigClockSource+0x76>
 800552e:	2b40      	cmp	r3, #64	@ 0x40
 8005530:	d054      	beq.n	80055dc <HAL_TIM_ConfigClockSource+0xdc>
 8005532:	d811      	bhi.n	8005558 <HAL_TIM_ConfigClockSource+0x58>
 8005534:	2b20      	cmp	r3, #32
 8005536:	d003      	beq.n	8005540 <HAL_TIM_ConfigClockSource+0x40>
 8005538:	d80a      	bhi.n	8005550 <HAL_TIM_ConfigClockSource+0x50>
 800553a:	b10b      	cbz	r3, 8005540 <HAL_TIM_ConfigClockSource+0x40>
 800553c:	2b10      	cmp	r3, #16
 800553e:	d105      	bne.n	800554c <HAL_TIM_ConfigClockSource+0x4c>
      TIM_ITRx_SetConfig(htim->Instance, sClockSourceConfig->ClockSource);
 8005540:	4619      	mov	r1, r3
 8005542:	6820      	ldr	r0, [r4, #0]
 8005544:	f7ff fd8f 	bl	8005066 <TIM_ITRx_SetConfig>
  HAL_StatusTypeDef status = HAL_OK;
 8005548:	2000      	movs	r0, #0
      break;
 800554a:	e028      	b.n	800559e <HAL_TIM_ConfigClockSource+0x9e>
      status = HAL_ERROR;
 800554c:	2001      	movs	r0, #1
 800554e:	e026      	b.n	800559e <HAL_TIM_ConfigClockSource+0x9e>
  switch (sClockSourceConfig->ClockSource)
 8005550:	2b30      	cmp	r3, #48	@ 0x30
 8005552:	d0f5      	beq.n	8005540 <HAL_TIM_ConfigClockSource+0x40>
      status = HAL_ERROR;
 8005554:	2001      	movs	r0, #1
 8005556:	e022      	b.n	800559e <HAL_TIM_ConfigClockSource+0x9e>
  switch (sClockSourceConfig->ClockSource)
 8005558:	2b50      	cmp	r3, #80	@ 0x50
 800555a:	d10a      	bne.n	8005572 <HAL_TIM_ConfigClockSource+0x72>
      TIM_TI1_ConfigInputStage(htim->Instance,
 800555c:	68ca      	ldr	r2, [r1, #12]
 800555e:	6849      	ldr	r1, [r1, #4]
 8005560:	6800      	ldr	r0, [r0, #0]
 8005562:	f7ff fd5b 	bl	800501c <TIM_TI1_ConfigInputStage>
      TIM_ITRx_SetConfig(htim->Instance, TIM_CLOCKSOURCE_TI1);
 8005566:	2150      	movs	r1, #80	@ 0x50
 8005568:	6820      	ldr	r0, [r4, #0]
 800556a:	f7ff fd7c 	bl	8005066 <TIM_ITRx_SetConfig>
  HAL_StatusTypeDef status = HAL_OK;
 800556e:	2000      	movs	r0, #0
      break;
 8005570:	e015      	b.n	800559e <HAL_TIM_ConfigClockSource+0x9e>
      status = HAL_ERROR;
 8005572:	2001      	movs	r0, #1
 8005574:	e013      	b.n	800559e <HAL_TIM_ConfigClockSource+0x9e>
  switch (sClockSourceConfig->ClockSource)
 8005576:	f5b3 5f80 	cmp.w	r3, #4096	@ 0x1000
 800557a:	d03a      	beq.n	80055f2 <HAL_TIM_ConfigClockSource+0xf2>
 800557c:	f5b3 5f00 	cmp.w	r3, #8192	@ 0x2000
 8005580:	d014      	beq.n	80055ac <HAL_TIM_ConfigClockSource+0xac>
 8005582:	2b70      	cmp	r3, #112	@ 0x70
 8005584:	d137      	bne.n	80055f6 <HAL_TIM_ConfigClockSource+0xf6>
      TIM_ETR_SetConfig(htim->Instance,
 8005586:	68cb      	ldr	r3, [r1, #12]
 8005588:	684a      	ldr	r2, [r1, #4]
 800558a:	6889      	ldr	r1, [r1, #8]
 800558c:	6800      	ldr	r0, [r0, #0]
 800558e:	f7ff ffab 	bl	80054e8 <TIM_ETR_SetConfig>
      tmpsmcr = htim->Instance->SMCR;
 8005592:	6822      	ldr	r2, [r4, #0]
 8005594:	6893      	ldr	r3, [r2, #8]
      tmpsmcr |= (TIM_SLAVEMODE_EXTERNAL1 | TIM_CLOCKSOURCE_ETRMODE1);
 8005596:	f043 0377 	orr.w	r3, r3, #119	@ 0x77
      htim->Instance->SMCR = tmpsmcr;
 800559a:	6093      	str	r3, [r2, #8]
  HAL_StatusTypeDef status = HAL_OK;
 800559c:	2000      	movs	r0, #0
  htim->State = HAL_TIM_STATE_READY;
 800559e:	2301      	movs	r3, #1
 80055a0:	f884 303d 	strb.w	r3, [r4, #61]	@ 0x3d
  __HAL_UNLOCK(htim);
 80055a4:	2300      	movs	r3, #0
 80055a6:	f884 303c 	strb.w	r3, [r4, #60]	@ 0x3c
}
 80055aa:	bd10      	pop	{r4, pc}
      TIM_ETR_SetConfig(htim->Instance,
 80055ac:	68cb      	ldr	r3, [r1, #12]
 80055ae:	684a      	ldr	r2, [r1, #4]
 80055b0:	6889      	ldr	r1, [r1, #8]
 80055b2:	6800      	ldr	r0, [r0, #0]
 80055b4:	f7ff ff98 	bl	80054e8 <TIM_ETR_SetConfig>
      htim->Instance->SMCR |= TIM_SMCR_ECE;
 80055b8:	6822      	ldr	r2, [r4, #0]
 80055ba:	6893      	ldr	r3, [r2, #8]
 80055bc:	f443 4380 	orr.w	r3, r3, #16384	@ 0x4000
 80055c0:	6093      	str	r3, [r2, #8]
  HAL_StatusTypeDef status = HAL_OK;
 80055c2:	2000      	movs	r0, #0
      break;
 80055c4:	e7eb      	b.n	800559e <HAL_TIM_ConfigClockSource+0x9e>
      TIM_TI2_ConfigInputStage(htim->Instance,
 80055c6:	68ca      	ldr	r2, [r1, #12]
 80055c8:	6849      	ldr	r1, [r1, #4]
 80055ca:	6800      	ldr	r0, [r0, #0]
 80055cc:	f7ff fd38 	bl	8005040 <TIM_TI2_ConfigInputStage>
      TIM_ITRx_SetConfig(htim->Instance, TIM_CLOCKSOURCE_TI2);
 80055d0:	2160      	movs	r1, #96	@ 0x60
 80055d2:	6820      	ldr	r0, [r4, #0]
 80055d4:	f7ff fd47 	bl	8005066 <TIM_ITRx_SetConfig>
  HAL_StatusTypeDef status = HAL_OK;
 80055d8:	2000      	movs	r0, #0
      break;
 80055da:	e7e0      	b.n	800559e <HAL_TIM_ConfigClockSource+0x9e>
      TIM_TI1_ConfigInputStage(htim->Instance,
 80055dc:	68ca      	ldr	r2, [r1, #12]
 80055de:	6849      	ldr	r1, [r1, #4]
 80055e0:	6800      	ldr	r0, [r0, #0]
 80055e2:	f7ff fd1b 	bl	800501c <TIM_TI1_ConfigInputStage>
      TIM_ITRx_SetConfig(htim->Instance, TIM_CLOCKSOURCE_TI1ED);
 80055e6:	2140      	movs	r1, #64	@ 0x40
 80055e8:	6820      	ldr	r0, [r4, #0]
 80055ea:	f7ff fd3c 	bl	8005066 <TIM_ITRx_SetConfig>
  HAL_StatusTypeDef status = HAL_OK;
 80055ee:	2000      	movs	r0, #0
      break;
 80055f0:	e7d5      	b.n	800559e <HAL_TIM_ConfigClockSource+0x9e>
  switch (sClockSourceConfig->ClockSource)
 80055f2:	2000      	movs	r0, #0
 80055f4:	e7d3      	b.n	800559e <HAL_TIM_ConfigClockSource+0x9e>
      status = HAL_ERROR;
 80055f6:	2001      	movs	r0, #1
 80055f8:	e7d1      	b.n	800559e <HAL_TIM_ConfigClockSource+0x9e>
  __HAL_LOCK(htim);
 80055fa:	2002      	movs	r0, #2
}
 80055fc:	4770      	bx	lr

080055fe <TIM_CCxChannelCmd>:

  /* Check the parameters */
  assert_param(IS_TIM_CC1_INSTANCE(TIMx));
  assert_param(IS_TIM_CHANNELS(Channel));

  tmp = TIM_CCER_CC1E << (Channel & 0x1FU); /* 0x1FU = 31 bits max shift */
 80055fe:	f001 011f 	and.w	r1, r1, #31
 8005602:	f04f 0c01 	mov.w	ip, #1
 8005606:	fa0c fc01 	lsl.w	ip, ip, r1

  /* Reset the CCxE Bit */
  TIMx->CCER &= ~tmp;
 800560a:	6a03      	ldr	r3, [r0, #32]
 800560c:	ea23 030c 	bic.w	r3, r3, ip
 8005610:	6203      	str	r3, [r0, #32]

  /* Set or reset the CCxE Bit */
  TIMx->CCER |= (uint32_t)(ChannelState << (Channel & 0x1FU)); /* 0x1FU = 31 bits max shift */
 8005612:	6a03      	ldr	r3, [r0, #32]
 8005614:	408a      	lsls	r2, r1
 8005616:	4313      	orrs	r3, r2
 8005618:	6203      	str	r3, [r0, #32]
}
 800561a:	4770      	bx	lr

0800561c <HAL_TIM_PWM_Start>:
{
 800561c:	b510      	push	{r4, lr}
 800561e:	4604      	mov	r4, r0
  if (TIM_CHANNEL_STATE_GET(htim, Channel) != HAL_TIM_CHANNEL_STATE_READY)
 8005620:	4608      	mov	r0, r1
 8005622:	bb51      	cbnz	r1, 800567a <HAL_TIM_PWM_Start+0x5e>
 8005624:	f894 303e 	ldrb.w	r3, [r4, #62]	@ 0x3e
 8005628:	b2db      	uxtb	r3, r3
 800562a:	3b01      	subs	r3, #1
 800562c:	bf18      	it	ne
 800562e:	2301      	movne	r3, #1
 8005630:	2b00      	cmp	r3, #0
 8005632:	d15b      	bne.n	80056ec <HAL_TIM_PWM_Start+0xd0>
  TIM_CHANNEL_STATE_SET(htim, Channel, HAL_TIM_CHANNEL_STATE_BUSY);
 8005634:	2800      	cmp	r0, #0
 8005636:	d139      	bne.n	80056ac <HAL_TIM_PWM_Start+0x90>
 8005638:	2302      	movs	r3, #2
 800563a:	f884 303e 	strb.w	r3, [r4, #62]	@ 0x3e
  TIM_CCxChannelCmd(htim->Instance, Channel, TIM_CCx_ENABLE);
 800563e:	2201      	movs	r2, #1
 8005640:	4601      	mov	r1, r0
 8005642:	6820      	ldr	r0, [r4, #0]
 8005644:	f7ff ffdb 	bl	80055fe <TIM_CCxChannelCmd>
  if (IS_TIM_BREAK_INSTANCE(htim->Instance) != RESET)
 8005648:	6823      	ldr	r3, [r4, #0]
 800564a:	4a2a      	ldr	r2, [pc, #168]	@ (80056f4 <HAL_TIM_PWM_Start+0xd8>)
 800564c:	4293      	cmp	r3, r2
 800564e:	d03d      	beq.n	80056cc <HAL_TIM_PWM_Start+0xb0>
  if (IS_TIM_SLAVE_INSTANCE(htim->Instance))
 8005650:	6823      	ldr	r3, [r4, #0]
 8005652:	4a28      	ldr	r2, [pc, #160]	@ (80056f4 <HAL_TIM_PWM_Start+0xd8>)
 8005654:	4293      	cmp	r3, r2
 8005656:	d03e      	beq.n	80056d6 <HAL_TIM_PWM_Start+0xba>
 8005658:	f1b3 4f80 	cmp.w	r3, #1073741824	@ 0x40000000
 800565c:	d03b      	beq.n	80056d6 <HAL_TIM_PWM_Start+0xba>
 800565e:	f5a2 3294 	sub.w	r2, r2, #75776	@ 0x12800
 8005662:	4293      	cmp	r3, r2
 8005664:	d037      	beq.n	80056d6 <HAL_TIM_PWM_Start+0xba>
 8005666:	f502 6280 	add.w	r2, r2, #1024	@ 0x400
 800566a:	4293      	cmp	r3, r2
 800566c:	d033      	beq.n	80056d6 <HAL_TIM_PWM_Start+0xba>
    __HAL_TIM_ENABLE(htim);
 800566e:	681a      	ldr	r2, [r3, #0]
 8005670:	f042 0201 	orr.w	r2, r2, #1
 8005674:	601a      	str	r2, [r3, #0]
  return HAL_OK;
 8005676:	2000      	movs	r0, #0
 8005678:	e039      	b.n	80056ee <HAL_TIM_PWM_Start+0xd2>
  if (TIM_CHANNEL_STATE_GET(htim, Channel) != HAL_TIM_CHANNEL_STATE_READY)
 800567a:	2904      	cmp	r1, #4
 800567c:	d008      	beq.n	8005690 <HAL_TIM_PWM_Start+0x74>
 800567e:	2908      	cmp	r1, #8
 8005680:	d00d      	beq.n	800569e <HAL_TIM_PWM_Start+0x82>
 8005682:	f894 3041 	ldrb.w	r3, [r4, #65]	@ 0x41
 8005686:	b2db      	uxtb	r3, r3
 8005688:	3b01      	subs	r3, #1
 800568a:	bf18      	it	ne
 800568c:	2301      	movne	r3, #1
 800568e:	e7cf      	b.n	8005630 <HAL_TIM_PWM_Start+0x14>
 8005690:	f894 303f 	ldrb.w	r3, [r4, #63]	@ 0x3f
 8005694:	b2db      	uxtb	r3, r3
 8005696:	3b01      	subs	r3, #1
 8005698:	bf18      	it	ne
 800569a:	2301      	movne	r3, #1
 800569c:	e7c8      	b.n	8005630 <HAL_TIM_PWM_Start+0x14>
 800569e:	f894 3040 	ldrb.w	r3, [r4, #64]	@ 0x40
 80056a2:	b2db      	uxtb	r3, r3
 80056a4:	3b01      	subs	r3, #1
 80056a6:	bf18      	it	ne
 80056a8:	2301      	movne	r3, #1
 80056aa:	e7c1      	b.n	8005630 <HAL_TIM_PWM_Start+0x14>
  TIM_CHANNEL_STATE_SET(htim, Channel, HAL_TIM_CHANNEL_STATE_BUSY);
 80056ac:	2804      	cmp	r0, #4
 80056ae:	d005      	beq.n	80056bc <HAL_TIM_PWM_Start+0xa0>
 80056b0:	2808      	cmp	r0, #8
 80056b2:	d007      	beq.n	80056c4 <HAL_TIM_PWM_Start+0xa8>
 80056b4:	2302      	movs	r3, #2
 80056b6:	f884 3041 	strb.w	r3, [r4, #65]	@ 0x41
 80056ba:	e7c0      	b.n	800563e <HAL_TIM_PWM_Start+0x22>
 80056bc:	2302      	movs	r3, #2
 80056be:	f884 303f 	strb.w	r3, [r4, #63]	@ 0x3f
 80056c2:	e7bc      	b.n	800563e <HAL_TIM_PWM_Start+0x22>
 80056c4:	2302      	movs	r3, #2
 80056c6:	f884 3040 	strb.w	r3, [r4, #64]	@ 0x40
 80056ca:	e7b8      	b.n	800563e <HAL_TIM_PWM_Start+0x22>
    __HAL_TIM_MOE_ENABLE(htim);
 80056cc:	6c5a      	ldr	r2, [r3, #68]	@ 0x44
 80056ce:	f442 4200 	orr.w	r2, r2, #32768	@ 0x8000
 80056d2:	645a      	str	r2, [r3, #68]	@ 0x44
 80056d4:	e7bc      	b.n	8005650 <HAL_TIM_PWM_Start+0x34>
    tmpsmcr = htim->Instance->SMCR & TIM_SMCR_SMS;
 80056d6:	689a      	ldr	r2, [r3, #8]
 80056d8:	f002 0207 	and.w	r2, r2, #7
    if (!IS_TIM_SLAVEMODE_TRIGGER_ENABLED(tmpsmcr))
 80056dc:	2a06      	cmp	r2, #6
 80056de:	d007      	beq.n	80056f0 <HAL_TIM_PWM_Start+0xd4>
      __HAL_TIM_ENABLE(htim);
 80056e0:	681a      	ldr	r2, [r3, #0]
 80056e2:	f042 0201 	orr.w	r2, r2, #1
 80056e6:	601a      	str	r2, [r3, #0]
  return HAL_OK;
 80056e8:	2000      	movs	r0, #0
 80056ea:	e000      	b.n	80056ee <HAL_TIM_PWM_Start+0xd2>
    return HAL_ERROR;
 80056ec:	2001      	movs	r0, #1
}
 80056ee:	bd10      	pop	{r4, pc}
  return HAL_OK;
 80056f0:	2000      	movs	r0, #0
 80056f2:	e7fc      	b.n	80056ee <HAL_TIM_PWM_Start+0xd2>
 80056f4:	40012c00 	.word	0x40012c00

080056f8 <TIM_CCxNChannelCmd>:
  */
static void TIM_CCxNChannelCmd(TIM_TypeDef *TIMx, uint32_t Channel, uint32_t ChannelNState)
{
  uint32_t tmp;

  tmp = TIM_CCER_CC1NE << (Channel & 0xFU); /* 0xFU = 15 bits max shift */
 80056f8:	f001 010f 	and.w	r1, r1, #15
 80056fc:	f04f 0c04 	mov.w	ip, #4
 8005700:	fa0c fc01 	lsl.w	ip, ip, r1

  /* Reset the CCxNE Bit */
  TIMx->CCER &=  ~tmp;
 8005704:	6a03      	ldr	r3, [r0, #32]
 8005706:	ea23 030c 	bic.w	r3, r3, ip
 800570a:	6203      	str	r3, [r0, #32]

  /* Set or reset the CCxNE Bit */
  TIMx->CCER |= (uint32_t)(ChannelNState << (Channel & 0xFU)); /* 0xFU = 15 bits max shift */
 800570c:	6a03      	ldr	r3, [r0, #32]
 800570e:	408a      	lsls	r2, r1
 8005710:	4313      	orrs	r3, r2
 8005712:	6203      	str	r3, [r0, #32]
}
 8005714:	4770      	bx	lr
	...

08005718 <HAL_TIMEx_PWMN_Start>:
{
 8005718:	b510      	push	{r4, lr}
 800571a:	4604      	mov	r4, r0
  if (TIM_CHANNEL_N_STATE_GET(htim, Channel) != HAL_TIM_CHANNEL_STATE_READY)
 800571c:	4608      	mov	r0, r1
 800571e:	bb59      	cbnz	r1, 8005778 <HAL_TIMEx_PWMN_Start+0x60>
 8005720:	f894 3042 	ldrb.w	r3, [r4, #66]	@ 0x42
 8005724:	b2db      	uxtb	r3, r3
 8005726:	3b01      	subs	r3, #1
 8005728:	bf18      	it	ne
 800572a:	2301      	movne	r3, #1
 800572c:	2b00      	cmp	r3, #0
 800572e:	d157      	bne.n	80057e0 <HAL_TIMEx_PWMN_Start+0xc8>
  TIM_CHANNEL_N_STATE_SET(htim, Channel, HAL_TIM_CHANNEL_STATE_BUSY);
 8005730:	2800      	cmp	r0, #0
 8005732:	d13a      	bne.n	80057aa <HAL_TIMEx_PWMN_Start+0x92>
 8005734:	2302      	movs	r3, #2
 8005736:	f884 3042 	strb.w	r3, [r4, #66]	@ 0x42
  TIM_CCxNChannelCmd(htim->Instance, Channel, TIM_CCxN_ENABLE);
 800573a:	2204      	movs	r2, #4
 800573c:	4601      	mov	r1, r0
 800573e:	6820      	ldr	r0, [r4, #0]
 8005740:	f7ff ffda 	bl	80056f8 <TIM_CCxNChannelCmd>
  __HAL_TIM_MOE_ENABLE(htim);
 8005744:	6822      	ldr	r2, [r4, #0]
 8005746:	6c53      	ldr	r3, [r2, #68]	@ 0x44
 8005748:	f443 4300 	orr.w	r3, r3, #32768	@ 0x8000
 800574c:	6453      	str	r3, [r2, #68]	@ 0x44
  if (IS_TIM_SLAVE_INSTANCE(htim->Instance))
 800574e:	6823      	ldr	r3, [r4, #0]
 8005750:	4a25      	ldr	r2, [pc, #148]	@ (80057e8 <HAL_TIMEx_PWMN_Start+0xd0>)
 8005752:	4293      	cmp	r3, r2
 8005754:	d039      	beq.n	80057ca <HAL_TIMEx_PWMN_Start+0xb2>
 8005756:	f1b3 4f80 	cmp.w	r3, #1073741824	@ 0x40000000
 800575a:	d036      	beq.n	80057ca <HAL_TIMEx_PWMN_Start+0xb2>
 800575c:	f5a2 3294 	sub.w	r2, r2, #75776	@ 0x12800
 8005760:	4293      	cmp	r3, r2
 8005762:	d032      	beq.n	80057ca <HAL_TIMEx_PWMN_Start+0xb2>
 8005764:	f502 6280 	add.w	r2, r2, #1024	@ 0x400
 8005768:	4293      	cmp	r3, r2
 800576a:	d02e      	beq.n	80057ca <HAL_TIMEx_PWMN_Start+0xb2>
    __HAL_TIM_ENABLE(htim);
 800576c:	681a      	ldr	r2, [r3, #0]
 800576e:	f042 0201 	orr.w	r2, r2, #1
 8005772:	601a      	str	r2, [r3, #0]
  return HAL_OK;
 8005774:	2000      	movs	r0, #0
 8005776:	e034      	b.n	80057e2 <HAL_TIMEx_PWMN_Start+0xca>
  if (TIM_CHANNEL_N_STATE_GET(htim, Channel) != HAL_TIM_CHANNEL_STATE_READY)
 8005778:	2904      	cmp	r1, #4
 800577a:	d008      	beq.n	800578e <HAL_TIMEx_PWMN_Start+0x76>
 800577c:	2908      	cmp	r1, #8
 800577e:	d00d      	beq.n	800579c <HAL_TIMEx_PWMN_Start+0x84>
 8005780:	f894 3045 	ldrb.w	r3, [r4, #69]	@ 0x45
 8005784:	b2db      	uxtb	r3, r3
 8005786:	3b01      	subs	r3, #1
 8005788:	bf18      	it	ne
 800578a:	2301      	movne	r3, #1
 800578c:	e7ce      	b.n	800572c <HAL_TIMEx_PWMN_Start+0x14>
 800578e:	f894 3043 	ldrb.w	r3, [r4, #67]	@ 0x43
 8005792:	b2db      	uxtb	r3, r3
 8005794:	3b01      	subs	r3, #1
 8005796:	bf18      	it	ne
 8005798:	2301      	movne	r3, #1
 800579a:	e7c7      	b.n	800572c <HAL_TIMEx_PWMN_Start+0x14>
 800579c:	f894 3044 	ldrb.w	r3, [r4, #68]	@ 0x44
 80057a0:	b2db      	uxtb	r3, r3
 80057a2:	3b01      	subs	r3, #1
 80057a4:	bf18      	it	ne
 80057a6:	2301      	movne	r3, #1
 80057a8:	e7c0      	b.n	800572c <HAL_TIMEx_PWMN_Start+0x14>
  TIM_CHANNEL_N_STATE_SET(htim, Channel, HAL_TIM_CHANNEL_STATE_BUSY);
 80057aa:	2804      	cmp	r0, #4
 80057ac:	d005      	beq.n	80057ba <HAL_TIMEx_PWMN_Start+0xa2>
 80057ae:	2808      	cmp	r0, #8
 80057b0:	d007      	beq.n	80057c2 <HAL_TIMEx_PWMN_Start+0xaa>
 80057b2:	2302      	movs	r3, #2
 80057b4:	f884 3045 	strb.w	r3, [r4, #69]	@ 0x45
 80057b8:	e7bf      	b.n	800573a <HAL_TIMEx_PWMN_Start+0x22>
 80057ba:	2302      	movs	r3, #2
 80057bc:	f884 3043 	strb.w	r3, [r4, #67]	@ 0x43
 80057c0:	e7bb      	b.n	800573a <HAL_TIMEx_PWMN_Start+0x22>
 80057c2:	2302      	movs	r3, #2
 80057c4:	f884 3044 	strb.w	r3, [r4, #68]	@ 0x44
 80057c8:	e7b7      	b.n	800573a <HAL_TIMEx_PWMN_Start+0x22>
    tmpsmcr = htim->Instance->SMCR & TIM_SMCR_SMS;
 80057ca:	689a      	ldr	r2, [r3, #8]
 80057cc:	f002 0207 	and.w	r2, r2, #7
    if (!IS_TIM_SLAVEMODE_TRIGGER_ENABLED(tmpsmcr))
 80057d0:	2a06      	cmp	r2, #6
 80057d2:	d007      	beq.n	80057e4 <HAL_TIMEx_PWMN_Start+0xcc>
      __HAL_TIM_ENABLE(htim);
 80057d4:	681a      	ldr	r2, [r3, #0]
 80057d6:	f042 0201 	orr.w	r2, r2, #1
 80057da:	601a      	str	r2, [r3, #0]
  return HAL_OK;
 80057dc:	2000      	movs	r0, #0
 80057de:	e000      	b.n	80057e2 <HAL_TIMEx_PWMN_Start+0xca>
    return HAL_ERROR;
 80057e0:	2001      	movs	r0, #1
}
 80057e2:	bd10      	pop	{r4, pc}
  return HAL_OK;
 80057e4:	2000      	movs	r0, #0
 80057e6:	e7fc      	b.n	80057e2 <HAL_TIMEx_PWMN_Start+0xca>
 80057e8:	40012c00 	.word	0x40012c00

080057ec <HAL_TIMEx_MasterConfigSynchronization>:
  __HAL_LOCK(htim);
 80057ec:	f890 203c 	ldrb.w	r2, [r0, #60]	@ 0x3c
 80057f0:	2a01      	cmp	r2, #1
 80057f2:	d02c      	beq.n	800584e <HAL_TIMEx_MasterConfigSynchronization+0x62>
{
 80057f4:	b410      	push	{r4}
 80057f6:	4603      	mov	r3, r0
  __HAL_LOCK(htim);
 80057f8:	2201      	movs	r2, #1
 80057fa:	f880 203c 	strb.w	r2, [r0, #60]	@ 0x3c
  htim->State = HAL_TIM_STATE_BUSY;
 80057fe:	2202      	movs	r2, #2
 8005800:	f880 203d 	strb.w	r2, [r0, #61]	@ 0x3d
  tmpcr2 = htim->Instance->CR2;
 8005804:	6802      	ldr	r2, [r0, #0]
 8005806:	6850      	ldr	r0, [r2, #4]
  tmpsmcr = htim->Instance->SMCR;
 8005808:	6894      	ldr	r4, [r2, #8]
  tmpcr2 &= ~TIM_CR2_MMS;
 800580a:	f020 0c70 	bic.w	ip, r0, #112	@ 0x70
  tmpcr2 |=  sMasterConfig->MasterOutputTrigger;
 800580e:	6808      	ldr	r0, [r1, #0]
 8005810:	ea40 000c 	orr.w	r0, r0, ip
  htim->Instance->CR2 = tmpcr2;
 8005814:	6050      	str	r0, [r2, #4]
  if (IS_TIM_SLAVE_INSTANCE(htim->Instance))
 8005816:	681a      	ldr	r2, [r3, #0]
 8005818:	480e      	ldr	r0, [pc, #56]	@ (8005854 <HAL_TIMEx_MasterConfigSynchronization+0x68>)
 800581a:	4282      	cmp	r2, r0
 800581c:	d00a      	beq.n	8005834 <HAL_TIMEx_MasterConfigSynchronization+0x48>
 800581e:	f1b2 4f80 	cmp.w	r2, #1073741824	@ 0x40000000
 8005822:	d007      	beq.n	8005834 <HAL_TIMEx_MasterConfigSynchronization+0x48>
 8005824:	f5a0 3094 	sub.w	r0, r0, #75776	@ 0x12800
 8005828:	4282      	cmp	r2, r0
 800582a:	d003      	beq.n	8005834 <HAL_TIMEx_MasterConfigSynchronization+0x48>
 800582c:	f500 6080 	add.w	r0, r0, #1024	@ 0x400
 8005830:	4282      	cmp	r2, r0
 8005832:	d104      	bne.n	800583e <HAL_TIMEx_MasterConfigSynchronization+0x52>
    tmpsmcr &= ~TIM_SMCR_MSM;
 8005834:	f024 0480 	bic.w	r4, r4, #128	@ 0x80
    tmpsmcr |= sMasterConfig->MasterSlaveMode;
 8005838:	6849      	ldr	r1, [r1, #4]
 800583a:	4321      	orrs	r1, r4
    htim->Instance->SMCR = tmpsmcr;
 800583c:	6091      	str	r1, [r2, #8]
  htim->State = HAL_TIM_STATE_READY;
 800583e:	2201      	movs	r2, #1
 8005840:	f883 203d 	strb.w	r2, [r3, #61]	@ 0x3d
  __HAL_UNLOCK(htim);
 8005844:	2000      	movs	r0, #0
 8005846:	f883 003c 	strb.w	r0, [r3, #60]	@ 0x3c
}
 800584a:	bc10      	pop	{r4}
 800584c:	4770      	bx	lr
  __HAL_LOCK(htim);
 800584e:	2002      	movs	r0, #2
}
 8005850:	4770      	bx	lr
 8005852:	bf00      	nop
 8005854:	40012c00 	.word	0x40012c00

08005858 <HAL_TIMEx_ConfigBreakDeadTime>:
{
 8005858:	4602      	mov	r2, r0
  __HAL_LOCK(htim);
 800585a:	f890 303c 	ldrb.w	r3, [r0, #60]	@ 0x3c
 800585e:	2b01      	cmp	r3, #1
 8005860:	d021      	beq.n	80058a6 <HAL_TIMEx_ConfigBreakDeadTime+0x4e>
 8005862:	2301      	movs	r3, #1
 8005864:	f880 303c 	strb.w	r3, [r0, #60]	@ 0x3c
  MODIFY_REG(tmpbdtr, TIM_BDTR_DTG, sBreakDeadTimeConfig->DeadTime);
 8005868:	68cb      	ldr	r3, [r1, #12]
  MODIFY_REG(tmpbdtr, TIM_BDTR_LOCK, sBreakDeadTimeConfig->LockLevel);
 800586a:	f423 7340 	bic.w	r3, r3, #768	@ 0x300
 800586e:	6888      	ldr	r0, [r1, #8]
 8005870:	4303      	orrs	r3, r0
  MODIFY_REG(tmpbdtr, TIM_BDTR_OSSI, sBreakDeadTimeConfig->OffStateIDLEMode);
 8005872:	f423 6380 	bic.w	r3, r3, #1024	@ 0x400
 8005876:	6848      	ldr	r0, [r1, #4]
 8005878:	4303      	orrs	r3, r0
  MODIFY_REG(tmpbdtr, TIM_BDTR_OSSR, sBreakDeadTimeConfig->OffStateRunMode);
 800587a:	f423 6300 	bic.w	r3, r3, #2048	@ 0x800
 800587e:	6808      	ldr	r0, [r1, #0]
 8005880:	4303      	orrs	r3, r0
  MODIFY_REG(tmpbdtr, TIM_BDTR_BKE, sBreakDeadTimeConfig->BreakState);
 8005882:	f423 5380 	bic.w	r3, r3, #4096	@ 0x1000
 8005886:	6908      	ldr	r0, [r1, #16]
 8005888:	4303      	orrs	r3, r0
  MODIFY_REG(tmpbdtr, TIM_BDTR_BKP, sBreakDeadTimeConfig->BreakPolarity);
 800588a:	f423 5300 	bic.w	r3, r3, #8192	@ 0x2000
 800588e:	6948      	ldr	r0, [r1, #20]
 8005890:	4303      	orrs	r3, r0
  MODIFY_REG(tmpbdtr, TIM_BDTR_AOE, sBreakDeadTimeConfig->AutomaticOutput);
 8005892:	f423 4380 	bic.w	r3, r3, #16384	@ 0x4000
 8005896:	69c9      	ldr	r1, [r1, #28]
 8005898:	430b      	orrs	r3, r1
  htim->Instance->BDTR = tmpbdtr;
 800589a:	6811      	ldr	r1, [r2, #0]
 800589c:	644b      	str	r3, [r1, #68]	@ 0x44
  __HAL_UNLOCK(htim);
 800589e:	2000      	movs	r0, #0
 80058a0:	f882 003c 	strb.w	r0, [r2, #60]	@ 0x3c
  return HAL_OK;
 80058a4:	4770      	bx	lr
  __HAL_LOCK(htim);
 80058a6:	2002      	movs	r0, #2
}
 80058a8:	4770      	bx	lr

080058aa <HAL_TIMEx_CommutCallback>:
}
 80058aa:	4770      	bx	lr

080058ac <HAL_TIMEx_BreakCallback>:
}
 80058ac:	4770      	bx	lr

080058ae <NMI_Handler>:
{
  /* USER CODE BEGIN NonMaskableInt_IRQn 0 */

  /* USER CODE END NonMaskableInt_IRQn 0 */
  /* USER CODE BEGIN NonMaskableInt_IRQn 1 */
   while (1)
 80058ae:	e7fe      	b.n	80058ae <NMI_Handler>

080058b0 <HardFault_Handler>:
void HardFault_Handler(void)
{
  /* USER CODE BEGIN HardFault_IRQn 0 */

  /* USER CODE END HardFault_IRQn 0 */
  while (1)
 80058b0:	e7fe      	b.n	80058b0 <HardFault_Handler>

080058b2 <MemManage_Handler>:
void MemManage_Handler(void)
{
  /* USER CODE BEGIN MemoryManagement_IRQn 0 */

  /* USER CODE END MemoryManagement_IRQn 0 */
  while (1)
 80058b2:	e7fe      	b.n	80058b2 <MemManage_Handler>

080058b4 <BusFault_Handler>:
void BusFault_Handler(void)
{
  /* USER CODE BEGIN BusFault_IRQn 0 */

  /* USER CODE END BusFault_IRQn 0 */
  while (1)
 80058b4:	e7fe      	b.n	80058b4 <BusFault_Handler>

080058b6 <UsageFault_Handler>:
void UsageFault_Handler(void)
{
  /* USER CODE BEGIN UsageFault_IRQn 0 */

  /* USER CODE END UsageFault_IRQn 0 */
  while (1)
 80058b6:	e7fe      	b.n	80058b6 <UsageFault_Handler>

080058b8 <SVC_Handler>:

  /* USER CODE END SVCall_IRQn 0 */
  /* USER CODE BEGIN SVCall_IRQn 1 */

  /* USER CODE END SVCall_IRQn 1 */
}
 80058b8:	4770      	bx	lr

080058ba <DebugMon_Handler>:

  /* USER CODE END DebugMonitor_IRQn 0 */
  /* USER CODE BEGIN DebugMonitor_IRQn 1 */

  /* USER CODE END DebugMonitor_IRQn 1 */
}
 80058ba:	4770      	bx	lr

080058bc <PendSV_Handler>:

  /* USER CODE END PendSV_IRQn 0 */
  /* USER CODE BEGIN PendSV_IRQn 1 */

  /* USER CODE END PendSV_IRQn 1 */
}
 80058bc:	4770      	bx	lr

080058be <SysTick_Handler>:

/**
  * @brief This function handles System tick timer.
  */
void SysTick_Handler(void)
{
 80058be:	b508      	push	{r3, lr}
  /* USER CODE BEGIN SysTick_IRQn 0 */

  /* USER CODE END SysTick_IRQn 0 */
  HAL_IncTick();
 80058c0:	f7fd fa08 	bl	8002cd4 <HAL_IncTick>
  /* USER CODE BEGIN SysTick_IRQn 1 */

  /* USER CODE END SysTick_IRQn 1 */
}
 80058c4:	bd08      	pop	{r3, pc}

080058c6 <EXTI0_IRQHandler>:

/**
  * @brief This function handles EXTI line0 interrupt.
  */
void EXTI0_IRQHandler(void)
{
 80058c6:	b508      	push	{r3, lr}
  /* USER CODE BEGIN EXTI0_IRQn 0 */

  /* USER CODE END EXTI0_IRQn 0 */
  HAL_GPIO_EXTI_IRQHandler(HALL_1_Pin);
 80058c8:	2001      	movs	r0, #1
 80058ca:	f7fd ff4f 	bl	800376c <HAL_GPIO_EXTI_IRQHandler>
  /* USER CODE BEGIN EXTI0_IRQn 1 */

  /* USER CODE END EXTI0_IRQn 1 */
}
 80058ce:	bd08      	pop	{r3, pc}

080058d0 <EXTI1_IRQHandler>:

/**
  * @brief This function handles EXTI line1 interrupt.
  */
void EXTI1_IRQHandler(void)
{
 80058d0:	b508      	push	{r3, lr}
  /* USER CODE BEGIN EXTI1_IRQn 0 */

  /* USER CODE END EXTI1_IRQn 0 */
  HAL_GPIO_EXTI_IRQHandler(HALL_2_Pin);
 80058d2:	2002      	movs	r0, #2
 80058d4:	f7fd ff4a 	bl	800376c <HAL_GPIO_EXTI_IRQHandler>
  /* USER CODE BEGIN EXTI1_IRQn 1 */

  /* USER CODE END EXTI1_IRQn 1 */
}
 80058d8:	bd08      	pop	{r3, pc}

080058da <EXTI2_IRQHandler>:

/**
  * @brief This function handles EXTI line2 interrupt.
  */
void EXTI2_IRQHandler(void)
{
 80058da:	b508      	push	{r3, lr}
  /* USER CODE BEGIN EXTI2_IRQn 0 */

  /* USER CODE END EXTI2_IRQn 0 */
  HAL_GPIO_EXTI_IRQHandler(HALL_3_Pin);
 80058dc:	2004      	movs	r0, #4
 80058de:	f7fd ff45 	bl	800376c <HAL_GPIO_EXTI_IRQHandler>
  /* USER CODE BEGIN EXTI2_IRQn 1 */

  /* USER CODE END EXTI2_IRQn 1 */
}
 80058e2:	bd08      	pop	{r3, pc}

080058e4 <DMA1_Channel1_IRQHandler>:

/**
  * @brief This function handles DMA1 channel1 global interrupt.
  */
void DMA1_Channel1_IRQHandler(void)
{
 80058e4:	b508      	push	{r3, lr}
  /* USER CODE BEGIN DMA1_Channel1_IRQn 0 */

  /* USER CODE END DMA1_Channel1_IRQn 0 */
  HAL_DMA_IRQHandler(&hdma_adc1);
 80058e6:	4802      	ldr	r0, [pc, #8]	@ (80058f0 <DMA1_Channel1_IRQHandler+0xc>)
 80058e8:	f7fd fd82 	bl	80033f0 <HAL_DMA_IRQHandler>
  /* USER CODE BEGIN DMA1_Channel1_IRQn 1 */

  /* USER CODE END DMA1_Channel1_IRQn 1 */
}
 80058ec:	bd08      	pop	{r3, pc}
 80058ee:	bf00      	nop
 80058f0:	20000344 	.word	0x20000344

080058f4 <USB_LP_CAN1_RX0_IRQHandler>:

/**
  * @brief This function handles USB low priority or CAN RX0 interrupts.
  */
void USB_LP_CAN1_RX0_IRQHandler(void)
{
 80058f4:	b508      	push	{r3, lr}
  /* USER CODE BEGIN USB_LP_CAN1_RX0_IRQn 0 */

  /* USER CODE END USB_LP_CAN1_RX0_IRQn 0 */
  HAL_PCD_IRQHandler(&hpcd_USB_FS);
 80058f6:	4802      	ldr	r0, [pc, #8]	@ (8005900 <USB_LP_CAN1_RX0_IRQHandler+0xc>)
 80058f8:	f7fe fd52 	bl	80043a0 <HAL_PCD_IRQHandler>
  /* USER CODE BEGIN USB_LP_CAN1_RX0_IRQn 1 */

  /* USER CODE END USB_LP_CAN1_RX0_IRQn 1 */
}
 80058fc:	bd08      	pop	{r3, pc}
 80058fe:	bf00      	nop
 8005900:	200014a0 	.word	0x200014a0

08005904 <TIM2_IRQHandler>:

/**
  * @brief This function handles TIM2 global interrupt.
  */
void TIM2_IRQHandler(void)
{
 8005904:	b508      	push	{r3, lr}
  /* USER CODE BEGIN TIM2_IRQn 0 */

  /* USER CODE END TIM2_IRQn 0 */
  HAL_TIM_IRQHandler(&htim2);
 8005906:	4802      	ldr	r0, [pc, #8]	@ (8005910 <TIM2_IRQHandler+0xc>)
 8005908:	f7ff fc08 	bl	800511c <HAL_TIM_IRQHandler>
  /* USER CODE BEGIN TIM2_IRQn 1 */

  /* USER CODE END TIM2_IRQn 1 */
}
 800590c:	bd08      	pop	{r3, pc}
 800590e:	bf00      	nop
 8005910:	2000072c 	.word	0x2000072c

08005914 <TIM3_IRQHandler>:

/**
  * @brief This function handles TIM3 global interrupt.
  */
void TIM3_IRQHandler(void)
{
 8005914:	b508      	push	{r3, lr}
  /* USER CODE BEGIN TIM3_IRQn 0 */

  /* USER CODE END TIM3_IRQn 0 */
  HAL_TIM_IRQHandler(&htim3);
 8005916:	4802      	ldr	r0, [pc, #8]	@ (8005920 <TIM3_IRQHandler+0xc>)
 8005918:	f7ff fc00 	bl	800511c <HAL_TIM_IRQHandler>
  /* USER CODE BEGIN TIM3_IRQn 1 */

  /* USER CODE END TIM3_IRQn 1 */
}
 800591c:	bd08      	pop	{r3, pc}
 800591e:	bf00      	nop
 8005920:	200006e4 	.word	0x200006e4

08005924 <TIM4_IRQHandler>:

/**
  * @brief This function handles TIM4 global interrupt.
  */
void TIM4_IRQHandler(void)
{
 8005924:	b508      	push	{r3, lr}
  /* USER CODE BEGIN TIM4_IRQn 0 */

  /* USER CODE END TIM4_IRQn 0 */
  HAL_TIM_IRQHandler(&htim4);
 8005926:	4802      	ldr	r0, [pc, #8]	@ (8005930 <TIM4_IRQHandler+0xc>)
 8005928:	f7ff fbf8 	bl	800511c <HAL_TIM_IRQHandler>
  /* USER CODE BEGIN TIM4_IRQn 1 */

  /* USER CODE END TIM4_IRQn 1 */
}
 800592c:	bd08      	pop	{r3, pc}
 800592e:	bf00      	nop
 8005930:	2000069c 	.word	0x2000069c

08005934 <USB_CoreInit>:
  * @param  cfg pointer to a USB_CfgTypeDef structure that contains
  *         the configuration information for the specified USBx peripheral.
  * @retval HAL status
  */
HAL_StatusTypeDef USB_CoreInit(USB_TypeDef *USBx, USB_CfgTypeDef cfg)
{
 8005934:	b084      	sub	sp, #16
 8005936:	a804      	add	r0, sp, #16
 8005938:	e900 000e 	stmdb	r0, {r1, r2, r3}
              only by USB OTG FS peripheral.
            - This function is added to ensure compatibility across platforms.
   */

  return HAL_OK;
}
 800593c:	2000      	movs	r0, #0
 800593e:	b004      	add	sp, #16
 8005940:	4770      	bx	lr

08005942 <USB_EnableGlobalInt>:
  *         Enables the controller's Global Int in the AHB Config reg
  * @param  USBx Selected device
  * @retval HAL status
  */
HAL_StatusTypeDef USB_EnableGlobalInt(USB_TypeDef *USBx)
{
 8005942:	4603      	mov	r3, r0
  uint32_t winterruptmask;

  /* Clear pending interrupts */
  USBx->ISTR = 0U;
 8005944:	2000      	movs	r0, #0
 8005946:	f8a3 0044 	strh.w	r0, [r3, #68]	@ 0x44
                   USB_CNTR_SUSPM | USB_CNTR_ERRM |
                   USB_CNTR_SOFM | USB_CNTR_ESOFM |
                   USB_CNTR_RESETM;

  /* Set interrupt mask */
  USBx->CNTR = (uint16_t)winterruptmask;
 800594a:	f44f 423f 	mov.w	r2, #48896	@ 0xbf00
 800594e:	f8a3 2040 	strh.w	r2, [r3, #64]	@ 0x40

  return HAL_OK;
}
 8005952:	4770      	bx	lr

08005954 <USB_DisableGlobalInt>:
                   USB_CNTR_SUSPM | USB_CNTR_ERRM |
                   USB_CNTR_SOFM | USB_CNTR_ESOFM |
                   USB_CNTR_RESETM;

  /* Clear interrupt mask */
  USBx->CNTR &= (uint16_t)(~winterruptmask);
 8005954:	f8b0 3040 	ldrh.w	r3, [r0, #64]	@ 0x40
 8005958:	f423 537c 	bic.w	r3, r3, #16128	@ 0x3f00
 800595c:	045b      	lsls	r3, r3, #17
 800595e:	0c5b      	lsrs	r3, r3, #17
 8005960:	f8a0 3040 	strh.w	r3, [r0, #64]	@ 0x40

  return HAL_OK;
}
 8005964:	2000      	movs	r0, #0
 8005966:	4770      	bx	lr

08005968 <USB_SetCurrentMode>:
  /* NOTE : - This function is not required by USB Device FS peripheral, it is used
              only by USB OTG FS peripheral.
            - This function is added to ensure compatibility across platforms.
   */
  return HAL_OK;
}
 8005968:	2000      	movs	r0, #0
 800596a:	4770      	bx	lr

0800596c <USB_DevInit>:
  * @param  cfg  pointer to a USB_CfgTypeDef structure that contains
  *         the configuration information for the specified USBx peripheral.
  * @retval HAL status
  */
HAL_StatusTypeDef USB_DevInit(USB_TypeDef *USBx, USB_CfgTypeDef cfg)
{
 800596c:	b084      	sub	sp, #16
 800596e:	4684      	mov	ip, r0
 8005970:	a804      	add	r0, sp, #16
 8005972:	e900 000e 	stmdb	r0, {r1, r2, r3}
  /* Prevent unused argument(s) compilation warning */
  UNUSED(cfg);

  /* Init Device */
  /* CNTR_FRES = 1 */
  USBx->CNTR = (uint16_t)USB_CNTR_FRES;
 8005976:	2301      	movs	r3, #1
 8005978:	f8ac 3040 	strh.w	r3, [ip, #64]	@ 0x40

  /* CNTR_FRES = 0 */
  USBx->CNTR = 0U;
 800597c:	2000      	movs	r0, #0
 800597e:	f8ac 0040 	strh.w	r0, [ip, #64]	@ 0x40

  /* Clear pending interrupts */
  USBx->ISTR = 0U;
 8005982:	f8ac 0044 	strh.w	r0, [ip, #68]	@ 0x44

  /*Set Btable Address*/
  USBx->BTABLE = BTABLE_ADDRESS;
 8005986:	f8ac 0050 	strh.w	r0, [ip, #80]	@ 0x50

  return HAL_OK;
}
 800598a:	b004      	add	sp, #16
 800598c:	4770      	bx	lr

0800598e <USB_ActivateEndpoint>:
  * @param  USBx Selected device
  * @param  ep pointer to endpoint structure
  * @retval HAL status
  */
HAL_StatusTypeDef USB_ActivateEndpoint(USB_TypeDef *USBx, USB_EPTypeDef *ep)
{
 800598e:	b510      	push	{r4, lr}
 8005990:	4603      	mov	r3, r0
  HAL_StatusTypeDef ret = HAL_OK;
  uint16_t wEpRegVal;

  wEpRegVal = PCD_GET_ENDPOINT(USBx, ep->num) & USB_EP_T_MASK;
 8005992:	f891 c000 	ldrb.w	ip, [r1]
 8005996:	f830 202c 	ldrh.w	r2, [r0, ip, lsl #2]
 800599a:	b292      	uxth	r2, r2
 800599c:	f422 42ec 	bic.w	r2, r2, #30208	@ 0x7600
 80059a0:	f022 0270 	bic.w	r2, r2, #112	@ 0x70
 80059a4:	b292      	uxth	r2, r2

  /* initialize Endpoint */
  switch (ep->type)
 80059a6:	78c8      	ldrb	r0, [r1, #3]
 80059a8:	2803      	cmp	r0, #3
 80059aa:	d861      	bhi.n	8005a70 <USB_ActivateEndpoint+0xe2>
 80059ac:	e8df f000 	tbb	[pc, r0]
 80059b0:	58025c55 	.word	0x58025c55
 80059b4:	2000      	movs	r0, #0
    default:
      ret = HAL_ERROR;
      break;
  }

  PCD_SET_ENDPOINT(USBx, ep->num, (wEpRegVal | USB_EP_CTR_RX | USB_EP_CTR_TX));
 80059b6:	f248 0e80 	movw	lr, #32896	@ 0x8080
 80059ba:	ea42 020e 	orr.w	r2, r2, lr
 80059be:	f823 202c 	strh.w	r2, [r3, ip, lsl #2]

  PCD_SET_EP_ADDRESS(USBx, ep->num, ep->num);
 80059c2:	f891 c000 	ldrb.w	ip, [r1]
 80059c6:	f833 202c 	ldrh.w	r2, [r3, ip, lsl #2]
 80059ca:	b292      	uxth	r2, r2
 80059cc:	f422 42e0 	bic.w	r2, r2, #28672	@ 0x7000
 80059d0:	f022 0270 	bic.w	r2, r2, #112	@ 0x70
 80059d4:	ea42 020c 	orr.w	r2, r2, ip
 80059d8:	ea42 020e 	orr.w	r2, r2, lr
 80059dc:	f823 202c 	strh.w	r2, [r3, ip, lsl #2]

  if (ep->doublebuffer == 0U)
 80059e0:	7b0a      	ldrb	r2, [r1, #12]
 80059e2:	2a00      	cmp	r2, #0
 80059e4:	f040 80dc 	bne.w	8005ba0 <USB_ActivateEndpoint+0x212>
  {
    if (ep->is_in != 0U)
 80059e8:	784a      	ldrb	r2, [r1, #1]
 80059ea:	2a00      	cmp	r2, #0
 80059ec:	d051      	beq.n	8005a92 <USB_ActivateEndpoint+0x104>
    {
      /*Set the endpoint Transmit buffer address */
      PCD_SET_EP_TX_ADDRESS(USBx, ep->num, ep->pmaadress);
 80059ee:	f8b3 2050 	ldrh.w	r2, [r3, #80]	@ 0x50
 80059f2:	b292      	uxth	r2, r2
 80059f4:	441a      	add	r2, r3
 80059f6:	780c      	ldrb	r4, [r1, #0]
 80059f8:	eb02 1204 	add.w	r2, r2, r4, lsl #4
 80059fc:	f8b1 c006 	ldrh.w	ip, [r1, #6]
 8005a00:	ea4f 0c5c 	mov.w	ip, ip, lsr #1
 8005a04:	ea4f 0c4c 	mov.w	ip, ip, lsl #1
 8005a08:	f8a2 c400 	strh.w	ip, [r2, #1024]	@ 0x400
      PCD_CLEAR_TX_DTOG(USBx, ep->num);
 8005a0c:	780c      	ldrb	r4, [r1, #0]
 8005a0e:	f833 2024 	ldrh.w	r2, [r3, r4, lsl #2]
 8005a12:	f012 0f40 	tst.w	r2, #64	@ 0x40
 8005a16:	d00c      	beq.n	8005a32 <USB_ActivateEndpoint+0xa4>
 8005a18:	f833 2024 	ldrh.w	r2, [r3, r4, lsl #2]
 8005a1c:	b292      	uxth	r2, r2
 8005a1e:	f422 42e0 	bic.w	r2, r2, #28672	@ 0x7000
 8005a22:	f022 0270 	bic.w	r2, r2, #112	@ 0x70
 8005a26:	f442 4200 	orr.w	r2, r2, #32768	@ 0x8000
 8005a2a:	f042 02c0 	orr.w	r2, r2, #192	@ 0xc0
 8005a2e:	f823 2024 	strh.w	r2, [r3, r4, lsl #2]

      if (ep->type != EP_TYPE_ISOC)
 8005a32:	78ca      	ldrb	r2, [r1, #3]
 8005a34:	2a01      	cmp	r2, #1
 8005a36:	d01d      	beq.n	8005a74 <USB_ActivateEndpoint+0xe6>
      {
        /* Configure NAK status for the Endpoint */
        PCD_SET_EP_TX_STATUS(USBx, ep->num, USB_EP_TX_NAK);
 8005a38:	7809      	ldrb	r1, [r1, #0]
 8005a3a:	f833 2021 	ldrh.w	r2, [r3, r1, lsl #2]
 8005a3e:	b292      	uxth	r2, r2
 8005a40:	f422 42e0 	bic.w	r2, r2, #28672	@ 0x7000
 8005a44:	f022 0240 	bic.w	r2, r2, #64	@ 0x40
 8005a48:	f082 0220 	eor.w	r2, r2, #32
 8005a4c:	f442 4200 	orr.w	r2, r2, #32768	@ 0x8000
 8005a50:	f042 0280 	orr.w	r2, r2, #128	@ 0x80
 8005a54:	f823 2021 	strh.w	r2, [r3, r1, lsl #2]
 8005a58:	e117      	b.n	8005c8a <USB_ActivateEndpoint+0x2fc>
      wEpRegVal |= USB_EP_CONTROL;
 8005a5a:	f442 7200 	orr.w	r2, r2, #512	@ 0x200
      break;
 8005a5e:	e7aa      	b.n	80059b6 <USB_ActivateEndpoint+0x28>
      wEpRegVal |= USB_EP_INTERRUPT;
 8005a60:	f442 62c0 	orr.w	r2, r2, #1536	@ 0x600
  HAL_StatusTypeDef ret = HAL_OK;
 8005a64:	2000      	movs	r0, #0
      break;
 8005a66:	e7a6      	b.n	80059b6 <USB_ActivateEndpoint+0x28>
      wEpRegVal |= USB_EP_ISOCHRONOUS;
 8005a68:	f442 6280 	orr.w	r2, r2, #1024	@ 0x400
  HAL_StatusTypeDef ret = HAL_OK;
 8005a6c:	2000      	movs	r0, #0
      break;
 8005a6e:	e7a2      	b.n	80059b6 <USB_ActivateEndpoint+0x28>
      ret = HAL_ERROR;
 8005a70:	2001      	movs	r0, #1
 8005a72:	e7a0      	b.n	80059b6 <USB_ActivateEndpoint+0x28>
      }
      else
      {
        /* Configure TX Endpoint to disabled state */
        PCD_SET_EP_TX_STATUS(USBx, ep->num, USB_EP_TX_DIS);
 8005a74:	7809      	ldrb	r1, [r1, #0]
 8005a76:	f833 2021 	ldrh.w	r2, [r3, r1, lsl #2]
 8005a7a:	b292      	uxth	r2, r2
 8005a7c:	f422 42e0 	bic.w	r2, r2, #28672	@ 0x7000
 8005a80:	f022 0240 	bic.w	r2, r2, #64	@ 0x40
 8005a84:	f442 4200 	orr.w	r2, r2, #32768	@ 0x8000
 8005a88:	f042 0280 	orr.w	r2, r2, #128	@ 0x80
 8005a8c:	f823 2021 	strh.w	r2, [r3, r1, lsl #2]
 8005a90:	e0fb      	b.n	8005c8a <USB_ActivateEndpoint+0x2fc>
      }
    }
    else
    {
      /* Set the endpoint Receive buffer address */
      PCD_SET_EP_RX_ADDRESS(USBx, ep->num, ep->pmaadress);
 8005a92:	f8b3 2050 	ldrh.w	r2, [r3, #80]	@ 0x50
 8005a96:	b292      	uxth	r2, r2
 8005a98:	441a      	add	r2, r3
 8005a9a:	780c      	ldrb	r4, [r1, #0]
 8005a9c:	eb02 1204 	add.w	r2, r2, r4, lsl #4
 8005aa0:	f8b1 c006 	ldrh.w	ip, [r1, #6]
 8005aa4:	ea4f 0c5c 	mov.w	ip, ip, lsr #1
 8005aa8:	ea4f 0c4c 	mov.w	ip, ip, lsl #1
 8005aac:	f8a2 c408 	strh.w	ip, [r2, #1032]	@ 0x408

      /* Set the endpoint Receive buffer counter */
      PCD_SET_EP_RX_CNT(USBx, ep->num, ep->maxpacket);
 8005ab0:	f8b3 2050 	ldrh.w	r2, [r3, #80]	@ 0x50
 8005ab4:	b292      	uxth	r2, r2
 8005ab6:	441a      	add	r2, r3
 8005ab8:	780c      	ldrb	r4, [r1, #0]
 8005aba:	eb02 1204 	add.w	r2, r2, r4, lsl #4
 8005abe:	f8b2 c40c 	ldrh.w	ip, [r2, #1036]	@ 0x40c
 8005ac2:	f3cc 0c09 	ubfx	ip, ip, #0, #10
 8005ac6:	f8a2 c40c 	strh.w	ip, [r2, #1036]	@ 0x40c
 8005aca:	690c      	ldr	r4, [r1, #16]
 8005acc:	2c3e      	cmp	r4, #62	@ 0x3e
 8005ace:	d939      	bls.n	8005b44 <USB_ActivateEndpoint+0x1b6>
 8005ad0:	ea4f 1e54 	mov.w	lr, r4, lsr #5
 8005ad4:	f014 0f1f 	tst.w	r4, #31
 8005ad8:	d101      	bne.n	8005ade <USB_ActivateEndpoint+0x150>
 8005ada:	f10e 3eff 	add.w	lr, lr, #4294967295	@ 0xffffffff
 8005ade:	f8b2 c40c 	ldrh.w	ip, [r2, #1036]	@ 0x40c
 8005ae2:	fa1f fc8c 	uxth.w	ip, ip
 8005ae6:	ea4f 2e8e 	mov.w	lr, lr, lsl #10
 8005aea:	fa1f fe8e 	uxth.w	lr, lr
 8005aee:	ea4c 0c0e 	orr.w	ip, ip, lr
 8005af2:	f44c 4c00 	orr.w	ip, ip, #32768	@ 0x8000
 8005af6:	f8a2 c40c 	strh.w	ip, [r2, #1036]	@ 0x40c
      PCD_CLEAR_RX_DTOG(USBx, ep->num);
 8005afa:	780c      	ldrb	r4, [r1, #0]
 8005afc:	f833 2024 	ldrh.w	r2, [r3, r4, lsl #2]
 8005b00:	f412 4f80 	tst.w	r2, #16384	@ 0x4000
 8005b04:	d00c      	beq.n	8005b20 <USB_ActivateEndpoint+0x192>
 8005b06:	f833 2024 	ldrh.w	r2, [r3, r4, lsl #2]
 8005b0a:	b292      	uxth	r2, r2
 8005b0c:	f422 42e0 	bic.w	r2, r2, #28672	@ 0x7000
 8005b10:	f022 0270 	bic.w	r2, r2, #112	@ 0x70
 8005b14:	f442 4240 	orr.w	r2, r2, #49152	@ 0xc000
 8005b18:	f042 0280 	orr.w	r2, r2, #128	@ 0x80
 8005b1c:	f823 2024 	strh.w	r2, [r3, r4, lsl #2]

      if (ep->num == 0U)
 8005b20:	7809      	ldrb	r1, [r1, #0]
 8005b22:	bb69      	cbnz	r1, 8005b80 <USB_ActivateEndpoint+0x1f2>
      {
        /* Configure VALID status for EP0 */
        PCD_SET_EP_RX_STATUS(USBx, ep->num, USB_EP_RX_VALID);
 8005b24:	f833 2021 	ldrh.w	r2, [r3, r1, lsl #2]
 8005b28:	b292      	uxth	r2, r2
 8005b2a:	f422 4280 	bic.w	r2, r2, #16384	@ 0x4000
 8005b2e:	f022 0270 	bic.w	r2, r2, #112	@ 0x70
 8005b32:	f482 5240 	eor.w	r2, r2, #12288	@ 0x3000
 8005b36:	f442 4200 	orr.w	r2, r2, #32768	@ 0x8000
 8005b3a:	f042 0280 	orr.w	r2, r2, #128	@ 0x80
 8005b3e:	f823 2021 	strh.w	r2, [r3, r1, lsl #2]
 8005b42:	e0a2      	b.n	8005c8a <USB_ActivateEndpoint+0x2fc>
      PCD_SET_EP_RX_CNT(USBx, ep->num, ep->maxpacket);
 8005b44:	b94c      	cbnz	r4, 8005b5a <USB_ActivateEndpoint+0x1cc>
 8005b46:	f8b2 440c 	ldrh.w	r4, [r2, #1036]	@ 0x40c
 8005b4a:	ea6f 4444 	mvn.w	r4, r4, lsl #17
 8005b4e:	ea6f 4454 	mvn.w	r4, r4, lsr #17
 8005b52:	b2a4      	uxth	r4, r4
 8005b54:	f8a2 440c 	strh.w	r4, [r2, #1036]	@ 0x40c
 8005b58:	e7cf      	b.n	8005afa <USB_ActivateEndpoint+0x16c>
 8005b5a:	ea4f 0c54 	mov.w	ip, r4, lsr #1
 8005b5e:	f014 0f01 	tst.w	r4, #1
 8005b62:	d001      	beq.n	8005b68 <USB_ActivateEndpoint+0x1da>
 8005b64:	f10c 0c01 	add.w	ip, ip, #1
 8005b68:	f8b2 440c 	ldrh.w	r4, [r2, #1036]	@ 0x40c
 8005b6c:	b2a4      	uxth	r4, r4
 8005b6e:	ea4f 2c8c 	mov.w	ip, ip, lsl #10
 8005b72:	fa1f fc8c 	uxth.w	ip, ip
 8005b76:	ea44 040c 	orr.w	r4, r4, ip
 8005b7a:	f8a2 440c 	strh.w	r4, [r2, #1036]	@ 0x40c
 8005b7e:	e7bc      	b.n	8005afa <USB_ActivateEndpoint+0x16c>
      }
      else
      {
        /* Configure NAK status for OUT Endpoint */
        PCD_SET_EP_RX_STATUS(USBx, ep->num, USB_EP_RX_NAK);
 8005b80:	f833 2021 	ldrh.w	r2, [r3, r1, lsl #2]
 8005b84:	b292      	uxth	r2, r2
 8005b86:	f422 4280 	bic.w	r2, r2, #16384	@ 0x4000
 8005b8a:	f022 0270 	bic.w	r2, r2, #112	@ 0x70
 8005b8e:	f482 5200 	eor.w	r2, r2, #8192	@ 0x2000
 8005b92:	f442 4200 	orr.w	r2, r2, #32768	@ 0x8000
 8005b96:	f042 0280 	orr.w	r2, r2, #128	@ 0x80
 8005b9a:	f823 2021 	strh.w	r2, [r3, r1, lsl #2]
 8005b9e:	e074      	b.n	8005c8a <USB_ActivateEndpoint+0x2fc>
  }
#if (USE_USB_DOUBLE_BUFFER == 1U)
  /* Double Buffer */
  else
  {
    if (ep->type == EP_TYPE_BULK)
 8005ba0:	78ca      	ldrb	r2, [r1, #3]
 8005ba2:	2a02      	cmp	r2, #2
 8005ba4:	d072      	beq.n	8005c8c <USB_ActivateEndpoint+0x2fe>
      PCD_SET_BULK_EP_DBUF(USBx, ep->num);
    }
    else
    {
      /* Set the ISOC endpoint in double buffer mode */
      PCD_CLEAR_EP_KIND(USBx, ep->num);
 8005ba6:	780c      	ldrb	r4, [r1, #0]
 8005ba8:	f833 2024 	ldrh.w	r2, [r3, r4, lsl #2]
 8005bac:	b292      	uxth	r2, r2
 8005bae:	f422 42e2 	bic.w	r2, r2, #28928	@ 0x7100
 8005bb2:	f022 0270 	bic.w	r2, r2, #112	@ 0x70
 8005bb6:	f442 4200 	orr.w	r2, r2, #32768	@ 0x8000
 8005bba:	f042 0280 	orr.w	r2, r2, #128	@ 0x80
 8005bbe:	f823 2024 	strh.w	r2, [r3, r4, lsl #2]
    }

    /* Set buffer address for double buffered mode */
    PCD_SET_EP_DBUF_ADDR(USBx, ep->num, ep->pmaaddr0, ep->pmaaddr1);
 8005bc2:	f8b3 2050 	ldrh.w	r2, [r3, #80]	@ 0x50
 8005bc6:	b292      	uxth	r2, r2
 8005bc8:	441a      	add	r2, r3
 8005bca:	f891 c000 	ldrb.w	ip, [r1]
 8005bce:	eb02 120c 	add.w	r2, r2, ip, lsl #4
 8005bd2:	f8b1 c008 	ldrh.w	ip, [r1, #8]
 8005bd6:	ea4f 0c5c 	mov.w	ip, ip, lsr #1
 8005bda:	ea4f 0c4c 	mov.w	ip, ip, lsl #1
 8005bde:	f8a2 c400 	strh.w	ip, [r2, #1024]	@ 0x400
 8005be2:	f8b3 2050 	ldrh.w	r2, [r3, #80]	@ 0x50
 8005be6:	b292      	uxth	r2, r2
 8005be8:	441a      	add	r2, r3
 8005bea:	f891 c000 	ldrb.w	ip, [r1]
 8005bee:	eb02 120c 	add.w	r2, r2, ip, lsl #4
 8005bf2:	f8b1 c00a 	ldrh.w	ip, [r1, #10]
 8005bf6:	ea4f 0c5c 	mov.w	ip, ip, lsr #1
 8005bfa:	ea4f 0c4c 	mov.w	ip, ip, lsl #1
 8005bfe:	f8a2 c408 	strh.w	ip, [r2, #1032]	@ 0x408

    if (ep->is_in == 0U)
 8005c02:	784a      	ldrb	r2, [r1, #1]
 8005c04:	2a00      	cmp	r2, #0
 8005c06:	d150      	bne.n	8005caa <USB_ActivateEndpoint+0x31c>
    {
      /* Clear the data toggle bits for the endpoint IN/OUT */
      PCD_CLEAR_RX_DTOG(USBx, ep->num);
 8005c08:	780c      	ldrb	r4, [r1, #0]
 8005c0a:	f833 2024 	ldrh.w	r2, [r3, r4, lsl #2]
 8005c0e:	f412 4f80 	tst.w	r2, #16384	@ 0x4000
 8005c12:	d00c      	beq.n	8005c2e <USB_ActivateEndpoint+0x2a0>
 8005c14:	f833 2024 	ldrh.w	r2, [r3, r4, lsl #2]
 8005c18:	b292      	uxth	r2, r2
 8005c1a:	f422 42e0 	bic.w	r2, r2, #28672	@ 0x7000
 8005c1e:	f022 0270 	bic.w	r2, r2, #112	@ 0x70
 8005c22:	f442 4240 	orr.w	r2, r2, #49152	@ 0xc000
 8005c26:	f042 0280 	orr.w	r2, r2, #128	@ 0x80
 8005c2a:	f823 2024 	strh.w	r2, [r3, r4, lsl #2]
      PCD_CLEAR_TX_DTOG(USBx, ep->num);
 8005c2e:	780c      	ldrb	r4, [r1, #0]
 8005c30:	f833 2024 	ldrh.w	r2, [r3, r4, lsl #2]
 8005c34:	f012 0f40 	tst.w	r2, #64	@ 0x40
 8005c38:	d00c      	beq.n	8005c54 <USB_ActivateEndpoint+0x2c6>
 8005c3a:	f833 2024 	ldrh.w	r2, [r3, r4, lsl #2]
 8005c3e:	b292      	uxth	r2, r2
 8005c40:	f422 42e0 	bic.w	r2, r2, #28672	@ 0x7000
 8005c44:	f022 0270 	bic.w	r2, r2, #112	@ 0x70
 8005c48:	f442 4200 	orr.w	r2, r2, #32768	@ 0x8000
 8005c4c:	f042 02c0 	orr.w	r2, r2, #192	@ 0xc0
 8005c50:	f823 2024 	strh.w	r2, [r3, r4, lsl #2]

      PCD_SET_EP_RX_STATUS(USBx, ep->num, USB_EP_RX_VALID);
 8005c54:	f891 c000 	ldrb.w	ip, [r1]
 8005c58:	f833 202c 	ldrh.w	r2, [r3, ip, lsl #2]
 8005c5c:	b292      	uxth	r2, r2
 8005c5e:	f422 4280 	bic.w	r2, r2, #16384	@ 0x4000
 8005c62:	f022 0270 	bic.w	r2, r2, #112	@ 0x70
 8005c66:	f482 5240 	eor.w	r2, r2, #12288	@ 0x3000
 8005c6a:	f248 0480 	movw	r4, #32896	@ 0x8080
 8005c6e:	4322      	orrs	r2, r4
 8005c70:	f823 202c 	strh.w	r2, [r3, ip, lsl #2]
      PCD_SET_EP_TX_STATUS(USBx, ep->num, USB_EP_TX_DIS);
 8005c74:	7809      	ldrb	r1, [r1, #0]
 8005c76:	f833 2021 	ldrh.w	r2, [r3, r1, lsl #2]
 8005c7a:	b292      	uxth	r2, r2
 8005c7c:	f422 42e0 	bic.w	r2, r2, #28672	@ 0x7000
 8005c80:	f022 0240 	bic.w	r2, r2, #64	@ 0x40
 8005c84:	4322      	orrs	r2, r4
 8005c86:	f823 2021 	strh.w	r2, [r3, r1, lsl #2]
    }
  }
#endif /* (USE_USB_DOUBLE_BUFFER == 1U) */

  return ret;
}
 8005c8a:	bd10      	pop	{r4, pc}
      PCD_SET_BULK_EP_DBUF(USBx, ep->num);
 8005c8c:	780c      	ldrb	r4, [r1, #0]
 8005c8e:	f833 2024 	ldrh.w	r2, [r3, r4, lsl #2]
 8005c92:	b292      	uxth	r2, r2
 8005c94:	f422 42e0 	bic.w	r2, r2, #28672	@ 0x7000
 8005c98:	f022 0270 	bic.w	r2, r2, #112	@ 0x70
 8005c9c:	f442 4201 	orr.w	r2, r2, #33024	@ 0x8100
 8005ca0:	f042 0280 	orr.w	r2, r2, #128	@ 0x80
 8005ca4:	f823 2024 	strh.w	r2, [r3, r4, lsl #2]
 8005ca8:	e78b      	b.n	8005bc2 <USB_ActivateEndpoint+0x234>
      PCD_CLEAR_RX_DTOG(USBx, ep->num);
 8005caa:	780c      	ldrb	r4, [r1, #0]
 8005cac:	f833 2024 	ldrh.w	r2, [r3, r4, lsl #2]
 8005cb0:	f412 4f80 	tst.w	r2, #16384	@ 0x4000
 8005cb4:	d00c      	beq.n	8005cd0 <USB_ActivateEndpoint+0x342>
 8005cb6:	f833 2024 	ldrh.w	r2, [r3, r4, lsl #2]
 8005cba:	b292      	uxth	r2, r2
 8005cbc:	f422 42e0 	bic.w	r2, r2, #28672	@ 0x7000
 8005cc0:	f022 0270 	bic.w	r2, r2, #112	@ 0x70
 8005cc4:	f442 4240 	orr.w	r2, r2, #49152	@ 0xc000
 8005cc8:	f042 0280 	orr.w	r2, r2, #128	@ 0x80
 8005ccc:	f823 2024 	strh.w	r2, [r3, r4, lsl #2]
      PCD_CLEAR_TX_DTOG(USBx, ep->num);
 8005cd0:	780c      	ldrb	r4, [r1, #0]
 8005cd2:	f833 2024 	ldrh.w	r2, [r3, r4, lsl #2]
 8005cd6:	f012 0f40 	tst.w	r2, #64	@ 0x40
 8005cda:	d00c      	beq.n	8005cf6 <USB_ActivateEndpoint+0x368>
 8005cdc:	f833 2024 	ldrh.w	r2, [r3, r4, lsl #2]
 8005ce0:	b292      	uxth	r2, r2
 8005ce2:	f422 42e0 	bic.w	r2, r2, #28672	@ 0x7000
 8005ce6:	f022 0270 	bic.w	r2, r2, #112	@ 0x70
 8005cea:	f442 4200 	orr.w	r2, r2, #32768	@ 0x8000
 8005cee:	f042 02c0 	orr.w	r2, r2, #192	@ 0xc0
 8005cf2:	f823 2024 	strh.w	r2, [r3, r4, lsl #2]
      if (ep->type != EP_TYPE_ISOC)
 8005cf6:	78ca      	ldrb	r2, [r1, #3]
 8005cf8:	2a01      	cmp	r2, #1
 8005cfa:	d01e      	beq.n	8005d3a <USB_ActivateEndpoint+0x3ac>
        PCD_SET_EP_TX_STATUS(USBx, ep->num, USB_EP_TX_NAK);
 8005cfc:	780c      	ldrb	r4, [r1, #0]
 8005cfe:	f833 2024 	ldrh.w	r2, [r3, r4, lsl #2]
 8005d02:	b292      	uxth	r2, r2
 8005d04:	f422 42e0 	bic.w	r2, r2, #28672	@ 0x7000
 8005d08:	f022 0240 	bic.w	r2, r2, #64	@ 0x40
 8005d0c:	f082 0220 	eor.w	r2, r2, #32
 8005d10:	f442 4200 	orr.w	r2, r2, #32768	@ 0x8000
 8005d14:	f042 0280 	orr.w	r2, r2, #128	@ 0x80
 8005d18:	f823 2024 	strh.w	r2, [r3, r4, lsl #2]
      PCD_SET_EP_RX_STATUS(USBx, ep->num, USB_EP_RX_DIS);
 8005d1c:	7809      	ldrb	r1, [r1, #0]
 8005d1e:	f833 2021 	ldrh.w	r2, [r3, r1, lsl #2]
 8005d22:	b292      	uxth	r2, r2
 8005d24:	f422 4280 	bic.w	r2, r2, #16384	@ 0x4000
 8005d28:	f022 0270 	bic.w	r2, r2, #112	@ 0x70
 8005d2c:	f442 4200 	orr.w	r2, r2, #32768	@ 0x8000
 8005d30:	f042 0280 	orr.w	r2, r2, #128	@ 0x80
 8005d34:	f823 2021 	strh.w	r2, [r3, r1, lsl #2]
 8005d38:	e7a7      	b.n	8005c8a <USB_ActivateEndpoint+0x2fc>
        PCD_SET_EP_TX_STATUS(USBx, ep->num, USB_EP_TX_DIS);
 8005d3a:	780c      	ldrb	r4, [r1, #0]
 8005d3c:	f833 2024 	ldrh.w	r2, [r3, r4, lsl #2]
 8005d40:	b292      	uxth	r2, r2
 8005d42:	f422 42e0 	bic.w	r2, r2, #28672	@ 0x7000
 8005d46:	f022 0240 	bic.w	r2, r2, #64	@ 0x40
 8005d4a:	f442 4200 	orr.w	r2, r2, #32768	@ 0x8000
 8005d4e:	f042 0280 	orr.w	r2, r2, #128	@ 0x80
 8005d52:	f823 2024 	strh.w	r2, [r3, r4, lsl #2]
 8005d56:	e7e1      	b.n	8005d1c <USB_ActivateEndpoint+0x38e>

08005d58 <USB_DeactivateEndpoint>:
  * @param  ep pointer to endpoint structure
  * @retval HAL status
  */
HAL_StatusTypeDef USB_DeactivateEndpoint(USB_TypeDef *USBx, USB_EPTypeDef *ep)
{
  if (ep->doublebuffer == 0U)
 8005d58:	7b0b      	ldrb	r3, [r1, #12]
 8005d5a:	2b00      	cmp	r3, #0
 8005d5c:	d146      	bne.n	8005dec <USB_DeactivateEndpoint+0x94>
  {
    if (ep->is_in != 0U)
 8005d5e:	784b      	ldrb	r3, [r1, #1]
 8005d60:	b313      	cbz	r3, 8005da8 <USB_DeactivateEndpoint+0x50>
    {
      PCD_CLEAR_TX_DTOG(USBx, ep->num);
 8005d62:	780a      	ldrb	r2, [r1, #0]
 8005d64:	f830 3022 	ldrh.w	r3, [r0, r2, lsl #2]
 8005d68:	f013 0f40 	tst.w	r3, #64	@ 0x40
 8005d6c:	d00c      	beq.n	8005d88 <USB_DeactivateEndpoint+0x30>
 8005d6e:	f830 3022 	ldrh.w	r3, [r0, r2, lsl #2]
 8005d72:	b29b      	uxth	r3, r3
 8005d74:	f423 43e0 	bic.w	r3, r3, #28672	@ 0x7000
 8005d78:	f023 0370 	bic.w	r3, r3, #112	@ 0x70
 8005d7c:	f443 4300 	orr.w	r3, r3, #32768	@ 0x8000
 8005d80:	f043 03c0 	orr.w	r3, r3, #192	@ 0xc0
 8005d84:	f820 3022 	strh.w	r3, [r0, r2, lsl #2]

      /* Configure DISABLE status for the Endpoint */
      PCD_SET_EP_TX_STATUS(USBx, ep->num, USB_EP_TX_DIS);
 8005d88:	780a      	ldrb	r2, [r1, #0]
 8005d8a:	f830 3022 	ldrh.w	r3, [r0, r2, lsl #2]
 8005d8e:	b29b      	uxth	r3, r3
 8005d90:	f423 43e0 	bic.w	r3, r3, #28672	@ 0x7000
 8005d94:	f023 0340 	bic.w	r3, r3, #64	@ 0x40
 8005d98:	f443 4300 	orr.w	r3, r3, #32768	@ 0x8000
 8005d9c:	f043 0380 	orr.w	r3, r3, #128	@ 0x80
 8005da0:	f820 3022 	strh.w	r3, [r0, r2, lsl #2]
    }
  }
#endif /* (USE_USB_DOUBLE_BUFFER == 1U) */

  return HAL_OK;
}
 8005da4:	2000      	movs	r0, #0
 8005da6:	4770      	bx	lr
      PCD_CLEAR_RX_DTOG(USBx, ep->num);
 8005da8:	780a      	ldrb	r2, [r1, #0]
 8005daa:	f830 3022 	ldrh.w	r3, [r0, r2, lsl #2]
 8005dae:	f413 4f80 	tst.w	r3, #16384	@ 0x4000
 8005db2:	d00c      	beq.n	8005dce <USB_DeactivateEndpoint+0x76>
 8005db4:	f830 3022 	ldrh.w	r3, [r0, r2, lsl #2]
 8005db8:	b29b      	uxth	r3, r3
 8005dba:	f423 43e0 	bic.w	r3, r3, #28672	@ 0x7000
 8005dbe:	f023 0370 	bic.w	r3, r3, #112	@ 0x70
 8005dc2:	f443 4340 	orr.w	r3, r3, #49152	@ 0xc000
 8005dc6:	f043 0380 	orr.w	r3, r3, #128	@ 0x80
 8005dca:	f820 3022 	strh.w	r3, [r0, r2, lsl #2]
      PCD_SET_EP_RX_STATUS(USBx, ep->num, USB_EP_RX_DIS);
 8005dce:	780a      	ldrb	r2, [r1, #0]
 8005dd0:	f830 3022 	ldrh.w	r3, [r0, r2, lsl #2]
 8005dd4:	b29b      	uxth	r3, r3
 8005dd6:	f423 4380 	bic.w	r3, r3, #16384	@ 0x4000
 8005dda:	f023 0370 	bic.w	r3, r3, #112	@ 0x70
 8005dde:	f443 4300 	orr.w	r3, r3, #32768	@ 0x8000
 8005de2:	f043 0380 	orr.w	r3, r3, #128	@ 0x80
 8005de6:	f820 3022 	strh.w	r3, [r0, r2, lsl #2]
 8005dea:	e7db      	b.n	8005da4 <USB_DeactivateEndpoint+0x4c>
    if (ep->is_in == 0U)
 8005dec:	784b      	ldrb	r3, [r1, #1]
 8005dee:	2b00      	cmp	r3, #0
 8005df0:	d14e      	bne.n	8005e90 <USB_DeactivateEndpoint+0x138>
      PCD_CLEAR_RX_DTOG(USBx, ep->num);
 8005df2:	780a      	ldrb	r2, [r1, #0]
 8005df4:	f830 3022 	ldrh.w	r3, [r0, r2, lsl #2]
 8005df8:	f413 4f80 	tst.w	r3, #16384	@ 0x4000
 8005dfc:	d00c      	beq.n	8005e18 <USB_DeactivateEndpoint+0xc0>
 8005dfe:	f830 3022 	ldrh.w	r3, [r0, r2, lsl #2]
 8005e02:	b29b      	uxth	r3, r3
 8005e04:	f423 43e0 	bic.w	r3, r3, #28672	@ 0x7000
 8005e08:	f023 0370 	bic.w	r3, r3, #112	@ 0x70
 8005e0c:	f443 4340 	orr.w	r3, r3, #49152	@ 0xc000
 8005e10:	f043 0380 	orr.w	r3, r3, #128	@ 0x80
 8005e14:	f820 3022 	strh.w	r3, [r0, r2, lsl #2]
      PCD_CLEAR_TX_DTOG(USBx, ep->num);
 8005e18:	780a      	ldrb	r2, [r1, #0]
 8005e1a:	f830 3022 	ldrh.w	r3, [r0, r2, lsl #2]
 8005e1e:	f013 0f40 	tst.w	r3, #64	@ 0x40
 8005e22:	d00c      	beq.n	8005e3e <USB_DeactivateEndpoint+0xe6>
 8005e24:	f830 3022 	ldrh.w	r3, [r0, r2, lsl #2]
 8005e28:	b29b      	uxth	r3, r3
 8005e2a:	f423 43e0 	bic.w	r3, r3, #28672	@ 0x7000
 8005e2e:	f023 0370 	bic.w	r3, r3, #112	@ 0x70
 8005e32:	f443 4300 	orr.w	r3, r3, #32768	@ 0x8000
 8005e36:	f043 03c0 	orr.w	r3, r3, #192	@ 0xc0
 8005e3a:	f820 3022 	strh.w	r3, [r0, r2, lsl #2]
      PCD_TX_DTOG(USBx, ep->num);
 8005e3e:	780a      	ldrb	r2, [r1, #0]
 8005e40:	f830 3022 	ldrh.w	r3, [r0, r2, lsl #2]
 8005e44:	b29b      	uxth	r3, r3
 8005e46:	f423 43e0 	bic.w	r3, r3, #28672	@ 0x7000
 8005e4a:	f023 0370 	bic.w	r3, r3, #112	@ 0x70
 8005e4e:	f443 4300 	orr.w	r3, r3, #32768	@ 0x8000
 8005e52:	f043 03c0 	orr.w	r3, r3, #192	@ 0xc0
 8005e56:	f820 3022 	strh.w	r3, [r0, r2, lsl #2]
      PCD_SET_EP_RX_STATUS(USBx, ep->num, USB_EP_RX_DIS);
 8005e5a:	780a      	ldrb	r2, [r1, #0]
 8005e5c:	f830 3022 	ldrh.w	r3, [r0, r2, lsl #2]
 8005e60:	b29b      	uxth	r3, r3
 8005e62:	f423 4380 	bic.w	r3, r3, #16384	@ 0x4000
 8005e66:	f023 0370 	bic.w	r3, r3, #112	@ 0x70
 8005e6a:	f248 0c80 	movw	ip, #32896	@ 0x8080
 8005e6e:	ea43 030c 	orr.w	r3, r3, ip
 8005e72:	f820 3022 	strh.w	r3, [r0, r2, lsl #2]
      PCD_SET_EP_TX_STATUS(USBx, ep->num, USB_EP_TX_DIS);
 8005e76:	780a      	ldrb	r2, [r1, #0]
 8005e78:	f830 3022 	ldrh.w	r3, [r0, r2, lsl #2]
 8005e7c:	b29b      	uxth	r3, r3
 8005e7e:	f423 43e0 	bic.w	r3, r3, #28672	@ 0x7000
 8005e82:	f023 0340 	bic.w	r3, r3, #64	@ 0x40
 8005e86:	ea43 030c 	orr.w	r3, r3, ip
 8005e8a:	f820 3022 	strh.w	r3, [r0, r2, lsl #2]
 8005e8e:	e789      	b.n	8005da4 <USB_DeactivateEndpoint+0x4c>
      PCD_CLEAR_RX_DTOG(USBx, ep->num);
 8005e90:	780a      	ldrb	r2, [r1, #0]
 8005e92:	f830 3022 	ldrh.w	r3, [r0, r2, lsl #2]
 8005e96:	f413 4f80 	tst.w	r3, #16384	@ 0x4000
 8005e9a:	d00c      	beq.n	8005eb6 <USB_DeactivateEndpoint+0x15e>
 8005e9c:	f830 3022 	ldrh.w	r3, [r0, r2, lsl #2]
 8005ea0:	b29b      	uxth	r3, r3
 8005ea2:	f423 43e0 	bic.w	r3, r3, #28672	@ 0x7000
 8005ea6:	f023 0370 	bic.w	r3, r3, #112	@ 0x70
 8005eaa:	f443 4340 	orr.w	r3, r3, #49152	@ 0xc000
 8005eae:	f043 0380 	orr.w	r3, r3, #128	@ 0x80
 8005eb2:	f820 3022 	strh.w	r3, [r0, r2, lsl #2]
      PCD_CLEAR_TX_DTOG(USBx, ep->num);
 8005eb6:	780a      	ldrb	r2, [r1, #0]
 8005eb8:	f830 3022 	ldrh.w	r3, [r0, r2, lsl #2]
 8005ebc:	f013 0f40 	tst.w	r3, #64	@ 0x40
 8005ec0:	d00c      	beq.n	8005edc <USB_DeactivateEndpoint+0x184>
 8005ec2:	f830 3022 	ldrh.w	r3, [r0, r2, lsl #2]
 8005ec6:	b29b      	uxth	r3, r3
 8005ec8:	f423 43e0 	bic.w	r3, r3, #28672	@ 0x7000
 8005ecc:	f023 0370 	bic.w	r3, r3, #112	@ 0x70
 8005ed0:	f443 4300 	orr.w	r3, r3, #32768	@ 0x8000
 8005ed4:	f043 03c0 	orr.w	r3, r3, #192	@ 0xc0
 8005ed8:	f820 3022 	strh.w	r3, [r0, r2, lsl #2]
      PCD_RX_DTOG(USBx, ep->num);
 8005edc:	780a      	ldrb	r2, [r1, #0]
 8005ede:	f830 3022 	ldrh.w	r3, [r0, r2, lsl #2]
 8005ee2:	b29b      	uxth	r3, r3
 8005ee4:	f423 43e0 	bic.w	r3, r3, #28672	@ 0x7000
 8005ee8:	f023 0370 	bic.w	r3, r3, #112	@ 0x70
 8005eec:	f443 4340 	orr.w	r3, r3, #49152	@ 0xc000
 8005ef0:	f043 0380 	orr.w	r3, r3, #128	@ 0x80
 8005ef4:	f820 3022 	strh.w	r3, [r0, r2, lsl #2]
      PCD_SET_EP_TX_STATUS(USBx, ep->num, USB_EP_TX_DIS);
 8005ef8:	780a      	ldrb	r2, [r1, #0]
 8005efa:	f830 3022 	ldrh.w	r3, [r0, r2, lsl #2]
 8005efe:	b29b      	uxth	r3, r3
 8005f00:	f423 43e0 	bic.w	r3, r3, #28672	@ 0x7000
 8005f04:	f023 0340 	bic.w	r3, r3, #64	@ 0x40
 8005f08:	f248 0c80 	movw	ip, #32896	@ 0x8080
 8005f0c:	ea43 030c 	orr.w	r3, r3, ip
 8005f10:	f820 3022 	strh.w	r3, [r0, r2, lsl #2]
      PCD_SET_EP_RX_STATUS(USBx, ep->num, USB_EP_RX_DIS);
 8005f14:	780a      	ldrb	r2, [r1, #0]
 8005f16:	f830 3022 	ldrh.w	r3, [r0, r2, lsl #2]
 8005f1a:	b29b      	uxth	r3, r3
 8005f1c:	f423 4380 	bic.w	r3, r3, #16384	@ 0x4000
 8005f20:	f023 0370 	bic.w	r3, r3, #112	@ 0x70
 8005f24:	ea43 030c 	orr.w	r3, r3, ip
 8005f28:	f820 3022 	strh.w	r3, [r0, r2, lsl #2]
 8005f2c:	e73a      	b.n	8005da4 <USB_DeactivateEndpoint+0x4c>

08005f2e <USB_EPSetStall>:
  * @param  ep pointer to endpoint structure
  * @retval HAL status
  */
HAL_StatusTypeDef USB_EPSetStall(USB_TypeDef *USBx, USB_EPTypeDef *ep)
{
  if (ep->is_in != 0U)
 8005f2e:	784b      	ldrb	r3, [r1, #1]
 8005f30:	b18b      	cbz	r3, 8005f56 <USB_EPSetStall+0x28>
  {
    PCD_SET_EP_TX_STATUS(USBx, ep->num, USB_EP_TX_STALL);
 8005f32:	780a      	ldrb	r2, [r1, #0]
 8005f34:	f830 3022 	ldrh.w	r3, [r0, r2, lsl #2]
 8005f38:	b29b      	uxth	r3, r3
 8005f3a:	f423 43e0 	bic.w	r3, r3, #28672	@ 0x7000
 8005f3e:	f023 0340 	bic.w	r3, r3, #64	@ 0x40
 8005f42:	f083 0310 	eor.w	r3, r3, #16
 8005f46:	f443 4300 	orr.w	r3, r3, #32768	@ 0x8000
 8005f4a:	f043 0380 	orr.w	r3, r3, #128	@ 0x80
 8005f4e:	f820 3022 	strh.w	r3, [r0, r2, lsl #2]
  {
    PCD_SET_EP_RX_STATUS(USBx, ep->num, USB_EP_RX_STALL);
  }

  return HAL_OK;
}
 8005f52:	2000      	movs	r0, #0
 8005f54:	4770      	bx	lr
    PCD_SET_EP_RX_STATUS(USBx, ep->num, USB_EP_RX_STALL);
 8005f56:	780a      	ldrb	r2, [r1, #0]
 8005f58:	f830 3022 	ldrh.w	r3, [r0, r2, lsl #2]
 8005f5c:	b29b      	uxth	r3, r3
 8005f5e:	f423 4380 	bic.w	r3, r3, #16384	@ 0x4000
 8005f62:	f023 0370 	bic.w	r3, r3, #112	@ 0x70
 8005f66:	f483 5380 	eor.w	r3, r3, #4096	@ 0x1000
 8005f6a:	f443 4300 	orr.w	r3, r3, #32768	@ 0x8000
 8005f6e:	f043 0380 	orr.w	r3, r3, #128	@ 0x80
 8005f72:	f820 3022 	strh.w	r3, [r0, r2, lsl #2]
 8005f76:	e7ec      	b.n	8005f52 <USB_EPSetStall+0x24>

08005f78 <USB_EPClearStall>:
  * @param  ep pointer to endpoint structure
  * @retval HAL status
  */
HAL_StatusTypeDef USB_EPClearStall(USB_TypeDef *USBx, USB_EPTypeDef *ep)
{
  if (ep->doublebuffer == 0U)
 8005f78:	7b0b      	ldrb	r3, [r1, #12]
 8005f7a:	2b00      	cmp	r3, #0
 8005f7c:	d14b      	bne.n	8006016 <USB_EPClearStall+0x9e>
  {
    if (ep->is_in != 0U)
 8005f7e:	784b      	ldrb	r3, [r1, #1]
 8005f80:	b333      	cbz	r3, 8005fd0 <USB_EPClearStall+0x58>
    {
      PCD_CLEAR_TX_DTOG(USBx, ep->num);
 8005f82:	780a      	ldrb	r2, [r1, #0]
 8005f84:	f830 3022 	ldrh.w	r3, [r0, r2, lsl #2]
 8005f88:	f013 0f40 	tst.w	r3, #64	@ 0x40
 8005f8c:	d00c      	beq.n	8005fa8 <USB_EPClearStall+0x30>
 8005f8e:	f830 3022 	ldrh.w	r3, [r0, r2, lsl #2]
 8005f92:	b29b      	uxth	r3, r3
 8005f94:	f423 43e0 	bic.w	r3, r3, #28672	@ 0x7000
 8005f98:	f023 0370 	bic.w	r3, r3, #112	@ 0x70
 8005f9c:	f443 4300 	orr.w	r3, r3, #32768	@ 0x8000
 8005fa0:	f043 03c0 	orr.w	r3, r3, #192	@ 0xc0
 8005fa4:	f820 3022 	strh.w	r3, [r0, r2, lsl #2]

      if (ep->type != EP_TYPE_ISOC)
 8005fa8:	78cb      	ldrb	r3, [r1, #3]
 8005faa:	2b01      	cmp	r3, #1
 8005fac:	d033      	beq.n	8006016 <USB_EPClearStall+0x9e>
      {
        /* Configure NAK status for the Endpoint */
        PCD_SET_EP_TX_STATUS(USBx, ep->num, USB_EP_TX_NAK);
 8005fae:	780a      	ldrb	r2, [r1, #0]
 8005fb0:	f830 3022 	ldrh.w	r3, [r0, r2, lsl #2]
 8005fb4:	b29b      	uxth	r3, r3
 8005fb6:	f423 43e0 	bic.w	r3, r3, #28672	@ 0x7000
 8005fba:	f023 0340 	bic.w	r3, r3, #64	@ 0x40
 8005fbe:	f083 0320 	eor.w	r3, r3, #32
 8005fc2:	f443 4300 	orr.w	r3, r3, #32768	@ 0x8000
 8005fc6:	f043 0380 	orr.w	r3, r3, #128	@ 0x80
 8005fca:	f820 3022 	strh.w	r3, [r0, r2, lsl #2]
 8005fce:	e022      	b.n	8006016 <USB_EPClearStall+0x9e>
      }
    }
    else
    {
      PCD_CLEAR_RX_DTOG(USBx, ep->num);
 8005fd0:	780a      	ldrb	r2, [r1, #0]
 8005fd2:	f830 3022 	ldrh.w	r3, [r0, r2, lsl #2]
 8005fd6:	f413 4f80 	tst.w	r3, #16384	@ 0x4000
 8005fda:	d00c      	beq.n	8005ff6 <USB_EPClearStall+0x7e>
 8005fdc:	f830 3022 	ldrh.w	r3, [r0, r2, lsl #2]
 8005fe0:	b29b      	uxth	r3, r3
 8005fe2:	f423 43e0 	bic.w	r3, r3, #28672	@ 0x7000
 8005fe6:	f023 0370 	bic.w	r3, r3, #112	@ 0x70
 8005fea:	f443 4340 	orr.w	r3, r3, #49152	@ 0xc000
 8005fee:	f043 0380 	orr.w	r3, r3, #128	@ 0x80
 8005ff2:	f820 3022 	strh.w	r3, [r0, r2, lsl #2]

      /* Configure VALID status for the Endpoint */
      PCD_SET_EP_RX_STATUS(USBx, ep->num, USB_EP_RX_VALID);
 8005ff6:	780a      	ldrb	r2, [r1, #0]
 8005ff8:	f830 3022 	ldrh.w	r3, [r0, r2, lsl #2]
 8005ffc:	b29b      	uxth	r3, r3
 8005ffe:	f423 4380 	bic.w	r3, r3, #16384	@ 0x4000
 8006002:	f023 0370 	bic.w	r3, r3, #112	@ 0x70
 8006006:	f483 5340 	eor.w	r3, r3, #12288	@ 0x3000
 800600a:	f443 4300 	orr.w	r3, r3, #32768	@ 0x8000
 800600e:	f043 0380 	orr.w	r3, r3, #128	@ 0x80
 8006012:	f820 3022 	strh.w	r3, [r0, r2, lsl #2]
    }
  }

  return HAL_OK;
}
 8006016:	2000      	movs	r0, #0
 8006018:	4770      	bx	lr

0800601a <USB_SetDevAddress>:
  *          This parameter can be a value from 0 to 255
  * @retval HAL status
  */
HAL_StatusTypeDef  USB_SetDevAddress(USB_TypeDef *USBx, uint8_t address)
{
  if (address == 0U)
 800601a:	b911      	cbnz	r1, 8006022 <USB_SetDevAddress+0x8>
  {
    /* set device address and enable function */
    USBx->DADDR = (uint16_t)USB_DADDR_EF;
 800601c:	2380      	movs	r3, #128	@ 0x80
 800601e:	f8a0 304c 	strh.w	r3, [r0, #76]	@ 0x4c
  }

  return HAL_OK;
}
 8006022:	2000      	movs	r0, #0
 8006024:	4770      	bx	lr

08006026 <USB_DevConnect>:
              only by USB OTG FS peripheral.
            - This function is added to ensure compatibility across platforms.
   */

  return HAL_OK;
}
 8006026:	2000      	movs	r0, #0
 8006028:	4770      	bx	lr

0800602a <USB_DevDisconnect>:
              only by USB OTG FS peripheral.
            - This function is added to ensure compatibility across platforms.
   */

  return HAL_OK;
}
 800602a:	2000      	movs	r0, #0
 800602c:	4770      	bx	lr

0800602e <USB_ReadInterrupts>:
  */
uint32_t USB_ReadInterrupts(USB_TypeDef const *USBx)
{
  uint32_t tmpreg;

  tmpreg = USBx->ISTR;
 800602e:	f8b0 0044 	ldrh.w	r0, [r0, #68]	@ 0x44
  return tmpreg;
}
 8006032:	b280      	uxth	r0, r0
 8006034:	4770      	bx	lr

08006036 <USB_EP0_OutStart>:
  /* NOTE : - This function is not required by USB Device FS peripheral, it is used
              only by USB OTG FS peripheral.
            - This function is added to ensure compatibility across platforms.
   */
  return HAL_OK;
}
 8006036:	2000      	movs	r0, #0
 8006038:	4770      	bx	lr

0800603a <USB_WritePMA>:
  * @param   wNBytes no. of bytes to be copied.
  * @retval None
  */
void USB_WritePMA(USB_TypeDef const *USBx, uint8_t *pbUsrBuf, uint16_t wPMABufAddr, uint16_t wNBytes)
{
  uint32_t n = ((uint32_t)wNBytes + 1U) >> 1;
 800603a:	3301      	adds	r3, #1
 800603c:	085b      	lsrs	r3, r3, #1
  uint32_t count;
  uint16_t WrVal;
  __IO uint16_t *pdwVal;
  uint8_t *pBuf = pbUsrBuf;

  pdwVal = (__IO uint16_t *)(BaseAddr + 0x400U + ((uint32_t)wPMABufAddr * PMA_ACCESS));
 800603e:	eb00 0042 	add.w	r0, r0, r2, lsl #1
 8006042:	f500 6080 	add.w	r0, r0, #1024	@ 0x400

  for (count = n; count != 0U; count--)
 8006046:	e008      	b.n	800605a <USB_WritePMA+0x20>
  {
    WrVal = pBuf[0];
 8006048:	780a      	ldrb	r2, [r1, #0]
    WrVal |= (uint16_t)pBuf[1] << 8;
 800604a:	f891 c001 	ldrb.w	ip, [r1, #1]
 800604e:	ea42 220c 	orr.w	r2, r2, ip, lsl #8
    *pdwVal = (WrVal & 0xFFFFU);
 8006052:	f820 2b04 	strh.w	r2, [r0], #4
#if PMA_ACCESS > 1U
    pdwVal++;
#endif /* PMA_ACCESS */

    pBuf++;
    pBuf++;
 8006056:	3102      	adds	r1, #2
  for (count = n; count != 0U; count--)
 8006058:	3b01      	subs	r3, #1
 800605a:	2b00      	cmp	r3, #0
 800605c:	d1f4      	bne.n	8006048 <USB_WritePMA+0xe>
  }
}
 800605e:	4770      	bx	lr

08006060 <USB_EPStartXfer>:
{
 8006060:	b570      	push	{r4, r5, r6, lr}
 8006062:	4605      	mov	r5, r0
 8006064:	460c      	mov	r4, r1
  if (ep->is_in == 1U)
 8006066:	784a      	ldrb	r2, [r1, #1]
 8006068:	2a01      	cmp	r2, #1
 800606a:	d03b      	beq.n	80060e4 <USB_EPStartXfer+0x84>
    if (ep->doublebuffer == 0U)
 800606c:	7b0b      	ldrb	r3, [r1, #12]
 800606e:	2b00      	cmp	r3, #0
 8006070:	f040 82a6 	bne.w	80065c0 <USB_EPStartXfer+0x560>
      if (ep->xfer_len > ep->maxpacket)
 8006074:	698b      	ldr	r3, [r1, #24]
 8006076:	690a      	ldr	r2, [r1, #16]
 8006078:	4293      	cmp	r3, r2
 800607a:	f240 8284 	bls.w	8006586 <USB_EPStartXfer+0x526>
        ep->xfer_len -= len;
 800607e:	1a9b      	subs	r3, r3, r2
 8006080:	618b      	str	r3, [r1, #24]
      PCD_SET_EP_RX_CNT(USBx, ep->num, len);
 8006082:	f8b5 3050 	ldrh.w	r3, [r5, #80]	@ 0x50
 8006086:	b29b      	uxth	r3, r3
 8006088:	442b      	add	r3, r5
 800608a:	7821      	ldrb	r1, [r4, #0]
 800608c:	eb03 1301 	add.w	r3, r3, r1, lsl #4
 8006090:	f8b3 140c 	ldrh.w	r1, [r3, #1036]	@ 0x40c
 8006094:	f3c1 0109 	ubfx	r1, r1, #0, #10
 8006098:	f8a3 140c 	strh.w	r1, [r3, #1036]	@ 0x40c
 800609c:	2a3e      	cmp	r2, #62	@ 0x3e
 800609e:	f240 8276 	bls.w	800658e <USB_EPStartXfer+0x52e>
 80060a2:	0951      	lsrs	r1, r2, #5
 80060a4:	f012 0f1f 	tst.w	r2, #31
 80060a8:	d100      	bne.n	80060ac <USB_EPStartXfer+0x4c>
 80060aa:	3901      	subs	r1, #1
 80060ac:	f8b3 240c 	ldrh.w	r2, [r3, #1036]	@ 0x40c
 80060b0:	b292      	uxth	r2, r2
 80060b2:	0289      	lsls	r1, r1, #10
 80060b4:	b289      	uxth	r1, r1
 80060b6:	430a      	orrs	r2, r1
 80060b8:	f442 4200 	orr.w	r2, r2, #32768	@ 0x8000
 80060bc:	f8a3 240c 	strh.w	r2, [r3, #1036]	@ 0x40c
    PCD_SET_EP_RX_STATUS(USBx, ep->num, USB_EP_RX_VALID);
 80060c0:	7822      	ldrb	r2, [r4, #0]
 80060c2:	f835 3022 	ldrh.w	r3, [r5, r2, lsl #2]
 80060c6:	b29b      	uxth	r3, r3
 80060c8:	f423 4380 	bic.w	r3, r3, #16384	@ 0x4000
 80060cc:	f023 0370 	bic.w	r3, r3, #112	@ 0x70
 80060d0:	f483 5340 	eor.w	r3, r3, #12288	@ 0x3000
 80060d4:	f443 4300 	orr.w	r3, r3, #32768	@ 0x8000
 80060d8:	f043 0380 	orr.w	r3, r3, #128	@ 0x80
 80060dc:	f825 3022 	strh.w	r3, [r5, r2, lsl #2]
  return HAL_OK;
 80060e0:	2000      	movs	r0, #0
}
 80060e2:	bd70      	pop	{r4, r5, r6, pc}
    if (ep->xfer_len > ep->maxpacket)
 80060e4:	698e      	ldr	r6, [r1, #24]
 80060e6:	6909      	ldr	r1, [r1, #16]
 80060e8:	428e      	cmp	r6, r1
 80060ea:	d900      	bls.n	80060ee <USB_EPStartXfer+0x8e>
      len = ep->maxpacket;
 80060ec:	460e      	mov	r6, r1
    if (ep->doublebuffer == 0U)
 80060ee:	7b23      	ldrb	r3, [r4, #12]
 80060f0:	b373      	cbz	r3, 8006150 <USB_EPStartXfer+0xf0>
      if (ep->type == EP_TYPE_BULK)
 80060f2:	78e3      	ldrb	r3, [r4, #3]
 80060f4:	2b02      	cmp	r3, #2
 80060f6:	d04d      	beq.n	8006194 <USB_EPStartXfer+0x134>
        ep->xfer_len_db -= len;
 80060f8:	6a23      	ldr	r3, [r4, #32]
 80060fa:	1b9b      	subs	r3, r3, r6
 80060fc:	6223      	str	r3, [r4, #32]
        if ((PCD_GET_ENDPOINT(USBx, ep->num) & USB_EP_DTOG_TX) != 0U)
 80060fe:	7821      	ldrb	r1, [r4, #0]
 8006100:	f835 3021 	ldrh.w	r3, [r5, r1, lsl #2]
 8006104:	f013 0f40 	tst.w	r3, #64	@ 0x40
 8006108:	f000 81f5 	beq.w	80064f6 <USB_EPStartXfer+0x496>
          PCD_SET_EP_DBUF1_CNT(USBx, ep->num, ep->is_in, len);
 800610c:	2a00      	cmp	r2, #0
 800610e:	f040 81e2 	bne.w	80064d6 <USB_EPStartXfer+0x476>
 8006112:	f8b5 3050 	ldrh.w	r3, [r5, #80]	@ 0x50
 8006116:	b29b      	uxth	r3, r3
 8006118:	442b      	add	r3, r5
 800611a:	eb03 1301 	add.w	r3, r3, r1, lsl #4
 800611e:	f8b3 240c 	ldrh.w	r2, [r3, #1036]	@ 0x40c
 8006122:	f3c2 0209 	ubfx	r2, r2, #0, #10
 8006126:	f8a3 240c 	strh.w	r2, [r3, #1036]	@ 0x40c
 800612a:	2e3e      	cmp	r6, #62	@ 0x3e
 800612c:	f240 81ba 	bls.w	80064a4 <USB_EPStartXfer+0x444>
 8006130:	0971      	lsrs	r1, r6, #5
 8006132:	f016 0f1f 	tst.w	r6, #31
 8006136:	d100      	bne.n	800613a <USB_EPStartXfer+0xda>
 8006138:	3901      	subs	r1, #1
 800613a:	f8b3 240c 	ldrh.w	r2, [r3, #1036]	@ 0x40c
 800613e:	b292      	uxth	r2, r2
 8006140:	0289      	lsls	r1, r1, #10
 8006142:	b289      	uxth	r1, r1
 8006144:	430a      	orrs	r2, r1
 8006146:	f442 4200 	orr.w	r2, r2, #32768	@ 0x8000
 800614a:	f8a3 240c 	strh.w	r2, [r3, #1036]	@ 0x40c
 800614e:	e1cb      	b.n	80064e8 <USB_EPStartXfer+0x488>
      USB_WritePMA(USBx, ep->xfer_buff, ep->pmaadress, (uint16_t)len);
 8006150:	b2b6      	uxth	r6, r6
 8006152:	4633      	mov	r3, r6
 8006154:	88e2      	ldrh	r2, [r4, #6]
 8006156:	6961      	ldr	r1, [r4, #20]
 8006158:	4628      	mov	r0, r5
 800615a:	f7ff ff6e 	bl	800603a <USB_WritePMA>
      PCD_SET_EP_TX_CNT(USBx, ep->num, len);
 800615e:	f8b5 3050 	ldrh.w	r3, [r5, #80]	@ 0x50
 8006162:	b29b      	uxth	r3, r3
 8006164:	442b      	add	r3, r5
 8006166:	7822      	ldrb	r2, [r4, #0]
 8006168:	eb03 1302 	add.w	r3, r3, r2, lsl #4
 800616c:	f8a3 6404 	strh.w	r6, [r3, #1028]	@ 0x404
    PCD_SET_EP_TX_STATUS(USBx, ep->num, USB_EP_TX_VALID);
 8006170:	7822      	ldrb	r2, [r4, #0]
 8006172:	f835 3022 	ldrh.w	r3, [r5, r2, lsl #2]
 8006176:	b29b      	uxth	r3, r3
 8006178:	f423 43e0 	bic.w	r3, r3, #28672	@ 0x7000
 800617c:	f023 0340 	bic.w	r3, r3, #64	@ 0x40
 8006180:	f083 0330 	eor.w	r3, r3, #48	@ 0x30
 8006184:	f443 4300 	orr.w	r3, r3, #32768	@ 0x8000
 8006188:	f043 0380 	orr.w	r3, r3, #128	@ 0x80
 800618c:	f825 3022 	strh.w	r3, [r5, r2, lsl #2]
  return HAL_OK;
 8006190:	2000      	movs	r0, #0
 8006192:	e7a6      	b.n	80060e2 <USB_EPStartXfer+0x82>
        if (ep->xfer_len_db > ep->maxpacket)
 8006194:	6a23      	ldr	r3, [r4, #32]
 8006196:	4299      	cmp	r1, r3
 8006198:	f080 8166 	bcs.w	8006468 <USB_EPStartXfer+0x408>
          PCD_SET_BULK_EP_DBUF(USBx, ep->num);
 800619c:	7822      	ldrb	r2, [r4, #0]
 800619e:	f835 3022 	ldrh.w	r3, [r5, r2, lsl #2]
 80061a2:	b29b      	uxth	r3, r3
 80061a4:	f423 43e0 	bic.w	r3, r3, #28672	@ 0x7000
 80061a8:	f023 0370 	bic.w	r3, r3, #112	@ 0x70
 80061ac:	f443 4301 	orr.w	r3, r3, #33024	@ 0x8100
 80061b0:	f043 0380 	orr.w	r3, r3, #128	@ 0x80
 80061b4:	f825 3022 	strh.w	r3, [r5, r2, lsl #2]
          ep->xfer_len_db -= len;
 80061b8:	6a23      	ldr	r3, [r4, #32]
 80061ba:	1b9b      	subs	r3, r3, r6
 80061bc:	6223      	str	r3, [r4, #32]
          if ((PCD_GET_ENDPOINT(USBx, ep->num) & USB_EP_DTOG_TX) != 0U)
 80061be:	7822      	ldrb	r2, [r4, #0]
 80061c0:	f835 3022 	ldrh.w	r3, [r5, r2, lsl #2]
 80061c4:	f013 0f40 	tst.w	r3, #64	@ 0x40
 80061c8:	f000 80a7 	beq.w	800631a <USB_EPStartXfer+0x2ba>
            PCD_SET_EP_DBUF1_CNT(USBx, ep->num, ep->is_in, len);
 80061cc:	7863      	ldrb	r3, [r4, #1]
 80061ce:	bbb3      	cbnz	r3, 800623e <USB_EPStartXfer+0x1de>
 80061d0:	f8b5 3050 	ldrh.w	r3, [r5, #80]	@ 0x50
 80061d4:	b29b      	uxth	r3, r3
 80061d6:	442b      	add	r3, r5
 80061d8:	eb03 1302 	add.w	r3, r3, r2, lsl #4
 80061dc:	f8b3 240c 	ldrh.w	r2, [r3, #1036]	@ 0x40c
 80061e0:	f3c2 0209 	ubfx	r2, r2, #0, #10
 80061e4:	f8a3 240c 	strh.w	r2, [r3, #1036]	@ 0x40c
 80061e8:	2e3e      	cmp	r6, #62	@ 0x3e
 80061ea:	d90f      	bls.n	800620c <USB_EPStartXfer+0x1ac>
 80061ec:	0971      	lsrs	r1, r6, #5
 80061ee:	f016 0f1f 	tst.w	r6, #31
 80061f2:	d100      	bne.n	80061f6 <USB_EPStartXfer+0x196>
 80061f4:	3901      	subs	r1, #1
 80061f6:	f8b3 240c 	ldrh.w	r2, [r3, #1036]	@ 0x40c
 80061fa:	b292      	uxth	r2, r2
 80061fc:	0289      	lsls	r1, r1, #10
 80061fe:	b289      	uxth	r1, r1
 8006200:	430a      	orrs	r2, r1
 8006202:	f442 4200 	orr.w	r2, r2, #32768	@ 0x8000
 8006206:	f8a3 240c 	strh.w	r2, [r3, #1036]	@ 0x40c
 800620a:	e01a      	b.n	8006242 <USB_EPStartXfer+0x1e2>
 800620c:	b94e      	cbnz	r6, 8006222 <USB_EPStartXfer+0x1c2>
 800620e:	f8b3 240c 	ldrh.w	r2, [r3, #1036]	@ 0x40c
 8006212:	ea6f 4242 	mvn.w	r2, r2, lsl #17
 8006216:	ea6f 4252 	mvn.w	r2, r2, lsr #17
 800621a:	b292      	uxth	r2, r2
 800621c:	f8a3 240c 	strh.w	r2, [r3, #1036]	@ 0x40c
 8006220:	e00f      	b.n	8006242 <USB_EPStartXfer+0x1e2>
 8006222:	0872      	lsrs	r2, r6, #1
 8006224:	f016 0f01 	tst.w	r6, #1
 8006228:	d000      	beq.n	800622c <USB_EPStartXfer+0x1cc>
 800622a:	3201      	adds	r2, #1
 800622c:	f8b3 140c 	ldrh.w	r1, [r3, #1036]	@ 0x40c
 8006230:	b289      	uxth	r1, r1
 8006232:	0292      	lsls	r2, r2, #10
 8006234:	b292      	uxth	r2, r2
 8006236:	430a      	orrs	r2, r1
 8006238:	f8a3 240c 	strh.w	r2, [r3, #1036]	@ 0x40c
 800623c:	e001      	b.n	8006242 <USB_EPStartXfer+0x1e2>
 800623e:	2b01      	cmp	r3, #1
 8006240:	d030      	beq.n	80062a4 <USB_EPStartXfer+0x244>
            USB_WritePMA(USBx, ep->xfer_buff, pmabuffer, (uint16_t)len);
 8006242:	b2b3      	uxth	r3, r6
 8006244:	8962      	ldrh	r2, [r4, #10]
 8006246:	6961      	ldr	r1, [r4, #20]
 8006248:	4628      	mov	r0, r5
 800624a:	f7ff fef6 	bl	800603a <USB_WritePMA>
            ep->xfer_buff += len;
 800624e:	6963      	ldr	r3, [r4, #20]
 8006250:	4433      	add	r3, r6
 8006252:	6163      	str	r3, [r4, #20]
            if (ep->xfer_len_db > ep->maxpacket)
 8006254:	6a23      	ldr	r3, [r4, #32]
 8006256:	6922      	ldr	r2, [r4, #16]
 8006258:	4293      	cmp	r3, r2
 800625a:	d92d      	bls.n	80062b8 <USB_EPStartXfer+0x258>
              ep->xfer_len_db -= len;
 800625c:	1b9b      	subs	r3, r3, r6
 800625e:	6223      	str	r3, [r4, #32]
            PCD_SET_EP_DBUF0_CNT(USBx, ep->num, ep->is_in, len);
 8006260:	7863      	ldrb	r3, [r4, #1]
 8006262:	2b00      	cmp	r3, #0
 8006264:	d145      	bne.n	80062f2 <USB_EPStartXfer+0x292>
 8006266:	f8b5 3050 	ldrh.w	r3, [r5, #80]	@ 0x50
 800626a:	b29b      	uxth	r3, r3
 800626c:	442b      	add	r3, r5
 800626e:	7822      	ldrb	r2, [r4, #0]
 8006270:	eb03 1302 	add.w	r3, r3, r2, lsl #4
 8006274:	f8b3 2404 	ldrh.w	r2, [r3, #1028]	@ 0x404
 8006278:	f3c2 0209 	ubfx	r2, r2, #0, #10
 800627c:	f8a3 2404 	strh.w	r2, [r3, #1028]	@ 0x404
 8006280:	2e3e      	cmp	r6, #62	@ 0x3e
 8006282:	d91d      	bls.n	80062c0 <USB_EPStartXfer+0x260>
 8006284:	0971      	lsrs	r1, r6, #5
 8006286:	f016 0f1f 	tst.w	r6, #31
 800628a:	d100      	bne.n	800628e <USB_EPStartXfer+0x22e>
 800628c:	3901      	subs	r1, #1
 800628e:	f8b3 2404 	ldrh.w	r2, [r3, #1028]	@ 0x404
 8006292:	b292      	uxth	r2, r2
 8006294:	0289      	lsls	r1, r1, #10
 8006296:	b289      	uxth	r1, r1
 8006298:	430a      	orrs	r2, r1
 800629a:	f442 4200 	orr.w	r2, r2, #32768	@ 0x8000
 800629e:	f8a3 2404 	strh.w	r2, [r3, #1028]	@ 0x404
 80062a2:	e028      	b.n	80062f6 <USB_EPStartXfer+0x296>
            PCD_SET_EP_DBUF1_CNT(USBx, ep->num, ep->is_in, len);
 80062a4:	f8b5 3050 	ldrh.w	r3, [r5, #80]	@ 0x50
 80062a8:	b29b      	uxth	r3, r3
 80062aa:	442b      	add	r3, r5
 80062ac:	eb03 1302 	add.w	r3, r3, r2, lsl #4
 80062b0:	b2b2      	uxth	r2, r6
 80062b2:	f8a3 240c 	strh.w	r2, [r3, #1036]	@ 0x40c
 80062b6:	e7c4      	b.n	8006242 <USB_EPStartXfer+0x1e2>
              ep->xfer_len_db = 0U;
 80062b8:	2200      	movs	r2, #0
 80062ba:	6222      	str	r2, [r4, #32]
              len = ep->xfer_len_db;
 80062bc:	461e      	mov	r6, r3
 80062be:	e7cf      	b.n	8006260 <USB_EPStartXfer+0x200>
            PCD_SET_EP_DBUF0_CNT(USBx, ep->num, ep->is_in, len);
 80062c0:	b94e      	cbnz	r6, 80062d6 <USB_EPStartXfer+0x276>
 80062c2:	f8b3 2404 	ldrh.w	r2, [r3, #1028]	@ 0x404
 80062c6:	ea6f 4242 	mvn.w	r2, r2, lsl #17
 80062ca:	ea6f 4252 	mvn.w	r2, r2, lsr #17
 80062ce:	b292      	uxth	r2, r2
 80062d0:	f8a3 2404 	strh.w	r2, [r3, #1028]	@ 0x404
 80062d4:	e00f      	b.n	80062f6 <USB_EPStartXfer+0x296>
 80062d6:	0872      	lsrs	r2, r6, #1
 80062d8:	f016 0f01 	tst.w	r6, #1
 80062dc:	d000      	beq.n	80062e0 <USB_EPStartXfer+0x280>
 80062de:	3201      	adds	r2, #1
 80062e0:	f8b3 1404 	ldrh.w	r1, [r3, #1028]	@ 0x404
 80062e4:	b289      	uxth	r1, r1
 80062e6:	0292      	lsls	r2, r2, #10
 80062e8:	b292      	uxth	r2, r2
 80062ea:	430a      	orrs	r2, r1
 80062ec:	f8a3 2404 	strh.w	r2, [r3, #1028]	@ 0x404
 80062f0:	e001      	b.n	80062f6 <USB_EPStartXfer+0x296>
 80062f2:	2b01      	cmp	r3, #1
 80062f4:	d006      	beq.n	8006304 <USB_EPStartXfer+0x2a4>
            USB_WritePMA(USBx, ep->xfer_buff, pmabuffer, (uint16_t)len);
 80062f6:	b2b3      	uxth	r3, r6
 80062f8:	8922      	ldrh	r2, [r4, #8]
 80062fa:	6961      	ldr	r1, [r4, #20]
 80062fc:	4628      	mov	r0, r5
 80062fe:	f7ff fe9c 	bl	800603a <USB_WritePMA>
 8006302:	e735      	b.n	8006170 <USB_EPStartXfer+0x110>
            PCD_SET_EP_DBUF0_CNT(USBx, ep->num, ep->is_in, len);
 8006304:	f8b5 3050 	ldrh.w	r3, [r5, #80]	@ 0x50
 8006308:	b29b      	uxth	r3, r3
 800630a:	442b      	add	r3, r5
 800630c:	7822      	ldrb	r2, [r4, #0]
 800630e:	eb03 1302 	add.w	r3, r3, r2, lsl #4
 8006312:	b2b2      	uxth	r2, r6
 8006314:	f8a3 2404 	strh.w	r2, [r3, #1028]	@ 0x404
 8006318:	e7ed      	b.n	80062f6 <USB_EPStartXfer+0x296>
            PCD_SET_EP_DBUF0_CNT(USBx, ep->num, ep->is_in, len);
 800631a:	7863      	ldrb	r3, [r4, #1]
 800631c:	bbb3      	cbnz	r3, 800638c <USB_EPStartXfer+0x32c>
 800631e:	f8b5 3050 	ldrh.w	r3, [r5, #80]	@ 0x50
 8006322:	b29b      	uxth	r3, r3
 8006324:	442b      	add	r3, r5
 8006326:	eb03 1302 	add.w	r3, r3, r2, lsl #4
 800632a:	f8b3 2404 	ldrh.w	r2, [r3, #1028]	@ 0x404
 800632e:	f3c2 0209 	ubfx	r2, r2, #0, #10
 8006332:	f8a3 2404 	strh.w	r2, [r3, #1028]	@ 0x404
 8006336:	2e3e      	cmp	r6, #62	@ 0x3e
 8006338:	d90f      	bls.n	800635a <USB_EPStartXfer+0x2fa>
 800633a:	0971      	lsrs	r1, r6, #5
 800633c:	f016 0f1f 	tst.w	r6, #31
 8006340:	d100      	bne.n	8006344 <USB_EPStartXfer+0x2e4>
 8006342:	3901      	subs	r1, #1
 8006344:	f8b3 2404 	ldrh.w	r2, [r3, #1028]	@ 0x404
 8006348:	b292      	uxth	r2, r2
 800634a:	0289      	lsls	r1, r1, #10
 800634c:	b289      	uxth	r1, r1
 800634e:	430a      	orrs	r2, r1
 8006350:	f442 4200 	orr.w	r2, r2, #32768	@ 0x8000
 8006354:	f8a3 2404 	strh.w	r2, [r3, #1028]	@ 0x404
 8006358:	e01a      	b.n	8006390 <USB_EPStartXfer+0x330>
 800635a:	b94e      	cbnz	r6, 8006370 <USB_EPStartXfer+0x310>
 800635c:	f8b3 2404 	ldrh.w	r2, [r3, #1028]	@ 0x404
 8006360:	ea6f 4242 	mvn.w	r2, r2, lsl #17
 8006364:	ea6f 4252 	mvn.w	r2, r2, lsr #17
 8006368:	b292      	uxth	r2, r2
 800636a:	f8a3 2404 	strh.w	r2, [r3, #1028]	@ 0x404
 800636e:	e00f      	b.n	8006390 <USB_EPStartXfer+0x330>
 8006370:	0872      	lsrs	r2, r6, #1
 8006372:	f016 0f01 	tst.w	r6, #1
 8006376:	d000      	beq.n	800637a <USB_EPStartXfer+0x31a>
 8006378:	3201      	adds	r2, #1
 800637a:	f8b3 1404 	ldrh.w	r1, [r3, #1028]	@ 0x404
 800637e:	b289      	uxth	r1, r1
 8006380:	0292      	lsls	r2, r2, #10
 8006382:	b292      	uxth	r2, r2
 8006384:	430a      	orrs	r2, r1
 8006386:	f8a3 2404 	strh.w	r2, [r3, #1028]	@ 0x404
 800638a:	e001      	b.n	8006390 <USB_EPStartXfer+0x330>
 800638c:	2b01      	cmp	r3, #1
 800638e:	d030      	beq.n	80063f2 <USB_EPStartXfer+0x392>
            USB_WritePMA(USBx, ep->xfer_buff, pmabuffer, (uint16_t)len);
 8006390:	b2b3      	uxth	r3, r6
 8006392:	8922      	ldrh	r2, [r4, #8]
 8006394:	6961      	ldr	r1, [r4, #20]
 8006396:	4628      	mov	r0, r5
 8006398:	f7ff fe4f 	bl	800603a <USB_WritePMA>
            ep->xfer_buff += len;
 800639c:	6963      	ldr	r3, [r4, #20]
 800639e:	4433      	add	r3, r6
 80063a0:	6163      	str	r3, [r4, #20]
            if (ep->xfer_len_db > ep->maxpacket)
 80063a2:	6a23      	ldr	r3, [r4, #32]
 80063a4:	6922      	ldr	r2, [r4, #16]
 80063a6:	4293      	cmp	r3, r2
 80063a8:	d92d      	bls.n	8006406 <USB_EPStartXfer+0x3a6>
              ep->xfer_len_db -= len;
 80063aa:	1b9b      	subs	r3, r3, r6
 80063ac:	6223      	str	r3, [r4, #32]
            PCD_SET_EP_DBUF1_CNT(USBx, ep->num, ep->is_in, len);
 80063ae:	7863      	ldrb	r3, [r4, #1]
 80063b0:	2b00      	cmp	r3, #0
 80063b2:	d145      	bne.n	8006440 <USB_EPStartXfer+0x3e0>
 80063b4:	f8b5 3050 	ldrh.w	r3, [r5, #80]	@ 0x50
 80063b8:	b29b      	uxth	r3, r3
 80063ba:	442b      	add	r3, r5
 80063bc:	7822      	ldrb	r2, [r4, #0]
 80063be:	eb03 1302 	add.w	r3, r3, r2, lsl #4
 80063c2:	f8b3 240c 	ldrh.w	r2, [r3, #1036]	@ 0x40c
 80063c6:	f3c2 0209 	ubfx	r2, r2, #0, #10
 80063ca:	f8a3 240c 	strh.w	r2, [r3, #1036]	@ 0x40c
 80063ce:	2e3e      	cmp	r6, #62	@ 0x3e
 80063d0:	d91d      	bls.n	800640e <USB_EPStartXfer+0x3ae>
 80063d2:	0971      	lsrs	r1, r6, #5
 80063d4:	f016 0f1f 	tst.w	r6, #31
 80063d8:	d100      	bne.n	80063dc <USB_EPStartXfer+0x37c>
 80063da:	3901      	subs	r1, #1
 80063dc:	f8b3 240c 	ldrh.w	r2, [r3, #1036]	@ 0x40c
 80063e0:	b292      	uxth	r2, r2
 80063e2:	0289      	lsls	r1, r1, #10
 80063e4:	b289      	uxth	r1, r1
 80063e6:	430a      	orrs	r2, r1
 80063e8:	f442 4200 	orr.w	r2, r2, #32768	@ 0x8000
 80063ec:	f8a3 240c 	strh.w	r2, [r3, #1036]	@ 0x40c
 80063f0:	e028      	b.n	8006444 <USB_EPStartXfer+0x3e4>
            PCD_SET_EP_DBUF0_CNT(USBx, ep->num, ep->is_in, len);
 80063f2:	f8b5 3050 	ldrh.w	r3, [r5, #80]	@ 0x50
 80063f6:	b29b      	uxth	r3, r3
 80063f8:	442b      	add	r3, r5
 80063fa:	eb03 1302 	add.w	r3, r3, r2, lsl #4
 80063fe:	b2b2      	uxth	r2, r6
 8006400:	f8a3 2404 	strh.w	r2, [r3, #1028]	@ 0x404
 8006404:	e7c4      	b.n	8006390 <USB_EPStartXfer+0x330>
              ep->xfer_len_db = 0U;
 8006406:	2200      	movs	r2, #0
 8006408:	6222      	str	r2, [r4, #32]
              len = ep->xfer_len_db;
 800640a:	461e      	mov	r6, r3
 800640c:	e7cf      	b.n	80063ae <USB_EPStartXfer+0x34e>
            PCD_SET_EP_DBUF1_CNT(USBx, ep->num, ep->is_in, len);
 800640e:	b94e      	cbnz	r6, 8006424 <USB_EPStartXfer+0x3c4>
 8006410:	f8b3 240c 	ldrh.w	r2, [r3, #1036]	@ 0x40c
 8006414:	ea6f 4242 	mvn.w	r2, r2, lsl #17
 8006418:	ea6f 4252 	mvn.w	r2, r2, lsr #17
 800641c:	b292      	uxth	r2, r2
 800641e:	f8a3 240c 	strh.w	r2, [r3, #1036]	@ 0x40c
 8006422:	e00f      	b.n	8006444 <USB_EPStartXfer+0x3e4>
 8006424:	0872      	lsrs	r2, r6, #1
 8006426:	f016 0f01 	tst.w	r6, #1
 800642a:	d000      	beq.n	800642e <USB_EPStartXfer+0x3ce>
 800642c:	3201      	adds	r2, #1
 800642e:	f8b3 140c 	ldrh.w	r1, [r3, #1036]	@ 0x40c
 8006432:	b289      	uxth	r1, r1
 8006434:	0292      	lsls	r2, r2, #10
 8006436:	b292      	uxth	r2, r2
 8006438:	430a      	orrs	r2, r1
 800643a:	f8a3 240c 	strh.w	r2, [r3, #1036]	@ 0x40c
 800643e:	e001      	b.n	8006444 <USB_EPStartXfer+0x3e4>
 8006440:	2b01      	cmp	r3, #1
 8006442:	d006      	beq.n	8006452 <USB_EPStartXfer+0x3f2>
            USB_WritePMA(USBx, ep->xfer_buff, pmabuffer, (uint16_t)len);
 8006444:	b2b3      	uxth	r3, r6
 8006446:	8962      	ldrh	r2, [r4, #10]
 8006448:	6961      	ldr	r1, [r4, #20]
 800644a:	4628      	mov	r0, r5
 800644c:	f7ff fdf5 	bl	800603a <USB_WritePMA>
 8006450:	e68e      	b.n	8006170 <USB_EPStartXfer+0x110>
            PCD_SET_EP_DBUF1_CNT(USBx, ep->num, ep->is_in, len);
 8006452:	f8b5 3050 	ldrh.w	r3, [r5, #80]	@ 0x50
 8006456:	b29b      	uxth	r3, r3
 8006458:	442b      	add	r3, r5
 800645a:	7822      	ldrb	r2, [r4, #0]
 800645c:	eb03 1302 	add.w	r3, r3, r2, lsl #4
 8006460:	b2b2      	uxth	r2, r6
 8006462:	f8a3 240c 	strh.w	r2, [r3, #1036]	@ 0x40c
 8006466:	e7ed      	b.n	8006444 <USB_EPStartXfer+0x3e4>
          PCD_CLEAR_BULK_EP_DBUF(USBx, ep->num);
 8006468:	7821      	ldrb	r1, [r4, #0]
 800646a:	f835 2021 	ldrh.w	r2, [r5, r1, lsl #2]
 800646e:	b292      	uxth	r2, r2
 8006470:	f422 42e2 	bic.w	r2, r2, #28928	@ 0x7100
 8006474:	f022 0270 	bic.w	r2, r2, #112	@ 0x70
 8006478:	f442 4200 	orr.w	r2, r2, #32768	@ 0x8000
 800647c:	f042 0280 	orr.w	r2, r2, #128	@ 0x80
 8006480:	f825 2021 	strh.w	r2, [r5, r1, lsl #2]
          PCD_SET_EP_TX_CNT(USBx, ep->num, len);
 8006484:	f8b5 2050 	ldrh.w	r2, [r5, #80]	@ 0x50
 8006488:	b292      	uxth	r2, r2
 800648a:	442a      	add	r2, r5
 800648c:	7821      	ldrb	r1, [r4, #0]
 800648e:	eb02 1201 	add.w	r2, r2, r1, lsl #4
 8006492:	b29b      	uxth	r3, r3
 8006494:	f8a2 3404 	strh.w	r3, [r2, #1028]	@ 0x404
          USB_WritePMA(USBx, ep->xfer_buff, pmabuffer, (uint16_t)len);
 8006498:	8922      	ldrh	r2, [r4, #8]
 800649a:	6961      	ldr	r1, [r4, #20]
 800649c:	4628      	mov	r0, r5
 800649e:	f7ff fdcc 	bl	800603a <USB_WritePMA>
 80064a2:	e665      	b.n	8006170 <USB_EPStartXfer+0x110>
          PCD_SET_EP_DBUF1_CNT(USBx, ep->num, ep->is_in, len);
 80064a4:	b94e      	cbnz	r6, 80064ba <USB_EPStartXfer+0x45a>
 80064a6:	f8b3 240c 	ldrh.w	r2, [r3, #1036]	@ 0x40c
 80064aa:	ea6f 4242 	mvn.w	r2, r2, lsl #17
 80064ae:	ea6f 4252 	mvn.w	r2, r2, lsr #17
 80064b2:	b292      	uxth	r2, r2
 80064b4:	f8a3 240c 	strh.w	r2, [r3, #1036]	@ 0x40c
 80064b8:	e016      	b.n	80064e8 <USB_EPStartXfer+0x488>
 80064ba:	0872      	lsrs	r2, r6, #1
 80064bc:	f016 0f01 	tst.w	r6, #1
 80064c0:	d000      	beq.n	80064c4 <USB_EPStartXfer+0x464>
 80064c2:	3201      	adds	r2, #1
 80064c4:	f8b3 140c 	ldrh.w	r1, [r3, #1036]	@ 0x40c
 80064c8:	b289      	uxth	r1, r1
 80064ca:	0292      	lsls	r2, r2, #10
 80064cc:	b292      	uxth	r2, r2
 80064ce:	430a      	orrs	r2, r1
 80064d0:	f8a3 240c 	strh.w	r2, [r3, #1036]	@ 0x40c
 80064d4:	e008      	b.n	80064e8 <USB_EPStartXfer+0x488>
 80064d6:	f8b5 3050 	ldrh.w	r3, [r5, #80]	@ 0x50
 80064da:	b29b      	uxth	r3, r3
 80064dc:	442b      	add	r3, r5
 80064de:	eb03 1301 	add.w	r3, r3, r1, lsl #4
 80064e2:	b2b2      	uxth	r2, r6
 80064e4:	f8a3 240c 	strh.w	r2, [r3, #1036]	@ 0x40c
          USB_WritePMA(USBx, ep->xfer_buff, pmabuffer, (uint16_t)len);
 80064e8:	b2b3      	uxth	r3, r6
 80064ea:	8962      	ldrh	r2, [r4, #10]
 80064ec:	6961      	ldr	r1, [r4, #20]
 80064ee:	4628      	mov	r0, r5
 80064f0:	f7ff fda3 	bl	800603a <USB_WritePMA>
 80064f4:	e63c      	b.n	8006170 <USB_EPStartXfer+0x110>
          PCD_SET_EP_DBUF0_CNT(USBx, ep->num, ep->is_in, len);
 80064f6:	bbb2      	cbnz	r2, 8006566 <USB_EPStartXfer+0x506>
 80064f8:	f8b5 3050 	ldrh.w	r3, [r5, #80]	@ 0x50
 80064fc:	b29b      	uxth	r3, r3
 80064fe:	442b      	add	r3, r5
 8006500:	eb03 1301 	add.w	r3, r3, r1, lsl #4
 8006504:	f8b3 2404 	ldrh.w	r2, [r3, #1028]	@ 0x404
 8006508:	f3c2 0209 	ubfx	r2, r2, #0, #10
 800650c:	f8a3 2404 	strh.w	r2, [r3, #1028]	@ 0x404
 8006510:	2e3e      	cmp	r6, #62	@ 0x3e
 8006512:	d90f      	bls.n	8006534 <USB_EPStartXfer+0x4d4>
 8006514:	0971      	lsrs	r1, r6, #5
 8006516:	f016 0f1f 	tst.w	r6, #31
 800651a:	d100      	bne.n	800651e <USB_EPStartXfer+0x4be>
 800651c:	3901      	subs	r1, #1
 800651e:	f8b3 2404 	ldrh.w	r2, [r3, #1028]	@ 0x404
 8006522:	b292      	uxth	r2, r2
 8006524:	0289      	lsls	r1, r1, #10
 8006526:	b289      	uxth	r1, r1
 8006528:	430a      	orrs	r2, r1
 800652a:	f442 4200 	orr.w	r2, r2, #32768	@ 0x8000
 800652e:	f8a3 2404 	strh.w	r2, [r3, #1028]	@ 0x404
 8006532:	e021      	b.n	8006578 <USB_EPStartXfer+0x518>
 8006534:	b94e      	cbnz	r6, 800654a <USB_EPStartXfer+0x4ea>
 8006536:	f8b3 2404 	ldrh.w	r2, [r3, #1028]	@ 0x404
 800653a:	ea6f 4242 	mvn.w	r2, r2, lsl #17
 800653e:	ea6f 4252 	mvn.w	r2, r2, lsr #17
 8006542:	b292      	uxth	r2, r2
 8006544:	f8a3 2404 	strh.w	r2, [r3, #1028]	@ 0x404
 8006548:	e016      	b.n	8006578 <USB_EPStartXfer+0x518>
 800654a:	0872      	lsrs	r2, r6, #1
 800654c:	f016 0f01 	tst.w	r6, #1
 8006550:	d000      	beq.n	8006554 <USB_EPStartXfer+0x4f4>
 8006552:	3201      	adds	r2, #1
 8006554:	f8b3 1404 	ldrh.w	r1, [r3, #1028]	@ 0x404
 8006558:	b289      	uxth	r1, r1
 800655a:	0292      	lsls	r2, r2, #10
 800655c:	b292      	uxth	r2, r2
 800655e:	430a      	orrs	r2, r1
 8006560:	f8a3 2404 	strh.w	r2, [r3, #1028]	@ 0x404
 8006564:	e008      	b.n	8006578 <USB_EPStartXfer+0x518>
 8006566:	f8b5 3050 	ldrh.w	r3, [r5, #80]	@ 0x50
 800656a:	b29b      	uxth	r3, r3
 800656c:	442b      	add	r3, r5
 800656e:	eb03 1301 	add.w	r3, r3, r1, lsl #4
 8006572:	b2b2      	uxth	r2, r6
 8006574:	f8a3 2404 	strh.w	r2, [r3, #1028]	@ 0x404
          USB_WritePMA(USBx, ep->xfer_buff, pmabuffer, (uint16_t)len);
 8006578:	b2b3      	uxth	r3, r6
 800657a:	8922      	ldrh	r2, [r4, #8]
 800657c:	6961      	ldr	r1, [r4, #20]
 800657e:	4628      	mov	r0, r5
 8006580:	f7ff fd5b 	bl	800603a <USB_WritePMA>
 8006584:	e5f4      	b.n	8006170 <USB_EPStartXfer+0x110>
        ep->xfer_len = 0U;
 8006586:	2200      	movs	r2, #0
 8006588:	618a      	str	r2, [r1, #24]
        len = ep->xfer_len;
 800658a:	461a      	mov	r2, r3
 800658c:	e579      	b.n	8006082 <USB_EPStartXfer+0x22>
      PCD_SET_EP_RX_CNT(USBx, ep->num, len);
 800658e:	b94a      	cbnz	r2, 80065a4 <USB_EPStartXfer+0x544>
 8006590:	f8b3 240c 	ldrh.w	r2, [r3, #1036]	@ 0x40c
 8006594:	ea6f 4242 	mvn.w	r2, r2, lsl #17
 8006598:	ea6f 4252 	mvn.w	r2, r2, lsr #17
 800659c:	b292      	uxth	r2, r2
 800659e:	f8a3 240c 	strh.w	r2, [r3, #1036]	@ 0x40c
 80065a2:	e58d      	b.n	80060c0 <USB_EPStartXfer+0x60>
 80065a4:	0851      	lsrs	r1, r2, #1
 80065a6:	f012 0f01 	tst.w	r2, #1
 80065aa:	d000      	beq.n	80065ae <USB_EPStartXfer+0x54e>
 80065ac:	3101      	adds	r1, #1
 80065ae:	f8b3 240c 	ldrh.w	r2, [r3, #1036]	@ 0x40c
 80065b2:	b292      	uxth	r2, r2
 80065b4:	0289      	lsls	r1, r1, #10
 80065b6:	b289      	uxth	r1, r1
 80065b8:	430a      	orrs	r2, r1
 80065ba:	f8a3 240c 	strh.w	r2, [r3, #1036]	@ 0x40c
 80065be:	e57f      	b.n	80060c0 <USB_EPStartXfer+0x60>
      if (ep->type == EP_TYPE_BULK)
 80065c0:	78cb      	ldrb	r3, [r1, #3]
 80065c2:	2b02      	cmp	r3, #2
 80065c4:	d04d      	beq.n	8006662 <USB_EPStartXfer+0x602>
      else if (ep->type == EP_TYPE_ISOC)
 80065c6:	2b01      	cmp	r3, #1
 80065c8:	f040 812f 	bne.w	800682a <USB_EPStartXfer+0x7ca>
        if (ep->xfer_len > ep->maxpacket)
 80065cc:	6989      	ldr	r1, [r1, #24]
 80065ce:	6923      	ldr	r3, [r4, #16]
 80065d0:	4299      	cmp	r1, r3
 80065d2:	f240 80e6 	bls.w	80067a2 <USB_EPStartXfer+0x742>
          ep->xfer_len -= len;
 80065d6:	1ac9      	subs	r1, r1, r3
 80065d8:	61a1      	str	r1, [r4, #24]
        PCD_SET_EP_DBUF_CNT(USBx, ep->num, ep->is_in, len);
 80065da:	b9f2      	cbnz	r2, 800661a <USB_EPStartXfer+0x5ba>
 80065dc:	f8b5 2050 	ldrh.w	r2, [r5, #80]	@ 0x50
 80065e0:	b292      	uxth	r2, r2
 80065e2:	442a      	add	r2, r5
 80065e4:	7821      	ldrb	r1, [r4, #0]
 80065e6:	eb02 1201 	add.w	r2, r2, r1, lsl #4
 80065ea:	f8b2 1404 	ldrh.w	r1, [r2, #1028]	@ 0x404
 80065ee:	f3c1 0109 	ubfx	r1, r1, #0, #10
 80065f2:	f8a2 1404 	strh.w	r1, [r2, #1028]	@ 0x404
 80065f6:	2b3e      	cmp	r3, #62	@ 0x3e
 80065f8:	f240 80d7 	bls.w	80067aa <USB_EPStartXfer+0x74a>
 80065fc:	0958      	lsrs	r0, r3, #5
 80065fe:	f013 0f1f 	tst.w	r3, #31
 8006602:	d100      	bne.n	8006606 <USB_EPStartXfer+0x5a6>
 8006604:	3801      	subs	r0, #1
 8006606:	f8b2 1404 	ldrh.w	r1, [r2, #1028]	@ 0x404
 800660a:	b289      	uxth	r1, r1
 800660c:	0280      	lsls	r0, r0, #10
 800660e:	b280      	uxth	r0, r0
 8006610:	4301      	orrs	r1, r0
 8006612:	f441 4100 	orr.w	r1, r1, #32768	@ 0x8000
 8006616:	f8a2 1404 	strh.w	r1, [r2, #1028]	@ 0x404
 800661a:	7862      	ldrb	r2, [r4, #1]
 800661c:	2a00      	cmp	r2, #0
 800661e:	f040 80f6 	bne.w	800680e <USB_EPStartXfer+0x7ae>
 8006622:	f8b5 2050 	ldrh.w	r2, [r5, #80]	@ 0x50
 8006626:	b292      	uxth	r2, r2
 8006628:	442a      	add	r2, r5
 800662a:	7821      	ldrb	r1, [r4, #0]
 800662c:	eb02 1201 	add.w	r2, r2, r1, lsl #4
 8006630:	f8b2 140c 	ldrh.w	r1, [r2, #1036]	@ 0x40c
 8006634:	f3c1 0109 	ubfx	r1, r1, #0, #10
 8006638:	f8a2 140c 	strh.w	r1, [r2, #1036]	@ 0x40c
 800663c:	2b3e      	cmp	r3, #62	@ 0x3e
 800663e:	f240 80cd 	bls.w	80067dc <USB_EPStartXfer+0x77c>
 8006642:	0959      	lsrs	r1, r3, #5
 8006644:	f013 0f1f 	tst.w	r3, #31
 8006648:	d100      	bne.n	800664c <USB_EPStartXfer+0x5ec>
 800664a:	3901      	subs	r1, #1
 800664c:	f8b2 340c 	ldrh.w	r3, [r2, #1036]	@ 0x40c
 8006650:	b29b      	uxth	r3, r3
 8006652:	0289      	lsls	r1, r1, #10
 8006654:	b289      	uxth	r1, r1
 8006656:	430b      	orrs	r3, r1
 8006658:	f443 4300 	orr.w	r3, r3, #32768	@ 0x8000
 800665c:	f8a2 340c 	strh.w	r3, [r2, #1036]	@ 0x40c
 8006660:	e52e      	b.n	80060c0 <USB_EPStartXfer+0x60>
        PCD_SET_EP_DBUF_CNT(USBx, ep->num, ep->is_in, ep->maxpacket);
 8006662:	b9f2      	cbnz	r2, 80066a2 <USB_EPStartXfer+0x642>
 8006664:	f8b0 3050 	ldrh.w	r3, [r0, #80]	@ 0x50
 8006668:	b29b      	uxth	r3, r3
 800666a:	4403      	add	r3, r0
 800666c:	780a      	ldrb	r2, [r1, #0]
 800666e:	eb03 1302 	add.w	r3, r3, r2, lsl #4
 8006672:	f8b3 2404 	ldrh.w	r2, [r3, #1028]	@ 0x404
 8006676:	f3c2 0209 	ubfx	r2, r2, #0, #10
 800667a:	f8a3 2404 	strh.w	r2, [r3, #1028]	@ 0x404
 800667e:	690a      	ldr	r2, [r1, #16]
 8006680:	2a3e      	cmp	r2, #62	@ 0x3e
 8006682:	d931      	bls.n	80066e8 <USB_EPStartXfer+0x688>
 8006684:	0951      	lsrs	r1, r2, #5
 8006686:	f012 0f1f 	tst.w	r2, #31
 800668a:	d100      	bne.n	800668e <USB_EPStartXfer+0x62e>
 800668c:	3901      	subs	r1, #1
 800668e:	f8b3 2404 	ldrh.w	r2, [r3, #1028]	@ 0x404
 8006692:	b292      	uxth	r2, r2
 8006694:	0289      	lsls	r1, r1, #10
 8006696:	b289      	uxth	r1, r1
 8006698:	430a      	orrs	r2, r1
 800669a:	f442 4200 	orr.w	r2, r2, #32768	@ 0x8000
 800669e:	f8a3 2404 	strh.w	r2, [r3, #1028]	@ 0x404
 80066a2:	7863      	ldrb	r3, [r4, #1]
 80066a4:	2b00      	cmp	r3, #0
 80066a6:	d151      	bne.n	800674c <USB_EPStartXfer+0x6ec>
 80066a8:	f8b5 3050 	ldrh.w	r3, [r5, #80]	@ 0x50
 80066ac:	b29b      	uxth	r3, r3
 80066ae:	442b      	add	r3, r5
 80066b0:	7822      	ldrb	r2, [r4, #0]
 80066b2:	eb03 1302 	add.w	r3, r3, r2, lsl #4
 80066b6:	f8b3 240c 	ldrh.w	r2, [r3, #1036]	@ 0x40c
 80066ba:	f3c2 0209 	ubfx	r2, r2, #0, #10
 80066be:	f8a3 240c 	strh.w	r2, [r3, #1036]	@ 0x40c
 80066c2:	6922      	ldr	r2, [r4, #16]
 80066c4:	2a3e      	cmp	r2, #62	@ 0x3e
 80066c6:	d928      	bls.n	800671a <USB_EPStartXfer+0x6ba>
 80066c8:	0951      	lsrs	r1, r2, #5
 80066ca:	f012 0f1f 	tst.w	r2, #31
 80066ce:	d100      	bne.n	80066d2 <USB_EPStartXfer+0x672>
 80066d0:	3901      	subs	r1, #1
 80066d2:	f8b3 240c 	ldrh.w	r2, [r3, #1036]	@ 0x40c
 80066d6:	b292      	uxth	r2, r2
 80066d8:	0289      	lsls	r1, r1, #10
 80066da:	b289      	uxth	r1, r1
 80066dc:	430a      	orrs	r2, r1
 80066de:	f442 4200 	orr.w	r2, r2, #32768	@ 0x8000
 80066e2:	f8a3 240c 	strh.w	r2, [r3, #1036]	@ 0x40c
 80066e6:	e033      	b.n	8006750 <USB_EPStartXfer+0x6f0>
 80066e8:	b94a      	cbnz	r2, 80066fe <USB_EPStartXfer+0x69e>
 80066ea:	f8b3 2404 	ldrh.w	r2, [r3, #1028]	@ 0x404
 80066ee:	ea6f 4242 	mvn.w	r2, r2, lsl #17
 80066f2:	ea6f 4252 	mvn.w	r2, r2, lsr #17
 80066f6:	b292      	uxth	r2, r2
 80066f8:	f8a3 2404 	strh.w	r2, [r3, #1028]	@ 0x404
 80066fc:	e7d1      	b.n	80066a2 <USB_EPStartXfer+0x642>
 80066fe:	0851      	lsrs	r1, r2, #1
 8006700:	f012 0f01 	tst.w	r2, #1
 8006704:	d000      	beq.n	8006708 <USB_EPStartXfer+0x6a8>
 8006706:	3101      	adds	r1, #1
 8006708:	f8b3 2404 	ldrh.w	r2, [r3, #1028]	@ 0x404
 800670c:	b290      	uxth	r0, r2
 800670e:	028a      	lsls	r2, r1, #10
 8006710:	b292      	uxth	r2, r2
 8006712:	4302      	orrs	r2, r0
 8006714:	f8a3 2404 	strh.w	r2, [r3, #1028]	@ 0x404
 8006718:	e7c3      	b.n	80066a2 <USB_EPStartXfer+0x642>
 800671a:	b94a      	cbnz	r2, 8006730 <USB_EPStartXfer+0x6d0>
 800671c:	f8b3 240c 	ldrh.w	r2, [r3, #1036]	@ 0x40c
 8006720:	ea6f 4242 	mvn.w	r2, r2, lsl #17
 8006724:	ea6f 4252 	mvn.w	r2, r2, lsr #17
 8006728:	b292      	uxth	r2, r2
 800672a:	f8a3 240c 	strh.w	r2, [r3, #1036]	@ 0x40c
 800672e:	e00f      	b.n	8006750 <USB_EPStartXfer+0x6f0>
 8006730:	0851      	lsrs	r1, r2, #1
 8006732:	f012 0f01 	tst.w	r2, #1
 8006736:	d000      	beq.n	800673a <USB_EPStartXfer+0x6da>
 8006738:	3101      	adds	r1, #1
 800673a:	f8b3 240c 	ldrh.w	r2, [r3, #1036]	@ 0x40c
 800673e:	b290      	uxth	r0, r2
 8006740:	028a      	lsls	r2, r1, #10
 8006742:	b292      	uxth	r2, r2
 8006744:	4302      	orrs	r2, r0
 8006746:	f8a3 240c 	strh.w	r2, [r3, #1036]	@ 0x40c
 800674a:	e001      	b.n	8006750 <USB_EPStartXfer+0x6f0>
 800674c:	2b01      	cmp	r3, #1
 800674e:	d01d      	beq.n	800678c <USB_EPStartXfer+0x72c>
        if (ep->xfer_count != 0U)
 8006750:	69e3      	ldr	r3, [r4, #28]
 8006752:	2b00      	cmp	r3, #0
 8006754:	f43f acb4 	beq.w	80060c0 <USB_EPStartXfer+0x60>
          wEPVal = PCD_GET_ENDPOINT(USBx, ep->num);
 8006758:	7822      	ldrb	r2, [r4, #0]
 800675a:	f835 1022 	ldrh.w	r1, [r5, r2, lsl #2]
          if ((((wEPVal & USB_EP_DTOG_RX) != 0U) && ((wEPVal & USB_EP_DTOG_TX) != 0U)) ||
 800675e:	f244 0340 	movw	r3, #16448	@ 0x4040
 8006762:	ea03 0001 	and.w	r0, r3, r1
 8006766:	438b      	bics	r3, r1
 8006768:	d002      	beq.n	8006770 <USB_EPStartXfer+0x710>
 800676a:	2800      	cmp	r0, #0
 800676c:	f47f aca8 	bne.w	80060c0 <USB_EPStartXfer+0x60>
            PCD_FREE_USER_BUFFER(USBx, ep->num, 0U);
 8006770:	f835 3022 	ldrh.w	r3, [r5, r2, lsl #2]
 8006774:	b29b      	uxth	r3, r3
 8006776:	f423 43e0 	bic.w	r3, r3, #28672	@ 0x7000
 800677a:	f023 0370 	bic.w	r3, r3, #112	@ 0x70
 800677e:	f443 4300 	orr.w	r3, r3, #32768	@ 0x8000
 8006782:	f043 03c0 	orr.w	r3, r3, #192	@ 0xc0
 8006786:	f825 3022 	strh.w	r3, [r5, r2, lsl #2]
 800678a:	e499      	b.n	80060c0 <USB_EPStartXfer+0x60>
        PCD_SET_EP_DBUF_CNT(USBx, ep->num, ep->is_in, ep->maxpacket);
 800678c:	f8b5 3050 	ldrh.w	r3, [r5, #80]	@ 0x50
 8006790:	b29b      	uxth	r3, r3
 8006792:	442b      	add	r3, r5
 8006794:	7822      	ldrb	r2, [r4, #0]
 8006796:	eb03 1302 	add.w	r3, r3, r2, lsl #4
 800679a:	8a22      	ldrh	r2, [r4, #16]
 800679c:	f8a3 240c 	strh.w	r2, [r3, #1036]	@ 0x40c
 80067a0:	e7d6      	b.n	8006750 <USB_EPStartXfer+0x6f0>
          ep->xfer_len = 0U;
 80067a2:	2300      	movs	r3, #0
 80067a4:	61a3      	str	r3, [r4, #24]
          len = ep->xfer_len;
 80067a6:	460b      	mov	r3, r1
 80067a8:	e717      	b.n	80065da <USB_EPStartXfer+0x57a>
        PCD_SET_EP_DBUF_CNT(USBx, ep->num, ep->is_in, len);
 80067aa:	b94b      	cbnz	r3, 80067c0 <USB_EPStartXfer+0x760>
 80067ac:	f8b2 1404 	ldrh.w	r1, [r2, #1028]	@ 0x404
 80067b0:	ea6f 4141 	mvn.w	r1, r1, lsl #17
 80067b4:	ea6f 4151 	mvn.w	r1, r1, lsr #17
 80067b8:	b289      	uxth	r1, r1
 80067ba:	f8a2 1404 	strh.w	r1, [r2, #1028]	@ 0x404
 80067be:	e72c      	b.n	800661a <USB_EPStartXfer+0x5ba>
 80067c0:	0859      	lsrs	r1, r3, #1
 80067c2:	f013 0f01 	tst.w	r3, #1
 80067c6:	d000      	beq.n	80067ca <USB_EPStartXfer+0x76a>
 80067c8:	3101      	adds	r1, #1
 80067ca:	f8b2 0404 	ldrh.w	r0, [r2, #1028]	@ 0x404
 80067ce:	b280      	uxth	r0, r0
 80067d0:	0289      	lsls	r1, r1, #10
 80067d2:	b289      	uxth	r1, r1
 80067d4:	4301      	orrs	r1, r0
 80067d6:	f8a2 1404 	strh.w	r1, [r2, #1028]	@ 0x404
 80067da:	e71e      	b.n	800661a <USB_EPStartXfer+0x5ba>
 80067dc:	b94b      	cbnz	r3, 80067f2 <USB_EPStartXfer+0x792>
 80067de:	f8b2 340c 	ldrh.w	r3, [r2, #1036]	@ 0x40c
 80067e2:	ea6f 4343 	mvn.w	r3, r3, lsl #17
 80067e6:	ea6f 4353 	mvn.w	r3, r3, lsr #17
 80067ea:	b29b      	uxth	r3, r3
 80067ec:	f8a2 340c 	strh.w	r3, [r2, #1036]	@ 0x40c
 80067f0:	e466      	b.n	80060c0 <USB_EPStartXfer+0x60>
 80067f2:	0859      	lsrs	r1, r3, #1
 80067f4:	f013 0f01 	tst.w	r3, #1
 80067f8:	d000      	beq.n	80067fc <USB_EPStartXfer+0x79c>
 80067fa:	3101      	adds	r1, #1
 80067fc:	f8b2 340c 	ldrh.w	r3, [r2, #1036]	@ 0x40c
 8006800:	b298      	uxth	r0, r3
 8006802:	028b      	lsls	r3, r1, #10
 8006804:	b29b      	uxth	r3, r3
 8006806:	4303      	orrs	r3, r0
 8006808:	f8a2 340c 	strh.w	r3, [r2, #1036]	@ 0x40c
 800680c:	e458      	b.n	80060c0 <USB_EPStartXfer+0x60>
 800680e:	2a01      	cmp	r2, #1
 8006810:	f47f ac56 	bne.w	80060c0 <USB_EPStartXfer+0x60>
 8006814:	f8b5 2050 	ldrh.w	r2, [r5, #80]	@ 0x50
 8006818:	b292      	uxth	r2, r2
 800681a:	442a      	add	r2, r5
 800681c:	7821      	ldrb	r1, [r4, #0]
 800681e:	eb02 1201 	add.w	r2, r2, r1, lsl #4
 8006822:	b29b      	uxth	r3, r3
 8006824:	f8a2 340c 	strh.w	r3, [r2, #1036]	@ 0x40c
 8006828:	e44a      	b.n	80060c0 <USB_EPStartXfer+0x60>
        return HAL_ERROR;
 800682a:	2001      	movs	r0, #1
 800682c:	e459      	b.n	80060e2 <USB_EPStartXfer+0x82>

0800682e <USB_ReadPMA>:
  * @param   wPMABufAddr address into PMA.
  * @param   wNBytes no. of bytes to be copied.
  * @retval None
  */
void USB_ReadPMA(USB_TypeDef const *USBx, uint8_t *pbUsrBuf, uint16_t wPMABufAddr, uint16_t wNBytes)
{
 800682e:	b410      	push	{r4}
  uint32_t n = (uint32_t)wNBytes >> 1;
 8006830:	085c      	lsrs	r4, r3, #1
  uint32_t count;
  uint32_t RdVal;
  __IO uint16_t *pdwVal;
  uint8_t *pBuf = pbUsrBuf;

  pdwVal = (__IO uint16_t *)(BaseAddr + 0x400U + ((uint32_t)wPMABufAddr * PMA_ACCESS));
 8006832:	eb00 0042 	add.w	r0, r0, r2, lsl #1
 8006836:	f500 6080 	add.w	r0, r0, #1024	@ 0x400

  for (count = n; count != 0U; count--)
 800683a:	e007      	b.n	800684c <USB_ReadPMA+0x1e>
  {
    RdVal = *(__IO uint16_t *)pdwVal;
 800683c:	f830 2b04 	ldrh.w	r2, [r0], #4
    pdwVal++;
    *pBuf = (uint8_t)((RdVal >> 0) & 0xFFU);
 8006840:	700a      	strb	r2, [r1, #0]
    pBuf++;
    *pBuf = (uint8_t)((RdVal >> 8) & 0xFFU);
 8006842:	f3c2 2207 	ubfx	r2, r2, #8, #8
 8006846:	704a      	strb	r2, [r1, #1]
    pBuf++;
 8006848:	3102      	adds	r1, #2
  for (count = n; count != 0U; count--)
 800684a:	3c01      	subs	r4, #1
 800684c:	2c00      	cmp	r4, #0
 800684e:	d1f5      	bne.n	800683c <USB_ReadPMA+0xe>
#if PMA_ACCESS > 1U
    pdwVal++;
#endif /* PMA_ACCESS */
  }

  if ((wNBytes % 2U) != 0U)
 8006850:	f013 0f01 	tst.w	r3, #1
 8006854:	d001      	beq.n	800685a <USB_ReadPMA+0x2c>
  {
    RdVal = *pdwVal;
 8006856:	8803      	ldrh	r3, [r0, #0]
    *pBuf = (uint8_t)((RdVal >> 0) & 0xFFU);
 8006858:	700b      	strb	r3, [r1, #0]
  }
}
 800685a:	bc10      	pop	{r4}
 800685c:	4770      	bx	lr
	...

08006860 <_sbrk>:
 *
 * @param incr Memory size
 * @return Pointer to allocated memory
 */
void *_sbrk(ptrdiff_t incr)
{
 8006860:	b510      	push	{r4, lr}
 8006862:	4603      	mov	r3, r0
  extern uint8_t _end; /* Symbol defined in the linker script */
  extern uint8_t _estack; /* Symbol defined in the linker script */
  extern uint32_t _Min_Stack_Size; /* Symbol defined in the linker script */
  const uint32_t stack_limit = (uint32_t)&_estack - (uint32_t)&_Min_Stack_Size;
 8006864:	4a0c      	ldr	r2, [pc, #48]	@ (8006898 <_sbrk+0x38>)
 8006866:	490d      	ldr	r1, [pc, #52]	@ (800689c <_sbrk+0x3c>)
  const uint8_t *max_heap = (uint8_t *)stack_limit;
  uint8_t *prev_heap_end;

  /* Initialize heap end at first call */
  if (NULL == __sbrk_heap_end)
 8006868:	480d      	ldr	r0, [pc, #52]	@ (80068a0 <_sbrk+0x40>)
 800686a:	6800      	ldr	r0, [r0, #0]
 800686c:	b140      	cbz	r0, 8006880 <_sbrk+0x20>
  {
    __sbrk_heap_end = &_end;
  }

  /* Protect heap from growing into the reserved MSP stack */
  if (__sbrk_heap_end + incr > max_heap)
 800686e:	480c      	ldr	r0, [pc, #48]	@ (80068a0 <_sbrk+0x40>)
 8006870:	6800      	ldr	r0, [r0, #0]
 8006872:	4403      	add	r3, r0
 8006874:	1a52      	subs	r2, r2, r1
 8006876:	4293      	cmp	r3, r2
 8006878:	d806      	bhi.n	8006888 <_sbrk+0x28>
    errno = ENOMEM;
    return (void *)-1;
  }

  prev_heap_end = __sbrk_heap_end;
  __sbrk_heap_end += incr;
 800687a:	4a09      	ldr	r2, [pc, #36]	@ (80068a0 <_sbrk+0x40>)
 800687c:	6013      	str	r3, [r2, #0]

  return (void *)prev_heap_end;
}
 800687e:	bd10      	pop	{r4, pc}
    __sbrk_heap_end = &_end;
 8006880:	4807      	ldr	r0, [pc, #28]	@ (80068a0 <_sbrk+0x40>)
 8006882:	4c08      	ldr	r4, [pc, #32]	@ (80068a4 <_sbrk+0x44>)
 8006884:	6004      	str	r4, [r0, #0]
 8006886:	e7f2      	b.n	800686e <_sbrk+0xe>
    errno = ENOMEM;
 8006888:	f7f9 fc86 	bl	8000198 <__errno>
 800688c:	230c      	movs	r3, #12
 800688e:	6003      	str	r3, [r0, #0]
    return (void *)-1;
 8006890:	f04f 30ff 	mov.w	r0, #4294967295	@ 0xffffffff
 8006894:	e7f3      	b.n	800687e <_sbrk+0x1e>
 8006896:	bf00      	nop
 8006898:	20005000 	.word	0x20005000
 800689c:	00000400 	.word	0x00000400
 80068a0:	20000698 	.word	0x20000698
 80068a4:	20001980 	.word	0x20001980

080068a8 <SystemInit>:

  /* Configure the Vector Table location -------------------------------------*/
#if defined(USER_VECT_TAB_ADDRESS)
  SCB->VTOR = VECT_TAB_BASE_ADDRESS | VECT_TAB_OFFSET; /* Vector Table Relocation in Internal SRAM. */
#endif /* USER_VECT_TAB_ADDRESS */
}
 80068a8:	4770      	bx	lr
	...

080068ac <MX_TIM2_Init>:
  HAL_TIM_MspPostInit(&htim1);

}
/* TIM2 init function */
void MX_TIM2_Init(void)
{
 80068ac:	b500      	push	{lr}
 80068ae:	b087      	sub	sp, #28

  /* USER CODE BEGIN TIM2_Init 0 */

  /* USER CODE END TIM2_Init 0 */

  TIM_ClockConfigTypeDef sClockSourceConfig = {0};
 80068b0:	2300      	movs	r3, #0
 80068b2:	9302      	str	r3, [sp, #8]
 80068b4:	9303      	str	r3, [sp, #12]
 80068b6:	9304      	str	r3, [sp, #16]
 80068b8:	9305      	str	r3, [sp, #20]
  TIM_MasterConfigTypeDef sMasterConfig = {0};
 80068ba:	9300      	str	r3, [sp, #0]
 80068bc:	9301      	str	r3, [sp, #4]

  /* USER CODE BEGIN TIM2_Init 1 */

  /* USER CODE END TIM2_Init 1 */
  htim2.Instance = TIM2;
 80068be:	4816      	ldr	r0, [pc, #88]	@ (8006918 <MX_TIM2_Init+0x6c>)
 80068c0:	f04f 4280 	mov.w	r2, #1073741824	@ 0x40000000
 80068c4:	6002      	str	r2, [r0, #0]
  htim2.Init.Prescaler = 719;
 80068c6:	f240 22cf 	movw	r2, #719	@ 0x2cf
 80068ca:	6042      	str	r2, [r0, #4]
  htim2.Init.CounterMode = TIM_COUNTERMODE_UP;
 80068cc:	6083      	str	r3, [r0, #8]
  htim2.Init.Period = 5000;
 80068ce:	f241 3288 	movw	r2, #5000	@ 0x1388
 80068d2:	60c2      	str	r2, [r0, #12]
  htim2.Init.ClockDivision = TIM_CLOCKDIVISION_DIV1;
 80068d4:	6103      	str	r3, [r0, #16]
  htim2.Init.AutoReloadPreload = TIM_AUTORELOAD_PRELOAD_DISABLE;
 80068d6:	6183      	str	r3, [r0, #24]
  if (HAL_TIM_Base_Init(&htim2) != HAL_OK)
 80068d8:	f7fe fd12 	bl	8005300 <HAL_TIM_Base_Init>
 80068dc:	b990      	cbnz	r0, 8006904 <MX_TIM2_Init+0x58>
  {
    Error_Handler();
  }
  sClockSourceConfig.ClockSource = TIM_CLOCKSOURCE_INTERNAL;
 80068de:	f44f 5380 	mov.w	r3, #4096	@ 0x1000
 80068e2:	9302      	str	r3, [sp, #8]
  if (HAL_TIM_ConfigClockSource(&htim2, &sClockSourceConfig) != HAL_OK)
 80068e4:	a902      	add	r1, sp, #8
 80068e6:	480c      	ldr	r0, [pc, #48]	@ (8006918 <MX_TIM2_Init+0x6c>)
 80068e8:	f7fe fe0a 	bl	8005500 <HAL_TIM_ConfigClockSource>
 80068ec:	b968      	cbnz	r0, 800690a <MX_TIM2_Init+0x5e>
  {
    Error_Handler();
  }
  sMasterConfig.MasterOutputTrigger = TIM_TRGO_RESET;
 80068ee:	2300      	movs	r3, #0
 80068f0:	9300      	str	r3, [sp, #0]
  sMasterConfig.MasterSlaveMode = TIM_MASTERSLAVEMODE_DISABLE;
 80068f2:	9301      	str	r3, [sp, #4]
  if (HAL_TIMEx_MasterConfigSynchronization(&htim2, &sMasterConfig) != HAL_OK)
 80068f4:	4669      	mov	r1, sp
 80068f6:	4808      	ldr	r0, [pc, #32]	@ (8006918 <MX_TIM2_Init+0x6c>)
 80068f8:	f7fe ff78 	bl	80057ec <HAL_TIMEx_MasterConfigSynchronization>
 80068fc:	b940      	cbnz	r0, 8006910 <MX_TIM2_Init+0x64>
  }
  /* USER CODE BEGIN TIM2_Init 2 */

  /* USER CODE END TIM2_Init 2 */

}
 80068fe:	b007      	add	sp, #28
 8006900:	f85d fb04 	ldr.w	pc, [sp], #4
    Error_Handler();
 8006904:	f7fb fc88 	bl	8002218 <Error_Handler>
 8006908:	e7e9      	b.n	80068de <MX_TIM2_Init+0x32>
    Error_Handler();
 800690a:	f7fb fc85 	bl	8002218 <Error_Handler>
 800690e:	e7ee      	b.n	80068ee <MX_TIM2_Init+0x42>
    Error_Handler();
 8006910:	f7fb fc82 	bl	8002218 <Error_Handler>
}
 8006914:	e7f3      	b.n	80068fe <MX_TIM2_Init+0x52>
 8006916:	bf00      	nop
 8006918:	2000072c 	.word	0x2000072c

0800691c <MX_TIM3_Init>:
/* TIM3 init function */
void MX_TIM3_Init(void)
{
 800691c:	b500      	push	{lr}
 800691e:	b087      	sub	sp, #28

  /* USER CODE BEGIN TIM3_Init 0 */

  /* USER CODE END TIM3_Init 0 */

  TIM_ClockConfigTypeDef sClockSourceConfig = {0};
 8006920:	2300      	movs	r3, #0
 8006922:	9302      	str	r3, [sp, #8]
 8006924:	9303      	str	r3, [sp, #12]
 8006926:	9304      	str	r3, [sp, #16]
 8006928:	9305      	str	r3, [sp, #20]
  TIM_MasterConfigTypeDef sMasterConfig = {0};
 800692a:	9300      	str	r3, [sp, #0]
 800692c:	9301      	str	r3, [sp, #4]

  /* USER CODE BEGIN TIM3_Init 1 */

  /* USER CODE END TIM3_Init 1 */
  htim3.Instance = TIM3;
 800692e:	4815      	ldr	r0, [pc, #84]	@ (8006984 <MX_TIM3_Init+0x68>)
 8006930:	4a15      	ldr	r2, [pc, #84]	@ (8006988 <MX_TIM3_Init+0x6c>)
 8006932:	6002      	str	r2, [r0, #0]
  htim3.Init.Prescaler = 359;
 8006934:	f240 1267 	movw	r2, #359	@ 0x167
 8006938:	6042      	str	r2, [r0, #4]
  htim3.Init.CounterMode = TIM_COUNTERMODE_UP;
 800693a:	6083      	str	r3, [r0, #8]
  htim3.Init.Period = 250;
 800693c:	22fa      	movs	r2, #250	@ 0xfa
 800693e:	60c2      	str	r2, [r0, #12]
  htim3.Init.ClockDivision = TIM_CLOCKDIVISION_DIV1;
 8006940:	6103      	str	r3, [r0, #16]
  htim3.Init.AutoReloadPreload = TIM_AUTORELOAD_PRELOAD_ENABLE;
 8006942:	2380      	movs	r3, #128	@ 0x80
 8006944:	6183      	str	r3, [r0, #24]
  if (HAL_TIM_Base_Init(&htim3) != HAL_OK)
 8006946:	f7fe fcdb 	bl	8005300 <HAL_TIM_Base_Init>
 800694a:	b990      	cbnz	r0, 8006972 <MX_TIM3_Init+0x56>
  {
    Error_Handler();
  }
  sClockSourceConfig.ClockSource = TIM_CLOCKSOURCE_INTERNAL;
 800694c:	f44f 5380 	mov.w	r3, #4096	@ 0x1000
 8006950:	9302      	str	r3, [sp, #8]
  if (HAL_TIM_ConfigClockSource(&htim3, &sClockSourceConfig) != HAL_OK)
 8006952:	a902      	add	r1, sp, #8
 8006954:	480b      	ldr	r0, [pc, #44]	@ (8006984 <MX_TIM3_Init+0x68>)
 8006956:	f7fe fdd3 	bl	8005500 <HAL_TIM_ConfigClockSource>
 800695a:	b968      	cbnz	r0, 8006978 <MX_TIM3_Init+0x5c>
  {
    Error_Handler();
  }
  sMasterConfig.MasterOutputTrigger = TIM_TRGO_RESET;
 800695c:	2300      	movs	r3, #0
 800695e:	9300      	str	r3, [sp, #0]
  sMasterConfig.MasterSlaveMode = TIM_MASTERSLAVEMODE_DISABLE;
 8006960:	9301      	str	r3, [sp, #4]
  if (HAL_TIMEx_MasterConfigSynchronization(&htim3, &sMasterConfig) != HAL_OK)
 8006962:	4669      	mov	r1, sp
 8006964:	4807      	ldr	r0, [pc, #28]	@ (8006984 <MX_TIM3_Init+0x68>)
 8006966:	f7fe ff41 	bl	80057ec <HAL_TIMEx_MasterConfigSynchronization>
 800696a:	b940      	cbnz	r0, 800697e <MX_TIM3_Init+0x62>
  }
  /* USER CODE BEGIN TIM3_Init 2 */

  /* USER CODE END TIM3_Init 2 */

}
 800696c:	b007      	add	sp, #28
 800696e:	f85d fb04 	ldr.w	pc, [sp], #4
    Error_Handler();
 8006972:	f7fb fc51 	bl	8002218 <Error_Handler>
 8006976:	e7e9      	b.n	800694c <MX_TIM3_Init+0x30>
    Error_Handler();
 8006978:	f7fb fc4e 	bl	8002218 <Error_Handler>
 800697c:	e7ee      	b.n	800695c <MX_TIM3_Init+0x40>
    Error_Handler();
 800697e:	f7fb fc4b 	bl	8002218 <Error_Handler>
}
 8006982:	e7f3      	b.n	800696c <MX_TIM3_Init+0x50>
 8006984:	200006e4 	.word	0x200006e4
 8006988:	40000400 	.word	0x40000400

0800698c <MX_TIM4_Init>:
/* TIM4 init function */
void MX_TIM4_Init(void)
{
 800698c:	b500      	push	{lr}
 800698e:	b087      	sub	sp, #28

  /* USER CODE BEGIN TIM4_Init 0 */

  /* USER CODE END TIM4_Init 0 */

  TIM_ClockConfigTypeDef sClockSourceConfig = {0};
 8006990:	2300      	movs	r3, #0
 8006992:	9302      	str	r3, [sp, #8]
 8006994:	9303      	str	r3, [sp, #12]
 8006996:	9304      	str	r3, [sp, #16]
 8006998:	9305      	str	r3, [sp, #20]
  TIM_MasterConfigTypeDef sMasterConfig = {0};
 800699a:	9300      	str	r3, [sp, #0]
 800699c:	9301      	str	r3, [sp, #4]

  /* USER CODE BEGIN TIM4_Init 1 */

  /* USER CODE END TIM4_Init 1 */
  htim4.Instance = TIM4;
 800699e:	4815      	ldr	r0, [pc, #84]	@ (80069f4 <MX_TIM4_Init+0x68>)
 80069a0:	4a15      	ldr	r2, [pc, #84]	@ (80069f8 <MX_TIM4_Init+0x6c>)
 80069a2:	6002      	str	r2, [r0, #0]
  htim4.Init.Prescaler = 359;
 80069a4:	f240 1267 	movw	r2, #359	@ 0x167
 80069a8:	6042      	str	r2, [r0, #4]
  htim4.Init.CounterMode = TIM_COUNTERMODE_UP;
 80069aa:	6083      	str	r3, [r0, #8]
  htim4.Init.Period = 19999;
 80069ac:	f644 621f 	movw	r2, #19999	@ 0x4e1f
 80069b0:	60c2      	str	r2, [r0, #12]
  htim4.Init.ClockDivision = TIM_CLOCKDIVISION_DIV1;
 80069b2:	6103      	str	r3, [r0, #16]
  htim4.Init.AutoReloadPreload = TIM_AUTORELOAD_PRELOAD_DISABLE;
 80069b4:	6183      	str	r3, [r0, #24]
  if (HAL_TIM_Base_Init(&htim4) != HAL_OK)
 80069b6:	f7fe fca3 	bl	8005300 <HAL_TIM_Base_Init>
 80069ba:	b990      	cbnz	r0, 80069e2 <MX_TIM4_Init+0x56>
  {
    Error_Handler();
  }
  sClockSourceConfig.ClockSource = TIM_CLOCKSOURCE_INTERNAL;
 80069bc:	f44f 5380 	mov.w	r3, #4096	@ 0x1000
 80069c0:	9302      	str	r3, [sp, #8]
  if (HAL_TIM_ConfigClockSource(&htim4, &sClockSourceConfig) != HAL_OK)
 80069c2:	a902      	add	r1, sp, #8
 80069c4:	480b      	ldr	r0, [pc, #44]	@ (80069f4 <MX_TIM4_Init+0x68>)
 80069c6:	f7fe fd9b 	bl	8005500 <HAL_TIM_ConfigClockSource>
 80069ca:	b968      	cbnz	r0, 80069e8 <MX_TIM4_Init+0x5c>
  {
    Error_Handler();
  }
  sMasterConfig.MasterOutputTrigger = TIM_TRGO_RESET;
 80069cc:	2300      	movs	r3, #0
 80069ce:	9300      	str	r3, [sp, #0]
  sMasterConfig.MasterSlaveMode = TIM_MASTERSLAVEMODE_DISABLE;
 80069d0:	9301      	str	r3, [sp, #4]
  if (HAL_TIMEx_MasterConfigSynchronization(&htim4, &sMasterConfig) != HAL_OK)
 80069d2:	4669      	mov	r1, sp
 80069d4:	4807      	ldr	r0, [pc, #28]	@ (80069f4 <MX_TIM4_Init+0x68>)
 80069d6:	f7fe ff09 	bl	80057ec <HAL_TIMEx_MasterConfigSynchronization>
 80069da:	b940      	cbnz	r0, 80069ee <MX_TIM4_Init+0x62>
  }
  /* USER CODE BEGIN TIM4_Init 2 */

  /* USER CODE END TIM4_Init 2 */

}
 80069dc:	b007      	add	sp, #28
 80069de:	f85d fb04 	ldr.w	pc, [sp], #4
    Error_Handler();
 80069e2:	f7fb fc19 	bl	8002218 <Error_Handler>
 80069e6:	e7e9      	b.n	80069bc <MX_TIM4_Init+0x30>
    Error_Handler();
 80069e8:	f7fb fc16 	bl	8002218 <Error_Handler>
 80069ec:	e7ee      	b.n	80069cc <MX_TIM4_Init+0x40>
    Error_Handler();
 80069ee:	f7fb fc13 	bl	8002218 <Error_Handler>
}
 80069f2:	e7f3      	b.n	80069dc <MX_TIM4_Init+0x50>
 80069f4:	2000069c 	.word	0x2000069c
 80069f8:	40000800 	.word	0x40000800

080069fc <HAL_TIM_Base_MspInit>:

void HAL_TIM_Base_MspInit(TIM_HandleTypeDef* tim_baseHandle)
{
 80069fc:	b500      	push	{lr}
 80069fe:	b08b      	sub	sp, #44	@ 0x2c

  GPIO_InitTypeDef GPIO_InitStruct = {0};
 8006a00:	2300      	movs	r3, #0
 8006a02:	9306      	str	r3, [sp, #24]
 8006a04:	9307      	str	r3, [sp, #28]
 8006a06:	9308      	str	r3, [sp, #32]
 8006a08:	9309      	str	r3, [sp, #36]	@ 0x24
  if(tim_baseHandle->Instance==TIM1)
 8006a0a:	6803      	ldr	r3, [r0, #0]
 8006a0c:	4a31      	ldr	r2, [pc, #196]	@ (8006ad4 <HAL_TIM_Base_MspInit+0xd8>)
 8006a0e:	4293      	cmp	r3, r2
 8006a10:	d00b      	beq.n	8006a2a <HAL_TIM_Base_MspInit+0x2e>

  /* USER CODE BEGIN TIM1_MspInit 1 */

  /* USER CODE END TIM1_MspInit 1 */
  }
  else if(tim_baseHandle->Instance==TIM2)
 8006a12:	f1b3 4f80 	cmp.w	r3, #1073741824	@ 0x40000000
 8006a16:	d023      	beq.n	8006a60 <HAL_TIM_Base_MspInit+0x64>
    HAL_NVIC_EnableIRQ(TIM2_IRQn);
  /* USER CODE BEGIN TIM2_MspInit 1 */

  /* USER CODE END TIM2_MspInit 1 */
  }
  else if(tim_baseHandle->Instance==TIM3)
 8006a18:	4a2f      	ldr	r2, [pc, #188]	@ (8006ad8 <HAL_TIM_Base_MspInit+0xdc>)
 8006a1a:	4293      	cmp	r3, r2
 8006a1c:	d034      	beq.n	8006a88 <HAL_TIM_Base_MspInit+0x8c>
    HAL_NVIC_EnableIRQ(TIM3_IRQn);
  /* USER CODE BEGIN TIM3_MspInit 1 */

  /* USER CODE END TIM3_MspInit 1 */
  }
  else if(tim_baseHandle->Instance==TIM4)
 8006a1e:	4a2f      	ldr	r2, [pc, #188]	@ (8006adc <HAL_TIM_Base_MspInit+0xe0>)
 8006a20:	4293      	cmp	r3, r2
 8006a22:	d044      	beq.n	8006aae <HAL_TIM_Base_MspInit+0xb2>
    HAL_NVIC_EnableIRQ(TIM4_IRQn);
  /* USER CODE BEGIN TIM4_MspInit 1 */

  /* USER CODE END TIM4_MspInit 1 */
  }
}
 8006a24:	b00b      	add	sp, #44	@ 0x2c
 8006a26:	f85d fb04 	ldr.w	pc, [sp], #4
    __HAL_RCC_TIM1_CLK_ENABLE();
 8006a2a:	4b2d      	ldr	r3, [pc, #180]	@ (8006ae0 <HAL_TIM_Base_MspInit+0xe4>)
 8006a2c:	699a      	ldr	r2, [r3, #24]
 8006a2e:	f442 6200 	orr.w	r2, r2, #2048	@ 0x800
 8006a32:	619a      	str	r2, [r3, #24]
 8006a34:	699a      	ldr	r2, [r3, #24]
 8006a36:	f402 6200 	and.w	r2, r2, #2048	@ 0x800
 8006a3a:	9201      	str	r2, [sp, #4]
 8006a3c:	9a01      	ldr	r2, [sp, #4]
    __HAL_RCC_GPIOB_CLK_ENABLE();
 8006a3e:	699a      	ldr	r2, [r3, #24]
 8006a40:	f042 0208 	orr.w	r2, r2, #8
 8006a44:	619a      	str	r2, [r3, #24]
 8006a46:	699b      	ldr	r3, [r3, #24]
 8006a48:	f003 0308 	and.w	r3, r3, #8
 8006a4c:	9302      	str	r3, [sp, #8]
 8006a4e:	9b02      	ldr	r3, [sp, #8]
    GPIO_InitStruct.Pin = GPIO_PIN_12;
 8006a50:	f44f 5380 	mov.w	r3, #4096	@ 0x1000
 8006a54:	9306      	str	r3, [sp, #24]
    HAL_GPIO_Init(GPIOB, &GPIO_InitStruct);
 8006a56:	a906      	add	r1, sp, #24
 8006a58:	4822      	ldr	r0, [pc, #136]	@ (8006ae4 <HAL_TIM_Base_MspInit+0xe8>)
 8006a5a:	f7fc fd6b 	bl	8003534 <HAL_GPIO_Init>
 8006a5e:	e7e1      	b.n	8006a24 <HAL_TIM_Base_MspInit+0x28>
    __HAL_RCC_TIM2_CLK_ENABLE();
 8006a60:	f503 3304 	add.w	r3, r3, #135168	@ 0x21000
 8006a64:	69da      	ldr	r2, [r3, #28]
 8006a66:	f042 0201 	orr.w	r2, r2, #1
 8006a6a:	61da      	str	r2, [r3, #28]
 8006a6c:	69db      	ldr	r3, [r3, #28]
 8006a6e:	f003 0301 	and.w	r3, r3, #1
 8006a72:	9303      	str	r3, [sp, #12]
 8006a74:	9b03      	ldr	r3, [sp, #12]
    HAL_NVIC_SetPriority(TIM2_IRQn, 0, 0);
 8006a76:	2200      	movs	r2, #0
 8006a78:	4611      	mov	r1, r2
 8006a7a:	201c      	movs	r0, #28
 8006a7c:	f7fc fc00 	bl	8003280 <HAL_NVIC_SetPriority>
    HAL_NVIC_EnableIRQ(TIM2_IRQn);
 8006a80:	201c      	movs	r0, #28
 8006a82:	f7fc fc0d 	bl	80032a0 <HAL_NVIC_EnableIRQ>
 8006a86:	e7cd      	b.n	8006a24 <HAL_TIM_Base_MspInit+0x28>
    __HAL_RCC_TIM3_CLK_ENABLE();
 8006a88:	4b15      	ldr	r3, [pc, #84]	@ (8006ae0 <HAL_TIM_Base_MspInit+0xe4>)
 8006a8a:	69da      	ldr	r2, [r3, #28]
 8006a8c:	f042 0202 	orr.w	r2, r2, #2
 8006a90:	61da      	str	r2, [r3, #28]
 8006a92:	69db      	ldr	r3, [r3, #28]
 8006a94:	f003 0302 	and.w	r3, r3, #2
 8006a98:	9304      	str	r3, [sp, #16]
 8006a9a:	9b04      	ldr	r3, [sp, #16]
    HAL_NVIC_SetPriority(TIM3_IRQn, 0, 0);
 8006a9c:	2200      	movs	r2, #0
 8006a9e:	4611      	mov	r1, r2
 8006aa0:	201d      	movs	r0, #29
 8006aa2:	f7fc fbed 	bl	8003280 <HAL_NVIC_SetPriority>
    HAL_NVIC_EnableIRQ(TIM3_IRQn);
 8006aa6:	201d      	movs	r0, #29
 8006aa8:	f7fc fbfa 	bl	80032a0 <HAL_NVIC_EnableIRQ>
 8006aac:	e7ba      	b.n	8006a24 <HAL_TIM_Base_MspInit+0x28>
    __HAL_RCC_TIM4_CLK_ENABLE();
 8006aae:	4b0c      	ldr	r3, [pc, #48]	@ (8006ae0 <HAL_TIM_Base_MspInit+0xe4>)
 8006ab0:	69da      	ldr	r2, [r3, #28]
 8006ab2:	f042 0204 	orr.w	r2, r2, #4
 8006ab6:	61da      	str	r2, [r3, #28]
 8006ab8:	69db      	ldr	r3, [r3, #28]
 8006aba:	f003 0304 	and.w	r3, r3, #4
 8006abe:	9305      	str	r3, [sp, #20]
 8006ac0:	9b05      	ldr	r3, [sp, #20]
    HAL_NVIC_SetPriority(TIM4_IRQn, 0, 0);
 8006ac2:	2200      	movs	r2, #0
 8006ac4:	4611      	mov	r1, r2
 8006ac6:	201e      	movs	r0, #30
 8006ac8:	f7fc fbda 	bl	8003280 <HAL_NVIC_SetPriority>
    HAL_NVIC_EnableIRQ(TIM4_IRQn);
 8006acc:	201e      	movs	r0, #30
 8006ace:	f7fc fbe7 	bl	80032a0 <HAL_NVIC_EnableIRQ>
}
 8006ad2:	e7a7      	b.n	8006a24 <HAL_TIM_Base_MspInit+0x28>
 8006ad4:	40012c00 	.word	0x40012c00
 8006ad8:	40000400 	.word	0x40000400
 8006adc:	40000800 	.word	0x40000800
 8006ae0:	40021000 	.word	0x40021000
 8006ae4:	40010c00 	.word	0x40010c00

08006ae8 <HAL_TIM_MspPostInit>:
void HAL_TIM_MspPostInit(TIM_HandleTypeDef* timHandle)
{
 8006ae8:	b510      	push	{r4, lr}
 8006aea:	b086      	sub	sp, #24

  GPIO_InitTypeDef GPIO_InitStruct = {0};
 8006aec:	2300      	movs	r3, #0
 8006aee:	9302      	str	r3, [sp, #8]
 8006af0:	9303      	str	r3, [sp, #12]
 8006af2:	9304      	str	r3, [sp, #16]
 8006af4:	9305      	str	r3, [sp, #20]
  if(timHandle->Instance==TIM1)
 8006af6:	6802      	ldr	r2, [r0, #0]
 8006af8:	4b16      	ldr	r3, [pc, #88]	@ (8006b54 <HAL_TIM_MspPostInit+0x6c>)
 8006afa:	429a      	cmp	r2, r3
 8006afc:	d001      	beq.n	8006b02 <HAL_TIM_MspPostInit+0x1a>
  /* USER CODE BEGIN TIM1_MspPostInit 1 */

  /* USER CODE END TIM1_MspPostInit 1 */
  }

}
 8006afe:	b006      	add	sp, #24
 8006b00:	bd10      	pop	{r4, pc}
    __HAL_RCC_GPIOB_CLK_ENABLE();
 8006b02:	f503 4364 	add.w	r3, r3, #58368	@ 0xe400
 8006b06:	699a      	ldr	r2, [r3, #24]
 8006b08:	f042 0208 	orr.w	r2, r2, #8
 8006b0c:	619a      	str	r2, [r3, #24]
 8006b0e:	699a      	ldr	r2, [r3, #24]
 8006b10:	f002 0208 	and.w	r2, r2, #8
 8006b14:	9200      	str	r2, [sp, #0]
 8006b16:	9a00      	ldr	r2, [sp, #0]
    __HAL_RCC_GPIOA_CLK_ENABLE();
 8006b18:	699a      	ldr	r2, [r3, #24]
 8006b1a:	f042 0204 	orr.w	r2, r2, #4
 8006b1e:	619a      	str	r2, [r3, #24]
 8006b20:	699b      	ldr	r3, [r3, #24]
 8006b22:	f003 0304 	and.w	r3, r3, #4
 8006b26:	9301      	str	r3, [sp, #4]
 8006b28:	9b01      	ldr	r3, [sp, #4]
    GPIO_InitStruct.Pin = GPIO_PIN_13|GPIO_PIN_14|GPIO_PIN_15;
 8006b2a:	f44f 4360 	mov.w	r3, #57344	@ 0xe000
 8006b2e:	9302      	str	r3, [sp, #8]
    GPIO_InitStruct.Mode = GPIO_MODE_AF_PP;
 8006b30:	2402      	movs	r4, #2
 8006b32:	9403      	str	r4, [sp, #12]
    GPIO_InitStruct.Speed = GPIO_SPEED_FREQ_LOW;
 8006b34:	9405      	str	r4, [sp, #20]
    HAL_GPIO_Init(GPIOB, &GPIO_InitStruct);
 8006b36:	a902      	add	r1, sp, #8
 8006b38:	4807      	ldr	r0, [pc, #28]	@ (8006b58 <HAL_TIM_MspPostInit+0x70>)
 8006b3a:	f7fc fcfb 	bl	8003534 <HAL_GPIO_Init>
    GPIO_InitStruct.Pin = GPIO_PIN_8|GPIO_PIN_9|GPIO_PIN_10;
 8006b3e:	f44f 63e0 	mov.w	r3, #1792	@ 0x700
 8006b42:	9302      	str	r3, [sp, #8]
    GPIO_InitStruct.Mode = GPIO_MODE_AF_PP;
 8006b44:	9403      	str	r4, [sp, #12]
    GPIO_InitStruct.Speed = GPIO_SPEED_FREQ_LOW;
 8006b46:	9405      	str	r4, [sp, #20]
    HAL_GPIO_Init(GPIOA, &GPIO_InitStruct);
 8006b48:	a902      	add	r1, sp, #8
 8006b4a:	4804      	ldr	r0, [pc, #16]	@ (8006b5c <HAL_TIM_MspPostInit+0x74>)
 8006b4c:	f7fc fcf2 	bl	8003534 <HAL_GPIO_Init>
}
 8006b50:	e7d5      	b.n	8006afe <HAL_TIM_MspPostInit+0x16>
 8006b52:	bf00      	nop
 8006b54:	40012c00 	.word	0x40012c00
 8006b58:	40010c00 	.word	0x40010c00
 8006b5c:	40010800 	.word	0x40010800

08006b60 <MX_TIM1_Init>:
{
 8006b60:	b510      	push	{r4, lr}
 8006b62:	b096      	sub	sp, #88	@ 0x58
  TIM_ClockConfigTypeDef sClockSourceConfig = {0};
 8006b64:	2400      	movs	r4, #0
 8006b66:	9412      	str	r4, [sp, #72]	@ 0x48
 8006b68:	9413      	str	r4, [sp, #76]	@ 0x4c
 8006b6a:	9414      	str	r4, [sp, #80]	@ 0x50
 8006b6c:	9415      	str	r4, [sp, #84]	@ 0x54
  TIM_MasterConfigTypeDef sMasterConfig = {0};
 8006b6e:	9410      	str	r4, [sp, #64]	@ 0x40
 8006b70:	9411      	str	r4, [sp, #68]	@ 0x44
  TIM_OC_InitTypeDef sConfigOC = {0};
 8006b72:	9409      	str	r4, [sp, #36]	@ 0x24
 8006b74:	940a      	str	r4, [sp, #40]	@ 0x28
 8006b76:	940b      	str	r4, [sp, #44]	@ 0x2c
 8006b78:	940c      	str	r4, [sp, #48]	@ 0x30
 8006b7a:	940d      	str	r4, [sp, #52]	@ 0x34
 8006b7c:	940e      	str	r4, [sp, #56]	@ 0x38
 8006b7e:	940f      	str	r4, [sp, #60]	@ 0x3c
  TIM_BreakDeadTimeConfigTypeDef sBreakDeadTimeConfig = {0};
 8006b80:	2220      	movs	r2, #32
 8006b82:	4621      	mov	r1, r4
 8006b84:	a801      	add	r0, sp, #4
 8006b86:	f7f9 fb35 	bl	80001f4 <memset>
  htim1.Instance = TIM1;
 8006b8a:	4838      	ldr	r0, [pc, #224]	@ (8006c6c <MX_TIM1_Init+0x10c>)
 8006b8c:	4b38      	ldr	r3, [pc, #224]	@ (8006c70 <MX_TIM1_Init+0x110>)
 8006b8e:	6003      	str	r3, [r0, #0]
  htim1.Init.Prescaler = 3;
 8006b90:	2303      	movs	r3, #3
 8006b92:	6043      	str	r3, [r0, #4]
  htim1.Init.CounterMode = TIM_COUNTERMODE_UP;
 8006b94:	6084      	str	r4, [r0, #8]
  htim1.Init.Period = 1168;
 8006b96:	f44f 6392 	mov.w	r3, #1168	@ 0x490
 8006b9a:	60c3      	str	r3, [r0, #12]
  htim1.Init.ClockDivision = TIM_CLOCKDIVISION_DIV1;
 8006b9c:	6104      	str	r4, [r0, #16]
  htim1.Init.RepetitionCounter = 0;
 8006b9e:	6144      	str	r4, [r0, #20]
  htim1.Init.AutoReloadPreload = TIM_AUTORELOAD_PRELOAD_DISABLE;
 8006ba0:	6184      	str	r4, [r0, #24]
  if (HAL_TIM_Base_Init(&htim1) != HAL_OK)
 8006ba2:	f7fe fbad 	bl	8005300 <HAL_TIM_Base_Init>
 8006ba6:	2800      	cmp	r0, #0
 8006ba8:	d147      	bne.n	8006c3a <MX_TIM1_Init+0xda>
  sClockSourceConfig.ClockSource = TIM_CLOCKSOURCE_INTERNAL;
 8006baa:	f44f 5380 	mov.w	r3, #4096	@ 0x1000
 8006bae:	9312      	str	r3, [sp, #72]	@ 0x48
  if (HAL_TIM_ConfigClockSource(&htim1, &sClockSourceConfig) != HAL_OK)
 8006bb0:	a912      	add	r1, sp, #72	@ 0x48
 8006bb2:	482e      	ldr	r0, [pc, #184]	@ (8006c6c <MX_TIM1_Init+0x10c>)
 8006bb4:	f7fe fca4 	bl	8005500 <HAL_TIM_ConfigClockSource>
 8006bb8:	2800      	cmp	r0, #0
 8006bba:	d141      	bne.n	8006c40 <MX_TIM1_Init+0xe0>
  if (HAL_TIM_PWM_Init(&htim1) != HAL_OK)
 8006bbc:	482b      	ldr	r0, [pc, #172]	@ (8006c6c <MX_TIM1_Init+0x10c>)
 8006bbe:	f7fe fbcb 	bl	8005358 <HAL_TIM_PWM_Init>
 8006bc2:	2800      	cmp	r0, #0
 8006bc4:	d13f      	bne.n	8006c46 <MX_TIM1_Init+0xe6>
  sMasterConfig.MasterOutputTrigger = TIM_TRGO_RESET;
 8006bc6:	2300      	movs	r3, #0
 8006bc8:	9310      	str	r3, [sp, #64]	@ 0x40
  sMasterConfig.MasterSlaveMode = TIM_MASTERSLAVEMODE_DISABLE;
 8006bca:	9311      	str	r3, [sp, #68]	@ 0x44
  if (HAL_TIMEx_MasterConfigSynchronization(&htim1, &sMasterConfig) != HAL_OK)
 8006bcc:	a910      	add	r1, sp, #64	@ 0x40
 8006bce:	4827      	ldr	r0, [pc, #156]	@ (8006c6c <MX_TIM1_Init+0x10c>)
 8006bd0:	f7fe fe0c 	bl	80057ec <HAL_TIMEx_MasterConfigSynchronization>
 8006bd4:	2800      	cmp	r0, #0
 8006bd6:	d139      	bne.n	8006c4c <MX_TIM1_Init+0xec>
  sConfigOC.OCMode = TIM_OCMODE_PWM1;
 8006bd8:	2360      	movs	r3, #96	@ 0x60
 8006bda:	9309      	str	r3, [sp, #36]	@ 0x24
  sConfigOC.Pulse = 0;
 8006bdc:	2200      	movs	r2, #0
 8006bde:	920a      	str	r2, [sp, #40]	@ 0x28
  sConfigOC.OCPolarity = TIM_OCPOLARITY_HIGH;
 8006be0:	920b      	str	r2, [sp, #44]	@ 0x2c
  sConfigOC.OCNPolarity = TIM_OCNPOLARITY_HIGH;
 8006be2:	920c      	str	r2, [sp, #48]	@ 0x30
  sConfigOC.OCFastMode = TIM_OCFAST_DISABLE;
 8006be4:	920d      	str	r2, [sp, #52]	@ 0x34
  sConfigOC.OCIdleState = TIM_OCIDLESTATE_RESET;
 8006be6:	920e      	str	r2, [sp, #56]	@ 0x38
  sConfigOC.OCNIdleState = TIM_OCNIDLESTATE_RESET;
 8006be8:	920f      	str	r2, [sp, #60]	@ 0x3c
  if (HAL_TIM_PWM_ConfigChannel(&htim1, &sConfigOC, TIM_CHANNEL_1) != HAL_OK)
 8006bea:	a909      	add	r1, sp, #36	@ 0x24
 8006bec:	481f      	ldr	r0, [pc, #124]	@ (8006c6c <MX_TIM1_Init+0x10c>)
 8006bee:	f7fe fc0d 	bl	800540c <HAL_TIM_PWM_ConfigChannel>
 8006bf2:	bb70      	cbnz	r0, 8006c52 <MX_TIM1_Init+0xf2>
  if (HAL_TIM_PWM_ConfigChannel(&htim1, &sConfigOC, TIM_CHANNEL_2) != HAL_OK)
 8006bf4:	2204      	movs	r2, #4
 8006bf6:	a909      	add	r1, sp, #36	@ 0x24
 8006bf8:	481c      	ldr	r0, [pc, #112]	@ (8006c6c <MX_TIM1_Init+0x10c>)
 8006bfa:	f7fe fc07 	bl	800540c <HAL_TIM_PWM_ConfigChannel>
 8006bfe:	bb58      	cbnz	r0, 8006c58 <MX_TIM1_Init+0xf8>
  if (HAL_TIM_PWM_ConfigChannel(&htim1, &sConfigOC, TIM_CHANNEL_3) != HAL_OK)
 8006c00:	2208      	movs	r2, #8
 8006c02:	a909      	add	r1, sp, #36	@ 0x24
 8006c04:	4819      	ldr	r0, [pc, #100]	@ (8006c6c <MX_TIM1_Init+0x10c>)
 8006c06:	f7fe fc01 	bl	800540c <HAL_TIM_PWM_ConfigChannel>
 8006c0a:	bb40      	cbnz	r0, 8006c5e <MX_TIM1_Init+0xfe>
  sBreakDeadTimeConfig.OffStateRunMode = TIM_OSSR_DISABLE;
 8006c0c:	2300      	movs	r3, #0
 8006c0e:	9301      	str	r3, [sp, #4]
  sBreakDeadTimeConfig.OffStateIDLEMode = TIM_OSSI_DISABLE;
 8006c10:	9302      	str	r3, [sp, #8]
  sBreakDeadTimeConfig.LockLevel = TIM_LOCKLEVEL_OFF;
 8006c12:	9303      	str	r3, [sp, #12]
  sBreakDeadTimeConfig.DeadTime = 60;
 8006c14:	223c      	movs	r2, #60	@ 0x3c
 8006c16:	9204      	str	r2, [sp, #16]
  sBreakDeadTimeConfig.BreakState = TIM_BREAK_ENABLE;
 8006c18:	f44f 5280 	mov.w	r2, #4096	@ 0x1000
 8006c1c:	9205      	str	r2, [sp, #20]
  sBreakDeadTimeConfig.BreakPolarity = TIM_BREAKPOLARITY_HIGH;
 8006c1e:	f44f 5200 	mov.w	r2, #8192	@ 0x2000
 8006c22:	9206      	str	r2, [sp, #24]
  sBreakDeadTimeConfig.AutomaticOutput = TIM_AUTOMATICOUTPUT_DISABLE;
 8006c24:	9308      	str	r3, [sp, #32]
  if (HAL_TIMEx_ConfigBreakDeadTime(&htim1, &sBreakDeadTimeConfig) != HAL_OK)
 8006c26:	a901      	add	r1, sp, #4
 8006c28:	4810      	ldr	r0, [pc, #64]	@ (8006c6c <MX_TIM1_Init+0x10c>)
 8006c2a:	f7fe fe15 	bl	8005858 <HAL_TIMEx_ConfigBreakDeadTime>
 8006c2e:	b9c8      	cbnz	r0, 8006c64 <MX_TIM1_Init+0x104>
  HAL_TIM_MspPostInit(&htim1);
 8006c30:	480e      	ldr	r0, [pc, #56]	@ (8006c6c <MX_TIM1_Init+0x10c>)
 8006c32:	f7ff ff59 	bl	8006ae8 <HAL_TIM_MspPostInit>
}
 8006c36:	b016      	add	sp, #88	@ 0x58
 8006c38:	bd10      	pop	{r4, pc}
    Error_Handler();
 8006c3a:	f7fb faed 	bl	8002218 <Error_Handler>
 8006c3e:	e7b4      	b.n	8006baa <MX_TIM1_Init+0x4a>
    Error_Handler();
 8006c40:	f7fb faea 	bl	8002218 <Error_Handler>
 8006c44:	e7ba      	b.n	8006bbc <MX_TIM1_Init+0x5c>
    Error_Handler();
 8006c46:	f7fb fae7 	bl	8002218 <Error_Handler>
 8006c4a:	e7bc      	b.n	8006bc6 <MX_TIM1_Init+0x66>
    Error_Handler();
 8006c4c:	f7fb fae4 	bl	8002218 <Error_Handler>
 8006c50:	e7c2      	b.n	8006bd8 <MX_TIM1_Init+0x78>
    Error_Handler();
 8006c52:	f7fb fae1 	bl	8002218 <Error_Handler>
 8006c56:	e7cd      	b.n	8006bf4 <MX_TIM1_Init+0x94>
    Error_Handler();
 8006c58:	f7fb fade 	bl	8002218 <Error_Handler>
 8006c5c:	e7d0      	b.n	8006c00 <MX_TIM1_Init+0xa0>
    Error_Handler();
 8006c5e:	f7fb fadb 	bl	8002218 <Error_Handler>
 8006c62:	e7d3      	b.n	8006c0c <MX_TIM1_Init+0xac>
    Error_Handler();
 8006c64:	f7fb fad8 	bl	8002218 <Error_Handler>
 8006c68:	e7e2      	b.n	8006c30 <MX_TIM1_Init+0xd0>
 8006c6a:	bf00      	nop
 8006c6c:	20000774 	.word	0x20000774
 8006c70:	40012c00 	.word	0x40012c00

08006c74 <MX_USB_DEVICE_Init>:
/**
  * Init USB device Library, add supported class and start the library
  * @retval None
  */
void MX_USB_DEVICE_Init(void)
{
 8006c74:	b508      	push	{r3, lr}
  /* USER CODE BEGIN USB_DEVICE_Init_PreTreatment */

  /* USER CODE END USB_DEVICE_Init_PreTreatment */

  /* Init Device Library, add supported class and start the library. */
  if (USBD_Init(&hUsbDeviceFS, &FS_Desc, DEVICE_FS) != USBD_OK)
 8006c76:	2200      	movs	r2, #0
 8006c78:	490f      	ldr	r1, [pc, #60]	@ (8006cb8 <MX_USB_DEVICE_Init+0x44>)
 8006c7a:	4810      	ldr	r0, [pc, #64]	@ (8006cbc <MX_USB_DEVICE_Init+0x48>)
 8006c7c:	f000 fb12 	bl	80072a4 <USBD_Init>
 8006c80:	b970      	cbnz	r0, 8006ca0 <MX_USB_DEVICE_Init+0x2c>
  {
    Error_Handler();
  }
  if (USBD_RegisterClass(&hUsbDeviceFS, &USBD_CDC) != USBD_OK)
 8006c82:	490f      	ldr	r1, [pc, #60]	@ (8006cc0 <MX_USB_DEVICE_Init+0x4c>)
 8006c84:	480d      	ldr	r0, [pc, #52]	@ (8006cbc <MX_USB_DEVICE_Init+0x48>)
 8006c86:	f000 fb24 	bl	80072d2 <USBD_RegisterClass>
 8006c8a:	b960      	cbnz	r0, 8006ca6 <MX_USB_DEVICE_Init+0x32>
  {
    Error_Handler();
  }
  if (USBD_CDC_RegisterInterface(&hUsbDeviceFS, &USBD_Interface_fops_FS) != USBD_OK)
 8006c8c:	490d      	ldr	r1, [pc, #52]	@ (8006cc4 <MX_USB_DEVICE_Init+0x50>)
 8006c8e:	480b      	ldr	r0, [pc, #44]	@ (8006cbc <MX_USB_DEVICE_Init+0x48>)
 8006c90:	f000 f965 	bl	8006f5e <USBD_CDC_RegisterInterface>
 8006c94:	b950      	cbnz	r0, 8006cac <MX_USB_DEVICE_Init+0x38>
  {
    Error_Handler();
  }
  if (USBD_Start(&hUsbDeviceFS) != USBD_OK)
 8006c96:	4809      	ldr	r0, [pc, #36]	@ (8006cbc <MX_USB_DEVICE_Init+0x48>)
 8006c98:	f000 fb22 	bl	80072e0 <USBD_Start>
 8006c9c:	b948      	cbnz	r0, 8006cb2 <MX_USB_DEVICE_Init+0x3e>
  }

  /* USER CODE BEGIN USB_DEVICE_Init_PostTreatment */

  /* USER CODE END USB_DEVICE_Init_PostTreatment */
}
 8006c9e:	bd08      	pop	{r3, pc}
    Error_Handler();
 8006ca0:	f7fb faba 	bl	8002218 <Error_Handler>
 8006ca4:	e7ed      	b.n	8006c82 <MX_USB_DEVICE_Init+0xe>
    Error_Handler();
 8006ca6:	f7fb fab7 	bl	8002218 <Error_Handler>
 8006caa:	e7ef      	b.n	8006c8c <MX_USB_DEVICE_Init+0x18>
    Error_Handler();
 8006cac:	f7fb fab4 	bl	8002218 <Error_Handler>
 8006cb0:	e7f1      	b.n	8006c96 <MX_USB_DEVICE_Init+0x22>
    Error_Handler();
 8006cb2:	f7fb fab1 	bl	8002218 <Error_Handler>
}
 8006cb6:	e7f2      	b.n	8006c9e <MX_USB_DEVICE_Init+0x2a>
 8006cb8:	200001c4 	.word	0x200001c4
 8006cbc:	200007bc 	.word	0x200007bc
 8006cc0:	2000013c 	.word	0x2000013c
 8006cc4:	20000180 	.word	0x20000180

08006cc8 <USBD_CDC_EP0_RxReady>:
  *         Handle EP0 Rx Ready event
  * @param  pdev: device instance
  * @retval status
  */
static uint8_t  USBD_CDC_EP0_RxReady(USBD_HandleTypeDef *pdev)
{
 8006cc8:	b510      	push	{r4, lr}
  USBD_CDC_HandleTypeDef   *hcdc = (USBD_CDC_HandleTypeDef *) pdev->pClassData;
 8006cca:	f8d0 42b8 	ldr.w	r4, [r0, #696]	@ 0x2b8

  if ((pdev->pUserData != NULL) && (hcdc->CmdOpCode != 0xFFU))
 8006cce:	f8d0 32bc 	ldr.w	r3, [r0, #700]	@ 0x2bc
 8006cd2:	b15b      	cbz	r3, 8006cec <USBD_CDC_EP0_RxReady+0x24>
 8006cd4:	f894 0200 	ldrb.w	r0, [r4, #512]	@ 0x200
 8006cd8:	28ff      	cmp	r0, #255	@ 0xff
 8006cda:	d007      	beq.n	8006cec <USBD_CDC_EP0_RxReady+0x24>
  {
    ((USBD_CDC_ItfTypeDef *)pdev->pUserData)->Control(hcdc->CmdOpCode,
 8006cdc:	689b      	ldr	r3, [r3, #8]
 8006cde:	f894 2201 	ldrb.w	r2, [r4, #513]	@ 0x201
 8006ce2:	4621      	mov	r1, r4
 8006ce4:	4798      	blx	r3
                                                      (uint8_t *)(void *)hcdc->data,
                                                      (uint16_t)hcdc->CmdLength);
    hcdc->CmdOpCode = 0xFFU;
 8006ce6:	23ff      	movs	r3, #255	@ 0xff
 8006ce8:	f884 3200 	strb.w	r3, [r4, #512]	@ 0x200

  }
  return USBD_OK;
}
 8006cec:	2000      	movs	r0, #0
 8006cee:	bd10      	pop	{r4, pc}

08006cf0 <USBD_CDC_GetFSCfgDesc>:
  * @param  length : pointer data length
  * @retval pointer to descriptor buffer
  */
static uint8_t  *USBD_CDC_GetFSCfgDesc(uint16_t *length)
{
  *length = sizeof(USBD_CDC_CfgFSDesc);
 8006cf0:	2343      	movs	r3, #67	@ 0x43
 8006cf2:	8003      	strh	r3, [r0, #0]
  return USBD_CDC_CfgFSDesc;
}
 8006cf4:	4800      	ldr	r0, [pc, #0]	@ (8006cf8 <USBD_CDC_GetFSCfgDesc+0x8>)
 8006cf6:	4770      	bx	lr
 8006cf8:	200000b4 	.word	0x200000b4

08006cfc <USBD_CDC_GetHSCfgDesc>:
  * @param  length : pointer data length
  * @retval pointer to descriptor buffer
  */
static uint8_t  *USBD_CDC_GetHSCfgDesc(uint16_t *length)
{
  *length = sizeof(USBD_CDC_CfgHSDesc);
 8006cfc:	2343      	movs	r3, #67	@ 0x43
 8006cfe:	8003      	strh	r3, [r0, #0]
  return USBD_CDC_CfgHSDesc;
}
 8006d00:	4800      	ldr	r0, [pc, #0]	@ (8006d04 <USBD_CDC_GetHSCfgDesc+0x8>)
 8006d02:	4770      	bx	lr
 8006d04:	200000f8 	.word	0x200000f8

08006d08 <USBD_CDC_GetOtherSpeedCfgDesc>:
  * @param  length : pointer data length
  * @retval pointer to descriptor buffer
  */
static uint8_t  *USBD_CDC_GetOtherSpeedCfgDesc(uint16_t *length)
{
  *length = sizeof(USBD_CDC_OtherSpeedCfgDesc);
 8006d08:	2343      	movs	r3, #67	@ 0x43
 8006d0a:	8003      	strh	r3, [r0, #0]
  return USBD_CDC_OtherSpeedCfgDesc;
}
 8006d0c:	4800      	ldr	r0, [pc, #0]	@ (8006d10 <USBD_CDC_GetOtherSpeedCfgDesc+0x8>)
 8006d0e:	4770      	bx	lr
 8006d10:	20000070 	.word	0x20000070

08006d14 <USBD_CDC_GetDeviceQualifierDescriptor>:
* @param  length : pointer data length
* @retval pointer to descriptor buffer
*/
uint8_t  *USBD_CDC_GetDeviceQualifierDescriptor(uint16_t *length)
{
  *length = sizeof(USBD_CDC_DeviceQualifierDesc);
 8006d14:	230a      	movs	r3, #10
 8006d16:	8003      	strh	r3, [r0, #0]
  return USBD_CDC_DeviceQualifierDesc;
}
 8006d18:	4800      	ldr	r0, [pc, #0]	@ (8006d1c <USBD_CDC_GetDeviceQualifierDescriptor+0x8>)
 8006d1a:	4770      	bx	lr
 8006d1c:	20000174 	.word	0x20000174

08006d20 <USBD_CDC_DataOut>:
{
 8006d20:	b538      	push	{r3, r4, r5, lr}
 8006d22:	4604      	mov	r4, r0
  USBD_CDC_HandleTypeDef   *hcdc = (USBD_CDC_HandleTypeDef *) pdev->pClassData;
 8006d24:	f8d0 52b8 	ldr.w	r5, [r0, #696]	@ 0x2b8
  hcdc->RxLength = USBD_LL_GetRxDataSize(pdev, epnum);
 8006d28:	f000 faaf 	bl	800728a <USBD_LL_GetRxDataSize>
 8006d2c:	f8c5 020c 	str.w	r0, [r5, #524]	@ 0x20c
  if (pdev->pClassData != NULL)
 8006d30:	f8d4 32b8 	ldr.w	r3, [r4, #696]	@ 0x2b8
 8006d34:	b14b      	cbz	r3, 8006d4a <USBD_CDC_DataOut+0x2a>
    ((USBD_CDC_ItfTypeDef *)pdev->pUserData)->Receive(hcdc->RxBuffer, &hcdc->RxLength);
 8006d36:	f8d4 32bc 	ldr.w	r3, [r4, #700]	@ 0x2bc
 8006d3a:	68db      	ldr	r3, [r3, #12]
 8006d3c:	f505 7103 	add.w	r1, r5, #524	@ 0x20c
 8006d40:	f8d5 0204 	ldr.w	r0, [r5, #516]	@ 0x204
 8006d44:	4798      	blx	r3
    return USBD_OK;
 8006d46:	2000      	movs	r0, #0
}
 8006d48:	bd38      	pop	{r3, r4, r5, pc}
    return USBD_FAIL;
 8006d4a:	2002      	movs	r0, #2
 8006d4c:	e7fc      	b.n	8006d48 <USBD_CDC_DataOut+0x28>

08006d4e <USBD_CDC_DataIn>:
{
 8006d4e:	b510      	push	{r4, lr}
  USBD_CDC_HandleTypeDef *hcdc = (USBD_CDC_HandleTypeDef *)pdev->pClassData;
 8006d50:	f8d0 22b8 	ldr.w	r2, [r0, #696]	@ 0x2b8
  PCD_HandleTypeDef *hpcd = pdev->pData;
 8006d54:	f8d0 42c0 	ldr.w	r4, [r0, #704]	@ 0x2c0
  if (pdev->pClassData != NULL)
 8006d58:	b1f2      	cbz	r2, 8006d98 <USBD_CDC_DataIn+0x4a>
    if ((pdev->ep_in[epnum].total_length > 0U) && ((pdev->ep_in[epnum].total_length % hpcd->IN_ep[epnum].maxpacket) == 0U))
 8006d5a:	eb01 0381 	add.w	r3, r1, r1, lsl #2
 8006d5e:	eb00 0383 	add.w	r3, r0, r3, lsl #2
 8006d62:	69db      	ldr	r3, [r3, #28]
 8006d64:	b14b      	cbz	r3, 8006d7a <USBD_CDC_DataIn+0x2c>
 8006d66:	eb01 0c81 	add.w	ip, r1, r1, lsl #2
 8006d6a:	eb04 04cc 	add.w	r4, r4, ip, lsl #3
 8006d6e:	6a24      	ldr	r4, [r4, #32]
 8006d70:	fbb3 fcf4 	udiv	ip, r3, r4
 8006d74:	fb04 331c 	mls	r3, r4, ip, r3
 8006d78:	b123      	cbz	r3, 8006d84 <USBD_CDC_DataIn+0x36>
      hcdc->TxState = 0U;
 8006d7a:	2300      	movs	r3, #0
 8006d7c:	f8c2 3214 	str.w	r3, [r2, #532]	@ 0x214
    return USBD_OK;
 8006d80:	2000      	movs	r0, #0
}
 8006d82:	bd10      	pop	{r4, pc}
      pdev->ep_in[epnum].total_length = 0U;
 8006d84:	eb01 0381 	add.w	r3, r1, r1, lsl #2
 8006d88:	eb00 0383 	add.w	r3, r0, r3, lsl #2
 8006d8c:	2200      	movs	r2, #0
 8006d8e:	61da      	str	r2, [r3, #28]
      USBD_LL_Transmit(pdev, epnum, NULL, 0U);
 8006d90:	4613      	mov	r3, r2
 8006d92:	f000 fa6a 	bl	800726a <USBD_LL_Transmit>
 8006d96:	e7f3      	b.n	8006d80 <USBD_CDC_DataIn+0x32>
    return USBD_FAIL;
 8006d98:	2002      	movs	r0, #2
 8006d9a:	e7f2      	b.n	8006d82 <USBD_CDC_DataIn+0x34>

08006d9c <USBD_CDC_Setup>:
{
 8006d9c:	b5f0      	push	{r4, r5, r6, r7, lr}
 8006d9e:	b083      	sub	sp, #12
 8006da0:	4606      	mov	r6, r0
 8006da2:	460c      	mov	r4, r1
  USBD_CDC_HandleTypeDef   *hcdc = (USBD_CDC_HandleTypeDef *) pdev->pClassData;
 8006da4:	f8d0 72b8 	ldr.w	r7, [r0, #696]	@ 0x2b8
  uint8_t ifalt = 0U;
 8006da8:	2300      	movs	r3, #0
 8006daa:	f88d 3007 	strb.w	r3, [sp, #7]
  uint16_t status_info = 0U;
 8006dae:	f8ad 3004 	strh.w	r3, [sp, #4]
  switch (req->bmRequest & USB_REQ_TYPE_MASK)
 8006db2:	780b      	ldrb	r3, [r1, #0]
 8006db4:	f013 0560 	ands.w	r5, r3, #96	@ 0x60
 8006db8:	d027      	beq.n	8006e0a <USBD_CDC_Setup+0x6e>
 8006dba:	2d20      	cmp	r5, #32
 8006dbc:	d153      	bne.n	8006e66 <USBD_CDC_Setup+0xca>
      if (req->wLength)
 8006dbe:	88ca      	ldrh	r2, [r1, #6]
 8006dc0:	b1da      	cbz	r2, 8006dfa <USBD_CDC_Setup+0x5e>
        if (req->bmRequest & 0x80U)
 8006dc2:	f013 0f80 	tst.w	r3, #128	@ 0x80
 8006dc6:	d00c      	beq.n	8006de2 <USBD_CDC_Setup+0x46>
          ((USBD_CDC_ItfTypeDef *)pdev->pUserData)->Control(req->bRequest,
 8006dc8:	f8d0 32bc 	ldr.w	r3, [r0, #700]	@ 0x2bc
 8006dcc:	689b      	ldr	r3, [r3, #8]
 8006dce:	4639      	mov	r1, r7
 8006dd0:	7860      	ldrb	r0, [r4, #1]
 8006dd2:	4798      	blx	r3
          USBD_CtlSendData(pdev, (uint8_t *)(void *)hcdc->data, req->wLength);
 8006dd4:	88e2      	ldrh	r2, [r4, #6]
 8006dd6:	4639      	mov	r1, r7
 8006dd8:	4630      	mov	r0, r6
 8006dda:	f000 ff8f 	bl	8007cfc <USBD_CtlSendData>
  uint8_t ret = USBD_OK;
 8006dde:	2500      	movs	r5, #0
 8006de0:	e044      	b.n	8006e6c <USBD_CDC_Setup+0xd0>
          hcdc->CmdOpCode = req->bRequest;
 8006de2:	784b      	ldrb	r3, [r1, #1]
 8006de4:	f887 3200 	strb.w	r3, [r7, #512]	@ 0x200
          hcdc->CmdLength = (uint8_t)req->wLength;
 8006de8:	798b      	ldrb	r3, [r1, #6]
 8006dea:	f887 3201 	strb.w	r3, [r7, #513]	@ 0x201
          USBD_CtlPrepareRx(pdev, (uint8_t *)(void *)hcdc->data, req->wLength);
 8006dee:	88ca      	ldrh	r2, [r1, #6]
 8006df0:	4639      	mov	r1, r7
 8006df2:	f000 ff98 	bl	8007d26 <USBD_CtlPrepareRx>
  uint8_t ret = USBD_OK;
 8006df6:	2500      	movs	r5, #0
 8006df8:	e038      	b.n	8006e6c <USBD_CDC_Setup+0xd0>
        ((USBD_CDC_ItfTypeDef *)pdev->pUserData)->Control(req->bRequest,
 8006dfa:	f8d0 32bc 	ldr.w	r3, [r0, #700]	@ 0x2bc
 8006dfe:	689b      	ldr	r3, [r3, #8]
 8006e00:	2200      	movs	r2, #0
 8006e02:	7848      	ldrb	r0, [r1, #1]
 8006e04:	4798      	blx	r3
  uint8_t ret = USBD_OK;
 8006e06:	2500      	movs	r5, #0
 8006e08:	e030      	b.n	8006e6c <USBD_CDC_Setup+0xd0>
      switch (req->bRequest)
 8006e0a:	784f      	ldrb	r7, [r1, #1]
 8006e0c:	2f0a      	cmp	r7, #10
 8006e0e:	d010      	beq.n	8006e32 <USBD_CDC_Setup+0x96>
 8006e10:	2f0b      	cmp	r7, #11
 8006e12:	d01c      	beq.n	8006e4e <USBD_CDC_Setup+0xb2>
 8006e14:	bb1f      	cbnz	r7, 8006e5e <USBD_CDC_Setup+0xc2>
          if (pdev->dev_state == USBD_STATE_CONFIGURED)
 8006e16:	f890 329c 	ldrb.w	r3, [r0, #668]	@ 0x29c
 8006e1a:	2b03      	cmp	r3, #3
 8006e1c:	d003      	beq.n	8006e26 <USBD_CDC_Setup+0x8a>
            USBD_CtlError(pdev, req);
 8006e1e:	f000 fbc7 	bl	80075b0 <USBD_CtlError>
            ret = USBD_FAIL;
 8006e22:	2502      	movs	r5, #2
 8006e24:	e022      	b.n	8006e6c <USBD_CDC_Setup+0xd0>
            USBD_CtlSendData(pdev, (uint8_t *)(void *)&status_info, 2U);
 8006e26:	2202      	movs	r2, #2
 8006e28:	a901      	add	r1, sp, #4
 8006e2a:	f000 ff67 	bl	8007cfc <USBD_CtlSendData>
  uint8_t ret = USBD_OK;
 8006e2e:	463d      	mov	r5, r7
 8006e30:	e01c      	b.n	8006e6c <USBD_CDC_Setup+0xd0>
          if (pdev->dev_state == USBD_STATE_CONFIGURED)
 8006e32:	f890 329c 	ldrb.w	r3, [r0, #668]	@ 0x29c
 8006e36:	2b03      	cmp	r3, #3
 8006e38:	d003      	beq.n	8006e42 <USBD_CDC_Setup+0xa6>
            USBD_CtlError(pdev, req);
 8006e3a:	f000 fbb9 	bl	80075b0 <USBD_CtlError>
            ret = USBD_FAIL;
 8006e3e:	2502      	movs	r5, #2
 8006e40:	e014      	b.n	8006e6c <USBD_CDC_Setup+0xd0>
            USBD_CtlSendData(pdev, &ifalt, 1U);
 8006e42:	2201      	movs	r2, #1
 8006e44:	f10d 0107 	add.w	r1, sp, #7
 8006e48:	f000 ff58 	bl	8007cfc <USBD_CtlSendData>
 8006e4c:	e00e      	b.n	8006e6c <USBD_CDC_Setup+0xd0>
          if (pdev->dev_state != USBD_STATE_CONFIGURED)
 8006e4e:	f890 329c 	ldrb.w	r3, [r0, #668]	@ 0x29c
 8006e52:	2b03      	cmp	r3, #3
 8006e54:	d00a      	beq.n	8006e6c <USBD_CDC_Setup+0xd0>
            USBD_CtlError(pdev, req);
 8006e56:	f000 fbab 	bl	80075b0 <USBD_CtlError>
            ret = USBD_FAIL;
 8006e5a:	2502      	movs	r5, #2
 8006e5c:	e006      	b.n	8006e6c <USBD_CDC_Setup+0xd0>
          USBD_CtlError(pdev, req);
 8006e5e:	f000 fba7 	bl	80075b0 <USBD_CtlError>
          ret = USBD_FAIL;
 8006e62:	2502      	movs	r5, #2
          break;
 8006e64:	e002      	b.n	8006e6c <USBD_CDC_Setup+0xd0>
      USBD_CtlError(pdev, req);
 8006e66:	f000 fba3 	bl	80075b0 <USBD_CtlError>
      ret = USBD_FAIL;
 8006e6a:	2502      	movs	r5, #2
}
 8006e6c:	4628      	mov	r0, r5
 8006e6e:	b003      	add	sp, #12
 8006e70:	bdf0      	pop	{r4, r5, r6, r7, pc}

08006e72 <USBD_CDC_DeInit>:
{
 8006e72:	b538      	push	{r3, r4, r5, lr}
 8006e74:	4604      	mov	r4, r0
  USBD_LL_CloseEP(pdev, CDC_IN_EP);
 8006e76:	2181      	movs	r1, #129	@ 0x81
 8006e78:	f000 f9c1 	bl	80071fe <USBD_LL_CloseEP>
  pdev->ep_in[CDC_IN_EP & 0xFU].is_used = 0U;
 8006e7c:	2500      	movs	r5, #0
 8006e7e:	62e5      	str	r5, [r4, #44]	@ 0x2c
  USBD_LL_CloseEP(pdev, CDC_OUT_EP);
 8006e80:	2101      	movs	r1, #1
 8006e82:	4620      	mov	r0, r4
 8006e84:	f000 f9bb 	bl	80071fe <USBD_LL_CloseEP>
  pdev->ep_out[CDC_OUT_EP & 0xFU].is_used = 0U;
 8006e88:	f8c4 516c 	str.w	r5, [r4, #364]	@ 0x16c
  USBD_LL_CloseEP(pdev, CDC_CMD_EP);
 8006e8c:	2182      	movs	r1, #130	@ 0x82
 8006e8e:	4620      	mov	r0, r4
 8006e90:	f000 f9b5 	bl	80071fe <USBD_LL_CloseEP>
  pdev->ep_in[CDC_CMD_EP & 0xFU].is_used = 0U;
 8006e94:	6425      	str	r5, [r4, #64]	@ 0x40
  if (pdev->pClassData != NULL)
 8006e96:	f8d4 32b8 	ldr.w	r3, [r4, #696]	@ 0x2b8
 8006e9a:	b14b      	cbz	r3, 8006eb0 <USBD_CDC_DeInit+0x3e>
    ((USBD_CDC_ItfTypeDef *)pdev->pUserData)->DeInit();
 8006e9c:	f8d4 32bc 	ldr.w	r3, [r4, #700]	@ 0x2bc
 8006ea0:	685b      	ldr	r3, [r3, #4]
 8006ea2:	4798      	blx	r3
    USBD_free(pdev->pClassData);
 8006ea4:	f8d4 02b8 	ldr.w	r0, [r4, #696]	@ 0x2b8
 8006ea8:	f000 f9fa 	bl	80072a0 <USBD_static_free>
    pdev->pClassData = NULL;
 8006eac:	f8c4 52b8 	str.w	r5, [r4, #696]	@ 0x2b8
}
 8006eb0:	2000      	movs	r0, #0
 8006eb2:	bd38      	pop	{r3, r4, r5, pc}

08006eb4 <USBD_CDC_Init>:
{
 8006eb4:	b570      	push	{r4, r5, r6, lr}
 8006eb6:	4604      	mov	r4, r0
  if (pdev->dev_speed == USBD_SPEED_HIGH)
 8006eb8:	7c03      	ldrb	r3, [r0, #16]
 8006eba:	bbab      	cbnz	r3, 8006f28 <USBD_CDC_Init+0x74>
    USBD_LL_OpenEP(pdev, CDC_IN_EP, USBD_EP_TYPE_BULK,
 8006ebc:	f44f 7300 	mov.w	r3, #512	@ 0x200
 8006ec0:	2202      	movs	r2, #2
 8006ec2:	2181      	movs	r1, #129	@ 0x81
 8006ec4:	f000 f990 	bl	80071e8 <USBD_LL_OpenEP>
    pdev->ep_in[CDC_IN_EP & 0xFU].is_used = 1U;
 8006ec8:	2501      	movs	r5, #1
 8006eca:	62e5      	str	r5, [r4, #44]	@ 0x2c
    USBD_LL_OpenEP(pdev, CDC_OUT_EP, USBD_EP_TYPE_BULK,
 8006ecc:	f44f 7300 	mov.w	r3, #512	@ 0x200
 8006ed0:	2202      	movs	r2, #2
 8006ed2:	4629      	mov	r1, r5
 8006ed4:	4620      	mov	r0, r4
 8006ed6:	f000 f987 	bl	80071e8 <USBD_LL_OpenEP>
    pdev->ep_out[CDC_OUT_EP & 0xFU].is_used = 1U;
 8006eda:	f8c4 516c 	str.w	r5, [r4, #364]	@ 0x16c
  USBD_LL_OpenEP(pdev, CDC_CMD_EP, USBD_EP_TYPE_INTR, CDC_CMD_PACKET_SIZE);
 8006ede:	2308      	movs	r3, #8
 8006ee0:	2203      	movs	r2, #3
 8006ee2:	2182      	movs	r1, #130	@ 0x82
 8006ee4:	4620      	mov	r0, r4
 8006ee6:	f000 f97f 	bl	80071e8 <USBD_LL_OpenEP>
  pdev->ep_in[CDC_CMD_EP & 0xFU].is_used = 1U;
 8006eea:	2301      	movs	r3, #1
 8006eec:	6423      	str	r3, [r4, #64]	@ 0x40
  pdev->pClassData = USBD_malloc(sizeof(USBD_CDC_HandleTypeDef));
 8006eee:	f44f 7007 	mov.w	r0, #540	@ 0x21c
 8006ef2:	f000 f9d1 	bl	8007298 <USBD_static_malloc>
 8006ef6:	4605      	mov	r5, r0
 8006ef8:	f8c4 02b8 	str.w	r0, [r4, #696]	@ 0x2b8
  if (pdev->pClassData == NULL)
 8006efc:	b368      	cbz	r0, 8006f5a <USBD_CDC_Init+0xa6>
    ((USBD_CDC_ItfTypeDef *)pdev->pUserData)->Init();
 8006efe:	f8d4 32bc 	ldr.w	r3, [r4, #700]	@ 0x2bc
 8006f02:	681b      	ldr	r3, [r3, #0]
 8006f04:	4798      	blx	r3
    hcdc->TxState = 0U;
 8006f06:	2300      	movs	r3, #0
 8006f08:	f8c5 3214 	str.w	r3, [r5, #532]	@ 0x214
    hcdc->RxState = 0U;
 8006f0c:	f8c5 3218 	str.w	r3, [r5, #536]	@ 0x218
    if (pdev->dev_speed == USBD_SPEED_HIGH)
 8006f10:	7c26      	ldrb	r6, [r4, #16]
 8006f12:	b9ce      	cbnz	r6, 8006f48 <USBD_CDC_Init+0x94>
      USBD_LL_PrepareReceive(pdev, CDC_OUT_EP, hcdc->RxBuffer,
 8006f14:	f44f 7300 	mov.w	r3, #512	@ 0x200
 8006f18:	f8d5 2204 	ldr.w	r2, [r5, #516]	@ 0x204
 8006f1c:	2101      	movs	r1, #1
 8006f1e:	4620      	mov	r0, r4
 8006f20:	f000 f9ab 	bl	800727a <USBD_LL_PrepareReceive>
}
 8006f24:	4630      	mov	r0, r6
 8006f26:	bd70      	pop	{r4, r5, r6, pc}
    USBD_LL_OpenEP(pdev, CDC_IN_EP, USBD_EP_TYPE_BULK,
 8006f28:	2340      	movs	r3, #64	@ 0x40
 8006f2a:	2202      	movs	r2, #2
 8006f2c:	2181      	movs	r1, #129	@ 0x81
 8006f2e:	f000 f95b 	bl	80071e8 <USBD_LL_OpenEP>
    pdev->ep_in[CDC_IN_EP & 0xFU].is_used = 1U;
 8006f32:	2501      	movs	r5, #1
 8006f34:	62e5      	str	r5, [r4, #44]	@ 0x2c
    USBD_LL_OpenEP(pdev, CDC_OUT_EP, USBD_EP_TYPE_BULK,
 8006f36:	2340      	movs	r3, #64	@ 0x40
 8006f38:	2202      	movs	r2, #2
 8006f3a:	4629      	mov	r1, r5
 8006f3c:	4620      	mov	r0, r4
 8006f3e:	f000 f953 	bl	80071e8 <USBD_LL_OpenEP>
    pdev->ep_out[CDC_OUT_EP & 0xFU].is_used = 1U;
 8006f42:	f8c4 516c 	str.w	r5, [r4, #364]	@ 0x16c
 8006f46:	e7ca      	b.n	8006ede <USBD_CDC_Init+0x2a>
      USBD_LL_PrepareReceive(pdev, CDC_OUT_EP, hcdc->RxBuffer,
 8006f48:	2340      	movs	r3, #64	@ 0x40
 8006f4a:	f8d5 2204 	ldr.w	r2, [r5, #516]	@ 0x204
 8006f4e:	2101      	movs	r1, #1
 8006f50:	4620      	mov	r0, r4
 8006f52:	f000 f992 	bl	800727a <USBD_LL_PrepareReceive>
  uint8_t ret = 0U;
 8006f56:	2600      	movs	r6, #0
 8006f58:	e7e4      	b.n	8006f24 <USBD_CDC_Init+0x70>
    ret = 1U;
 8006f5a:	2601      	movs	r6, #1
 8006f5c:	e7e2      	b.n	8006f24 <USBD_CDC_Init+0x70>

08006f5e <USBD_CDC_RegisterInterface>:
uint8_t  USBD_CDC_RegisterInterface(USBD_HandleTypeDef   *pdev,
                                    USBD_CDC_ItfTypeDef *fops)
{
  uint8_t  ret = USBD_FAIL;

  if (fops != NULL)
 8006f5e:	b119      	cbz	r1, 8006f68 <USBD_CDC_RegisterInterface+0xa>
  {
    pdev->pUserData = fops;
 8006f60:	f8c0 12bc 	str.w	r1, [r0, #700]	@ 0x2bc
    ret = USBD_OK;
 8006f64:	2000      	movs	r0, #0
 8006f66:	4770      	bx	lr
  uint8_t  ret = USBD_FAIL;
 8006f68:	2002      	movs	r0, #2
  }

  return ret;
}
 8006f6a:	4770      	bx	lr

08006f6c <USBD_CDC_SetTxBuffer>:
  */
uint8_t  USBD_CDC_SetTxBuffer(USBD_HandleTypeDef   *pdev,
                              uint8_t  *pbuff,
                              uint16_t length)
{
  USBD_CDC_HandleTypeDef   *hcdc = (USBD_CDC_HandleTypeDef *) pdev->pClassData;
 8006f6c:	f8d0 32b8 	ldr.w	r3, [r0, #696]	@ 0x2b8

  hcdc->TxBuffer = pbuff;
 8006f70:	f8c3 1208 	str.w	r1, [r3, #520]	@ 0x208
  hcdc->TxLength = length;
 8006f74:	f8c3 2210 	str.w	r2, [r3, #528]	@ 0x210

  return USBD_OK;
}
 8006f78:	2000      	movs	r0, #0
 8006f7a:	4770      	bx	lr

08006f7c <USBD_CDC_SetRxBuffer>:
  * @retval status
  */
uint8_t  USBD_CDC_SetRxBuffer(USBD_HandleTypeDef   *pdev,
                              uint8_t  *pbuff)
{
  USBD_CDC_HandleTypeDef   *hcdc = (USBD_CDC_HandleTypeDef *) pdev->pClassData;
 8006f7c:	f8d0 32b8 	ldr.w	r3, [r0, #696]	@ 0x2b8

  hcdc->RxBuffer = pbuff;
 8006f80:	f8c3 1204 	str.w	r1, [r3, #516]	@ 0x204

  return USBD_OK;
}
 8006f84:	2000      	movs	r0, #0
 8006f86:	4770      	bx	lr

08006f88 <USBD_CDC_TransmitPacket>:
  * @param  pdev: device instance
  * @retval status
  */
uint8_t  USBD_CDC_TransmitPacket(USBD_HandleTypeDef *pdev)
{
  USBD_CDC_HandleTypeDef   *hcdc = (USBD_CDC_HandleTypeDef *) pdev->pClassData;
 8006f88:	f8d0 22b8 	ldr.w	r2, [r0, #696]	@ 0x2b8

  if (pdev->pClassData != NULL)
 8006f8c:	b19a      	cbz	r2, 8006fb6 <USBD_CDC_TransmitPacket+0x2e>
{
 8006f8e:	b508      	push	{r3, lr}
  {
    if (hcdc->TxState == 0U)
 8006f90:	f8d2 3214 	ldr.w	r3, [r2, #532]	@ 0x214
 8006f94:	b10b      	cbz	r3, 8006f9a <USBD_CDC_TransmitPacket+0x12>

      return USBD_OK;
    }
    else
    {
      return USBD_BUSY;
 8006f96:	2001      	movs	r0, #1
  }
  else
  {
    return USBD_FAIL;
  }
}
 8006f98:	bd08      	pop	{r3, pc}
      hcdc->TxState = 1U;
 8006f9a:	2301      	movs	r3, #1
 8006f9c:	f8c2 3214 	str.w	r3, [r2, #532]	@ 0x214
      pdev->ep_in[CDC_IN_EP & 0xFU].total_length = hcdc->TxLength;
 8006fa0:	f8d2 3210 	ldr.w	r3, [r2, #528]	@ 0x210
 8006fa4:	6303      	str	r3, [r0, #48]	@ 0x30
      USBD_LL_Transmit(pdev, CDC_IN_EP, hcdc->TxBuffer,
 8006fa6:	b29b      	uxth	r3, r3
 8006fa8:	f8d2 2208 	ldr.w	r2, [r2, #520]	@ 0x208
 8006fac:	2181      	movs	r1, #129	@ 0x81
 8006fae:	f000 f95c 	bl	800726a <USBD_LL_Transmit>
      return USBD_OK;
 8006fb2:	2000      	movs	r0, #0
 8006fb4:	e7f0      	b.n	8006f98 <USBD_CDC_TransmitPacket+0x10>
    return USBD_FAIL;
 8006fb6:	2002      	movs	r0, #2
}
 8006fb8:	4770      	bx	lr

08006fba <USBD_CDC_ReceivePacket>:
  * @param  pdev: device instance
  * @retval status
  */
uint8_t  USBD_CDC_ReceivePacket(USBD_HandleTypeDef *pdev)
{
  USBD_CDC_HandleTypeDef   *hcdc = (USBD_CDC_HandleTypeDef *) pdev->pClassData;
 8006fba:	f8d0 22b8 	ldr.w	r2, [r0, #696]	@ 0x2b8

  /* Suspend or Resume USB Out process */
  if (pdev->pClassData != NULL)
 8006fbe:	b192      	cbz	r2, 8006fe6 <USBD_CDC_ReceivePacket+0x2c>
{
 8006fc0:	b508      	push	{r3, lr}
  {
    if (pdev->dev_speed == USBD_SPEED_HIGH)
 8006fc2:	7c03      	ldrb	r3, [r0, #16]
 8006fc4:	b943      	cbnz	r3, 8006fd8 <USBD_CDC_ReceivePacket+0x1e>
    {
      /* Prepare Out endpoint to receive next packet */
      USBD_LL_PrepareReceive(pdev,
 8006fc6:	f44f 7300 	mov.w	r3, #512	@ 0x200
 8006fca:	f8d2 2204 	ldr.w	r2, [r2, #516]	@ 0x204
 8006fce:	2101      	movs	r1, #1
 8006fd0:	f000 f953 	bl	800727a <USBD_LL_PrepareReceive>
      USBD_LL_PrepareReceive(pdev,
                             CDC_OUT_EP,
                             hcdc->RxBuffer,
                             CDC_DATA_FS_OUT_PACKET_SIZE);
    }
    return USBD_OK;
 8006fd4:	2000      	movs	r0, #0
  }
  else
  {
    return USBD_FAIL;
  }
}
 8006fd6:	bd08      	pop	{r3, pc}
      USBD_LL_PrepareReceive(pdev,
 8006fd8:	2340      	movs	r3, #64	@ 0x40
 8006fda:	f8d2 2204 	ldr.w	r2, [r2, #516]	@ 0x204
 8006fde:	2101      	movs	r1, #1
 8006fe0:	f000 f94b 	bl	800727a <USBD_LL_PrepareReceive>
 8006fe4:	e7f6      	b.n	8006fd4 <USBD_CDC_ReceivePacket+0x1a>
    return USBD_FAIL;
 8006fe6:	2002      	movs	r0, #2
}
 8006fe8:	4770      	bx	lr

08006fea <CDC_DeInit_FS>:
static int8_t CDC_DeInit_FS(void)
{
  /* USER CODE BEGIN 4 */
  return (USBD_OK);
  /* USER CODE END 4 */
}
 8006fea:	2000      	movs	r0, #0
 8006fec:	4770      	bx	lr

08006fee <CDC_Control_FS>:
    break;
  }

  return (USBD_OK);
  /* USER CODE END 5 */
}
 8006fee:	2000      	movs	r0, #0
 8006ff0:	4770      	bx	lr
	...

08006ff4 <CDC_Receive_FS>:
  * @param  Buf: Buffer of data to be received
  * @param  Len: Number of data received (in bytes)
  * @retval Result of the operation: USBD_OK if all operations are OK else USBD_FAIL
  */
static int8_t CDC_Receive_FS(uint8_t* Buf, uint32_t *Len)
{
 8006ff4:	b510      	push	{r4, lr}
 8006ff6:	4601      	mov	r1, r0
  /* USER CODE BEGIN 6 */
  USBD_CDC_SetRxBuffer(&hUsbDeviceFS, &Buf[0]);
 8006ff8:	4c04      	ldr	r4, [pc, #16]	@ (800700c <CDC_Receive_FS+0x18>)
 8006ffa:	4620      	mov	r0, r4
 8006ffc:	f7ff ffbe 	bl	8006f7c <USBD_CDC_SetRxBuffer>
  USBD_CDC_ReceivePacket(&hUsbDeviceFS);
 8007000:	4620      	mov	r0, r4
 8007002:	f7ff ffda 	bl	8006fba <USBD_CDC_ReceivePacket>
  return (USBD_OK);
  /* USER CODE END 6 */
}
 8007006:	2000      	movs	r0, #0
 8007008:	bd10      	pop	{r4, pc}
 800700a:	bf00      	nop
 800700c:	200007bc 	.word	0x200007bc

08007010 <CDC_Init_FS>:
{
 8007010:	b510      	push	{r4, lr}
  USBD_CDC_SetTxBuffer(&hUsbDeviceFS, UserTxBufferFS, 0);
 8007012:	4c06      	ldr	r4, [pc, #24]	@ (800702c <CDC_Init_FS+0x1c>)
 8007014:	2200      	movs	r2, #0
 8007016:	4906      	ldr	r1, [pc, #24]	@ (8007030 <CDC_Init_FS+0x20>)
 8007018:	4620      	mov	r0, r4
 800701a:	f7ff ffa7 	bl	8006f6c <USBD_CDC_SetTxBuffer>
  USBD_CDC_SetRxBuffer(&hUsbDeviceFS, UserRxBufferFS);
 800701e:	4905      	ldr	r1, [pc, #20]	@ (8007034 <CDC_Init_FS+0x24>)
 8007020:	4620      	mov	r0, r4
 8007022:	f7ff ffab 	bl	8006f7c <USBD_CDC_SetRxBuffer>
}
 8007026:	2000      	movs	r0, #0
 8007028:	bd10      	pop	{r4, pc}
 800702a:	bf00      	nop
 800702c:	200007bc 	.word	0x200007bc
 8007030:	20000a80 	.word	0x20000a80
 8007034:	20000e80 	.word	0x20000e80

08007038 <CDC_Transmit_FS>:
  */
uint8_t CDC_Transmit_FS(uint8_t* Buf, uint16_t Len)
{
  uint8_t result = USBD_OK;
  /* USER CODE BEGIN 7 */
  USBD_CDC_HandleTypeDef *hcdc = (USBD_CDC_HandleTypeDef*)hUsbDeviceFS.pClassData;
 8007038:	4b09      	ldr	r3, [pc, #36]	@ (8007060 <CDC_Transmit_FS+0x28>)
 800703a:	f8d3 32b8 	ldr.w	r3, [r3, #696]	@ 0x2b8
  if (hcdc->TxState != 0){
 800703e:	f8d3 3214 	ldr.w	r3, [r3, #532]	@ 0x214
 8007042:	b10b      	cbz	r3, 8007048 <CDC_Transmit_FS+0x10>
    return USBD_BUSY;
 8007044:	2001      	movs	r0, #1
  }
  USBD_CDC_SetTxBuffer(&hUsbDeviceFS, Buf, Len);
  result = USBD_CDC_TransmitPacket(&hUsbDeviceFS);
  /* USER CODE END 7 */
  return result;
}
 8007046:	4770      	bx	lr
{
 8007048:	b510      	push	{r4, lr}
  USBD_CDC_SetTxBuffer(&hUsbDeviceFS, Buf, Len);
 800704a:	4c05      	ldr	r4, [pc, #20]	@ (8007060 <CDC_Transmit_FS+0x28>)
 800704c:	460a      	mov	r2, r1
 800704e:	4601      	mov	r1, r0
 8007050:	4620      	mov	r0, r4
 8007052:	f7ff ff8b 	bl	8006f6c <USBD_CDC_SetTxBuffer>
  result = USBD_CDC_TransmitPacket(&hUsbDeviceFS);
 8007056:	4620      	mov	r0, r4
 8007058:	f7ff ff96 	bl	8006f88 <USBD_CDC_TransmitPacket>
}
 800705c:	bd10      	pop	{r4, pc}
 800705e:	bf00      	nop
 8007060:	200007bc 	.word	0x200007bc

08007064 <USBD_Get_USB_Status>:
  */
USBD_StatusTypeDef USBD_Get_USB_Status(HAL_StatusTypeDef hal_status)
{
  USBD_StatusTypeDef usb_status = USBD_OK;

  switch (hal_status)
 8007064:	2802      	cmp	r0, #2
 8007066:	d805      	bhi.n	8007074 <USBD_Get_USB_Status+0x10>
 8007068:	e8df f000 	tbb	[pc, r0]
 800706c:	0405      	.short	0x0405
 800706e:	02          	.byte	0x02
 800706f:	00          	.byte	0x00
    break;
    case HAL_ERROR :
      usb_status = USBD_FAIL;
    break;
    case HAL_BUSY :
      usb_status = USBD_BUSY;
 8007070:	2001      	movs	r0, #1
    break;
 8007072:	4770      	bx	lr
      usb_status = USBD_FAIL;
 8007074:	2002      	movs	r0, #2
    default :
      usb_status = USBD_FAIL;
    break;
  }
  return usb_status;
}
 8007076:	4770      	bx	lr

08007078 <HAL_PCD_MspInit>:
  if(pcdHandle->Instance==USB)
 8007078:	6802      	ldr	r2, [r0, #0]
 800707a:	4b0e      	ldr	r3, [pc, #56]	@ (80070b4 <HAL_PCD_MspInit+0x3c>)
 800707c:	429a      	cmp	r2, r3
 800707e:	d000      	beq.n	8007082 <HAL_PCD_MspInit+0xa>
 8007080:	4770      	bx	lr
{
 8007082:	b500      	push	{lr}
 8007084:	b083      	sub	sp, #12
    __HAL_RCC_USB_CLK_ENABLE();
 8007086:	f503 33da 	add.w	r3, r3, #111616	@ 0x1b400
 800708a:	69da      	ldr	r2, [r3, #28]
 800708c:	f442 0200 	orr.w	r2, r2, #8388608	@ 0x800000
 8007090:	61da      	str	r2, [r3, #28]
 8007092:	69db      	ldr	r3, [r3, #28]
 8007094:	f403 0300 	and.w	r3, r3, #8388608	@ 0x800000
 8007098:	9301      	str	r3, [sp, #4]
 800709a:	9b01      	ldr	r3, [sp, #4]
    HAL_NVIC_SetPriority(USB_LP_CAN1_RX0_IRQn, 0, 0);
 800709c:	2200      	movs	r2, #0
 800709e:	4611      	mov	r1, r2
 80070a0:	2014      	movs	r0, #20
 80070a2:	f7fc f8ed 	bl	8003280 <HAL_NVIC_SetPriority>
    HAL_NVIC_EnableIRQ(USB_LP_CAN1_RX0_IRQn);
 80070a6:	2014      	movs	r0, #20
 80070a8:	f7fc f8fa 	bl	80032a0 <HAL_NVIC_EnableIRQ>
}
 80070ac:	b003      	add	sp, #12
 80070ae:	f85d fb04 	ldr.w	pc, [sp], #4
 80070b2:	bf00      	nop
 80070b4:	40005c00 	.word	0x40005c00

080070b8 <HAL_PCD_SetupStageCallback>:
{
 80070b8:	b508      	push	{r3, lr}
  USBD_LL_SetupStage((USBD_HandleTypeDef*)hpcd->pData, (uint8_t *)hpcd->Setup);
 80070ba:	f500 7126 	add.w	r1, r0, #664	@ 0x298
 80070be:	f8d0 02d4 	ldr.w	r0, [r0, #724]	@ 0x2d4
 80070c2:	f000 f925 	bl	8007310 <USBD_LL_SetupStage>
}
 80070c6:	bd08      	pop	{r3, pc}

080070c8 <HAL_PCD_DataOutStageCallback>:
{
 80070c8:	b508      	push	{r3, lr}
  USBD_LL_DataOutStage((USBD_HandleTypeDef*)hpcd->pData, epnum, hpcd->OUT_ep[epnum].xfer_buff);
 80070ca:	eb01 0381 	add.w	r3, r1, r1, lsl #2
 80070ce:	eb00 03c3 	add.w	r3, r0, r3, lsl #3
 80070d2:	f8d3 2164 	ldr.w	r2, [r3, #356]	@ 0x164
 80070d6:	f8d0 02d4 	ldr.w	r0, [r0, #724]	@ 0x2d4
 80070da:	f000 f946 	bl	800736a <USBD_LL_DataOutStage>
}
 80070de:	bd08      	pop	{r3, pc}

080070e0 <HAL_PCD_DataInStageCallback>:
{
 80070e0:	b508      	push	{r3, lr}
  USBD_LL_DataInStage((USBD_HandleTypeDef*)hpcd->pData, epnum, hpcd->IN_ep[epnum].xfer_buff);
 80070e2:	eb01 0381 	add.w	r3, r1, r1, lsl #2
 80070e6:	eb00 03c3 	add.w	r3, r0, r3, lsl #3
 80070ea:	6a5a      	ldr	r2, [r3, #36]	@ 0x24
 80070ec:	f8d0 02d4 	ldr.w	r0, [r0, #724]	@ 0x2d4
 80070f0:	f000 f981 	bl	80073f6 <USBD_LL_DataInStage>
}
 80070f4:	bd08      	pop	{r3, pc}

080070f6 <HAL_PCD_SOFCallback>:
{
 80070f6:	b508      	push	{r3, lr}
  USBD_LL_SOF((USBD_HandleTypeDef*)hpcd->pData);
 80070f8:	f8d0 02d4 	ldr.w	r0, [r0, #724]	@ 0x2d4
 80070fc:	f000 fa22 	bl	8007544 <USBD_LL_SOF>
}
 8007100:	bd08      	pop	{r3, pc}

08007102 <HAL_PCD_ResetCallback>:
{
 8007102:	b510      	push	{r4, lr}
 8007104:	4604      	mov	r4, r0
  if ( hpcd->Init.speed != PCD_SPEED_FULL)
 8007106:	7983      	ldrb	r3, [r0, #6]
 8007108:	2b02      	cmp	r3, #2
 800710a:	d109      	bne.n	8007120 <HAL_PCD_ResetCallback+0x1e>
  USBD_LL_SetSpeed((USBD_HandleTypeDef*)hpcd->pData, speed);
 800710c:	2101      	movs	r1, #1
 800710e:	f8d4 02d4 	ldr.w	r0, [r4, #724]	@ 0x2d4
 8007112:	f000 fa00 	bl	8007516 <USBD_LL_SetSpeed>
  USBD_LL_Reset((USBD_HandleTypeDef*)hpcd->pData);
 8007116:	f8d4 02d4 	ldr.w	r0, [r4, #724]	@ 0x2d4
 800711a:	f000 f9d4 	bl	80074c6 <USBD_LL_Reset>
}
 800711e:	bd10      	pop	{r4, pc}
    Error_Handler();
 8007120:	f7fb f87a 	bl	8002218 <Error_Handler>
 8007124:	e7f2      	b.n	800710c <HAL_PCD_ResetCallback+0xa>
	...

08007128 <HAL_PCD_SuspendCallback>:
{
 8007128:	b510      	push	{r4, lr}
 800712a:	4604      	mov	r4, r0
  USBD_LL_Suspend((USBD_HandleTypeDef*)hpcd->pData);
 800712c:	f8d0 02d4 	ldr.w	r0, [r0, #724]	@ 0x2d4
 8007130:	f000 f9f4 	bl	800751c <USBD_LL_Suspend>
  if (hpcd->Init.low_power_enable)
 8007134:	7aa3      	ldrb	r3, [r4, #10]
 8007136:	b123      	cbz	r3, 8007142 <HAL_PCD_SuspendCallback+0x1a>
    SCB->SCR |= (uint32_t)((uint32_t)(SCB_SCR_SLEEPDEEP_Msk | SCB_SCR_SLEEPONEXIT_Msk));
 8007138:	4a02      	ldr	r2, [pc, #8]	@ (8007144 <HAL_PCD_SuspendCallback+0x1c>)
 800713a:	6913      	ldr	r3, [r2, #16]
 800713c:	f043 0306 	orr.w	r3, r3, #6
 8007140:	6113      	str	r3, [r2, #16]
}
 8007142:	bd10      	pop	{r4, pc}
 8007144:	e000ed00 	.word	0xe000ed00

08007148 <HAL_PCD_ResumeCallback>:
{
 8007148:	b508      	push	{r3, lr}
  USBD_LL_Resume((USBD_HandleTypeDef*)hpcd->pData);
 800714a:	f8d0 02d4 	ldr.w	r0, [r0, #724]	@ 0x2d4
 800714e:	f000 f9ee 	bl	800752e <USBD_LL_Resume>
}
 8007152:	bd08      	pop	{r3, pc}

08007154 <USBD_LL_Init>:
{
 8007154:	b510      	push	{r4, lr}
 8007156:	4604      	mov	r4, r0
  hpcd_USB_FS.pData = pdev;
 8007158:	481d      	ldr	r0, [pc, #116]	@ (80071d0 <USBD_LL_Init+0x7c>)
 800715a:	f8c0 42d4 	str.w	r4, [r0, #724]	@ 0x2d4
  pdev->pData = &hpcd_USB_FS;
 800715e:	f8c4 02c0 	str.w	r0, [r4, #704]	@ 0x2c0
  hpcd_USB_FS.Instance = USB;
 8007162:	4b1c      	ldr	r3, [pc, #112]	@ (80071d4 <USBD_LL_Init+0x80>)
 8007164:	6003      	str	r3, [r0, #0]
  hpcd_USB_FS.Init.dev_endpoints = 8;
 8007166:	2308      	movs	r3, #8
 8007168:	7103      	strb	r3, [r0, #4]
  hpcd_USB_FS.Init.speed = PCD_SPEED_FULL;
 800716a:	2302      	movs	r3, #2
 800716c:	7183      	strb	r3, [r0, #6]
  hpcd_USB_FS.Init.low_power_enable = DISABLE;
 800716e:	2300      	movs	r3, #0
 8007170:	7283      	strb	r3, [r0, #10]
  hpcd_USB_FS.Init.lpm_enable = DISABLE;
 8007172:	72c3      	strb	r3, [r0, #11]
  hpcd_USB_FS.Init.battery_charging_enable = DISABLE;
 8007174:	7303      	strb	r3, [r0, #12]
  if (HAL_PCD_Init(&hpcd_USB_FS) != HAL_OK)
 8007176:	f7fc fbb7 	bl	80038e8 <HAL_PCD_Init>
 800717a:	bb30      	cbnz	r0, 80071ca <USBD_LL_Init+0x76>
  HAL_PCDEx_PMAConfig((PCD_HandleTypeDef*)pdev->pData , 0x00 , PCD_SNG_BUF, 0x18);
 800717c:	2318      	movs	r3, #24
 800717e:	2200      	movs	r2, #0
 8007180:	4611      	mov	r1, r2
 8007182:	f8d4 02c0 	ldr.w	r0, [r4, #704]	@ 0x2c0
 8007186:	f7fd fb26 	bl	80047d6 <HAL_PCDEx_PMAConfig>
  HAL_PCDEx_PMAConfig((PCD_HandleTypeDef*)pdev->pData , 0x80 , PCD_SNG_BUF, 0x58);
 800718a:	2358      	movs	r3, #88	@ 0x58
 800718c:	2200      	movs	r2, #0
 800718e:	2180      	movs	r1, #128	@ 0x80
 8007190:	f8d4 02c0 	ldr.w	r0, [r4, #704]	@ 0x2c0
 8007194:	f7fd fb1f 	bl	80047d6 <HAL_PCDEx_PMAConfig>
  HAL_PCDEx_PMAConfig((PCD_HandleTypeDef*)pdev->pData , 0x81 , PCD_SNG_BUF, 0xC0);
 8007198:	23c0      	movs	r3, #192	@ 0xc0
 800719a:	2200      	movs	r2, #0
 800719c:	2181      	movs	r1, #129	@ 0x81
 800719e:	f8d4 02c0 	ldr.w	r0, [r4, #704]	@ 0x2c0
 80071a2:	f7fd fb18 	bl	80047d6 <HAL_PCDEx_PMAConfig>
  HAL_PCDEx_PMAConfig((PCD_HandleTypeDef*)pdev->pData , 0x01 , PCD_SNG_BUF, 0x110);
 80071a6:	f44f 7388 	mov.w	r3, #272	@ 0x110
 80071aa:	2200      	movs	r2, #0
 80071ac:	2101      	movs	r1, #1
 80071ae:	f8d4 02c0 	ldr.w	r0, [r4, #704]	@ 0x2c0
 80071b2:	f7fd fb10 	bl	80047d6 <HAL_PCDEx_PMAConfig>
  HAL_PCDEx_PMAConfig((PCD_HandleTypeDef*)pdev->pData , 0x82 , PCD_SNG_BUF, 0x100);
 80071b6:	f44f 7380 	mov.w	r3, #256	@ 0x100
 80071ba:	2200      	movs	r2, #0
 80071bc:	2182      	movs	r1, #130	@ 0x82
 80071be:	f8d4 02c0 	ldr.w	r0, [r4, #704]	@ 0x2c0
 80071c2:	f7fd fb08 	bl	80047d6 <HAL_PCDEx_PMAConfig>
}
 80071c6:	2000      	movs	r0, #0
 80071c8:	bd10      	pop	{r4, pc}
    Error_Handler( );
 80071ca:	f7fb f825 	bl	8002218 <Error_Handler>
 80071ce:	e7d5      	b.n	800717c <USBD_LL_Init+0x28>
 80071d0:	200014a0 	.word	0x200014a0
 80071d4:	40005c00 	.word	0x40005c00

080071d8 <USBD_LL_Start>:
{
 80071d8:	b508      	push	{r3, lr}
  hal_status = HAL_PCD_Start(pdev->pData);
 80071da:	f8d0 02c0 	ldr.w	r0, [r0, #704]	@ 0x2c0
 80071de:	f7fc fbf7 	bl	80039d0 <HAL_PCD_Start>
  usb_status =  USBD_Get_USB_Status(hal_status);
 80071e2:	f7ff ff3f 	bl	8007064 <USBD_Get_USB_Status>
}
 80071e6:	bd08      	pop	{r3, pc}

080071e8 <USBD_LL_OpenEP>:
{
 80071e8:	b508      	push	{r3, lr}
 80071ea:	4694      	mov	ip, r2
 80071ec:	461a      	mov	r2, r3
  hal_status = HAL_PCD_EP_Open(pdev->pData, ep_addr, ep_mps, ep_type);
 80071ee:	4663      	mov	r3, ip
 80071f0:	f8d0 02c0 	ldr.w	r0, [r0, #704]	@ 0x2c0
 80071f4:	f7fd f9ac 	bl	8004550 <HAL_PCD_EP_Open>
  usb_status =  USBD_Get_USB_Status(hal_status);
 80071f8:	f7ff ff34 	bl	8007064 <USBD_Get_USB_Status>
}
 80071fc:	bd08      	pop	{r3, pc}

080071fe <USBD_LL_CloseEP>:
{
 80071fe:	b508      	push	{r3, lr}
  hal_status = HAL_PCD_EP_Close(pdev->pData, ep_addr);
 8007200:	f8d0 02c0 	ldr.w	r0, [r0, #704]	@ 0x2c0
 8007204:	f7fd f9e6 	bl	80045d4 <HAL_PCD_EP_Close>
  usb_status =  USBD_Get_USB_Status(hal_status);
 8007208:	f7ff ff2c 	bl	8007064 <USBD_Get_USB_Status>
}
 800720c:	bd08      	pop	{r3, pc}

0800720e <USBD_LL_StallEP>:
{
 800720e:	b508      	push	{r3, lr}
  hal_status = HAL_PCD_EP_SetStall(pdev->pData, ep_addr);
 8007210:	f8d0 02c0 	ldr.w	r0, [r0, #704]	@ 0x2c0
 8007214:	f7fd fa60 	bl	80046d8 <HAL_PCD_EP_SetStall>
  usb_status =  USBD_Get_USB_Status(hal_status);
 8007218:	f7ff ff24 	bl	8007064 <USBD_Get_USB_Status>
}
 800721c:	bd08      	pop	{r3, pc}

0800721e <USBD_LL_ClearStallEP>:
{
 800721e:	b508      	push	{r3, lr}
  hal_status = HAL_PCD_EP_ClrStall(pdev->pData, ep_addr);
 8007220:	f8d0 02c0 	ldr.w	r0, [r0, #704]	@ 0x2c0
 8007224:	f7fd fa98 	bl	8004758 <HAL_PCD_EP_ClrStall>
  usb_status =  USBD_Get_USB_Status(hal_status);
 8007228:	f7ff ff1c 	bl	8007064 <USBD_Get_USB_Status>
}
 800722c:	bd08      	pop	{r3, pc}

0800722e <USBD_LL_IsStallEP>:
  PCD_HandleTypeDef *hpcd = (PCD_HandleTypeDef*) pdev->pData;
 800722e:	f8d0 32c0 	ldr.w	r3, [r0, #704]	@ 0x2c0
  if((ep_addr & 0x80) == 0x80)
 8007232:	f011 0f80 	tst.w	r1, #128	@ 0x80
 8007236:	d108      	bne.n	800724a <USBD_LL_IsStallEP+0x1c>
    return hpcd->OUT_ep[ep_addr & 0x7F].is_stall;
 8007238:	f001 017f 	and.w	r1, r1, #127	@ 0x7f
 800723c:	eb01 0181 	add.w	r1, r1, r1, lsl #2
 8007240:	eb03 03c1 	add.w	r3, r3, r1, lsl #3
 8007244:	f893 0152 	ldrb.w	r0, [r3, #338]	@ 0x152
}
 8007248:	4770      	bx	lr
    return hpcd->IN_ep[ep_addr & 0x7F].is_stall;
 800724a:	f001 017f 	and.w	r1, r1, #127	@ 0x7f
 800724e:	eb01 0181 	add.w	r1, r1, r1, lsl #2
 8007252:	eb03 03c1 	add.w	r3, r3, r1, lsl #3
 8007256:	7c98      	ldrb	r0, [r3, #18]
 8007258:	4770      	bx	lr

0800725a <USBD_LL_SetUSBAddress>:
{
 800725a:	b508      	push	{r3, lr}
  hal_status = HAL_PCD_SetAddress(pdev->pData, dev_addr);
 800725c:	f8d0 02c0 	ldr.w	r0, [r0, #704]	@ 0x2c0
 8007260:	f7fd f88b 	bl	800437a <HAL_PCD_SetAddress>
  usb_status =  USBD_Get_USB_Status(hal_status);
 8007264:	f7ff fefe 	bl	8007064 <USBD_Get_USB_Status>
}
 8007268:	bd08      	pop	{r3, pc}

0800726a <USBD_LL_Transmit>:
{
 800726a:	b508      	push	{r3, lr}
  hal_status = HAL_PCD_EP_Transmit(pdev->pData, ep_addr, pbuf, size);
 800726c:	f8d0 02c0 	ldr.w	r0, [r0, #704]	@ 0x2c0
 8007270:	f7fd fa0c 	bl	800468c <HAL_PCD_EP_Transmit>
  usb_status =  USBD_Get_USB_Status(hal_status);
 8007274:	f7ff fef6 	bl	8007064 <USBD_Get_USB_Status>
}
 8007278:	bd08      	pop	{r3, pc}

0800727a <USBD_LL_PrepareReceive>:
{
 800727a:	b508      	push	{r3, lr}
  hal_status = HAL_PCD_EP_Receive(pdev->pData, ep_addr, pbuf, size);
 800727c:	f8d0 02c0 	ldr.w	r0, [r0, #704]	@ 0x2c0
 8007280:	f7fd f9de 	bl	8004640 <HAL_PCD_EP_Receive>
  usb_status =  USBD_Get_USB_Status(hal_status);
 8007284:	f7ff feee 	bl	8007064 <USBD_Get_USB_Status>
}
 8007288:	bd08      	pop	{r3, pc}

0800728a <USBD_LL_GetRxDataSize>:
{
 800728a:	b508      	push	{r3, lr}
  return HAL_PCD_EP_GetRxCount((PCD_HandleTypeDef*) pdev->pData, ep_addr);
 800728c:	f8d0 02c0 	ldr.w	r0, [r0, #704]	@ 0x2c0
 8007290:	f7fd f9f3 	bl	800467a <HAL_PCD_EP_GetRxCount>
}
 8007294:	bd08      	pop	{r3, pc}
	...

08007298 <USBD_static_malloc>:
}
 8007298:	4800      	ldr	r0, [pc, #0]	@ (800729c <USBD_static_malloc+0x4>)
 800729a:	4770      	bx	lr
 800729c:	20001280 	.word	0x20001280

080072a0 <USBD_static_free>:
}
 80072a0:	4770      	bx	lr

080072a2 <HAL_PCDEx_SetConnectionState>:
}
 80072a2:	4770      	bx	lr

080072a4 <USBD_Init>:
*/
USBD_StatusTypeDef USBD_Init(USBD_HandleTypeDef *pdev,
                             USBD_DescriptorsTypeDef *pdesc, uint8_t id)
{
  /* Check whether the USB Host handle is valid */
  if (pdev == NULL)
 80072a4:	b198      	cbz	r0, 80072ce <USBD_Init+0x2a>
{
 80072a6:	b508      	push	{r3, lr}
 80072a8:	4603      	mov	r3, r0
#endif
    return USBD_FAIL;
  }

  /* Unlink previous class*/
  if (pdev->pClass != NULL)
 80072aa:	f8d0 02b4 	ldr.w	r0, [r0, #692]	@ 0x2b4
 80072ae:	b110      	cbz	r0, 80072b6 <USBD_Init+0x12>
  {
    pdev->pClass = NULL;
 80072b0:	2000      	movs	r0, #0
 80072b2:	f8c3 02b4 	str.w	r0, [r3, #692]	@ 0x2b4
  }

  /* Assign USBD Descriptors */
  if (pdesc != NULL)
 80072b6:	b109      	cbz	r1, 80072bc <USBD_Init+0x18>
  {
    pdev->pDesc = pdesc;
 80072b8:	f8c3 12b0 	str.w	r1, [r3, #688]	@ 0x2b0
  }

  /* Set Device initial State */
  pdev->dev_state = USBD_STATE_DEFAULT;
 80072bc:	2101      	movs	r1, #1
 80072be:	f883 129c 	strb.w	r1, [r3, #668]	@ 0x29c
  pdev->id = id;
 80072c2:	701a      	strb	r2, [r3, #0]
  /* Initialize low level driver */
  USBD_LL_Init(pdev);
 80072c4:	4618      	mov	r0, r3
 80072c6:	f7ff ff45 	bl	8007154 <USBD_LL_Init>

  return USBD_OK;
 80072ca:	2000      	movs	r0, #0
}
 80072cc:	bd08      	pop	{r3, pc}
    return USBD_FAIL;
 80072ce:	2002      	movs	r0, #2
}
 80072d0:	4770      	bx	lr

080072d2 <USBD_RegisterClass>:
  * @retval USBD Status
  */
USBD_StatusTypeDef  USBD_RegisterClass(USBD_HandleTypeDef *pdev, USBD_ClassTypeDef *pclass)
{
  USBD_StatusTypeDef status = USBD_OK;
  if (pclass != NULL)
 80072d2:	b119      	cbz	r1, 80072dc <USBD_RegisterClass+0xa>
  {
    /* link the class to the USB Device handle */
    pdev->pClass = pclass;
 80072d4:	f8c0 12b4 	str.w	r1, [r0, #692]	@ 0x2b4
    status = USBD_OK;
 80072d8:	2000      	movs	r0, #0
 80072da:	4770      	bx	lr
  else
  {
#if (USBD_DEBUG_LEVEL > 1U)
    USBD_ErrLog("Invalid Class handle");
#endif
    status = USBD_FAIL;
 80072dc:	2002      	movs	r0, #2
  }

  return status;
}
 80072de:	4770      	bx	lr

080072e0 <USBD_Start>:
  *         Start the USB Device Core.
  * @param  pdev: Device Handle
  * @retval USBD Status
  */
USBD_StatusTypeDef  USBD_Start(USBD_HandleTypeDef *pdev)
{
 80072e0:	b508      	push	{r3, lr}
  /* Start the low level driver  */
  USBD_LL_Start(pdev);
 80072e2:	f7ff ff79 	bl	80071d8 <USBD_LL_Start>

  return USBD_OK;
}
 80072e6:	2000      	movs	r0, #0
 80072e8:	bd08      	pop	{r3, pc}

080072ea <USBD_SetClassConfig>:
* @param  cfgidx: configuration index
* @retval status
*/

USBD_StatusTypeDef USBD_SetClassConfig(USBD_HandleTypeDef  *pdev, uint8_t cfgidx)
{
 80072ea:	b508      	push	{r3, lr}
  USBD_StatusTypeDef ret = USBD_FAIL;

  if (pdev->pClass != NULL)
 80072ec:	f8d0 32b4 	ldr.w	r3, [r0, #692]	@ 0x2b4
 80072f0:	b12b      	cbz	r3, 80072fe <USBD_SetClassConfig+0x14>
  {
    /* Set configuration  and Start the Class*/
    if (pdev->pClass->Init(pdev, cfgidx) == 0U)
 80072f2:	681b      	ldr	r3, [r3, #0]
 80072f4:	4798      	blx	r3
 80072f6:	b900      	cbnz	r0, 80072fa <USBD_SetClassConfig+0x10>
      ret = USBD_OK;
    }
  }

  return ret;
}
 80072f8:	bd08      	pop	{r3, pc}
  USBD_StatusTypeDef ret = USBD_FAIL;
 80072fa:	2002      	movs	r0, #2
 80072fc:	e7fc      	b.n	80072f8 <USBD_SetClassConfig+0xe>
 80072fe:	2002      	movs	r0, #2
 8007300:	e7fa      	b.n	80072f8 <USBD_SetClassConfig+0xe>

08007302 <USBD_ClrClassConfig>:
* @param  pdev: device instance
* @param  cfgidx: configuration index
* @retval status: USBD_StatusTypeDef
*/
USBD_StatusTypeDef USBD_ClrClassConfig(USBD_HandleTypeDef  *pdev, uint8_t cfgidx)
{
 8007302:	b508      	push	{r3, lr}
  /* Clear configuration  and De-initialize the Class process*/
  pdev->pClass->DeInit(pdev, cfgidx);
 8007304:	f8d0 32b4 	ldr.w	r3, [r0, #692]	@ 0x2b4
 8007308:	685b      	ldr	r3, [r3, #4]
 800730a:	4798      	blx	r3

  return USBD_OK;
}
 800730c:	2000      	movs	r0, #0
 800730e:	bd08      	pop	{r3, pc}

08007310 <USBD_LL_SetupStage>:
*         Handle the setup stage
* @param  pdev: device instance
* @retval status
*/
USBD_StatusTypeDef USBD_LL_SetupStage(USBD_HandleTypeDef *pdev, uint8_t *psetup)
{
 8007310:	b538      	push	{r3, r4, r5, lr}
 8007312:	4604      	mov	r4, r0
  USBD_ParseSetupRequest(&pdev->request, psetup);
 8007314:	f500 752a 	add.w	r5, r0, #680	@ 0x2a8
 8007318:	4628      	mov	r0, r5
 800731a:	f000 f935 	bl	8007588 <USBD_ParseSetupRequest>

  pdev->ep0_state = USBD_EP0_SETUP;
 800731e:	2301      	movs	r3, #1
 8007320:	f8c4 3294 	str.w	r3, [r4, #660]	@ 0x294

  pdev->ep0_data_len = pdev->request.wLength;
 8007324:	f8b4 32ae 	ldrh.w	r3, [r4, #686]	@ 0x2ae
 8007328:	f8c4 3298 	str.w	r3, [r4, #664]	@ 0x298

  switch (pdev->request.bmRequest & 0x1FU)
 800732c:	f894 12a8 	ldrb.w	r1, [r4, #680]	@ 0x2a8
 8007330:	f001 031f 	and.w	r3, r1, #31
 8007334:	2b01      	cmp	r3, #1
 8007336:	d008      	beq.n	800734a <USBD_LL_SetupStage+0x3a>
 8007338:	2b02      	cmp	r3, #2
 800733a:	d00b      	beq.n	8007354 <USBD_LL_SetupStage+0x44>
 800733c:	b97b      	cbnz	r3, 800735e <USBD_LL_SetupStage+0x4e>
  {
    case USB_REQ_RECIPIENT_DEVICE:
      USBD_StdDevReq(pdev, &pdev->request);
 800733e:	4629      	mov	r1, r5
 8007340:	4620      	mov	r0, r4
 8007342:	f000 facf 	bl	80078e4 <USBD_StdDevReq>
      USBD_LL_StallEP(pdev, (pdev->request.bmRequest & 0x80U));
      break;
  }

  return USBD_OK;
}
 8007346:	2000      	movs	r0, #0
 8007348:	bd38      	pop	{r3, r4, r5, pc}
      USBD_StdItfReq(pdev, &pdev->request);
 800734a:	4629      	mov	r1, r5
 800734c:	4620      	mov	r0, r4
 800734e:	f000 fafd 	bl	800794c <USBD_StdItfReq>
      break;
 8007352:	e7f8      	b.n	8007346 <USBD_LL_SetupStage+0x36>
      USBD_StdEPReq(pdev, &pdev->request);
 8007354:	4629      	mov	r1, r5
 8007356:	4620      	mov	r0, r4
 8007358:	f000 fb28 	bl	80079ac <USBD_StdEPReq>
      break;
 800735c:	e7f3      	b.n	8007346 <USBD_LL_SetupStage+0x36>
      USBD_LL_StallEP(pdev, (pdev->request.bmRequest & 0x80U));
 800735e:	f001 0180 	and.w	r1, r1, #128	@ 0x80
 8007362:	4620      	mov	r0, r4
 8007364:	f7ff ff53 	bl	800720e <USBD_LL_StallEP>
      break;
 8007368:	e7ed      	b.n	8007346 <USBD_LL_SetupStage+0x36>

0800736a <USBD_LL_DataOutStage>:
* @param  epnum: endpoint index
* @retval status
*/
USBD_StatusTypeDef USBD_LL_DataOutStage(USBD_HandleTypeDef *pdev,
                                        uint8_t epnum, uint8_t *pdata)
{
 800736a:	b538      	push	{r3, r4, r5, lr}
 800736c:	4604      	mov	r4, r0
  USBD_EndpointTypeDef *pep;

  if (epnum == 0U)
 800736e:	460d      	mov	r5, r1
 8007370:	bb91      	cbnz	r1, 80073d8 <USBD_LL_DataOutStage+0x6e>
 8007372:	4613      	mov	r3, r2
  {
    pep = &pdev->ep_out[0];

    if (pdev->ep0_state == USBD_EP0_DATA_OUT)
 8007374:	f8d0 2294 	ldr.w	r2, [r0, #660]	@ 0x294
 8007378:	2a03      	cmp	r2, #3
 800737a:	d003      	beq.n	8007384 <USBD_LL_DataOutStage+0x1a>
        USBD_CtlSendStatus(pdev);
      }
    }
    else
    {
      if (pdev->ep0_state == USBD_EP0_STATUS_OUT)
 800737c:	2a05      	cmp	r2, #5
 800737e:	d024      	beq.n	80073ca <USBD_LL_DataOutStage+0x60>
  {
    /* should never be in this condition */
    return USBD_FAIL;
  }

  return USBD_OK;
 8007380:	4608      	mov	r0, r1
 8007382:	e033      	b.n	80073ec <USBD_LL_DataOutStage+0x82>
      if (pep->rem_length > pep->maxpacket)
 8007384:	f8d0 1160 	ldr.w	r1, [r0, #352]	@ 0x160
 8007388:	f8d0 2164 	ldr.w	r2, [r0, #356]	@ 0x164
 800738c:	4291      	cmp	r1, r2
 800738e:	d90d      	bls.n	80073ac <USBD_LL_DataOutStage+0x42>
        pep->rem_length -= pep->maxpacket;
 8007390:	1a89      	subs	r1, r1, r2
 8007392:	f8c0 1160 	str.w	r1, [r0, #352]	@ 0x160
        USBD_CtlContinueRx(pdev, pdata,
 8007396:	428a      	cmp	r2, r1
 8007398:	d906      	bls.n	80073a8 <USBD_LL_DataOutStage+0x3e>
 800739a:	b28a      	uxth	r2, r1
 800739c:	4619      	mov	r1, r3
 800739e:	4620      	mov	r0, r4
 80073a0:	f000 fcd0 	bl	8007d44 <USBD_CtlContinueRx>
  return USBD_OK;
 80073a4:	4628      	mov	r0, r5
 80073a6:	e021      	b.n	80073ec <USBD_LL_DataOutStage+0x82>
        USBD_CtlContinueRx(pdev, pdata,
 80073a8:	b292      	uxth	r2, r2
 80073aa:	e7f7      	b.n	800739c <USBD_LL_DataOutStage+0x32>
        if ((pdev->pClass->EP0_RxReady != NULL) &&
 80073ac:	f8d0 32b4 	ldr.w	r3, [r0, #692]	@ 0x2b4
 80073b0:	691b      	ldr	r3, [r3, #16]
 80073b2:	b11b      	cbz	r3, 80073bc <USBD_LL_DataOutStage+0x52>
            (pdev->dev_state == USBD_STATE_CONFIGURED))
 80073b4:	f890 229c 	ldrb.w	r2, [r0, #668]	@ 0x29c
        if ((pdev->pClass->EP0_RxReady != NULL) &&
 80073b8:	2a03      	cmp	r2, #3
 80073ba:	d004      	beq.n	80073c6 <USBD_LL_DataOutStage+0x5c>
        USBD_CtlSendStatus(pdev);
 80073bc:	4620      	mov	r0, r4
 80073be:	f000 fcc9 	bl	8007d54 <USBD_CtlSendStatus>
  return USBD_OK;
 80073c2:	4628      	mov	r0, r5
 80073c4:	e012      	b.n	80073ec <USBD_LL_DataOutStage+0x82>
          pdev->pClass->EP0_RxReady(pdev);
 80073c6:	4798      	blx	r3
 80073c8:	e7f8      	b.n	80073bc <USBD_LL_DataOutStage+0x52>
        pdev->ep0_state = USBD_EP0_IDLE;
 80073ca:	2100      	movs	r1, #0
 80073cc:	f8c0 1294 	str.w	r1, [r0, #660]	@ 0x294
        USBD_LL_StallEP(pdev, 0U);
 80073d0:	f7ff ff1d 	bl	800720e <USBD_LL_StallEP>
  return USBD_OK;
 80073d4:	4628      	mov	r0, r5
 80073d6:	e009      	b.n	80073ec <USBD_LL_DataOutStage+0x82>
  else if ((pdev->pClass->DataOut != NULL) &&
 80073d8:	f8d0 32b4 	ldr.w	r3, [r0, #692]	@ 0x2b4
 80073dc:	699b      	ldr	r3, [r3, #24]
 80073de:	b133      	cbz	r3, 80073ee <USBD_LL_DataOutStage+0x84>
           (pdev->dev_state == USBD_STATE_CONFIGURED))
 80073e0:	f890 229c 	ldrb.w	r2, [r0, #668]	@ 0x29c
  else if ((pdev->pClass->DataOut != NULL) &&
 80073e4:	2a03      	cmp	r2, #3
 80073e6:	d104      	bne.n	80073f2 <USBD_LL_DataOutStage+0x88>
    pdev->pClass->DataOut(pdev, epnum);
 80073e8:	4798      	blx	r3
  return USBD_OK;
 80073ea:	2000      	movs	r0, #0
}
 80073ec:	bd38      	pop	{r3, r4, r5, pc}
    return USBD_FAIL;
 80073ee:	2002      	movs	r0, #2
 80073f0:	e7fc      	b.n	80073ec <USBD_LL_DataOutStage+0x82>
 80073f2:	2002      	movs	r0, #2
 80073f4:	e7fa      	b.n	80073ec <USBD_LL_DataOutStage+0x82>

080073f6 <USBD_LL_DataInStage>:
* @param  epnum: endpoint index
* @retval status
*/
USBD_StatusTypeDef USBD_LL_DataInStage(USBD_HandleTypeDef *pdev,
                                       uint8_t epnum, uint8_t *pdata)
{
 80073f6:	b538      	push	{r3, r4, r5, lr}
 80073f8:	4604      	mov	r4, r0
  USBD_EndpointTypeDef *pep;

  if (epnum == 0U)
 80073fa:	460d      	mov	r5, r1
 80073fc:	2900      	cmp	r1, #0
 80073fe:	d153      	bne.n	80074a8 <USBD_LL_DataInStage+0xb2>
 8007400:	4613      	mov	r3, r2
  {
    pep = &pdev->ep_in[0];

    if (pdev->ep0_state == USBD_EP0_DATA_IN)
 8007402:	f8d0 2294 	ldr.w	r2, [r0, #660]	@ 0x294
 8007406:	2a02      	cmp	r2, #2
 8007408:	d00c      	beq.n	8007424 <USBD_LL_DataInStage+0x2e>
        }
      }
    }
    else
    {
      if ((pdev->ep0_state == USBD_EP0_STATUS_IN) ||
 800740a:	2a04      	cmp	r2, #4
 800740c:	d000      	beq.n	8007410 <USBD_LL_DataInStage+0x1a>
 800740e:	b91a      	cbnz	r2, 8007418 <USBD_LL_DataInStage+0x22>
          (pdev->ep0_state == USBD_EP0_IDLE))
      {
        USBD_LL_StallEP(pdev, 0x80U);
 8007410:	2180      	movs	r1, #128	@ 0x80
 8007412:	4620      	mov	r0, r4
 8007414:	f7ff fefb 	bl	800720e <USBD_LL_StallEP>
      }
    }

    if (pdev->dev_test_mode == 1U)
 8007418:	f894 32a0 	ldrb.w	r3, [r4, #672]	@ 0x2a0
 800741c:	2b01      	cmp	r3, #1
 800741e:	d03e      	beq.n	800749e <USBD_LL_DataInStage+0xa8>
  {
    /* should never be in this condition */
    return USBD_FAIL;
  }

  return USBD_OK;
 8007420:	4628      	mov	r0, r5
}
 8007422:	bd38      	pop	{r3, r4, r5, pc}
      if (pep->rem_length > pep->maxpacket)
 8007424:	6a02      	ldr	r2, [r0, #32]
 8007426:	6a41      	ldr	r1, [r0, #36]	@ 0x24
 8007428:	428a      	cmp	r2, r1
 800742a:	d81b      	bhi.n	8007464 <USBD_LL_DataInStage+0x6e>
        if ((pep->total_length % pep->maxpacket == 0U) &&
 800742c:	69c2      	ldr	r2, [r0, #28]
 800742e:	fbb2 f3f1 	udiv	r3, r2, r1
 8007432:	fb01 2313 	mls	r3, r1, r3, r2
 8007436:	b92b      	cbnz	r3, 8007444 <USBD_LL_DataInStage+0x4e>
 8007438:	4291      	cmp	r1, r2
 800743a:	d803      	bhi.n	8007444 <USBD_LL_DataInStage+0x4e>
            (pep->total_length < pdev->ep0_data_len))
 800743c:	f8d0 3298 	ldr.w	r3, [r0, #664]	@ 0x298
            (pep->total_length >= pep->maxpacket) &&
 8007440:	429a      	cmp	r2, r3
 8007442:	d31c      	bcc.n	800747e <USBD_LL_DataInStage+0x88>
          if ((pdev->pClass->EP0_TxSent != NULL) &&
 8007444:	f8d4 32b4 	ldr.w	r3, [r4, #692]	@ 0x2b4
 8007448:	68db      	ldr	r3, [r3, #12]
 800744a:	b11b      	cbz	r3, 8007454 <USBD_LL_DataInStage+0x5e>
              (pdev->dev_state == USBD_STATE_CONFIGURED))
 800744c:	f894 229c 	ldrb.w	r2, [r4, #668]	@ 0x29c
          if ((pdev->pClass->EP0_TxSent != NULL) &&
 8007450:	2a03      	cmp	r2, #3
 8007452:	d021      	beq.n	8007498 <USBD_LL_DataInStage+0xa2>
          USBD_LL_StallEP(pdev, 0x80U);
 8007454:	2180      	movs	r1, #128	@ 0x80
 8007456:	4620      	mov	r0, r4
 8007458:	f7ff fed9 	bl	800720e <USBD_LL_StallEP>
          USBD_CtlReceiveStatus(pdev);
 800745c:	4620      	mov	r0, r4
 800745e:	f000 fc84 	bl	8007d6a <USBD_CtlReceiveStatus>
 8007462:	e7d9      	b.n	8007418 <USBD_LL_DataInStage+0x22>
        pep->rem_length -= pep->maxpacket;
 8007464:	1a52      	subs	r2, r2, r1
 8007466:	6202      	str	r2, [r0, #32]
        USBD_CtlContinueSendData(pdev, pdata, (uint16_t)pep->rem_length);
 8007468:	b292      	uxth	r2, r2
 800746a:	4619      	mov	r1, r3
 800746c:	f000 fc53 	bl	8007d16 <USBD_CtlContinueSendData>
        USBD_LL_PrepareReceive(pdev, 0U, NULL, 0U);
 8007470:	2300      	movs	r3, #0
 8007472:	461a      	mov	r2, r3
 8007474:	4619      	mov	r1, r3
 8007476:	4620      	mov	r0, r4
 8007478:	f7ff feff 	bl	800727a <USBD_LL_PrepareReceive>
 800747c:	e7cc      	b.n	8007418 <USBD_LL_DataInStage+0x22>
          USBD_CtlContinueSendData(pdev, NULL, 0U);
 800747e:	2200      	movs	r2, #0
 8007480:	4611      	mov	r1, r2
 8007482:	f000 fc48 	bl	8007d16 <USBD_CtlContinueSendData>
          pdev->ep0_data_len = 0U;
 8007486:	2100      	movs	r1, #0
 8007488:	f8c4 1298 	str.w	r1, [r4, #664]	@ 0x298
          USBD_LL_PrepareReceive(pdev, 0U, NULL, 0U);
 800748c:	460b      	mov	r3, r1
 800748e:	460a      	mov	r2, r1
 8007490:	4620      	mov	r0, r4
 8007492:	f7ff fef2 	bl	800727a <USBD_LL_PrepareReceive>
 8007496:	e7bf      	b.n	8007418 <USBD_LL_DataInStage+0x22>
            pdev->pClass->EP0_TxSent(pdev);
 8007498:	4620      	mov	r0, r4
 800749a:	4798      	blx	r3
 800749c:	e7da      	b.n	8007454 <USBD_LL_DataInStage+0x5e>
      pdev->dev_test_mode = 0U;
 800749e:	2300      	movs	r3, #0
 80074a0:	f884 32a0 	strb.w	r3, [r4, #672]	@ 0x2a0
  return USBD_OK;
 80074a4:	4628      	mov	r0, r5
 80074a6:	e7bc      	b.n	8007422 <USBD_LL_DataInStage+0x2c>
  else if ((pdev->pClass->DataIn != NULL) &&
 80074a8:	f8d0 32b4 	ldr.w	r3, [r0, #692]	@ 0x2b4
 80074ac:	695b      	ldr	r3, [r3, #20]
 80074ae:	b133      	cbz	r3, 80074be <USBD_LL_DataInStage+0xc8>
           (pdev->dev_state == USBD_STATE_CONFIGURED))
 80074b0:	f890 229c 	ldrb.w	r2, [r0, #668]	@ 0x29c
  else if ((pdev->pClass->DataIn != NULL) &&
 80074b4:	2a03      	cmp	r2, #3
 80074b6:	d104      	bne.n	80074c2 <USBD_LL_DataInStage+0xcc>
    pdev->pClass->DataIn(pdev, epnum);
 80074b8:	4798      	blx	r3
  return USBD_OK;
 80074ba:	2000      	movs	r0, #0
    pdev->pClass->DataIn(pdev, epnum);
 80074bc:	e7b1      	b.n	8007422 <USBD_LL_DataInStage+0x2c>
    return USBD_FAIL;
 80074be:	2002      	movs	r0, #2
 80074c0:	e7af      	b.n	8007422 <USBD_LL_DataInStage+0x2c>
 80074c2:	2002      	movs	r0, #2
 80074c4:	e7ad      	b.n	8007422 <USBD_LL_DataInStage+0x2c>

080074c6 <USBD_LL_Reset>:
* @param  pdev: device instance
* @retval status
*/

USBD_StatusTypeDef USBD_LL_Reset(USBD_HandleTypeDef *pdev)
{
 80074c6:	b570      	push	{r4, r5, r6, lr}
 80074c8:	4604      	mov	r4, r0
  /* Open EP0 OUT */
  USBD_LL_OpenEP(pdev, 0x00U, USBD_EP_TYPE_CTRL, USB_MAX_EP0_SIZE);
 80074ca:	2340      	movs	r3, #64	@ 0x40
 80074cc:	2200      	movs	r2, #0
 80074ce:	4611      	mov	r1, r2
 80074d0:	f7ff fe8a 	bl	80071e8 <USBD_LL_OpenEP>
  pdev->ep_out[0x00U & 0xFU].is_used = 1U;
 80074d4:	2501      	movs	r5, #1
 80074d6:	f8c4 5158 	str.w	r5, [r4, #344]	@ 0x158

  pdev->ep_out[0].maxpacket = USB_MAX_EP0_SIZE;
 80074da:	2640      	movs	r6, #64	@ 0x40
 80074dc:	f8c4 6164 	str.w	r6, [r4, #356]	@ 0x164

  /* Open EP0 IN */
  USBD_LL_OpenEP(pdev, 0x80U, USBD_EP_TYPE_CTRL, USB_MAX_EP0_SIZE);
 80074e0:	4633      	mov	r3, r6
 80074e2:	2200      	movs	r2, #0
 80074e4:	2180      	movs	r1, #128	@ 0x80
 80074e6:	4620      	mov	r0, r4
 80074e8:	f7ff fe7e 	bl	80071e8 <USBD_LL_OpenEP>
  pdev->ep_in[0x80U & 0xFU].is_used = 1U;
 80074ec:	61a5      	str	r5, [r4, #24]

  pdev->ep_in[0].maxpacket = USB_MAX_EP0_SIZE;
 80074ee:	6266      	str	r6, [r4, #36]	@ 0x24

  /* Upon Reset call user call back */
  pdev->dev_state = USBD_STATE_DEFAULT;
 80074f0:	f884 529c 	strb.w	r5, [r4, #668]	@ 0x29c
  pdev->ep0_state = USBD_EP0_IDLE;
 80074f4:	2300      	movs	r3, #0
 80074f6:	f8c4 3294 	str.w	r3, [r4, #660]	@ 0x294
  pdev->dev_config = 0U;
 80074fa:	6063      	str	r3, [r4, #4]
  pdev->dev_remote_wakeup = 0U;
 80074fc:	f8c4 32a4 	str.w	r3, [r4, #676]	@ 0x2a4

  if (pdev->pClassData)
 8007500:	f8d4 32b8 	ldr.w	r3, [r4, #696]	@ 0x2b8
 8007504:	b12b      	cbz	r3, 8007512 <USBD_LL_Reset+0x4c>
  {
    pdev->pClass->DeInit(pdev, (uint8_t)pdev->dev_config);
 8007506:	f8d4 32b4 	ldr.w	r3, [r4, #692]	@ 0x2b4
 800750a:	685b      	ldr	r3, [r3, #4]
 800750c:	2100      	movs	r1, #0
 800750e:	4620      	mov	r0, r4
 8007510:	4798      	blx	r3
  }

  return USBD_OK;
}
 8007512:	2000      	movs	r0, #0
 8007514:	bd70      	pop	{r4, r5, r6, pc}

08007516 <USBD_LL_SetSpeed>:
* @retval status
*/
USBD_StatusTypeDef USBD_LL_SetSpeed(USBD_HandleTypeDef *pdev,
                                    USBD_SpeedTypeDef speed)
{
  pdev->dev_speed = speed;
 8007516:	7401      	strb	r1, [r0, #16]

  return USBD_OK;
}
 8007518:	2000      	movs	r0, #0
 800751a:	4770      	bx	lr

0800751c <USBD_LL_Suspend>:
* @retval status
*/

USBD_StatusTypeDef USBD_LL_Suspend(USBD_HandleTypeDef *pdev)
{
  pdev->dev_old_state =  pdev->dev_state;
 800751c:	f890 329c 	ldrb.w	r3, [r0, #668]	@ 0x29c
 8007520:	f880 329d 	strb.w	r3, [r0, #669]	@ 0x29d
  pdev->dev_state  = USBD_STATE_SUSPENDED;
 8007524:	2304      	movs	r3, #4
 8007526:	f880 329c 	strb.w	r3, [r0, #668]	@ 0x29c

  return USBD_OK;
}
 800752a:	2000      	movs	r0, #0
 800752c:	4770      	bx	lr

0800752e <USBD_LL_Resume>:
* @retval status
*/

USBD_StatusTypeDef USBD_LL_Resume(USBD_HandleTypeDef *pdev)
{
  if (pdev->dev_state == USBD_STATE_SUSPENDED)
 800752e:	f890 329c 	ldrb.w	r3, [r0, #668]	@ 0x29c
 8007532:	2b04      	cmp	r3, #4
 8007534:	d001      	beq.n	800753a <USBD_LL_Resume+0xc>
  {
    pdev->dev_state = pdev->dev_old_state;
  }

  return USBD_OK;
}
 8007536:	2000      	movs	r0, #0
 8007538:	4770      	bx	lr
    pdev->dev_state = pdev->dev_old_state;
 800753a:	f890 329d 	ldrb.w	r3, [r0, #669]	@ 0x29d
 800753e:	f880 329c 	strb.w	r3, [r0, #668]	@ 0x29c
 8007542:	e7f8      	b.n	8007536 <USBD_LL_Resume+0x8>

08007544 <USBD_LL_SOF>:
* @param  pdev: device instance
* @retval status
*/

USBD_StatusTypeDef USBD_LL_SOF(USBD_HandleTypeDef *pdev)
{
 8007544:	b508      	push	{r3, lr}
  if (pdev->dev_state == USBD_STATE_CONFIGURED)
 8007546:	f890 329c 	ldrb.w	r3, [r0, #668]	@ 0x29c
 800754a:	2b03      	cmp	r3, #3
 800754c:	d001      	beq.n	8007552 <USBD_LL_SOF+0xe>
      pdev->pClass->SOF(pdev);
    }
  }

  return USBD_OK;
}
 800754e:	2000      	movs	r0, #0
 8007550:	bd08      	pop	{r3, pc}
    if (pdev->pClass->SOF != NULL)
 8007552:	f8d0 32b4 	ldr.w	r3, [r0, #692]	@ 0x2b4
 8007556:	69db      	ldr	r3, [r3, #28]
 8007558:	2b00      	cmp	r3, #0
 800755a:	d0f8      	beq.n	800754e <USBD_LL_SOF+0xa>
      pdev->pClass->SOF(pdev);
 800755c:	4798      	blx	r3
 800755e:	e7f6      	b.n	800754e <USBD_LL_SOF+0xa>

08007560 <USBD_GetLen>:
  *         return the string length
   * @param  buf : pointer to the ascii string buffer
  * @retval string length
  */
static uint8_t USBD_GetLen(uint8_t *buf)
{
 8007560:	4603      	mov	r3, r0
  uint8_t  len = 0U;
 8007562:	2000      	movs	r0, #0

  while (*buf != '\0')
 8007564:	e002      	b.n	800756c <USBD_GetLen+0xc>
  {
    len++;
 8007566:	3001      	adds	r0, #1
 8007568:	b2c0      	uxtb	r0, r0
    buf++;
 800756a:	3301      	adds	r3, #1
  while (*buf != '\0')
 800756c:	781a      	ldrb	r2, [r3, #0]
 800756e:	2a00      	cmp	r2, #0
 8007570:	d1f9      	bne.n	8007566 <USBD_GetLen+0x6>
  }

  return len;
}
 8007572:	4770      	bx	lr

08007574 <USBD_SetFeature>:
{
 8007574:	b508      	push	{r3, lr}
  if (req->wValue == USB_FEATURE_REMOTE_WAKEUP)
 8007576:	884b      	ldrh	r3, [r1, #2]
 8007578:	2b01      	cmp	r3, #1
 800757a:	d000      	beq.n	800757e <USBD_SetFeature+0xa>
}
 800757c:	bd08      	pop	{r3, pc}
    pdev->dev_remote_wakeup = 1U;
 800757e:	f8c0 32a4 	str.w	r3, [r0, #676]	@ 0x2a4
    USBD_CtlSendStatus(pdev);
 8007582:	f000 fbe7 	bl	8007d54 <USBD_CtlSendStatus>
}
 8007586:	e7f9      	b.n	800757c <USBD_SetFeature+0x8>

08007588 <USBD_ParseSetupRequest>:
  req->bmRequest = *(uint8_t *)(pdata);
 8007588:	780b      	ldrb	r3, [r1, #0]
 800758a:	7003      	strb	r3, [r0, #0]
  req->bRequest = *(uint8_t *)(pdata + 1U);
 800758c:	784b      	ldrb	r3, [r1, #1]
 800758e:	7043      	strb	r3, [r0, #1]
  req->wValue = SWAPBYTE(pdata + 2U);
 8007590:	788b      	ldrb	r3, [r1, #2]
 8007592:	78ca      	ldrb	r2, [r1, #3]
 8007594:	eb03 2302 	add.w	r3, r3, r2, lsl #8
 8007598:	8043      	strh	r3, [r0, #2]
  req->wIndex = SWAPBYTE(pdata + 4U);
 800759a:	790b      	ldrb	r3, [r1, #4]
 800759c:	794a      	ldrb	r2, [r1, #5]
 800759e:	eb03 2302 	add.w	r3, r3, r2, lsl #8
 80075a2:	8083      	strh	r3, [r0, #4]
  req->wLength = SWAPBYTE(pdata + 6U);
 80075a4:	798b      	ldrb	r3, [r1, #6]
 80075a6:	79ca      	ldrb	r2, [r1, #7]
 80075a8:	eb03 2302 	add.w	r3, r3, r2, lsl #8
 80075ac:	80c3      	strh	r3, [r0, #6]
}
 80075ae:	4770      	bx	lr

080075b0 <USBD_CtlError>:
{
 80075b0:	b510      	push	{r4, lr}
 80075b2:	4604      	mov	r4, r0
  USBD_LL_StallEP(pdev, 0x80U);
 80075b4:	2180      	movs	r1, #128	@ 0x80
 80075b6:	f7ff fe2a 	bl	800720e <USBD_LL_StallEP>
  USBD_LL_StallEP(pdev, 0U);
 80075ba:	2100      	movs	r1, #0
 80075bc:	4620      	mov	r0, r4
 80075be:	f7ff fe26 	bl	800720e <USBD_LL_StallEP>
}
 80075c2:	bd10      	pop	{r4, pc}

080075c4 <USBD_GetDescriptor>:
{
 80075c4:	b530      	push	{r4, r5, lr}
 80075c6:	b083      	sub	sp, #12
 80075c8:	4605      	mov	r5, r0
 80075ca:	460c      	mov	r4, r1
  uint16_t len = 0U;
 80075cc:	2300      	movs	r3, #0
 80075ce:	f8ad 3006 	strh.w	r3, [sp, #6]
  switch (req->wValue >> 8)
 80075d2:	884a      	ldrh	r2, [r1, #2]
 80075d4:	0a13      	lsrs	r3, r2, #8
 80075d6:	3b01      	subs	r3, #1
 80075d8:	2b06      	cmp	r3, #6
 80075da:	f200 80a4 	bhi.w	8007726 <USBD_GetDescriptor+0x162>
 80075de:	e8df f003 	tbb	[pc, r3]
 80075e2:	1804      	.short	0x1804
 80075e4:	86a2a22c 	.word	0x86a2a22c
 80075e8:	93          	.byte	0x93
 80075e9:	00          	.byte	0x00
      pbuf = pdev->pDesc->GetDeviceDescriptor(pdev->dev_speed, &len);
 80075ea:	f8d0 32b0 	ldr.w	r3, [r0, #688]	@ 0x2b0
 80075ee:	681b      	ldr	r3, [r3, #0]
 80075f0:	f10d 0106 	add.w	r1, sp, #6
 80075f4:	7c00      	ldrb	r0, [r0, #16]
 80075f6:	4798      	blx	r3
    if ((len != 0U) && (req->wLength != 0U))
 80075f8:	f8bd 2006 	ldrh.w	r2, [sp, #6]
 80075fc:	b11a      	cbz	r2, 8007606 <USBD_GetDescriptor+0x42>
 80075fe:	88e3      	ldrh	r3, [r4, #6]
 8007600:	2b00      	cmp	r3, #0
 8007602:	f040 8094 	bne.w	800772e <USBD_GetDescriptor+0x16a>
    if (req->wLength == 0U)
 8007606:	88e3      	ldrh	r3, [r4, #6]
 8007608:	2b00      	cmp	r3, #0
 800760a:	f000 809a 	beq.w	8007742 <USBD_GetDescriptor+0x17e>
}
 800760e:	b003      	add	sp, #12
 8007610:	bd30      	pop	{r4, r5, pc}
      if (pdev->dev_speed == USBD_SPEED_HIGH)
 8007612:	7c03      	ldrb	r3, [r0, #16]
 8007614:	b943      	cbnz	r3, 8007628 <USBD_GetDescriptor+0x64>
        pbuf = pdev->pClass->GetHSConfigDescriptor(&len);
 8007616:	f8d0 32b4 	ldr.w	r3, [r0, #692]	@ 0x2b4
 800761a:	6a9b      	ldr	r3, [r3, #40]	@ 0x28
 800761c:	f10d 0006 	add.w	r0, sp, #6
 8007620:	4798      	blx	r3
        pbuf[1] = USB_DESC_TYPE_CONFIGURATION;
 8007622:	2302      	movs	r3, #2
 8007624:	7043      	strb	r3, [r0, #1]
  if (err != 0U)
 8007626:	e7e7      	b.n	80075f8 <USBD_GetDescriptor+0x34>
        pbuf = pdev->pClass->GetFSConfigDescriptor(&len);
 8007628:	f8d0 32b4 	ldr.w	r3, [r0, #692]	@ 0x2b4
 800762c:	6adb      	ldr	r3, [r3, #44]	@ 0x2c
 800762e:	f10d 0006 	add.w	r0, sp, #6
 8007632:	4798      	blx	r3
        pbuf[1] = USB_DESC_TYPE_CONFIGURATION;
 8007634:	2302      	movs	r3, #2
 8007636:	7043      	strb	r3, [r0, #1]
  if (err != 0U)
 8007638:	e7de      	b.n	80075f8 <USBD_GetDescriptor+0x34>
      switch ((uint8_t)(req->wValue))
 800763a:	b2d2      	uxtb	r2, r2
 800763c:	2a05      	cmp	r2, #5
 800763e:	d852      	bhi.n	80076e6 <USBD_GetDescriptor+0x122>
 8007640:	e8df f002 	tbb	[pc, r2]
 8007644:	2a1d1003 	.word	0x2a1d1003
 8007648:	4437      	.short	0x4437
          if (pdev->pDesc->GetLangIDStrDescriptor != NULL)
 800764a:	f8d0 32b0 	ldr.w	r3, [r0, #688]	@ 0x2b0
 800764e:	685b      	ldr	r3, [r3, #4]
 8007650:	b123      	cbz	r3, 800765c <USBD_GetDescriptor+0x98>
            pbuf = pdev->pDesc->GetLangIDStrDescriptor(pdev->dev_speed, &len);
 8007652:	f10d 0106 	add.w	r1, sp, #6
 8007656:	7c00      	ldrb	r0, [r0, #16]
 8007658:	4798      	blx	r3
  if (err != 0U)
 800765a:	e7cd      	b.n	80075f8 <USBD_GetDescriptor+0x34>
            USBD_CtlError(pdev, req);
 800765c:	4621      	mov	r1, r4
 800765e:	f7ff ffa7 	bl	80075b0 <USBD_CtlError>
  if (err != 0U)
 8007662:	e7d4      	b.n	800760e <USBD_GetDescriptor+0x4a>
          if (pdev->pDesc->GetManufacturerStrDescriptor != NULL)
 8007664:	f8d0 32b0 	ldr.w	r3, [r0, #688]	@ 0x2b0
 8007668:	689b      	ldr	r3, [r3, #8]
 800766a:	b123      	cbz	r3, 8007676 <USBD_GetDescriptor+0xb2>
            pbuf = pdev->pDesc->GetManufacturerStrDescriptor(pdev->dev_speed, &len);
 800766c:	f10d 0106 	add.w	r1, sp, #6
 8007670:	7c00      	ldrb	r0, [r0, #16]
 8007672:	4798      	blx	r3
  if (err != 0U)
 8007674:	e7c0      	b.n	80075f8 <USBD_GetDescriptor+0x34>
            USBD_CtlError(pdev, req);
 8007676:	4621      	mov	r1, r4
 8007678:	f7ff ff9a 	bl	80075b0 <USBD_CtlError>
  if (err != 0U)
 800767c:	e7c7      	b.n	800760e <USBD_GetDescriptor+0x4a>
          if (pdev->pDesc->GetProductStrDescriptor != NULL)
 800767e:	f8d0 32b0 	ldr.w	r3, [r0, #688]	@ 0x2b0
 8007682:	68db      	ldr	r3, [r3, #12]
 8007684:	b123      	cbz	r3, 8007690 <USBD_GetDescriptor+0xcc>
            pbuf = pdev->pDesc->GetProductStrDescriptor(pdev->dev_speed, &len);
 8007686:	f10d 0106 	add.w	r1, sp, #6
 800768a:	7c00      	ldrb	r0, [r0, #16]
 800768c:	4798      	blx	r3
  if (err != 0U)
 800768e:	e7b3      	b.n	80075f8 <USBD_GetDescriptor+0x34>
            USBD_CtlError(pdev, req);
 8007690:	4621      	mov	r1, r4
 8007692:	f7ff ff8d 	bl	80075b0 <USBD_CtlError>
  if (err != 0U)
 8007696:	e7ba      	b.n	800760e <USBD_GetDescriptor+0x4a>
          if (pdev->pDesc->GetSerialStrDescriptor != NULL)
 8007698:	f8d0 32b0 	ldr.w	r3, [r0, #688]	@ 0x2b0
 800769c:	691b      	ldr	r3, [r3, #16]
 800769e:	b123      	cbz	r3, 80076aa <USBD_GetDescriptor+0xe6>
            pbuf = pdev->pDesc->GetSerialStrDescriptor(pdev->dev_speed, &len);
 80076a0:	f10d 0106 	add.w	r1, sp, #6
 80076a4:	7c00      	ldrb	r0, [r0, #16]
 80076a6:	4798      	blx	r3
  if (err != 0U)
 80076a8:	e7a6      	b.n	80075f8 <USBD_GetDescriptor+0x34>
            USBD_CtlError(pdev, req);
 80076aa:	4621      	mov	r1, r4
 80076ac:	f7ff ff80 	bl	80075b0 <USBD_CtlError>
  if (err != 0U)
 80076b0:	e7ad      	b.n	800760e <USBD_GetDescriptor+0x4a>
          if (pdev->pDesc->GetConfigurationStrDescriptor != NULL)
 80076b2:	f8d0 32b0 	ldr.w	r3, [r0, #688]	@ 0x2b0
 80076b6:	695b      	ldr	r3, [r3, #20]
 80076b8:	b123      	cbz	r3, 80076c4 <USBD_GetDescriptor+0x100>
            pbuf = pdev->pDesc->GetConfigurationStrDescriptor(pdev->dev_speed, &len);
 80076ba:	f10d 0106 	add.w	r1, sp, #6
 80076be:	7c00      	ldrb	r0, [r0, #16]
 80076c0:	4798      	blx	r3
  if (err != 0U)
 80076c2:	e799      	b.n	80075f8 <USBD_GetDescriptor+0x34>
            USBD_CtlError(pdev, req);
 80076c4:	4621      	mov	r1, r4
 80076c6:	f7ff ff73 	bl	80075b0 <USBD_CtlError>
  if (err != 0U)
 80076ca:	e7a0      	b.n	800760e <USBD_GetDescriptor+0x4a>
          if (pdev->pDesc->GetInterfaceStrDescriptor != NULL)
 80076cc:	f8d0 32b0 	ldr.w	r3, [r0, #688]	@ 0x2b0
 80076d0:	699b      	ldr	r3, [r3, #24]
 80076d2:	b123      	cbz	r3, 80076de <USBD_GetDescriptor+0x11a>
            pbuf = pdev->pDesc->GetInterfaceStrDescriptor(pdev->dev_speed, &len);
 80076d4:	f10d 0106 	add.w	r1, sp, #6
 80076d8:	7c00      	ldrb	r0, [r0, #16]
 80076da:	4798      	blx	r3
  if (err != 0U)
 80076dc:	e78c      	b.n	80075f8 <USBD_GetDescriptor+0x34>
            USBD_CtlError(pdev, req);
 80076de:	4621      	mov	r1, r4
 80076e0:	f7ff ff66 	bl	80075b0 <USBD_CtlError>
  if (err != 0U)
 80076e4:	e793      	b.n	800760e <USBD_GetDescriptor+0x4a>
          USBD_CtlError(pdev, req);
 80076e6:	4621      	mov	r1, r4
 80076e8:	f7ff ff62 	bl	80075b0 <USBD_CtlError>
  if (err != 0U)
 80076ec:	e78f      	b.n	800760e <USBD_GetDescriptor+0x4a>
      if (pdev->dev_speed == USBD_SPEED_HIGH)
 80076ee:	7c03      	ldrb	r3, [r0, #16]
 80076f0:	b933      	cbnz	r3, 8007700 <USBD_GetDescriptor+0x13c>
        pbuf = pdev->pClass->GetDeviceQualifierDescriptor(&len);
 80076f2:	f8d0 32b4 	ldr.w	r3, [r0, #692]	@ 0x2b4
 80076f6:	6b5b      	ldr	r3, [r3, #52]	@ 0x34
 80076f8:	f10d 0006 	add.w	r0, sp, #6
 80076fc:	4798      	blx	r3
  if (err != 0U)
 80076fe:	e77b      	b.n	80075f8 <USBD_GetDescriptor+0x34>
        USBD_CtlError(pdev, req);
 8007700:	4621      	mov	r1, r4
 8007702:	f7ff ff55 	bl	80075b0 <USBD_CtlError>
  if (err != 0U)
 8007706:	e782      	b.n	800760e <USBD_GetDescriptor+0x4a>
      if (pdev->dev_speed == USBD_SPEED_HIGH)
 8007708:	7c03      	ldrb	r3, [r0, #16]
 800770a:	b943      	cbnz	r3, 800771e <USBD_GetDescriptor+0x15a>
        pbuf = pdev->pClass->GetOtherSpeedConfigDescriptor(&len);
 800770c:	f8d0 32b4 	ldr.w	r3, [r0, #692]	@ 0x2b4
 8007710:	6b1b      	ldr	r3, [r3, #48]	@ 0x30
 8007712:	f10d 0006 	add.w	r0, sp, #6
 8007716:	4798      	blx	r3
        pbuf[1] = USB_DESC_TYPE_OTHER_SPEED_CONFIGURATION;
 8007718:	2307      	movs	r3, #7
 800771a:	7043      	strb	r3, [r0, #1]
  if (err != 0U)
 800771c:	e76c      	b.n	80075f8 <USBD_GetDescriptor+0x34>
        USBD_CtlError(pdev, req);
 800771e:	4621      	mov	r1, r4
 8007720:	f7ff ff46 	bl	80075b0 <USBD_CtlError>
  if (err != 0U)
 8007724:	e773      	b.n	800760e <USBD_GetDescriptor+0x4a>
      USBD_CtlError(pdev, req);
 8007726:	4621      	mov	r1, r4
 8007728:	f7ff ff42 	bl	80075b0 <USBD_CtlError>
    return;
 800772c:	e76f      	b.n	800760e <USBD_GetDescriptor+0x4a>
      len = MIN(len, req->wLength);
 800772e:	429a      	cmp	r2, r3
 8007730:	bf28      	it	cs
 8007732:	461a      	movcs	r2, r3
 8007734:	f8ad 2006 	strh.w	r2, [sp, #6]
      (void)USBD_CtlSendData(pdev, pbuf, len);
 8007738:	4601      	mov	r1, r0
 800773a:	4628      	mov	r0, r5
 800773c:	f000 fade 	bl	8007cfc <USBD_CtlSendData>
 8007740:	e761      	b.n	8007606 <USBD_GetDescriptor+0x42>
      (void)USBD_CtlSendStatus(pdev);
 8007742:	4628      	mov	r0, r5
 8007744:	f000 fb06 	bl	8007d54 <USBD_CtlSendStatus>
 8007748:	e761      	b.n	800760e <USBD_GetDescriptor+0x4a>

0800774a <USBD_SetAddress>:
{
 800774a:	b538      	push	{r3, r4, r5, lr}
 800774c:	4604      	mov	r4, r0
  if ((req->wIndex == 0U) && (req->wLength == 0U) && (req->wValue < 128U))
 800774e:	888b      	ldrh	r3, [r1, #4]
 8007750:	b9f3      	cbnz	r3, 8007790 <USBD_SetAddress+0x46>
 8007752:	88cb      	ldrh	r3, [r1, #6]
 8007754:	b9e3      	cbnz	r3, 8007790 <USBD_SetAddress+0x46>
 8007756:	884b      	ldrh	r3, [r1, #2]
 8007758:	2b7f      	cmp	r3, #127	@ 0x7f
 800775a:	d819      	bhi.n	8007790 <USBD_SetAddress+0x46>
    dev_addr = (uint8_t)(req->wValue) & 0x7FU;
 800775c:	f003 057f 	and.w	r5, r3, #127	@ 0x7f
    if (pdev->dev_state == USBD_STATE_CONFIGURED)
 8007760:	f890 329c 	ldrb.w	r3, [r0, #668]	@ 0x29c
 8007764:	2b03      	cmp	r3, #3
 8007766:	d00c      	beq.n	8007782 <USBD_SetAddress+0x38>
      pdev->dev_address = dev_addr;
 8007768:	f880 529e 	strb.w	r5, [r0, #670]	@ 0x29e
      USBD_LL_SetUSBAddress(pdev, dev_addr);
 800776c:	4629      	mov	r1, r5
 800776e:	f7ff fd74 	bl	800725a <USBD_LL_SetUSBAddress>
      USBD_CtlSendStatus(pdev);
 8007772:	4620      	mov	r0, r4
 8007774:	f000 faee 	bl	8007d54 <USBD_CtlSendStatus>
      if (dev_addr != 0U)
 8007778:	b135      	cbz	r5, 8007788 <USBD_SetAddress+0x3e>
        pdev->dev_state = USBD_STATE_ADDRESSED;
 800777a:	2302      	movs	r3, #2
 800777c:	f884 329c 	strb.w	r3, [r4, #668]	@ 0x29c
 8007780:	e009      	b.n	8007796 <USBD_SetAddress+0x4c>
      USBD_CtlError(pdev, req);
 8007782:	f7ff ff15 	bl	80075b0 <USBD_CtlError>
 8007786:	e006      	b.n	8007796 <USBD_SetAddress+0x4c>
        pdev->dev_state = USBD_STATE_DEFAULT;
 8007788:	2301      	movs	r3, #1
 800778a:	f884 329c 	strb.w	r3, [r4, #668]	@ 0x29c
 800778e:	e002      	b.n	8007796 <USBD_SetAddress+0x4c>
    USBD_CtlError(pdev, req);
 8007790:	4620      	mov	r0, r4
 8007792:	f7ff ff0d 	bl	80075b0 <USBD_CtlError>
}
 8007796:	bd38      	pop	{r3, r4, r5, pc}

08007798 <USBD_SetConfig>:
{
 8007798:	b538      	push	{r3, r4, r5, lr}
 800779a:	4604      	mov	r4, r0
 800779c:	460d      	mov	r5, r1
  cfgidx = (uint8_t)(req->wValue);
 800779e:	7889      	ldrb	r1, [r1, #2]
 80077a0:	4b28      	ldr	r3, [pc, #160]	@ (8007844 <USBD_SetConfig+0xac>)
 80077a2:	7019      	strb	r1, [r3, #0]
  if (cfgidx > USBD_MAX_NUM_CONFIGURATION)
 80077a4:	2901      	cmp	r1, #1
 80077a6:	d80e      	bhi.n	80077c6 <USBD_SetConfig+0x2e>
    switch (pdev->dev_state)
 80077a8:	f890 329c 	ldrb.w	r3, [r0, #668]	@ 0x29c
 80077ac:	2b02      	cmp	r3, #2
 80077ae:	d00e      	beq.n	80077ce <USBD_SetConfig+0x36>
 80077b0:	2b03      	cmp	r3, #3
 80077b2:	d021      	beq.n	80077f8 <USBD_SetConfig+0x60>
        USBD_CtlError(pdev, req);
 80077b4:	4629      	mov	r1, r5
 80077b6:	f7ff fefb 	bl	80075b0 <USBD_CtlError>
        USBD_ClrClassConfig(pdev, cfgidx);
 80077ba:	4b22      	ldr	r3, [pc, #136]	@ (8007844 <USBD_SetConfig+0xac>)
 80077bc:	7819      	ldrb	r1, [r3, #0]
 80077be:	4620      	mov	r0, r4
 80077c0:	f7ff fd9f 	bl	8007302 <USBD_ClrClassConfig>
        break;
 80077c4:	e002      	b.n	80077cc <USBD_SetConfig+0x34>
    USBD_CtlError(pdev, req);
 80077c6:	4629      	mov	r1, r5
 80077c8:	f7ff fef2 	bl	80075b0 <USBD_CtlError>
}
 80077cc:	bd38      	pop	{r3, r4, r5, pc}
        if (cfgidx)
 80077ce:	b181      	cbz	r1, 80077f2 <USBD_SetConfig+0x5a>
          pdev->dev_config = cfgidx;
 80077d0:	6041      	str	r1, [r0, #4]
          pdev->dev_state = USBD_STATE_CONFIGURED;
 80077d2:	2303      	movs	r3, #3
 80077d4:	f880 329c 	strb.w	r3, [r0, #668]	@ 0x29c
          if (USBD_SetClassConfig(pdev, cfgidx) == USBD_FAIL)
 80077d8:	f7ff fd87 	bl	80072ea <USBD_SetClassConfig>
 80077dc:	2802      	cmp	r0, #2
 80077de:	d003      	beq.n	80077e8 <USBD_SetConfig+0x50>
          USBD_CtlSendStatus(pdev);
 80077e0:	4620      	mov	r0, r4
 80077e2:	f000 fab7 	bl	8007d54 <USBD_CtlSendStatus>
 80077e6:	e7f1      	b.n	80077cc <USBD_SetConfig+0x34>
            USBD_CtlError(pdev, req);
 80077e8:	4629      	mov	r1, r5
 80077ea:	4620      	mov	r0, r4
 80077ec:	f7ff fee0 	bl	80075b0 <USBD_CtlError>
            return;
 80077f0:	e7ec      	b.n	80077cc <USBD_SetConfig+0x34>
          USBD_CtlSendStatus(pdev);
 80077f2:	f000 faaf 	bl	8007d54 <USBD_CtlSendStatus>
 80077f6:	e7e9      	b.n	80077cc <USBD_SetConfig+0x34>
        if (cfgidx == 0U)
 80077f8:	b189      	cbz	r1, 800781e <USBD_SetConfig+0x86>
        else if (cfgidx != pdev->dev_config)
 80077fa:	6843      	ldr	r3, [r0, #4]
 80077fc:	4299      	cmp	r1, r3
 80077fe:	d01d      	beq.n	800783c <USBD_SetConfig+0xa4>
          USBD_ClrClassConfig(pdev, (uint8_t)pdev->dev_config);
 8007800:	b2d9      	uxtb	r1, r3
 8007802:	f7ff fd7e 	bl	8007302 <USBD_ClrClassConfig>
          pdev->dev_config = cfgidx;
 8007806:	4b0f      	ldr	r3, [pc, #60]	@ (8007844 <USBD_SetConfig+0xac>)
 8007808:	7819      	ldrb	r1, [r3, #0]
 800780a:	6061      	str	r1, [r4, #4]
          if (USBD_SetClassConfig(pdev, cfgidx) == USBD_FAIL)
 800780c:	4620      	mov	r0, r4
 800780e:	f7ff fd6c 	bl	80072ea <USBD_SetClassConfig>
 8007812:	2802      	cmp	r0, #2
 8007814:	d00d      	beq.n	8007832 <USBD_SetConfig+0x9a>
          USBD_CtlSendStatus(pdev);
 8007816:	4620      	mov	r0, r4
 8007818:	f000 fa9c 	bl	8007d54 <USBD_CtlSendStatus>
 800781c:	e7d6      	b.n	80077cc <USBD_SetConfig+0x34>
          pdev->dev_state = USBD_STATE_ADDRESSED;
 800781e:	2302      	movs	r3, #2
 8007820:	f880 329c 	strb.w	r3, [r0, #668]	@ 0x29c
          pdev->dev_config = cfgidx;
 8007824:	6041      	str	r1, [r0, #4]
          USBD_ClrClassConfig(pdev, cfgidx);
 8007826:	f7ff fd6c 	bl	8007302 <USBD_ClrClassConfig>
          USBD_CtlSendStatus(pdev);
 800782a:	4620      	mov	r0, r4
 800782c:	f000 fa92 	bl	8007d54 <USBD_CtlSendStatus>
 8007830:	e7cc      	b.n	80077cc <USBD_SetConfig+0x34>
            USBD_CtlError(pdev, req);
 8007832:	4629      	mov	r1, r5
 8007834:	4620      	mov	r0, r4
 8007836:	f7ff febb 	bl	80075b0 <USBD_CtlError>
            return;
 800783a:	e7c7      	b.n	80077cc <USBD_SetConfig+0x34>
          USBD_CtlSendStatus(pdev);
 800783c:	f000 fa8a 	bl	8007d54 <USBD_CtlSendStatus>
 8007840:	e7c4      	b.n	80077cc <USBD_SetConfig+0x34>
 8007842:	bf00      	nop
 8007844:	20001778 	.word	0x20001778

08007848 <USBD_GetConfig>:
{
 8007848:	b508      	push	{r3, lr}
  if (req->wLength != 1U)
 800784a:	88cb      	ldrh	r3, [r1, #6]
 800784c:	2b01      	cmp	r3, #1
 800784e:	d10a      	bne.n	8007866 <USBD_GetConfig+0x1e>
    switch (pdev->dev_state)
 8007850:	f890 329c 	ldrb.w	r3, [r0, #668]	@ 0x29c
 8007854:	2b02      	cmp	r3, #2
 8007856:	d909      	bls.n	800786c <USBD_GetConfig+0x24>
 8007858:	2b03      	cmp	r3, #3
 800785a:	d111      	bne.n	8007880 <USBD_GetConfig+0x38>
        USBD_CtlSendData(pdev, (uint8_t *)(void *)&pdev->dev_config, 1U);
 800785c:	2201      	movs	r2, #1
 800785e:	1d01      	adds	r1, r0, #4
 8007860:	f000 fa4c 	bl	8007cfc <USBD_CtlSendData>
        break;
 8007864:	e001      	b.n	800786a <USBD_GetConfig+0x22>
    USBD_CtlError(pdev, req);
 8007866:	f7ff fea3 	bl	80075b0 <USBD_CtlError>
}
 800786a:	bd08      	pop	{r3, pc}
    switch (pdev->dev_state)
 800786c:	b25b      	sxtb	r3, r3
 800786e:	b13b      	cbz	r3, 8007880 <USBD_GetConfig+0x38>
        pdev->dev_default_config = 0U;
 8007870:	4601      	mov	r1, r0
 8007872:	2300      	movs	r3, #0
 8007874:	f841 3f08 	str.w	r3, [r1, #8]!
        USBD_CtlSendData(pdev, (uint8_t *)(void *)&pdev->dev_default_config, 1U);
 8007878:	2201      	movs	r2, #1
 800787a:	f000 fa3f 	bl	8007cfc <USBD_CtlSendData>
        break;
 800787e:	e7f4      	b.n	800786a <USBD_GetConfig+0x22>
        USBD_CtlError(pdev, req);
 8007880:	f7ff fe96 	bl	80075b0 <USBD_CtlError>
}
 8007884:	e7f1      	b.n	800786a <USBD_GetConfig+0x22>

08007886 <USBD_GetStatus>:
{
 8007886:	b508      	push	{r3, lr}
  switch (pdev->dev_state)
 8007888:	f890 329c 	ldrb.w	r3, [r0, #668]	@ 0x29c
 800788c:	3b01      	subs	r3, #1
 800788e:	2b02      	cmp	r3, #2
 8007890:	d812      	bhi.n	80078b8 <USBD_GetStatus+0x32>
      if (req->wLength != 0x2U)
 8007892:	88cb      	ldrh	r3, [r1, #6]
 8007894:	2b02      	cmp	r3, #2
 8007896:	d10c      	bne.n	80078b2 <USBD_GetStatus+0x2c>
      pdev->dev_config_status = 0U;
 8007898:	2300      	movs	r3, #0
 800789a:	60c3      	str	r3, [r0, #12]
      if (pdev->dev_remote_wakeup)
 800789c:	f8d0 32a4 	ldr.w	r3, [r0, #676]	@ 0x2a4
 80078a0:	b10b      	cbz	r3, 80078a6 <USBD_GetStatus+0x20>
        pdev->dev_config_status |= USB_CONFIG_REMOTE_WAKEUP;
 80078a2:	2302      	movs	r3, #2
 80078a4:	60c3      	str	r3, [r0, #12]
      USBD_CtlSendData(pdev, (uint8_t *)(void *)&pdev->dev_config_status, 2U);
 80078a6:	2202      	movs	r2, #2
 80078a8:	f100 010c 	add.w	r1, r0, #12
 80078ac:	f000 fa26 	bl	8007cfc <USBD_CtlSendData>
}
 80078b0:	bd08      	pop	{r3, pc}
        USBD_CtlError(pdev, req);
 80078b2:	f7ff fe7d 	bl	80075b0 <USBD_CtlError>
        break;
 80078b6:	e7fb      	b.n	80078b0 <USBD_GetStatus+0x2a>
      USBD_CtlError(pdev, req);
 80078b8:	f7ff fe7a 	bl	80075b0 <USBD_CtlError>
}
 80078bc:	e7f8      	b.n	80078b0 <USBD_GetStatus+0x2a>

080078be <USBD_ClrFeature>:
{
 80078be:	b508      	push	{r3, lr}
  switch (pdev->dev_state)
 80078c0:	f890 329c 	ldrb.w	r3, [r0, #668]	@ 0x29c
 80078c4:	3b01      	subs	r3, #1
 80078c6:	2b02      	cmp	r3, #2
 80078c8:	d809      	bhi.n	80078de <USBD_ClrFeature+0x20>
      if (req->wValue == USB_FEATURE_REMOTE_WAKEUP)
 80078ca:	884b      	ldrh	r3, [r1, #2]
 80078cc:	2b01      	cmp	r3, #1
 80078ce:	d000      	beq.n	80078d2 <USBD_ClrFeature+0x14>
}
 80078d0:	bd08      	pop	{r3, pc}
        pdev->dev_remote_wakeup = 0U;
 80078d2:	2300      	movs	r3, #0
 80078d4:	f8c0 32a4 	str.w	r3, [r0, #676]	@ 0x2a4
        USBD_CtlSendStatus(pdev);
 80078d8:	f000 fa3c 	bl	8007d54 <USBD_CtlSendStatus>
 80078dc:	e7f8      	b.n	80078d0 <USBD_ClrFeature+0x12>
      USBD_CtlError(pdev, req);
 80078de:	f7ff fe67 	bl	80075b0 <USBD_CtlError>
}
 80078e2:	e7f5      	b.n	80078d0 <USBD_ClrFeature+0x12>

080078e4 <USBD_StdDevReq>:
{
 80078e4:	b508      	push	{r3, lr}
  switch (req->bmRequest & USB_REQ_TYPE_MASK)
 80078e6:	780b      	ldrb	r3, [r1, #0]
 80078e8:	f003 0360 	and.w	r3, r3, #96	@ 0x60
 80078ec:	2b20      	cmp	r3, #32
 80078ee:	d005      	beq.n	80078fc <USBD_StdDevReq+0x18>
 80078f0:	2b40      	cmp	r3, #64	@ 0x40
 80078f2:	d003      	beq.n	80078fc <USBD_StdDevReq+0x18>
 80078f4:	b143      	cbz	r3, 8007908 <USBD_StdDevReq+0x24>
      USBD_CtlError(pdev, req);
 80078f6:	f7ff fe5b 	bl	80075b0 <USBD_CtlError>
      break;
 80078fa:	e003      	b.n	8007904 <USBD_StdDevReq+0x20>
      pdev->pClass->Setup(pdev, req);
 80078fc:	f8d0 32b4 	ldr.w	r3, [r0, #692]	@ 0x2b4
 8007900:	689b      	ldr	r3, [r3, #8]
 8007902:	4798      	blx	r3
}
 8007904:	2000      	movs	r0, #0
 8007906:	bd08      	pop	{r3, pc}
      switch (req->bRequest)
 8007908:	784b      	ldrb	r3, [r1, #1]
 800790a:	2b09      	cmp	r3, #9
 800790c:	d81b      	bhi.n	8007946 <USBD_StdDevReq+0x62>
 800790e:	e8df f003 	tbb	[pc, r3]
 8007912:	1711      	.short	0x1711
 8007914:	081a141a 	.word	0x081a141a
 8007918:	0b0e1a05 	.word	0x0b0e1a05
          USBD_GetDescriptor(pdev, req);
 800791c:	f7ff fe52 	bl	80075c4 <USBD_GetDescriptor>
          break;
 8007920:	e7f0      	b.n	8007904 <USBD_StdDevReq+0x20>
          USBD_SetAddress(pdev, req);
 8007922:	f7ff ff12 	bl	800774a <USBD_SetAddress>
          break;
 8007926:	e7ed      	b.n	8007904 <USBD_StdDevReq+0x20>
          USBD_SetConfig(pdev, req);
 8007928:	f7ff ff36 	bl	8007798 <USBD_SetConfig>
          break;
 800792c:	e7ea      	b.n	8007904 <USBD_StdDevReq+0x20>
          USBD_GetConfig(pdev, req);
 800792e:	f7ff ff8b 	bl	8007848 <USBD_GetConfig>
          break;
 8007932:	e7e7      	b.n	8007904 <USBD_StdDevReq+0x20>
          USBD_GetStatus(pdev, req);
 8007934:	f7ff ffa7 	bl	8007886 <USBD_GetStatus>
          break;
 8007938:	e7e4      	b.n	8007904 <USBD_StdDevReq+0x20>
          USBD_SetFeature(pdev, req);
 800793a:	f7ff fe1b 	bl	8007574 <USBD_SetFeature>
          break;
 800793e:	e7e1      	b.n	8007904 <USBD_StdDevReq+0x20>
          USBD_ClrFeature(pdev, req);
 8007940:	f7ff ffbd 	bl	80078be <USBD_ClrFeature>
          break;
 8007944:	e7de      	b.n	8007904 <USBD_StdDevReq+0x20>
          USBD_CtlError(pdev, req);
 8007946:	f7ff fe33 	bl	80075b0 <USBD_CtlError>
          break;
 800794a:	e7db      	b.n	8007904 <USBD_StdDevReq+0x20>

0800794c <USBD_StdItfReq>:
{
 800794c:	b538      	push	{r3, r4, r5, lr}
 800794e:	4605      	mov	r5, r0
 8007950:	460c      	mov	r4, r1
  switch (req->bmRequest & USB_REQ_TYPE_MASK)
 8007952:	780b      	ldrb	r3, [r1, #0]
 8007954:	f003 0360 	and.w	r3, r3, #96	@ 0x60
 8007958:	2b20      	cmp	r3, #32
 800795a:	d006      	beq.n	800796a <USBD_StdItfReq+0x1e>
 800795c:	2b40      	cmp	r3, #64	@ 0x40
 800795e:	d004      	beq.n	800796a <USBD_StdItfReq+0x1e>
 8007960:	b11b      	cbz	r3, 800796a <USBD_StdItfReq+0x1e>
      USBD_CtlError(pdev, req);
 8007962:	f7ff fe25 	bl	80075b0 <USBD_CtlError>
}
 8007966:	2000      	movs	r0, #0
 8007968:	bd38      	pop	{r3, r4, r5, pc}
      switch (pdev->dev_state)
 800796a:	f895 329c 	ldrb.w	r3, [r5, #668]	@ 0x29c
 800796e:	3b01      	subs	r3, #1
 8007970:	2b02      	cmp	r3, #2
 8007972:	d816      	bhi.n	80079a2 <USBD_StdItfReq+0x56>
          if (LOBYTE(req->wIndex) <= USBD_MAX_NUM_INTERFACES)
 8007974:	7923      	ldrb	r3, [r4, #4]
 8007976:	2b01      	cmp	r3, #1
 8007978:	d80e      	bhi.n	8007998 <USBD_StdItfReq+0x4c>
            ret = (USBD_StatusTypeDef)pdev->pClass->Setup(pdev, req);
 800797a:	f8d5 32b4 	ldr.w	r3, [r5, #692]	@ 0x2b4
 800797e:	689b      	ldr	r3, [r3, #8]
 8007980:	4621      	mov	r1, r4
 8007982:	4628      	mov	r0, r5
 8007984:	4798      	blx	r3
            if ((req->wLength == 0U) && (ret == USBD_OK))
 8007986:	88e3      	ldrh	r3, [r4, #6]
 8007988:	2b00      	cmp	r3, #0
 800798a:	d1ec      	bne.n	8007966 <USBD_StdItfReq+0x1a>
 800798c:	2800      	cmp	r0, #0
 800798e:	d1ea      	bne.n	8007966 <USBD_StdItfReq+0x1a>
              USBD_CtlSendStatus(pdev);
 8007990:	4628      	mov	r0, r5
 8007992:	f000 f9df 	bl	8007d54 <USBD_CtlSendStatus>
 8007996:	e7e6      	b.n	8007966 <USBD_StdItfReq+0x1a>
            USBD_CtlError(pdev, req);
 8007998:	4621      	mov	r1, r4
 800799a:	4628      	mov	r0, r5
 800799c:	f7ff fe08 	bl	80075b0 <USBD_CtlError>
 80079a0:	e7e1      	b.n	8007966 <USBD_StdItfReq+0x1a>
          USBD_CtlError(pdev, req);
 80079a2:	4621      	mov	r1, r4
 80079a4:	4628      	mov	r0, r5
 80079a6:	f7ff fe03 	bl	80075b0 <USBD_CtlError>
          break;
 80079aa:	e7dc      	b.n	8007966 <USBD_StdItfReq+0x1a>

080079ac <USBD_StdEPReq>:
{
 80079ac:	b570      	push	{r4, r5, r6, lr}
 80079ae:	4605      	mov	r5, r0
  ep_addr  = LOBYTE(req->wIndex);
 80079b0:	888b      	ldrh	r3, [r1, #4]
  switch (req->bmRequest & USB_REQ_TYPE_MASK)
 80079b2:	780c      	ldrb	r4, [r1, #0]
 80079b4:	f004 0460 	and.w	r4, r4, #96	@ 0x60
 80079b8:	2c20      	cmp	r4, #32
 80079ba:	d007      	beq.n	80079cc <USBD_StdEPReq+0x20>
 80079bc:	b2da      	uxtb	r2, r3
 80079be:	2c40      	cmp	r4, #64	@ 0x40
 80079c0:	d004      	beq.n	80079cc <USBD_StdEPReq+0x20>
 80079c2:	b15c      	cbz	r4, 80079dc <USBD_StdEPReq+0x30>
      USBD_CtlError(pdev, req);
 80079c4:	f7ff fdf4 	bl	80075b0 <USBD_CtlError>
  return ret;
 80079c8:	2400      	movs	r4, #0
      break;
 80079ca:	e005      	b.n	80079d8 <USBD_StdEPReq+0x2c>
      pdev->pClass->Setup(pdev, req);
 80079cc:	f8d5 32b4 	ldr.w	r3, [r5, #692]	@ 0x2b4
 80079d0:	689b      	ldr	r3, [r3, #8]
 80079d2:	4628      	mov	r0, r5
 80079d4:	4798      	blx	r3
  return ret;
 80079d6:	2400      	movs	r4, #0
}
 80079d8:	4620      	mov	r0, r4
 80079da:	bd70      	pop	{r4, r5, r6, pc}
      if ((req->bmRequest & 0x60U) == 0x20U)
 80079dc:	2c20      	cmp	r4, #32
 80079de:	d009      	beq.n	80079f4 <USBD_StdEPReq+0x48>
      switch (req->bRequest)
 80079e0:	784e      	ldrb	r6, [r1, #1]
 80079e2:	2e01      	cmp	r6, #1
 80079e4:	d033      	beq.n	8007a4e <USBD_StdEPReq+0xa2>
 80079e6:	2e03      	cmp	r6, #3
 80079e8:	d00a      	beq.n	8007a00 <USBD_StdEPReq+0x54>
 80079ea:	2e00      	cmp	r6, #0
 80079ec:	d055      	beq.n	8007a9a <USBD_StdEPReq+0xee>
          USBD_CtlError(pdev, req);
 80079ee:	f7ff fddf 	bl	80075b0 <USBD_CtlError>
          break;
 80079f2:	e7f1      	b.n	80079d8 <USBD_StdEPReq+0x2c>
        ret = (USBD_StatusTypeDef)pdev->pClass->Setup(pdev, req);
 80079f4:	f8d0 32b4 	ldr.w	r3, [r0, #692]	@ 0x2b4
 80079f8:	689b      	ldr	r3, [r3, #8]
 80079fa:	4798      	blx	r3
 80079fc:	4604      	mov	r4, r0
        return ret;
 80079fe:	e7eb      	b.n	80079d8 <USBD_StdEPReq+0x2c>
          switch (pdev->dev_state)
 8007a00:	f890 329c 	ldrb.w	r3, [r0, #668]	@ 0x29c
 8007a04:	2b02      	cmp	r3, #2
 8007a06:	d004      	beq.n	8007a12 <USBD_StdEPReq+0x66>
 8007a08:	2b03      	cmp	r3, #3
 8007a0a:	d011      	beq.n	8007a30 <USBD_StdEPReq+0x84>
              USBD_CtlError(pdev, req);
 8007a0c:	f7ff fdd0 	bl	80075b0 <USBD_CtlError>
              break;
 8007a10:	e7e2      	b.n	80079d8 <USBD_StdEPReq+0x2c>
              if ((ep_addr != 0x00U) && (ep_addr != 0x80U))
 8007a12:	b10a      	cbz	r2, 8007a18 <USBD_StdEPReq+0x6c>
 8007a14:	2a80      	cmp	r2, #128	@ 0x80
 8007a16:	d103      	bne.n	8007a20 <USBD_StdEPReq+0x74>
                USBD_CtlError(pdev, req);
 8007a18:	4628      	mov	r0, r5
 8007a1a:	f7ff fdc9 	bl	80075b0 <USBD_CtlError>
 8007a1e:	e7db      	b.n	80079d8 <USBD_StdEPReq+0x2c>
                USBD_LL_StallEP(pdev, ep_addr);
 8007a20:	4611      	mov	r1, r2
 8007a22:	f7ff fbf4 	bl	800720e <USBD_LL_StallEP>
                USBD_LL_StallEP(pdev, 0x80U);
 8007a26:	2180      	movs	r1, #128	@ 0x80
 8007a28:	4628      	mov	r0, r5
 8007a2a:	f7ff fbf0 	bl	800720e <USBD_LL_StallEP>
 8007a2e:	e7d3      	b.n	80079d8 <USBD_StdEPReq+0x2c>
              if (req->wValue == USB_FEATURE_EP_HALT)
 8007a30:	884b      	ldrh	r3, [r1, #2]
 8007a32:	b923      	cbnz	r3, 8007a3e <USBD_StdEPReq+0x92>
                if ((ep_addr != 0x00U) &&
 8007a34:	b11a      	cbz	r2, 8007a3e <USBD_StdEPReq+0x92>
 8007a36:	2a80      	cmp	r2, #128	@ 0x80
 8007a38:	d001      	beq.n	8007a3e <USBD_StdEPReq+0x92>
                    (ep_addr != 0x80U) && (req->wLength == 0x00U))
 8007a3a:	88cb      	ldrh	r3, [r1, #6]
 8007a3c:	b11b      	cbz	r3, 8007a46 <USBD_StdEPReq+0x9a>
              USBD_CtlSendStatus(pdev);
 8007a3e:	4628      	mov	r0, r5
 8007a40:	f000 f988 	bl	8007d54 <USBD_CtlSendStatus>
              break;
 8007a44:	e7c8      	b.n	80079d8 <USBD_StdEPReq+0x2c>
                  USBD_LL_StallEP(pdev, ep_addr);
 8007a46:	4611      	mov	r1, r2
 8007a48:	f7ff fbe1 	bl	800720e <USBD_LL_StallEP>
 8007a4c:	e7f7      	b.n	8007a3e <USBD_StdEPReq+0x92>
          switch (pdev->dev_state)
 8007a4e:	f890 329c 	ldrb.w	r3, [r0, #668]	@ 0x29c
 8007a52:	2b02      	cmp	r3, #2
 8007a54:	d004      	beq.n	8007a60 <USBD_StdEPReq+0xb4>
 8007a56:	2b03      	cmp	r3, #3
 8007a58:	d011      	beq.n	8007a7e <USBD_StdEPReq+0xd2>
              USBD_CtlError(pdev, req);
 8007a5a:	f7ff fda9 	bl	80075b0 <USBD_CtlError>
              break;
 8007a5e:	e7bb      	b.n	80079d8 <USBD_StdEPReq+0x2c>
              if ((ep_addr != 0x00U) && (ep_addr != 0x80U))
 8007a60:	b10a      	cbz	r2, 8007a66 <USBD_StdEPReq+0xba>
 8007a62:	2a80      	cmp	r2, #128	@ 0x80
 8007a64:	d103      	bne.n	8007a6e <USBD_StdEPReq+0xc2>
                USBD_CtlError(pdev, req);
 8007a66:	4628      	mov	r0, r5
 8007a68:	f7ff fda2 	bl	80075b0 <USBD_CtlError>
 8007a6c:	e7b4      	b.n	80079d8 <USBD_StdEPReq+0x2c>
                USBD_LL_StallEP(pdev, ep_addr);
 8007a6e:	4611      	mov	r1, r2
 8007a70:	f7ff fbcd 	bl	800720e <USBD_LL_StallEP>
                USBD_LL_StallEP(pdev, 0x80U);
 8007a74:	2180      	movs	r1, #128	@ 0x80
 8007a76:	4628      	mov	r0, r5
 8007a78:	f7ff fbc9 	bl	800720e <USBD_LL_StallEP>
 8007a7c:	e7ac      	b.n	80079d8 <USBD_StdEPReq+0x2c>
              if (req->wValue == USB_FEATURE_EP_HALT)
 8007a7e:	884b      	ldrh	r3, [r1, #2]
 8007a80:	2b00      	cmp	r3, #0
 8007a82:	d1a9      	bne.n	80079d8 <USBD_StdEPReq+0x2c>
                if ((ep_addr & 0x7FU) != 0x00U)
 8007a84:	f012 0f7f 	tst.w	r2, #127	@ 0x7f
 8007a88:	d103      	bne.n	8007a92 <USBD_StdEPReq+0xe6>
                USBD_CtlSendStatus(pdev);
 8007a8a:	4628      	mov	r0, r5
 8007a8c:	f000 f962 	bl	8007d54 <USBD_CtlSendStatus>
 8007a90:	e7a2      	b.n	80079d8 <USBD_StdEPReq+0x2c>
                  USBD_LL_ClearStallEP(pdev, ep_addr);
 8007a92:	4611      	mov	r1, r2
 8007a94:	f7ff fbc3 	bl	800721e <USBD_LL_ClearStallEP>
 8007a98:	e7f7      	b.n	8007a8a <USBD_StdEPReq+0xde>
          switch (pdev->dev_state)
 8007a9a:	f890 029c 	ldrb.w	r0, [r0, #668]	@ 0x29c
 8007a9e:	2802      	cmp	r0, #2
 8007aa0:	d006      	beq.n	8007ab0 <USBD_StdEPReq+0x104>
 8007aa2:	2803      	cmp	r0, #3
 8007aa4:	d029      	beq.n	8007afa <USBD_StdEPReq+0x14e>
              USBD_CtlError(pdev, req);
 8007aa6:	4628      	mov	r0, r5
 8007aa8:	f7ff fd82 	bl	80075b0 <USBD_CtlError>
  return ret;
 8007aac:	4634      	mov	r4, r6
              break;
 8007aae:	e793      	b.n	80079d8 <USBD_StdEPReq+0x2c>
              if ((ep_addr != 0x00U) && (ep_addr != 0x80U))
 8007ab0:	b10a      	cbz	r2, 8007ab6 <USBD_StdEPReq+0x10a>
 8007ab2:	2a80      	cmp	r2, #128	@ 0x80
 8007ab4:	d113      	bne.n	8007ade <USBD_StdEPReq+0x132>
              pep = ((ep_addr & 0x80U) == 0x80U) ? &pdev->ep_in[ep_addr & 0x7FU] : \
 8007ab6:	f013 0f80 	tst.w	r3, #128	@ 0x80
 8007aba:	d115      	bne.n	8007ae8 <USBD_StdEPReq+0x13c>
                    &pdev->ep_out[ep_addr & 0x7FU];
 8007abc:	f002 027f 	and.w	r2, r2, #127	@ 0x7f
              pep = ((ep_addr & 0x80U) == 0x80U) ? &pdev->ep_in[ep_addr & 0x7FU] : \
 8007ac0:	eb02 0282 	add.w	r2, r2, r2, lsl #2
 8007ac4:	0091      	lsls	r1, r2, #2
 8007ac6:	f501 71a8 	add.w	r1, r1, #336	@ 0x150
 8007aca:	4429      	add	r1, r5
 8007acc:	3104      	adds	r1, #4
              pep->status = 0x0000U;
 8007ace:	2300      	movs	r3, #0
 8007ad0:	600b      	str	r3, [r1, #0]
              USBD_CtlSendData(pdev, (uint8_t *)(void *)&pep->status, 2U);
 8007ad2:	2202      	movs	r2, #2
 8007ad4:	4628      	mov	r0, r5
 8007ad6:	f000 f911 	bl	8007cfc <USBD_CtlSendData>
  return ret;
 8007ada:	4634      	mov	r4, r6
              break;
 8007adc:	e77c      	b.n	80079d8 <USBD_StdEPReq+0x2c>
                USBD_CtlError(pdev, req);
 8007ade:	4628      	mov	r0, r5
 8007ae0:	f7ff fd66 	bl	80075b0 <USBD_CtlError>
  return ret;
 8007ae4:	4634      	mov	r4, r6
                break;
 8007ae6:	e777      	b.n	80079d8 <USBD_StdEPReq+0x2c>
              pep = ((ep_addr & 0x80U) == 0x80U) ? &pdev->ep_in[ep_addr & 0x7FU] : \
 8007ae8:	f002 027f 	and.w	r2, r2, #127	@ 0x7f
 8007aec:	eb02 0282 	add.w	r2, r2, r2, lsl #2
 8007af0:	0091      	lsls	r1, r2, #2
 8007af2:	3110      	adds	r1, #16
 8007af4:	4429      	add	r1, r5
 8007af6:	3104      	adds	r1, #4
 8007af8:	e7e9      	b.n	8007ace <USBD_StdEPReq+0x122>
              if ((ep_addr & 0x80U) == 0x80U)
 8007afa:	b25b      	sxtb	r3, r3
 8007afc:	2b00      	cmp	r3, #0
 8007afe:	db1f      	blt.n	8007b40 <USBD_StdEPReq+0x194>
                if (pdev->ep_out[ep_addr & 0xFU].is_used == 0U)
 8007b00:	f002 000f 	and.w	r0, r2, #15
 8007b04:	eb00 0080 	add.w	r0, r0, r0, lsl #2
 8007b08:	eb05 0080 	add.w	r0, r5, r0, lsl #2
 8007b0c:	f8d0 0158 	ldr.w	r0, [r0, #344]	@ 0x158
 8007b10:	b320      	cbz	r0, 8007b5c <USBD_StdEPReq+0x1b0>
              pep = ((ep_addr & 0x80U) == 0x80U) ? &pdev->ep_in[ep_addr & 0x7FU] : \
 8007b12:	2b00      	cmp	r3, #0
 8007b14:	db27      	blt.n	8007b66 <USBD_StdEPReq+0x1ba>
                    &pdev->ep_out[ep_addr & 0x7FU];
 8007b16:	f002 037f 	and.w	r3, r2, #127	@ 0x7f
              pep = ((ep_addr & 0x80U) == 0x80U) ? &pdev->ep_in[ep_addr & 0x7FU] : \
 8007b1a:	eb03 0383 	add.w	r3, r3, r3, lsl #2
 8007b1e:	009c      	lsls	r4, r3, #2
 8007b20:	f504 74a8 	add.w	r4, r4, #336	@ 0x150
 8007b24:	442c      	add	r4, r5
 8007b26:	3404      	adds	r4, #4
              if ((ep_addr == 0x00U) || (ep_addr == 0x80U))
 8007b28:	b10a      	cbz	r2, 8007b2e <USBD_StdEPReq+0x182>
 8007b2a:	2a80      	cmp	r2, #128	@ 0x80
 8007b2c:	d124      	bne.n	8007b78 <USBD_StdEPReq+0x1cc>
                pep->status = 0x0000U;
 8007b2e:	2300      	movs	r3, #0
 8007b30:	6023      	str	r3, [r4, #0]
              USBD_CtlSendData(pdev, (uint8_t *)(void *)&pep->status, 2U);
 8007b32:	2202      	movs	r2, #2
 8007b34:	4621      	mov	r1, r4
 8007b36:	4628      	mov	r0, r5
 8007b38:	f000 f8e0 	bl	8007cfc <USBD_CtlSendData>
  return ret;
 8007b3c:	4634      	mov	r4, r6
              break;
 8007b3e:	e74b      	b.n	80079d8 <USBD_StdEPReq+0x2c>
                if (pdev->ep_in[ep_addr & 0xFU].is_used == 0U)
 8007b40:	f002 000f 	and.w	r0, r2, #15
 8007b44:	eb00 0080 	add.w	r0, r0, r0, lsl #2
 8007b48:	eb05 0080 	add.w	r0, r5, r0, lsl #2
 8007b4c:	6980      	ldr	r0, [r0, #24]
 8007b4e:	2800      	cmp	r0, #0
 8007b50:	d1df      	bne.n	8007b12 <USBD_StdEPReq+0x166>
                  USBD_CtlError(pdev, req);
 8007b52:	4628      	mov	r0, r5
 8007b54:	f7ff fd2c 	bl	80075b0 <USBD_CtlError>
  return ret;
 8007b58:	4634      	mov	r4, r6
                  break;
 8007b5a:	e73d      	b.n	80079d8 <USBD_StdEPReq+0x2c>
                  USBD_CtlError(pdev, req);
 8007b5c:	4628      	mov	r0, r5
 8007b5e:	f7ff fd27 	bl	80075b0 <USBD_CtlError>
  return ret;
 8007b62:	4634      	mov	r4, r6
                  break;
 8007b64:	e738      	b.n	80079d8 <USBD_StdEPReq+0x2c>
              pep = ((ep_addr & 0x80U) == 0x80U) ? &pdev->ep_in[ep_addr & 0x7FU] : \
 8007b66:	f002 037f 	and.w	r3, r2, #127	@ 0x7f
 8007b6a:	eb03 0383 	add.w	r3, r3, r3, lsl #2
 8007b6e:	009c      	lsls	r4, r3, #2
 8007b70:	3410      	adds	r4, #16
 8007b72:	442c      	add	r4, r5
 8007b74:	3404      	adds	r4, #4
 8007b76:	e7d7      	b.n	8007b28 <USBD_StdEPReq+0x17c>
              else if (USBD_LL_IsStallEP(pdev, ep_addr))
 8007b78:	4611      	mov	r1, r2
 8007b7a:	4628      	mov	r0, r5
 8007b7c:	f7ff fb57 	bl	800722e <USBD_LL_IsStallEP>
 8007b80:	b110      	cbz	r0, 8007b88 <USBD_StdEPReq+0x1dc>
                pep->status = 0x0001U;
 8007b82:	2301      	movs	r3, #1
 8007b84:	6023      	str	r3, [r4, #0]
 8007b86:	e7d4      	b.n	8007b32 <USBD_StdEPReq+0x186>
                pep->status = 0x0000U;
 8007b88:	2300      	movs	r3, #0
 8007b8a:	6023      	str	r3, [r4, #0]
 8007b8c:	e7d1      	b.n	8007b32 <USBD_StdEPReq+0x186>

08007b8e <USBD_GetString>:
  if (desc != NULL)
 8007b8e:	b1d0      	cbz	r0, 8007bc6 <USBD_GetString+0x38>
{
 8007b90:	b570      	push	{r4, r5, r6, lr}
 8007b92:	460d      	mov	r5, r1
 8007b94:	4616      	mov	r6, r2
 8007b96:	4604      	mov	r4, r0
    *len = (uint16_t)USBD_GetLen(desc) * 2U + 2U;
 8007b98:	f7ff fce2 	bl	8007560 <USBD_GetLen>
 8007b9c:	1c43      	adds	r3, r0, #1
 8007b9e:	005b      	lsls	r3, r3, #1
 8007ba0:	b29b      	uxth	r3, r3
 8007ba2:	8033      	strh	r3, [r6, #0]
    unicode[idx++] = *(uint8_t *)(void *)len;
 8007ba4:	702b      	strb	r3, [r5, #0]
    unicode[idx++] = USB_DESC_TYPE_STRING;
 8007ba6:	2303      	movs	r3, #3
 8007ba8:	706b      	strb	r3, [r5, #1]
 8007baa:	2302      	movs	r3, #2
    while (*desc != '\0')
 8007bac:	e007      	b.n	8007bbe <USBD_GetString+0x30>
      unicode[idx++] = *desc++;
 8007bae:	3401      	adds	r4, #1
 8007bb0:	1c5a      	adds	r2, r3, #1
 8007bb2:	b2d2      	uxtb	r2, r2
 8007bb4:	54e8      	strb	r0, [r5, r3]
      unicode[idx++] =  0U;
 8007bb6:	3302      	adds	r3, #2
 8007bb8:	b2db      	uxtb	r3, r3
 8007bba:	2100      	movs	r1, #0
 8007bbc:	54a9      	strb	r1, [r5, r2]
    while (*desc != '\0')
 8007bbe:	7820      	ldrb	r0, [r4, #0]
 8007bc0:	2800      	cmp	r0, #0
 8007bc2:	d1f4      	bne.n	8007bae <USBD_GetString+0x20>
}
 8007bc4:	bd70      	pop	{r4, r5, r6, pc}
 8007bc6:	4770      	bx	lr

08007bc8 <USBD_FS_DeviceDescriptor>:
  * @retval Pointer to descriptor buffer
  */
uint8_t * USBD_FS_DeviceDescriptor(USBD_SpeedTypeDef speed, uint16_t *length)
{
  UNUSED(speed);
  *length = sizeof(USBD_FS_DeviceDesc);
 8007bc8:	2312      	movs	r3, #18
 8007bca:	800b      	strh	r3, [r1, #0]
  return USBD_FS_DeviceDesc;
}
 8007bcc:	4800      	ldr	r0, [pc, #0]	@ (8007bd0 <USBD_FS_DeviceDescriptor+0x8>)
 8007bce:	4770      	bx	lr
 8007bd0:	200001b0 	.word	0x200001b0

08007bd4 <USBD_FS_LangIDStrDescriptor>:
  * @retval Pointer to descriptor buffer
  */
uint8_t * USBD_FS_LangIDStrDescriptor(USBD_SpeedTypeDef speed, uint16_t *length)
{
  UNUSED(speed);
  *length = sizeof(USBD_LangIDDesc);
 8007bd4:	2304      	movs	r3, #4
 8007bd6:	800b      	strh	r3, [r1, #0]
  return USBD_LangIDDesc;
}
 8007bd8:	4800      	ldr	r0, [pc, #0]	@ (8007bdc <USBD_FS_LangIDStrDescriptor+0x8>)
 8007bda:	4770      	bx	lr
 8007bdc:	200001ac 	.word	0x200001ac

08007be0 <IntToUnicode>:
  */
static void IntToUnicode(uint32_t value, uint8_t * pbuf, uint8_t len)
{
  uint8_t idx = 0;

  for (idx = 0; idx < len; idx++)
 8007be0:	2300      	movs	r3, #0
 8007be2:	4293      	cmp	r3, r2
 8007be4:	d21e      	bcs.n	8007c24 <IntToUnicode+0x44>
{
 8007be6:	b500      	push	{lr}
 8007be8:	e010      	b.n	8007c0c <IntToUnicode+0x2c>
    {
      pbuf[2 * idx] = (value >> 28) + '0';
    }
    else
    {
      pbuf[2 * idx] = (value >> 28) + 'A' - 10;
 8007bea:	f10c 0c37 	add.w	ip, ip, #55	@ 0x37
 8007bee:	f801 c013 	strb.w	ip, [r1, r3, lsl #1]
    }

    value = value << 4;
 8007bf2:	0100      	lsls	r0, r0, #4

    pbuf[2 * idx + 1] = 0;
 8007bf4:	ea4f 0c43 	mov.w	ip, r3, lsl #1
 8007bf8:	f10c 0c01 	add.w	ip, ip, #1
 8007bfc:	f04f 0e00 	mov.w	lr, #0
 8007c00:	f801 e00c 	strb.w	lr, [r1, ip]
  for (idx = 0; idx < len; idx++)
 8007c04:	3301      	adds	r3, #1
 8007c06:	b2db      	uxtb	r3, r3
 8007c08:	4293      	cmp	r3, r2
 8007c0a:	d209      	bcs.n	8007c20 <IntToUnicode+0x40>
    if (((value >> 28)) < 0xA)
 8007c0c:	ea4f 7c10 	mov.w	ip, r0, lsr #28
 8007c10:	f1b0 4f20 	cmp.w	r0, #2684354560	@ 0xa0000000
 8007c14:	d2e9      	bcs.n	8007bea <IntToUnicode+0xa>
      pbuf[2 * idx] = (value >> 28) + '0';
 8007c16:	f10c 0c30 	add.w	ip, ip, #48	@ 0x30
 8007c1a:	f801 c013 	strb.w	ip, [r1, r3, lsl #1]
 8007c1e:	e7e8      	b.n	8007bf2 <IntToUnicode+0x12>
  }
}
 8007c20:	f85d fb04 	ldr.w	pc, [sp], #4
 8007c24:	4770      	bx	lr
	...

08007c28 <Get_SerialNum>:
{
 8007c28:	b538      	push	{r3, r4, r5, lr}
  deviceserial0 = *(uint32_t *) DEVICE_ID1;
 8007c2a:	4b0b      	ldr	r3, [pc, #44]	@ (8007c58 <Get_SerialNum+0x30>)
 8007c2c:	f8d3 07e8 	ldr.w	r0, [r3, #2024]	@ 0x7e8
  deviceserial1 = *(uint32_t *) DEVICE_ID2;
 8007c30:	f8d3 47ec 	ldr.w	r4, [r3, #2028]	@ 0x7ec
  deviceserial2 = *(uint32_t *) DEVICE_ID3;
 8007c34:	f8d3 37f0 	ldr.w	r3, [r3, #2032]	@ 0x7f0
  if (deviceserial0 != 0)
 8007c38:	18c0      	adds	r0, r0, r3
 8007c3a:	d100      	bne.n	8007c3e <Get_SerialNum+0x16>
}
 8007c3c:	bd38      	pop	{r3, r4, r5, pc}
    IntToUnicode(deviceserial0, &USBD_StringSerial[2], 8);
 8007c3e:	4d07      	ldr	r5, [pc, #28]	@ (8007c5c <Get_SerialNum+0x34>)
 8007c40:	2208      	movs	r2, #8
 8007c42:	4629      	mov	r1, r5
 8007c44:	f7ff ffcc 	bl	8007be0 <IntToUnicode>
    IntToUnicode(deviceserial1, &USBD_StringSerial[18], 4);
 8007c48:	2204      	movs	r2, #4
 8007c4a:	f105 0110 	add.w	r1, r5, #16
 8007c4e:	4620      	mov	r0, r4
 8007c50:	f7ff ffc6 	bl	8007be0 <IntToUnicode>
}
 8007c54:	e7f2      	b.n	8007c3c <Get_SerialNum+0x14>
 8007c56:	bf00      	nop
 8007c58:	1ffff000 	.word	0x1ffff000
 8007c5c:	20000192 	.word	0x20000192

08007c60 <USBD_FS_SerialStrDescriptor>:
{
 8007c60:	b508      	push	{r3, lr}
  *length = USB_SIZ_STRING_SERIAL;
 8007c62:	231a      	movs	r3, #26
 8007c64:	800b      	strh	r3, [r1, #0]
  Get_SerialNum();
 8007c66:	f7ff ffdf 	bl	8007c28 <Get_SerialNum>
}
 8007c6a:	4801      	ldr	r0, [pc, #4]	@ (8007c70 <USBD_FS_SerialStrDescriptor+0x10>)
 8007c6c:	bd08      	pop	{r3, pc}
 8007c6e:	bf00      	nop
 8007c70:	20000190 	.word	0x20000190

08007c74 <USBD_FS_ProductStrDescriptor>:
{
 8007c74:	b508      	push	{r3, lr}
 8007c76:	460a      	mov	r2, r1
  if(speed == 0)
 8007c78:	b928      	cbnz	r0, 8007c86 <USBD_FS_ProductStrDescriptor+0x12>
    USBD_GetString((uint8_t *)USBD_PRODUCT_STRING_FS, USBD_StrDesc, length);
 8007c7a:	4905      	ldr	r1, [pc, #20]	@ (8007c90 <USBD_FS_ProductStrDescriptor+0x1c>)
 8007c7c:	4805      	ldr	r0, [pc, #20]	@ (8007c94 <USBD_FS_ProductStrDescriptor+0x20>)
 8007c7e:	f7ff ff86 	bl	8007b8e <USBD_GetString>
}
 8007c82:	4803      	ldr	r0, [pc, #12]	@ (8007c90 <USBD_FS_ProductStrDescriptor+0x1c>)
 8007c84:	bd08      	pop	{r3, pc}
    USBD_GetString((uint8_t *)USBD_PRODUCT_STRING_FS, USBD_StrDesc, length);
 8007c86:	4902      	ldr	r1, [pc, #8]	@ (8007c90 <USBD_FS_ProductStrDescriptor+0x1c>)
 8007c88:	4802      	ldr	r0, [pc, #8]	@ (8007c94 <USBD_FS_ProductStrDescriptor+0x20>)
 8007c8a:	f7ff ff80 	bl	8007b8e <USBD_GetString>
 8007c8e:	e7f8      	b.n	8007c82 <USBD_FS_ProductStrDescriptor+0xe>
 8007c90:	2000177c 	.word	0x2000177c
 8007c94:	08007df8 	.word	0x08007df8

08007c98 <USBD_FS_ManufacturerStrDescriptor>:
{
 8007c98:	b510      	push	{r4, lr}
 8007c9a:	460a      	mov	r2, r1
  USBD_GetString((uint8_t *)USBD_MANUFACTURER_STRING, USBD_StrDesc, length);
 8007c9c:	4c03      	ldr	r4, [pc, #12]	@ (8007cac <USBD_FS_ManufacturerStrDescriptor+0x14>)
 8007c9e:	4621      	mov	r1, r4
 8007ca0:	4803      	ldr	r0, [pc, #12]	@ (8007cb0 <USBD_FS_ManufacturerStrDescriptor+0x18>)
 8007ca2:	f7ff ff74 	bl	8007b8e <USBD_GetString>
}
 8007ca6:	4620      	mov	r0, r4
 8007ca8:	bd10      	pop	{r4, pc}
 8007caa:	bf00      	nop
 8007cac:	2000177c 	.word	0x2000177c
 8007cb0:	08007e08 	.word	0x08007e08

08007cb4 <USBD_FS_ConfigStrDescriptor>:
{
 8007cb4:	b508      	push	{r3, lr}
 8007cb6:	460a      	mov	r2, r1
  if(speed == USBD_SPEED_HIGH)
 8007cb8:	b928      	cbnz	r0, 8007cc6 <USBD_FS_ConfigStrDescriptor+0x12>
    USBD_GetString((uint8_t *)USBD_CONFIGURATION_STRING_FS, USBD_StrDesc, length);
 8007cba:	4905      	ldr	r1, [pc, #20]	@ (8007cd0 <USBD_FS_ConfigStrDescriptor+0x1c>)
 8007cbc:	4805      	ldr	r0, [pc, #20]	@ (8007cd4 <USBD_FS_ConfigStrDescriptor+0x20>)
 8007cbe:	f7ff ff66 	bl	8007b8e <USBD_GetString>
}
 8007cc2:	4803      	ldr	r0, [pc, #12]	@ (8007cd0 <USBD_FS_ConfigStrDescriptor+0x1c>)
 8007cc4:	bd08      	pop	{r3, pc}
    USBD_GetString((uint8_t *)USBD_CONFIGURATION_STRING_FS, USBD_StrDesc, length);
 8007cc6:	4902      	ldr	r1, [pc, #8]	@ (8007cd0 <USBD_FS_ConfigStrDescriptor+0x1c>)
 8007cc8:	4802      	ldr	r0, [pc, #8]	@ (8007cd4 <USBD_FS_ConfigStrDescriptor+0x20>)
 8007cca:	f7ff ff60 	bl	8007b8e <USBD_GetString>
 8007cce:	e7f8      	b.n	8007cc2 <USBD_FS_ConfigStrDescriptor+0xe>
 8007cd0:	2000177c 	.word	0x2000177c
 8007cd4:	08007e10 	.word	0x08007e10

08007cd8 <USBD_FS_InterfaceStrDescriptor>:
{
 8007cd8:	b508      	push	{r3, lr}
 8007cda:	460a      	mov	r2, r1
  if(speed == 0)
 8007cdc:	b928      	cbnz	r0, 8007cea <USBD_FS_InterfaceStrDescriptor+0x12>
    USBD_GetString((uint8_t *)USBD_INTERFACE_STRING_FS, USBD_StrDesc, length);
 8007cde:	4905      	ldr	r1, [pc, #20]	@ (8007cf4 <USBD_FS_InterfaceStrDescriptor+0x1c>)
 8007ce0:	4805      	ldr	r0, [pc, #20]	@ (8007cf8 <USBD_FS_InterfaceStrDescriptor+0x20>)
 8007ce2:	f7ff ff54 	bl	8007b8e <USBD_GetString>
}
 8007ce6:	4803      	ldr	r0, [pc, #12]	@ (8007cf4 <USBD_FS_InterfaceStrDescriptor+0x1c>)
 8007ce8:	bd08      	pop	{r3, pc}
    USBD_GetString((uint8_t *)USBD_INTERFACE_STRING_FS, USBD_StrDesc, length);
 8007cea:	4902      	ldr	r1, [pc, #8]	@ (8007cf4 <USBD_FS_InterfaceStrDescriptor+0x1c>)
 8007cec:	4802      	ldr	r0, [pc, #8]	@ (8007cf8 <USBD_FS_InterfaceStrDescriptor+0x20>)
 8007cee:	f7ff ff4e 	bl	8007b8e <USBD_GetString>
 8007cf2:	e7f8      	b.n	8007ce6 <USBD_FS_InterfaceStrDescriptor+0xe>
 8007cf4:	2000177c 	.word	0x2000177c
 8007cf8:	08007e1c 	.word	0x08007e1c

08007cfc <USBD_CtlSendData>:
* @param  len: length of data to be sent
* @retval status
*/
USBD_StatusTypeDef USBD_CtlSendData(USBD_HandleTypeDef *pdev,
                                    uint8_t *pbuf, uint16_t len)
{
 8007cfc:	b508      	push	{r3, lr}
 8007cfe:	4613      	mov	r3, r2
  /* Set EP0 State */
  pdev->ep0_state = USBD_EP0_DATA_IN;
 8007d00:	2202      	movs	r2, #2
 8007d02:	f8c0 2294 	str.w	r2, [r0, #660]	@ 0x294
  pdev->ep_in[0].total_length = len;
 8007d06:	61c3      	str	r3, [r0, #28]
  pdev->ep_in[0].rem_length   = len;
 8007d08:	6203      	str	r3, [r0, #32]

  /* Start the transfer */
  USBD_LL_Transmit(pdev, 0x00U, pbuf, len);
 8007d0a:	460a      	mov	r2, r1
 8007d0c:	2100      	movs	r1, #0
 8007d0e:	f7ff faac 	bl	800726a <USBD_LL_Transmit>

  return USBD_OK;
}
 8007d12:	2000      	movs	r0, #0
 8007d14:	bd08      	pop	{r3, pc}

08007d16 <USBD_CtlContinueSendData>:
* @param  len: length of data to be sent
* @retval status
*/
USBD_StatusTypeDef USBD_CtlContinueSendData(USBD_HandleTypeDef *pdev,
                                            uint8_t *pbuf, uint16_t len)
{
 8007d16:	b508      	push	{r3, lr}
 8007d18:	4613      	mov	r3, r2
  /* Start the next transfer */
  USBD_LL_Transmit(pdev, 0x00U, pbuf, len);
 8007d1a:	460a      	mov	r2, r1
 8007d1c:	2100      	movs	r1, #0
 8007d1e:	f7ff faa4 	bl	800726a <USBD_LL_Transmit>

  return USBD_OK;
}
 8007d22:	2000      	movs	r0, #0
 8007d24:	bd08      	pop	{r3, pc}

08007d26 <USBD_CtlPrepareRx>:
* @param  len: length of data to be received
* @retval status
*/
USBD_StatusTypeDef USBD_CtlPrepareRx(USBD_HandleTypeDef *pdev,
                                     uint8_t *pbuf, uint16_t len)
{
 8007d26:	b508      	push	{r3, lr}
 8007d28:	4613      	mov	r3, r2
  /* Set EP0 State */
  pdev->ep0_state = USBD_EP0_DATA_OUT;
 8007d2a:	2203      	movs	r2, #3
 8007d2c:	f8c0 2294 	str.w	r2, [r0, #660]	@ 0x294
  pdev->ep_out[0].total_length = len;
 8007d30:	f8c0 315c 	str.w	r3, [r0, #348]	@ 0x15c
  pdev->ep_out[0].rem_length   = len;
 8007d34:	f8c0 3160 	str.w	r3, [r0, #352]	@ 0x160

  /* Start the transfer */
  USBD_LL_PrepareReceive(pdev, 0U, pbuf, len);
 8007d38:	460a      	mov	r2, r1
 8007d3a:	2100      	movs	r1, #0
 8007d3c:	f7ff fa9d 	bl	800727a <USBD_LL_PrepareReceive>

  return USBD_OK;
}
 8007d40:	2000      	movs	r0, #0
 8007d42:	bd08      	pop	{r3, pc}

08007d44 <USBD_CtlContinueRx>:
* @param  len: length of data to be received
* @retval status
*/
USBD_StatusTypeDef USBD_CtlContinueRx(USBD_HandleTypeDef *pdev,
                                      uint8_t *pbuf, uint16_t len)
{
 8007d44:	b508      	push	{r3, lr}
 8007d46:	4613      	mov	r3, r2
  USBD_LL_PrepareReceive(pdev, 0U, pbuf, len);
 8007d48:	460a      	mov	r2, r1
 8007d4a:	2100      	movs	r1, #0
 8007d4c:	f7ff fa95 	bl	800727a <USBD_LL_PrepareReceive>

  return USBD_OK;
}
 8007d50:	2000      	movs	r0, #0
 8007d52:	bd08      	pop	{r3, pc}

08007d54 <USBD_CtlSendStatus>:
*         send zero lzngth packet on the ctl pipe
* @param  pdev: device instance
* @retval status
*/
USBD_StatusTypeDef USBD_CtlSendStatus(USBD_HandleTypeDef *pdev)
{
 8007d54:	b508      	push	{r3, lr}
  /* Set EP0 State */
  pdev->ep0_state = USBD_EP0_STATUS_IN;
 8007d56:	2304      	movs	r3, #4
 8007d58:	f8c0 3294 	str.w	r3, [r0, #660]	@ 0x294

  /* Start the transfer */
  USBD_LL_Transmit(pdev, 0x00U, NULL, 0U);
 8007d5c:	2300      	movs	r3, #0
 8007d5e:	461a      	mov	r2, r3
 8007d60:	4619      	mov	r1, r3
 8007d62:	f7ff fa82 	bl	800726a <USBD_LL_Transmit>

  return USBD_OK;
}
 8007d66:	2000      	movs	r0, #0
 8007d68:	bd08      	pop	{r3, pc}

08007d6a <USBD_CtlReceiveStatus>:
*         receive zero lzngth packet on the ctl pipe
* @param  pdev: device instance
* @retval status
*/
USBD_StatusTypeDef USBD_CtlReceiveStatus(USBD_HandleTypeDef *pdev)
{
 8007d6a:	b508      	push	{r3, lr}
  /* Set EP0 State */
  pdev->ep0_state = USBD_EP0_STATUS_OUT;
 8007d6c:	2305      	movs	r3, #5
 8007d6e:	f8c0 3294 	str.w	r3, [r0, #660]	@ 0x294

  /* Start the transfer */
  USBD_LL_PrepareReceive(pdev, 0U, NULL, 0U);
 8007d72:	2300      	movs	r3, #0
 8007d74:	461a      	mov	r2, r3
 8007d76:	4619      	mov	r1, r3
 8007d78:	f7ff fa7f 	bl	800727a <USBD_LL_PrepareReceive>

  return USBD_OK;
}
 8007d7c:	2000      	movs	r0, #0
 8007d7e:	bd08      	pop	{r3, pc}

08007d80 <Reset_Handler>:
  .weak Reset_Handler
  .type Reset_Handler, %function
Reset_Handler:

/* Call the clock system initialization function.*/
    bl  SystemInit
 8007d80:	f7fe fd92 	bl	80068a8 <SystemInit>

/* Copy the data segment initializers from flash to SRAM */
  ldr r0, =_sdata
 8007d84:	480b      	ldr	r0, [pc, #44]	@ (8007db4 <LoopFillZerobss+0xe>)
  ldr r1, =_edata
 8007d86:	490c      	ldr	r1, [pc, #48]	@ (8007db8 <LoopFillZerobss+0x12>)
  ldr r2, =_sidata
 8007d88:	4a0c      	ldr	r2, [pc, #48]	@ (8007dbc <LoopFillZerobss+0x16>)
  movs r3, #0
 8007d8a:	2300      	movs	r3, #0
  b LoopCopyDataInit
 8007d8c:	e002      	b.n	8007d94 <LoopCopyDataInit>

08007d8e <CopyDataInit>:

CopyDataInit:
  ldr r4, [r2, r3]
 8007d8e:	58d4      	ldr	r4, [r2, r3]
  str r4, [r0, r3]
 8007d90:	50c4      	str	r4, [r0, r3]
  adds r3, r3, #4
 8007d92:	3304      	adds	r3, #4

08007d94 <LoopCopyDataInit>:

LoopCopyDataInit:
  adds r4, r0, r3
 8007d94:	18c4      	adds	r4, r0, r3
  cmp r4, r1
 8007d96:	428c      	cmp	r4, r1
  bcc CopyDataInit
 8007d98:	d3f9      	bcc.n	8007d8e <CopyDataInit>
  
/* Zero fill the bss segment. */
  ldr r2, =_sbss
 8007d9a:	4a09      	ldr	r2, [pc, #36]	@ (8007dc0 <LoopFillZerobss+0x1a>)
  ldr r4, =_ebss
 8007d9c:	4c09      	ldr	r4, [pc, #36]	@ (8007dc4 <LoopFillZerobss+0x1e>)
  movs r3, #0
 8007d9e:	2300      	movs	r3, #0
  b LoopFillZerobss
 8007da0:	e001      	b.n	8007da6 <LoopFillZerobss>

08007da2 <FillZerobss>:

FillZerobss:
  str  r3, [r2]
 8007da2:	6013      	str	r3, [r2, #0]
  adds r2, r2, #4
 8007da4:	3204      	adds	r2, #4

08007da6 <LoopFillZerobss>:

LoopFillZerobss:
  cmp r2, r4
 8007da6:	42a2      	cmp	r2, r4
  bcc FillZerobss
 8007da8:	d3fb      	bcc.n	8007da2 <FillZerobss>

/* Call static constructors */
    bl __libc_init_array
 8007daa:	f7f8 f9fb 	bl	80001a4 <__libc_init_array>
/* Call the application's entry point.*/
  bl main
 8007dae:	f7fa fa79 	bl	80022a4 <main>
  bx lr
 8007db2:	4770      	bx	lr
  ldr r0, =_sdata
 8007db4:	20000000 	.word	0x20000000
  ldr r1, =_edata
 8007db8:	200001e0 	.word	0x200001e0
  ldr r2, =_sidata
 8007dbc:	08007e9c 	.word	0x08007e9c
  ldr r2, =_sbss
 8007dc0:	200001e0 	.word	0x200001e0
  ldr r4, =_ebss
 8007dc4:	2000197c 	.word	0x2000197c

08007dc8 <ADC1_2_IRQHandler>:
 * @retval : None
*/
    .section .text.Default_Handler,"ax",%progbits
Default_Handler:
Infinite_Loop:
  b Infinite_Loop
 8007dc8:	e7fe      	b.n	8007dc8 <ADC1_2_IRQHandler>
	...

08007dcc <_init>:
 8007dcc:	b5f8      	push	{r3, r4, r5, r6, r7, lr}
 8007dce:	bf00      	nop
 8007dd0:	bcf8      	pop	{r3, r4, r5, r6, r7}
 8007dd2:	bc08      	pop	{r3}
 8007dd4:	469e      	mov	lr, r3
 8007dd6:	4770      	bx	lr

08007dd8 <_fini>:
 8007dd8:	b5f8      	push	{r3, r4, r5, r6, r7, lr}
 8007dda:	bf00      	nop
 8007ddc:	bcf8      	pop	{r3, r4, r5, r6, r7}
 8007dde:	bc08      	pop	{r3}
 8007de0:	469e      	mov	lr, r3
 8007de2:	4770      	bx	lr
