ARM GAS  /tmp/ccdhtWWx.s 			page 1


   1              		.cpu cortex-m3
   2              		.arch armv7-m
   3              		.fpu softvfp
   4              		.eabi_attribute 20, 1
   5              		.eabi_attribute 21, 1
   6              		.eabi_attribute 23, 3
   7              		.eabi_attribute 24, 1
   8              		.eabi_attribute 25, 1
   9              		.eabi_attribute 26, 1
  10              		.eabi_attribute 30, 1
  11              		.eabi_attribute 34, 1
  12              		.eabi_attribute 18, 4
  13              		.file	"usbd_conf.c"
  14              		.text
  15              	.Ltext0:
  16              		.cfi_sections	.debug_frame
  17              		.file 1 "Src/usbd_conf.c"
  18              		.section	.text.USBD_Get_USB_Status,"ax",%progbits
  19              		.align	1
  20              		.syntax unified
  21              		.thumb
  22              		.thumb_func
  24              	USBD_Get_USB_Status:
  25              	.LVL0:
  26              	.LFB99:
   1:Src/usbd_conf.c **** /* USER CODE BEGIN Header */
   2:Src/usbd_conf.c **** /**
   3:Src/usbd_conf.c ****   ******************************************************************************
   4:Src/usbd_conf.c ****   * @file           : usbd_conf.c
   5:Src/usbd_conf.c ****   * @version        : v2.0_Cube
   6:Src/usbd_conf.c ****   * @brief          : This file implements the board support package for the USB device library
   7:Src/usbd_conf.c ****   ******************************************************************************
   8:Src/usbd_conf.c ****   * @attention
   9:Src/usbd_conf.c ****   *
  10:Src/usbd_conf.c ****   * Copyright (c) 2024 STMicroelectronics.
  11:Src/usbd_conf.c ****   * All rights reserved.
  12:Src/usbd_conf.c ****   *
  13:Src/usbd_conf.c ****   * This software is licensed under terms that can be found in the LICENSE file
  14:Src/usbd_conf.c ****   * in the root directory of this software component.
  15:Src/usbd_conf.c ****   * If no LICENSE file comes with this software, it is provided AS-IS.
  16:Src/usbd_conf.c ****   *
  17:Src/usbd_conf.c ****   ******************************************************************************
  18:Src/usbd_conf.c ****   */
  19:Src/usbd_conf.c **** /* USER CODE END Header */
  20:Src/usbd_conf.c **** 
  21:Src/usbd_conf.c **** /* Includes ------------------------------------------------------------------*/
  22:Src/usbd_conf.c **** #include "stm32f1xx.h"
  23:Src/usbd_conf.c **** #include "stm32f1xx_hal.h"
  24:Src/usbd_conf.c **** #include "usbd_def.h"
  25:Src/usbd_conf.c **** #include "usbd_core.h"
  26:Src/usbd_conf.c **** #include "usbd_cdc.h"
  27:Src/usbd_conf.c **** 
  28:Src/usbd_conf.c **** /* USER CODE BEGIN Includes */
  29:Src/usbd_conf.c **** 
  30:Src/usbd_conf.c **** /* USER CODE END Includes */
  31:Src/usbd_conf.c **** 
  32:Src/usbd_conf.c **** /* Private typedef -----------------------------------------------------------*/
ARM GAS  /tmp/ccdhtWWx.s 			page 2


  33:Src/usbd_conf.c **** /* Private define ------------------------------------------------------------*/
  34:Src/usbd_conf.c **** /* Private macro -------------------------------------------------------------*/
  35:Src/usbd_conf.c **** 
  36:Src/usbd_conf.c **** /* USER CODE BEGIN PV */
  37:Src/usbd_conf.c **** /* Private variables ---------------------------------------------------------*/
  38:Src/usbd_conf.c **** 
  39:Src/usbd_conf.c **** /* USER CODE END PV */
  40:Src/usbd_conf.c **** 
  41:Src/usbd_conf.c **** PCD_HandleTypeDef hpcd_USB_FS;
  42:Src/usbd_conf.c **** void Error_Handler(void);
  43:Src/usbd_conf.c **** 
  44:Src/usbd_conf.c **** /* USER CODE BEGIN 0 */
  45:Src/usbd_conf.c **** 
  46:Src/usbd_conf.c **** /* USER CODE END 0 */
  47:Src/usbd_conf.c **** 
  48:Src/usbd_conf.c **** /* USER CODE BEGIN PFP */
  49:Src/usbd_conf.c **** /* Private function prototypes -----------------------------------------------*/
  50:Src/usbd_conf.c **** 
  51:Src/usbd_conf.c **** /* USER CODE END PFP */
  52:Src/usbd_conf.c **** 
  53:Src/usbd_conf.c **** /* Private functions ---------------------------------------------------------*/
  54:Src/usbd_conf.c **** static USBD_StatusTypeDef USBD_Get_USB_Status(HAL_StatusTypeDef hal_status);
  55:Src/usbd_conf.c **** /* USER CODE BEGIN 1 */
  56:Src/usbd_conf.c **** 
  57:Src/usbd_conf.c **** /* USER CODE END 1 */
  58:Src/usbd_conf.c **** #if (USE_HAL_PCD_REGISTER_CALLBACKS == 1U)
  59:Src/usbd_conf.c **** static void PCDEx_SetConnectionState(PCD_HandleTypeDef *hpcd, uint8_t state);
  60:Src/usbd_conf.c **** #else
  61:Src/usbd_conf.c **** void HAL_PCDEx_SetConnectionState(PCD_HandleTypeDef *hpcd, uint8_t state);
  62:Src/usbd_conf.c **** #endif /* USE_HAL_PCD_REGISTER_CALLBACKS */
  63:Src/usbd_conf.c **** 
  64:Src/usbd_conf.c **** /*******************************************************************************
  65:Src/usbd_conf.c ****                        LL Driver Callbacks (PCD -> USB Device Library)
  66:Src/usbd_conf.c **** *******************************************************************************/
  67:Src/usbd_conf.c **** /* MSP Init */
  68:Src/usbd_conf.c **** 
  69:Src/usbd_conf.c **** void HAL_PCD_MspInit(PCD_HandleTypeDef* pcdHandle)
  70:Src/usbd_conf.c **** {
  71:Src/usbd_conf.c ****   if(pcdHandle->Instance==USB)
  72:Src/usbd_conf.c ****   {
  73:Src/usbd_conf.c ****   /* USER CODE BEGIN USB_MspInit 0 */
  74:Src/usbd_conf.c **** 
  75:Src/usbd_conf.c ****   /* USER CODE END USB_MspInit 0 */
  76:Src/usbd_conf.c ****     /* Peripheral clock enable */
  77:Src/usbd_conf.c ****     __HAL_RCC_USB_CLK_ENABLE();
  78:Src/usbd_conf.c **** 
  79:Src/usbd_conf.c ****     /* Peripheral interrupt init */
  80:Src/usbd_conf.c ****     HAL_NVIC_SetPriority(USB_LP_CAN1_RX0_IRQn, 0, 0);
  81:Src/usbd_conf.c ****     HAL_NVIC_EnableIRQ(USB_LP_CAN1_RX0_IRQn);
  82:Src/usbd_conf.c ****   /* USER CODE BEGIN USB_MspInit 1 */
  83:Src/usbd_conf.c **** 
  84:Src/usbd_conf.c ****   /* USER CODE END USB_MspInit 1 */
  85:Src/usbd_conf.c ****   }
  86:Src/usbd_conf.c **** }
  87:Src/usbd_conf.c **** 
  88:Src/usbd_conf.c **** void HAL_PCD_MspDeInit(PCD_HandleTypeDef* pcdHandle)
  89:Src/usbd_conf.c **** {
ARM GAS  /tmp/ccdhtWWx.s 			page 3


  90:Src/usbd_conf.c ****   if(pcdHandle->Instance==USB)
  91:Src/usbd_conf.c ****   {
  92:Src/usbd_conf.c ****   /* USER CODE BEGIN USB_MspDeInit 0 */
  93:Src/usbd_conf.c **** 
  94:Src/usbd_conf.c ****   /* USER CODE END USB_MspDeInit 0 */
  95:Src/usbd_conf.c ****     /* Peripheral clock disable */
  96:Src/usbd_conf.c ****     __HAL_RCC_USB_CLK_DISABLE();
  97:Src/usbd_conf.c **** 
  98:Src/usbd_conf.c ****     /* Peripheral interrupt Deinit*/
  99:Src/usbd_conf.c ****     HAL_NVIC_DisableIRQ(USB_LP_CAN1_RX0_IRQn);
 100:Src/usbd_conf.c **** 
 101:Src/usbd_conf.c ****   /* USER CODE BEGIN USB_MspDeInit 1 */
 102:Src/usbd_conf.c **** 
 103:Src/usbd_conf.c ****   /* USER CODE END USB_MspDeInit 1 */
 104:Src/usbd_conf.c ****   }
 105:Src/usbd_conf.c **** }
 106:Src/usbd_conf.c **** 
 107:Src/usbd_conf.c **** /**
 108:Src/usbd_conf.c ****   * @brief  Setup stage callback
 109:Src/usbd_conf.c ****   * @param  hpcd: PCD handle
 110:Src/usbd_conf.c ****   * @retval None
 111:Src/usbd_conf.c ****   */
 112:Src/usbd_conf.c **** #if (USE_HAL_PCD_REGISTER_CALLBACKS == 1U)
 113:Src/usbd_conf.c **** static void PCD_SetupStageCallback(PCD_HandleTypeDef *hpcd)
 114:Src/usbd_conf.c **** #else
 115:Src/usbd_conf.c **** void HAL_PCD_SetupStageCallback(PCD_HandleTypeDef *hpcd)
 116:Src/usbd_conf.c **** #endif /* USE_HAL_PCD_REGISTER_CALLBACKS */
 117:Src/usbd_conf.c **** {
 118:Src/usbd_conf.c ****   USBD_LL_SetupStage((USBD_HandleTypeDef*)hpcd->pData, (uint8_t *)hpcd->Setup);
 119:Src/usbd_conf.c **** }
 120:Src/usbd_conf.c **** 
 121:Src/usbd_conf.c **** /**
 122:Src/usbd_conf.c ****   * @brief  Data Out stage callback.
 123:Src/usbd_conf.c ****   * @param  hpcd: PCD handle
 124:Src/usbd_conf.c ****   * @param  epnum: Endpoint number
 125:Src/usbd_conf.c ****   * @retval None
 126:Src/usbd_conf.c ****   */
 127:Src/usbd_conf.c **** #if (USE_HAL_PCD_REGISTER_CALLBACKS == 1U)
 128:Src/usbd_conf.c **** static void PCD_DataOutStageCallback(PCD_HandleTypeDef *hpcd, uint8_t epnum)
 129:Src/usbd_conf.c **** #else
 130:Src/usbd_conf.c **** void HAL_PCD_DataOutStageCallback(PCD_HandleTypeDef *hpcd, uint8_t epnum)
 131:Src/usbd_conf.c **** #endif /* USE_HAL_PCD_REGISTER_CALLBACKS */
 132:Src/usbd_conf.c **** {
 133:Src/usbd_conf.c ****   USBD_LL_DataOutStage((USBD_HandleTypeDef*)hpcd->pData, epnum, hpcd->OUT_ep[epnum].xfer_buff);
 134:Src/usbd_conf.c **** }
 135:Src/usbd_conf.c **** 
 136:Src/usbd_conf.c **** /**
 137:Src/usbd_conf.c ****   * @brief  Data In stage callback.
 138:Src/usbd_conf.c ****   * @param  hpcd: PCD handle
 139:Src/usbd_conf.c ****   * @param  epnum: Endpoint number
 140:Src/usbd_conf.c ****   * @retval None
 141:Src/usbd_conf.c ****   */
 142:Src/usbd_conf.c **** #if (USE_HAL_PCD_REGISTER_CALLBACKS == 1U)
 143:Src/usbd_conf.c **** static void PCD_DataInStageCallback(PCD_HandleTypeDef *hpcd, uint8_t epnum)
 144:Src/usbd_conf.c **** #else
 145:Src/usbd_conf.c **** void HAL_PCD_DataInStageCallback(PCD_HandleTypeDef *hpcd, uint8_t epnum)
 146:Src/usbd_conf.c **** #endif /* USE_HAL_PCD_REGISTER_CALLBACKS */
ARM GAS  /tmp/ccdhtWWx.s 			page 4


 147:Src/usbd_conf.c **** {
 148:Src/usbd_conf.c ****   USBD_LL_DataInStage((USBD_HandleTypeDef*)hpcd->pData, epnum, hpcd->IN_ep[epnum].xfer_buff);
 149:Src/usbd_conf.c **** }
 150:Src/usbd_conf.c **** 
 151:Src/usbd_conf.c **** /**
 152:Src/usbd_conf.c ****   * @brief  SOF callback.
 153:Src/usbd_conf.c ****   * @param  hpcd: PCD handle
 154:Src/usbd_conf.c ****   * @retval None
 155:Src/usbd_conf.c ****   */
 156:Src/usbd_conf.c **** #if (USE_HAL_PCD_REGISTER_CALLBACKS == 1U)
 157:Src/usbd_conf.c **** static void PCD_SOFCallback(PCD_HandleTypeDef *hpcd)
 158:Src/usbd_conf.c **** #else
 159:Src/usbd_conf.c **** void HAL_PCD_SOFCallback(PCD_HandleTypeDef *hpcd)
 160:Src/usbd_conf.c **** #endif /* USE_HAL_PCD_REGISTER_CALLBACKS */
 161:Src/usbd_conf.c **** {
 162:Src/usbd_conf.c ****   USBD_LL_SOF((USBD_HandleTypeDef*)hpcd->pData);
 163:Src/usbd_conf.c **** }
 164:Src/usbd_conf.c **** 
 165:Src/usbd_conf.c **** /**
 166:Src/usbd_conf.c ****   * @brief  Reset callback.
 167:Src/usbd_conf.c ****   * @param  hpcd: PCD handle
 168:Src/usbd_conf.c ****   * @retval None
 169:Src/usbd_conf.c ****   */
 170:Src/usbd_conf.c **** #if (USE_HAL_PCD_REGISTER_CALLBACKS == 1U)
 171:Src/usbd_conf.c **** static void PCD_ResetCallback(PCD_HandleTypeDef *hpcd)
 172:Src/usbd_conf.c **** #else
 173:Src/usbd_conf.c **** void HAL_PCD_ResetCallback(PCD_HandleTypeDef *hpcd)
 174:Src/usbd_conf.c **** #endif /* USE_HAL_PCD_REGISTER_CALLBACKS */
 175:Src/usbd_conf.c **** {
 176:Src/usbd_conf.c ****   USBD_SpeedTypeDef speed = USBD_SPEED_FULL;
 177:Src/usbd_conf.c **** 
 178:Src/usbd_conf.c ****   if ( hpcd->Init.speed != PCD_SPEED_FULL)
 179:Src/usbd_conf.c ****   {
 180:Src/usbd_conf.c ****     Error_Handler();
 181:Src/usbd_conf.c ****   }
 182:Src/usbd_conf.c ****     /* Set Speed. */
 183:Src/usbd_conf.c ****   USBD_LL_SetSpeed((USBD_HandleTypeDef*)hpcd->pData, speed);
 184:Src/usbd_conf.c **** 
 185:Src/usbd_conf.c ****   /* Reset Device. */
 186:Src/usbd_conf.c ****   USBD_LL_Reset((USBD_HandleTypeDef*)hpcd->pData);
 187:Src/usbd_conf.c **** }
 188:Src/usbd_conf.c **** 
 189:Src/usbd_conf.c **** /**
 190:Src/usbd_conf.c ****   * @brief  Suspend callback.
 191:Src/usbd_conf.c ****   * When Low power mode is enabled the debug cannot be used (IAR, Keil doesn't support it)
 192:Src/usbd_conf.c ****   * @param  hpcd: PCD handle
 193:Src/usbd_conf.c ****   * @retval None
 194:Src/usbd_conf.c ****   */
 195:Src/usbd_conf.c **** #if (USE_HAL_PCD_REGISTER_CALLBACKS == 1U)
 196:Src/usbd_conf.c **** static void PCD_SuspendCallback(PCD_HandleTypeDef *hpcd)
 197:Src/usbd_conf.c **** #else
 198:Src/usbd_conf.c **** void HAL_PCD_SuspendCallback(PCD_HandleTypeDef *hpcd)
 199:Src/usbd_conf.c **** #endif /* USE_HAL_PCD_REGISTER_CALLBACKS */
 200:Src/usbd_conf.c **** {
 201:Src/usbd_conf.c ****   /* Inform USB library that core enters in suspend Mode. */
 202:Src/usbd_conf.c ****   USBD_LL_Suspend((USBD_HandleTypeDef*)hpcd->pData);
 203:Src/usbd_conf.c ****   /* Enter in STOP mode. */
ARM GAS  /tmp/ccdhtWWx.s 			page 5


 204:Src/usbd_conf.c ****   /* USER CODE BEGIN 2 */
 205:Src/usbd_conf.c ****   if (hpcd->Init.low_power_enable)
 206:Src/usbd_conf.c ****   {
 207:Src/usbd_conf.c ****     /* Set SLEEPDEEP bit and SleepOnExit of Cortex System Control Register. */
 208:Src/usbd_conf.c ****     SCB->SCR |= (uint32_t)((uint32_t)(SCB_SCR_SLEEPDEEP_Msk | SCB_SCR_SLEEPONEXIT_Msk));
 209:Src/usbd_conf.c ****   }
 210:Src/usbd_conf.c ****   /* USER CODE END 2 */
 211:Src/usbd_conf.c **** }
 212:Src/usbd_conf.c **** 
 213:Src/usbd_conf.c **** /**
 214:Src/usbd_conf.c ****   * @brief  Resume callback.
 215:Src/usbd_conf.c ****   * When Low power mode is enabled the debug cannot be used (IAR, Keil doesn't support it)
 216:Src/usbd_conf.c ****   * @param  hpcd: PCD handle
 217:Src/usbd_conf.c ****   * @retval None
 218:Src/usbd_conf.c ****   */
 219:Src/usbd_conf.c **** #if (USE_HAL_PCD_REGISTER_CALLBACKS == 1U)
 220:Src/usbd_conf.c **** static void PCD_ResumeCallback(PCD_HandleTypeDef *hpcd)
 221:Src/usbd_conf.c **** #else
 222:Src/usbd_conf.c **** void HAL_PCD_ResumeCallback(PCD_HandleTypeDef *hpcd)
 223:Src/usbd_conf.c **** #endif /* USE_HAL_PCD_REGISTER_CALLBACKS */
 224:Src/usbd_conf.c **** {
 225:Src/usbd_conf.c ****   /* USER CODE BEGIN 3 */
 226:Src/usbd_conf.c **** 
 227:Src/usbd_conf.c ****   /* USER CODE END 3 */
 228:Src/usbd_conf.c ****   USBD_LL_Resume((USBD_HandleTypeDef*)hpcd->pData);
 229:Src/usbd_conf.c **** }
 230:Src/usbd_conf.c **** 
 231:Src/usbd_conf.c **** /**
 232:Src/usbd_conf.c ****   * @brief  ISOOUTIncomplete callback.
 233:Src/usbd_conf.c ****   * @param  hpcd: PCD handle
 234:Src/usbd_conf.c ****   * @param  epnum: Endpoint number
 235:Src/usbd_conf.c ****   * @retval None
 236:Src/usbd_conf.c ****   */
 237:Src/usbd_conf.c **** #if (USE_HAL_PCD_REGISTER_CALLBACKS == 1U)
 238:Src/usbd_conf.c **** static void PCD_ISOOUTIncompleteCallback(PCD_HandleTypeDef *hpcd, uint8_t epnum)
 239:Src/usbd_conf.c **** #else
 240:Src/usbd_conf.c **** void HAL_PCD_ISOOUTIncompleteCallback(PCD_HandleTypeDef *hpcd, uint8_t epnum)
 241:Src/usbd_conf.c **** #endif /* USE_HAL_PCD_REGISTER_CALLBACKS */
 242:Src/usbd_conf.c **** {
 243:Src/usbd_conf.c ****   USBD_LL_IsoOUTIncomplete((USBD_HandleTypeDef*)hpcd->pData, epnum);
 244:Src/usbd_conf.c **** }
 245:Src/usbd_conf.c **** 
 246:Src/usbd_conf.c **** /**
 247:Src/usbd_conf.c ****   * @brief  ISOINIncomplete callback.
 248:Src/usbd_conf.c ****   * @param  hpcd: PCD handle
 249:Src/usbd_conf.c ****   * @param  epnum: Endpoint number
 250:Src/usbd_conf.c ****   * @retval None
 251:Src/usbd_conf.c ****   */
 252:Src/usbd_conf.c **** #if (USE_HAL_PCD_REGISTER_CALLBACKS == 1U)
 253:Src/usbd_conf.c **** static void PCD_ISOINIncompleteCallback(PCD_HandleTypeDef *hpcd, uint8_t epnum)
 254:Src/usbd_conf.c **** #else
 255:Src/usbd_conf.c **** void HAL_PCD_ISOINIncompleteCallback(PCD_HandleTypeDef *hpcd, uint8_t epnum)
 256:Src/usbd_conf.c **** #endif /* USE_HAL_PCD_REGISTER_CALLBACKS */
 257:Src/usbd_conf.c **** {
 258:Src/usbd_conf.c ****   USBD_LL_IsoINIncomplete((USBD_HandleTypeDef*)hpcd->pData, epnum);
 259:Src/usbd_conf.c **** }
 260:Src/usbd_conf.c **** 
ARM GAS  /tmp/ccdhtWWx.s 			page 6


 261:Src/usbd_conf.c **** /**
 262:Src/usbd_conf.c ****   * @brief  Connect callback.
 263:Src/usbd_conf.c ****   * @param  hpcd: PCD handle
 264:Src/usbd_conf.c ****   * @retval None
 265:Src/usbd_conf.c ****   */
 266:Src/usbd_conf.c **** #if (USE_HAL_PCD_REGISTER_CALLBACKS == 1U)
 267:Src/usbd_conf.c **** static void PCD_ConnectCallback(PCD_HandleTypeDef *hpcd)
 268:Src/usbd_conf.c **** #else
 269:Src/usbd_conf.c **** void HAL_PCD_ConnectCallback(PCD_HandleTypeDef *hpcd)
 270:Src/usbd_conf.c **** #endif /* USE_HAL_PCD_REGISTER_CALLBACKS */
 271:Src/usbd_conf.c **** {
 272:Src/usbd_conf.c ****   USBD_LL_DevConnected((USBD_HandleTypeDef*)hpcd->pData);
 273:Src/usbd_conf.c **** }
 274:Src/usbd_conf.c **** 
 275:Src/usbd_conf.c **** /**
 276:Src/usbd_conf.c ****   * @brief  Disconnect callback.
 277:Src/usbd_conf.c ****   * @param  hpcd: PCD handle
 278:Src/usbd_conf.c ****   * @retval None
 279:Src/usbd_conf.c ****   */
 280:Src/usbd_conf.c **** #if (USE_HAL_PCD_REGISTER_CALLBACKS == 1U)
 281:Src/usbd_conf.c **** static void PCD_DisconnectCallback(PCD_HandleTypeDef *hpcd)
 282:Src/usbd_conf.c **** #else
 283:Src/usbd_conf.c **** void HAL_PCD_DisconnectCallback(PCD_HandleTypeDef *hpcd)
 284:Src/usbd_conf.c **** #endif /* USE_HAL_PCD_REGISTER_CALLBACKS */
 285:Src/usbd_conf.c **** {
 286:Src/usbd_conf.c ****   USBD_LL_DevDisconnected((USBD_HandleTypeDef*)hpcd->pData);
 287:Src/usbd_conf.c **** }
 288:Src/usbd_conf.c **** 
 289:Src/usbd_conf.c **** /*******************************************************************************
 290:Src/usbd_conf.c ****                        LL Driver Interface (USB Device Library --> PCD)
 291:Src/usbd_conf.c **** *******************************************************************************/
 292:Src/usbd_conf.c **** 
 293:Src/usbd_conf.c **** /**
 294:Src/usbd_conf.c ****   * @brief  Initializes the low level portion of the device driver.
 295:Src/usbd_conf.c ****   * @param  pdev: Device handle
 296:Src/usbd_conf.c ****   * @retval USBD status
 297:Src/usbd_conf.c ****   */
 298:Src/usbd_conf.c **** USBD_StatusTypeDef USBD_LL_Init(USBD_HandleTypeDef *pdev)
 299:Src/usbd_conf.c **** {
 300:Src/usbd_conf.c ****   /* Init USB Ip. */
 301:Src/usbd_conf.c ****   /* Link the driver to the stack. */
 302:Src/usbd_conf.c ****   hpcd_USB_FS.pData = pdev;
 303:Src/usbd_conf.c ****   pdev->pData = &hpcd_USB_FS;
 304:Src/usbd_conf.c **** 
 305:Src/usbd_conf.c ****   hpcd_USB_FS.Instance = USB;
 306:Src/usbd_conf.c ****   hpcd_USB_FS.Init.dev_endpoints = 8;
 307:Src/usbd_conf.c ****   hpcd_USB_FS.Init.speed = PCD_SPEED_FULL;
 308:Src/usbd_conf.c ****   hpcd_USB_FS.Init.low_power_enable = DISABLE;
 309:Src/usbd_conf.c ****   hpcd_USB_FS.Init.lpm_enable = DISABLE;
 310:Src/usbd_conf.c ****   hpcd_USB_FS.Init.battery_charging_enable = DISABLE;
 311:Src/usbd_conf.c ****   if (HAL_PCD_Init(&hpcd_USB_FS) != HAL_OK)
 312:Src/usbd_conf.c ****   {
 313:Src/usbd_conf.c ****     Error_Handler( );
 314:Src/usbd_conf.c ****   }
 315:Src/usbd_conf.c **** 
 316:Src/usbd_conf.c **** #if (USE_HAL_PCD_REGISTER_CALLBACKS == 1U)
 317:Src/usbd_conf.c ****   /* Register USB PCD CallBacks */
ARM GAS  /tmp/ccdhtWWx.s 			page 7


 318:Src/usbd_conf.c ****   HAL_PCD_RegisterCallback(&hpcd_USB_FS, HAL_PCD_SOF_CB_ID, PCD_SOFCallback);
 319:Src/usbd_conf.c ****   HAL_PCD_RegisterCallback(&hpcd_USB_FS, HAL_PCD_SETUPSTAGE_CB_ID, PCD_SetupStageCallback);
 320:Src/usbd_conf.c ****   HAL_PCD_RegisterCallback(&hpcd_USB_FS, HAL_PCD_RESET_CB_ID, PCD_ResetCallback);
 321:Src/usbd_conf.c ****   HAL_PCD_RegisterCallback(&hpcd_USB_FS, HAL_PCD_SUSPEND_CB_ID, PCD_SuspendCallback);
 322:Src/usbd_conf.c ****   HAL_PCD_RegisterCallback(&hpcd_USB_FS, HAL_PCD_RESUME_CB_ID, PCD_ResumeCallback);
 323:Src/usbd_conf.c ****   HAL_PCD_RegisterCallback(&hpcd_USB_FS, HAL_PCD_CONNECT_CB_ID, PCD_ConnectCallback);
 324:Src/usbd_conf.c ****   HAL_PCD_RegisterCallback(&hpcd_USB_FS, HAL_PCD_DISCONNECT_CB_ID, PCD_DisconnectCallback);
 325:Src/usbd_conf.c **** 
 326:Src/usbd_conf.c ****   HAL_PCD_RegisterDataOutStageCallback(&hpcd_USB_FS, PCD_DataOutStageCallback);
 327:Src/usbd_conf.c ****   HAL_PCD_RegisterDataInStageCallback(&hpcd_USB_FS, PCD_DataInStageCallback);
 328:Src/usbd_conf.c ****   HAL_PCD_RegisterIsoOutIncpltCallback(&hpcd_USB_FS, PCD_ISOOUTIncompleteCallback);
 329:Src/usbd_conf.c ****   HAL_PCD_RegisterIsoInIncpltCallback(&hpcd_USB_FS, PCD_ISOINIncompleteCallback);
 330:Src/usbd_conf.c **** #endif /* USE_HAL_PCD_REGISTER_CALLBACKS */
 331:Src/usbd_conf.c ****   /* USER CODE BEGIN EndPoint_Configuration */
 332:Src/usbd_conf.c ****   HAL_PCDEx_PMAConfig((PCD_HandleTypeDef*)pdev->pData , 0x00 , PCD_SNG_BUF, 0x18);
 333:Src/usbd_conf.c ****   HAL_PCDEx_PMAConfig((PCD_HandleTypeDef*)pdev->pData , 0x80 , PCD_SNG_BUF, 0x58);
 334:Src/usbd_conf.c ****   /* USER CODE END EndPoint_Configuration */
 335:Src/usbd_conf.c ****   /* USER CODE BEGIN EndPoint_Configuration_CDC */
 336:Src/usbd_conf.c ****   HAL_PCDEx_PMAConfig((PCD_HandleTypeDef*)pdev->pData , 0x81 , PCD_SNG_BUF, 0xC0);
 337:Src/usbd_conf.c ****   HAL_PCDEx_PMAConfig((PCD_HandleTypeDef*)pdev->pData , 0x01 , PCD_SNG_BUF, 0x110);
 338:Src/usbd_conf.c ****   HAL_PCDEx_PMAConfig((PCD_HandleTypeDef*)pdev->pData , 0x82 , PCD_SNG_BUF, 0x100);
 339:Src/usbd_conf.c ****   /* USER CODE END EndPoint_Configuration_CDC */
 340:Src/usbd_conf.c ****   return USBD_OK;
 341:Src/usbd_conf.c **** }
 342:Src/usbd_conf.c **** 
 343:Src/usbd_conf.c **** /**
 344:Src/usbd_conf.c ****   * @brief  De-Initializes the low level portion of the device driver.
 345:Src/usbd_conf.c ****   * @param  pdev: Device handle
 346:Src/usbd_conf.c ****   * @retval USBD status
 347:Src/usbd_conf.c ****   */
 348:Src/usbd_conf.c **** USBD_StatusTypeDef USBD_LL_DeInit(USBD_HandleTypeDef *pdev)
 349:Src/usbd_conf.c **** {
 350:Src/usbd_conf.c ****   HAL_StatusTypeDef hal_status = HAL_OK;
 351:Src/usbd_conf.c ****   USBD_StatusTypeDef usb_status = USBD_OK;
 352:Src/usbd_conf.c **** 
 353:Src/usbd_conf.c ****   hal_status = HAL_PCD_DeInit(pdev->pData);
 354:Src/usbd_conf.c **** 
 355:Src/usbd_conf.c ****   usb_status =  USBD_Get_USB_Status(hal_status);
 356:Src/usbd_conf.c **** 
 357:Src/usbd_conf.c ****   return usb_status;
 358:Src/usbd_conf.c **** }
 359:Src/usbd_conf.c **** 
 360:Src/usbd_conf.c **** /**
 361:Src/usbd_conf.c ****   * @brief  Starts the low level portion of the device driver.
 362:Src/usbd_conf.c ****   * @param  pdev: Device handle
 363:Src/usbd_conf.c ****   * @retval USBD status
 364:Src/usbd_conf.c ****   */
 365:Src/usbd_conf.c **** USBD_StatusTypeDef USBD_LL_Start(USBD_HandleTypeDef *pdev)
 366:Src/usbd_conf.c **** {
 367:Src/usbd_conf.c ****   HAL_StatusTypeDef hal_status = HAL_OK;
 368:Src/usbd_conf.c ****   USBD_StatusTypeDef usb_status = USBD_OK;
 369:Src/usbd_conf.c **** 
 370:Src/usbd_conf.c ****   hal_status = HAL_PCD_Start(pdev->pData);
 371:Src/usbd_conf.c **** 
 372:Src/usbd_conf.c ****   usb_status =  USBD_Get_USB_Status(hal_status);
 373:Src/usbd_conf.c **** 
 374:Src/usbd_conf.c ****   return usb_status;
ARM GAS  /tmp/ccdhtWWx.s 			page 8


 375:Src/usbd_conf.c **** }
 376:Src/usbd_conf.c **** 
 377:Src/usbd_conf.c **** /**
 378:Src/usbd_conf.c ****   * @brief  Stops the low level portion of the device driver.
 379:Src/usbd_conf.c ****   * @param  pdev: Device handle
 380:Src/usbd_conf.c ****   * @retval USBD status
 381:Src/usbd_conf.c ****   */
 382:Src/usbd_conf.c **** USBD_StatusTypeDef USBD_LL_Stop(USBD_HandleTypeDef *pdev)
 383:Src/usbd_conf.c **** {
 384:Src/usbd_conf.c ****   HAL_StatusTypeDef hal_status = HAL_OK;
 385:Src/usbd_conf.c ****   USBD_StatusTypeDef usb_status = USBD_OK;
 386:Src/usbd_conf.c **** 
 387:Src/usbd_conf.c ****   hal_status = HAL_PCD_Stop(pdev->pData);
 388:Src/usbd_conf.c **** 
 389:Src/usbd_conf.c ****   usb_status =  USBD_Get_USB_Status(hal_status);
 390:Src/usbd_conf.c **** 
 391:Src/usbd_conf.c ****   return usb_status;
 392:Src/usbd_conf.c **** }
 393:Src/usbd_conf.c **** 
 394:Src/usbd_conf.c **** /**
 395:Src/usbd_conf.c ****   * @brief  Opens an endpoint of the low level driver.
 396:Src/usbd_conf.c ****   * @param  pdev: Device handle
 397:Src/usbd_conf.c ****   * @param  ep_addr: Endpoint number
 398:Src/usbd_conf.c ****   * @param  ep_type: Endpoint type
 399:Src/usbd_conf.c ****   * @param  ep_mps: Endpoint max packet size
 400:Src/usbd_conf.c ****   * @retval USBD status
 401:Src/usbd_conf.c ****   */
 402:Src/usbd_conf.c **** USBD_StatusTypeDef USBD_LL_OpenEP(USBD_HandleTypeDef *pdev, uint8_t ep_addr, uint8_t ep_type, uint1
 403:Src/usbd_conf.c **** {
 404:Src/usbd_conf.c ****   HAL_StatusTypeDef hal_status = HAL_OK;
 405:Src/usbd_conf.c ****   USBD_StatusTypeDef usb_status = USBD_OK;
 406:Src/usbd_conf.c **** 
 407:Src/usbd_conf.c ****   hal_status = HAL_PCD_EP_Open(pdev->pData, ep_addr, ep_mps, ep_type);
 408:Src/usbd_conf.c **** 
 409:Src/usbd_conf.c ****   usb_status =  USBD_Get_USB_Status(hal_status);
 410:Src/usbd_conf.c **** 
 411:Src/usbd_conf.c ****   return usb_status;
 412:Src/usbd_conf.c **** }
 413:Src/usbd_conf.c **** 
 414:Src/usbd_conf.c **** /**
 415:Src/usbd_conf.c ****   * @brief  Closes an endpoint of the low level driver.
 416:Src/usbd_conf.c ****   * @param  pdev: Device handle
 417:Src/usbd_conf.c ****   * @param  ep_addr: Endpoint number
 418:Src/usbd_conf.c ****   * @retval USBD status
 419:Src/usbd_conf.c ****   */
 420:Src/usbd_conf.c **** USBD_StatusTypeDef USBD_LL_CloseEP(USBD_HandleTypeDef *pdev, uint8_t ep_addr)
 421:Src/usbd_conf.c **** {
 422:Src/usbd_conf.c ****   HAL_StatusTypeDef hal_status = HAL_OK;
 423:Src/usbd_conf.c ****   USBD_StatusTypeDef usb_status = USBD_OK;
 424:Src/usbd_conf.c **** 
 425:Src/usbd_conf.c ****   hal_status = HAL_PCD_EP_Close(pdev->pData, ep_addr);
 426:Src/usbd_conf.c **** 
 427:Src/usbd_conf.c ****   usb_status =  USBD_Get_USB_Status(hal_status);
 428:Src/usbd_conf.c **** 
 429:Src/usbd_conf.c ****   return usb_status;
 430:Src/usbd_conf.c **** }
 431:Src/usbd_conf.c **** 
ARM GAS  /tmp/ccdhtWWx.s 			page 9


 432:Src/usbd_conf.c **** /**
 433:Src/usbd_conf.c ****   * @brief  Flushes an endpoint of the Low Level Driver.
 434:Src/usbd_conf.c ****   * @param  pdev: Device handle
 435:Src/usbd_conf.c ****   * @param  ep_addr: Endpoint number
 436:Src/usbd_conf.c ****   * @retval USBD status
 437:Src/usbd_conf.c ****   */
 438:Src/usbd_conf.c **** USBD_StatusTypeDef USBD_LL_FlushEP(USBD_HandleTypeDef *pdev, uint8_t ep_addr)
 439:Src/usbd_conf.c **** {
 440:Src/usbd_conf.c ****   HAL_StatusTypeDef hal_status = HAL_OK;
 441:Src/usbd_conf.c ****   USBD_StatusTypeDef usb_status = USBD_OK;
 442:Src/usbd_conf.c **** 
 443:Src/usbd_conf.c ****   hal_status = HAL_PCD_EP_Flush(pdev->pData, ep_addr);
 444:Src/usbd_conf.c **** 
 445:Src/usbd_conf.c ****   usb_status =  USBD_Get_USB_Status(hal_status);
 446:Src/usbd_conf.c **** 
 447:Src/usbd_conf.c ****   return usb_status;
 448:Src/usbd_conf.c **** }
 449:Src/usbd_conf.c **** 
 450:Src/usbd_conf.c **** /**
 451:Src/usbd_conf.c ****   * @brief  Sets a Stall condition on an endpoint of the Low Level Driver.
 452:Src/usbd_conf.c ****   * @param  pdev: Device handle
 453:Src/usbd_conf.c ****   * @param  ep_addr: Endpoint number
 454:Src/usbd_conf.c ****   * @retval USBD status
 455:Src/usbd_conf.c ****   */
 456:Src/usbd_conf.c **** USBD_StatusTypeDef USBD_LL_StallEP(USBD_HandleTypeDef *pdev, uint8_t ep_addr)
 457:Src/usbd_conf.c **** {
 458:Src/usbd_conf.c ****   HAL_StatusTypeDef hal_status = HAL_OK;
 459:Src/usbd_conf.c ****   USBD_StatusTypeDef usb_status = USBD_OK;
 460:Src/usbd_conf.c **** 
 461:Src/usbd_conf.c ****   hal_status = HAL_PCD_EP_SetStall(pdev->pData, ep_addr);
 462:Src/usbd_conf.c **** 
 463:Src/usbd_conf.c ****   usb_status =  USBD_Get_USB_Status(hal_status);
 464:Src/usbd_conf.c **** 
 465:Src/usbd_conf.c ****   return usb_status;
 466:Src/usbd_conf.c **** }
 467:Src/usbd_conf.c **** 
 468:Src/usbd_conf.c **** /**
 469:Src/usbd_conf.c ****   * @brief  Clears a Stall condition on an endpoint of the Low Level Driver.
 470:Src/usbd_conf.c ****   * @param  pdev: Device handle
 471:Src/usbd_conf.c ****   * @param  ep_addr: Endpoint number
 472:Src/usbd_conf.c ****   * @retval USBD status
 473:Src/usbd_conf.c ****   */
 474:Src/usbd_conf.c **** USBD_StatusTypeDef USBD_LL_ClearStallEP(USBD_HandleTypeDef *pdev, uint8_t ep_addr)
 475:Src/usbd_conf.c **** {
 476:Src/usbd_conf.c ****   HAL_StatusTypeDef hal_status = HAL_OK;
 477:Src/usbd_conf.c ****   USBD_StatusTypeDef usb_status = USBD_OK;
 478:Src/usbd_conf.c **** 
 479:Src/usbd_conf.c ****   hal_status = HAL_PCD_EP_ClrStall(pdev->pData, ep_addr);
 480:Src/usbd_conf.c **** 
 481:Src/usbd_conf.c ****   usb_status =  USBD_Get_USB_Status(hal_status);
 482:Src/usbd_conf.c **** 
 483:Src/usbd_conf.c ****   return usb_status;
 484:Src/usbd_conf.c **** }
 485:Src/usbd_conf.c **** 
 486:Src/usbd_conf.c **** /**
 487:Src/usbd_conf.c ****   * @brief  Returns Stall condition.
 488:Src/usbd_conf.c ****   * @param  pdev: Device handle
ARM GAS  /tmp/ccdhtWWx.s 			page 10


 489:Src/usbd_conf.c ****   * @param  ep_addr: Endpoint number
 490:Src/usbd_conf.c ****   * @retval Stall (1: Yes, 0: No)
 491:Src/usbd_conf.c ****   */
 492:Src/usbd_conf.c **** uint8_t USBD_LL_IsStallEP(USBD_HandleTypeDef *pdev, uint8_t ep_addr)
 493:Src/usbd_conf.c **** {
 494:Src/usbd_conf.c ****   PCD_HandleTypeDef *hpcd = (PCD_HandleTypeDef*) pdev->pData;
 495:Src/usbd_conf.c **** 
 496:Src/usbd_conf.c ****   if((ep_addr & 0x80) == 0x80)
 497:Src/usbd_conf.c ****   {
 498:Src/usbd_conf.c ****     return hpcd->IN_ep[ep_addr & 0x7F].is_stall;
 499:Src/usbd_conf.c ****   }
 500:Src/usbd_conf.c ****   else
 501:Src/usbd_conf.c ****   {
 502:Src/usbd_conf.c ****     return hpcd->OUT_ep[ep_addr & 0x7F].is_stall;
 503:Src/usbd_conf.c ****   }
 504:Src/usbd_conf.c **** }
 505:Src/usbd_conf.c **** 
 506:Src/usbd_conf.c **** /**
 507:Src/usbd_conf.c ****   * @brief  Assigns a USB address to the device.
 508:Src/usbd_conf.c ****   * @param  pdev: Device handle
 509:Src/usbd_conf.c ****   * @param  dev_addr: Device address
 510:Src/usbd_conf.c ****   * @retval USBD status
 511:Src/usbd_conf.c ****   */
 512:Src/usbd_conf.c **** USBD_StatusTypeDef USBD_LL_SetUSBAddress(USBD_HandleTypeDef *pdev, uint8_t dev_addr)
 513:Src/usbd_conf.c **** {
 514:Src/usbd_conf.c ****   HAL_StatusTypeDef hal_status = HAL_OK;
 515:Src/usbd_conf.c ****   USBD_StatusTypeDef usb_status = USBD_OK;
 516:Src/usbd_conf.c **** 
 517:Src/usbd_conf.c ****   hal_status = HAL_PCD_SetAddress(pdev->pData, dev_addr);
 518:Src/usbd_conf.c **** 
 519:Src/usbd_conf.c ****   usb_status =  USBD_Get_USB_Status(hal_status);
 520:Src/usbd_conf.c **** 
 521:Src/usbd_conf.c ****   return usb_status;
 522:Src/usbd_conf.c **** }
 523:Src/usbd_conf.c **** 
 524:Src/usbd_conf.c **** /**
 525:Src/usbd_conf.c ****   * @brief  Transmits data over an endpoint.
 526:Src/usbd_conf.c ****   * @param  pdev: Device handle
 527:Src/usbd_conf.c ****   * @param  ep_addr: Endpoint number
 528:Src/usbd_conf.c ****   * @param  pbuf: Pointer to data to be sent
 529:Src/usbd_conf.c ****   * @param  size: Data size
 530:Src/usbd_conf.c ****   * @retval USBD status
 531:Src/usbd_conf.c ****   */
 532:Src/usbd_conf.c **** USBD_StatusTypeDef USBD_LL_Transmit(USBD_HandleTypeDef *pdev, uint8_t ep_addr, uint8_t *pbuf, uint1
 533:Src/usbd_conf.c **** {
 534:Src/usbd_conf.c ****   HAL_StatusTypeDef hal_status = HAL_OK;
 535:Src/usbd_conf.c ****   USBD_StatusTypeDef usb_status = USBD_OK;
 536:Src/usbd_conf.c **** 
 537:Src/usbd_conf.c ****   hal_status = HAL_PCD_EP_Transmit(pdev->pData, ep_addr, pbuf, size);
 538:Src/usbd_conf.c **** 
 539:Src/usbd_conf.c ****   usb_status =  USBD_Get_USB_Status(hal_status);
 540:Src/usbd_conf.c **** 
 541:Src/usbd_conf.c ****   return usb_status;
 542:Src/usbd_conf.c **** }
 543:Src/usbd_conf.c **** 
 544:Src/usbd_conf.c **** /**
 545:Src/usbd_conf.c ****   * @brief  Prepares an endpoint for reception.
ARM GAS  /tmp/ccdhtWWx.s 			page 11


 546:Src/usbd_conf.c ****   * @param  pdev: Device handle
 547:Src/usbd_conf.c ****   * @param  ep_addr: Endpoint number
 548:Src/usbd_conf.c ****   * @param  pbuf: Pointer to data to be received
 549:Src/usbd_conf.c ****   * @param  size: Data size
 550:Src/usbd_conf.c ****   * @retval USBD status
 551:Src/usbd_conf.c ****   */
 552:Src/usbd_conf.c **** USBD_StatusTypeDef USBD_LL_PrepareReceive(USBD_HandleTypeDef *pdev, uint8_t ep_addr, uint8_t *pbuf,
 553:Src/usbd_conf.c **** {
 554:Src/usbd_conf.c ****   HAL_StatusTypeDef hal_status = HAL_OK;
 555:Src/usbd_conf.c ****   USBD_StatusTypeDef usb_status = USBD_OK;
 556:Src/usbd_conf.c **** 
 557:Src/usbd_conf.c ****   hal_status = HAL_PCD_EP_Receive(pdev->pData, ep_addr, pbuf, size);
 558:Src/usbd_conf.c **** 
 559:Src/usbd_conf.c ****   usb_status =  USBD_Get_USB_Status(hal_status);
 560:Src/usbd_conf.c **** 
 561:Src/usbd_conf.c ****   return usb_status;
 562:Src/usbd_conf.c **** }
 563:Src/usbd_conf.c **** 
 564:Src/usbd_conf.c **** /**
 565:Src/usbd_conf.c ****   * @brief  Returns the last transferred packet size.
 566:Src/usbd_conf.c ****   * @param  pdev: Device handle
 567:Src/usbd_conf.c ****   * @param  ep_addr: Endpoint number
 568:Src/usbd_conf.c ****   * @retval Received Data Size
 569:Src/usbd_conf.c ****   */
 570:Src/usbd_conf.c **** uint32_t USBD_LL_GetRxDataSize(USBD_HandleTypeDef *pdev, uint8_t ep_addr)
 571:Src/usbd_conf.c **** {
 572:Src/usbd_conf.c ****   return HAL_PCD_EP_GetRxCount((PCD_HandleTypeDef*) pdev->pData, ep_addr);
 573:Src/usbd_conf.c **** }
 574:Src/usbd_conf.c **** 
 575:Src/usbd_conf.c **** /**
 576:Src/usbd_conf.c ****   * @brief  Delays routine for the USB device library.
 577:Src/usbd_conf.c ****   * @param  Delay: Delay in ms
 578:Src/usbd_conf.c ****   * @retval None
 579:Src/usbd_conf.c ****   */
 580:Src/usbd_conf.c **** void USBD_LL_Delay(uint32_t Delay)
 581:Src/usbd_conf.c **** {
 582:Src/usbd_conf.c ****   HAL_Delay(Delay);
 583:Src/usbd_conf.c **** }
 584:Src/usbd_conf.c **** 
 585:Src/usbd_conf.c **** /**
 586:Src/usbd_conf.c ****   * @brief  Static single allocation.
 587:Src/usbd_conf.c ****   * @param  size: Size of allocated memory
 588:Src/usbd_conf.c ****   * @retval None
 589:Src/usbd_conf.c ****   */
 590:Src/usbd_conf.c **** void *USBD_static_malloc(uint32_t size)
 591:Src/usbd_conf.c **** {
 592:Src/usbd_conf.c ****   static uint32_t mem[(sizeof(USBD_CDC_HandleTypeDef)/4)+1];/* On 32-bit boundary */
 593:Src/usbd_conf.c ****   return mem;
 594:Src/usbd_conf.c **** }
 595:Src/usbd_conf.c **** 
 596:Src/usbd_conf.c **** /**
 597:Src/usbd_conf.c ****   * @brief  Dummy memory free
 598:Src/usbd_conf.c ****   * @param  p: Pointer to allocated  memory address
 599:Src/usbd_conf.c ****   * @retval None
 600:Src/usbd_conf.c ****   */
 601:Src/usbd_conf.c **** void USBD_static_free(void *p)
 602:Src/usbd_conf.c **** {
ARM GAS  /tmp/ccdhtWWx.s 			page 12


 603:Src/usbd_conf.c **** 
 604:Src/usbd_conf.c **** }
 605:Src/usbd_conf.c **** 
 606:Src/usbd_conf.c **** /**
 607:Src/usbd_conf.c ****   * @brief Software Device Connection
 608:Src/usbd_conf.c ****   * @param hpcd: PCD handle
 609:Src/usbd_conf.c ****   * @param state: Connection state (0: disconnected / 1: connected)
 610:Src/usbd_conf.c ****   * @retval None
 611:Src/usbd_conf.c ****   */
 612:Src/usbd_conf.c **** #if (USE_HAL_PCD_REGISTER_CALLBACKS == 1U)
 613:Src/usbd_conf.c **** static void PCDEx_SetConnectionState(PCD_HandleTypeDef *hpcd, uint8_t state)
 614:Src/usbd_conf.c **** #else
 615:Src/usbd_conf.c **** void HAL_PCDEx_SetConnectionState(PCD_HandleTypeDef *hpcd, uint8_t state)
 616:Src/usbd_conf.c **** #endif /* USE_HAL_PCD_REGISTER_CALLBACKS */
 617:Src/usbd_conf.c **** {
 618:Src/usbd_conf.c ****   /* USER CODE BEGIN 6 */
 619:Src/usbd_conf.c ****   if (state == 1)
 620:Src/usbd_conf.c ****   {
 621:Src/usbd_conf.c ****     /* Configure Low connection state. */
 622:Src/usbd_conf.c **** 
 623:Src/usbd_conf.c ****   }
 624:Src/usbd_conf.c ****   else
 625:Src/usbd_conf.c ****   {
 626:Src/usbd_conf.c ****     /* Configure High connection state. */
 627:Src/usbd_conf.c **** 
 628:Src/usbd_conf.c ****   }
 629:Src/usbd_conf.c ****   /* USER CODE END 6 */
 630:Src/usbd_conf.c **** }
 631:Src/usbd_conf.c **** 
 632:Src/usbd_conf.c **** /**
 633:Src/usbd_conf.c ****   * @brief  Returns the USB status depending on the HAL status:
 634:Src/usbd_conf.c ****   * @param  hal_status: HAL status
 635:Src/usbd_conf.c ****   * @retval USB status
 636:Src/usbd_conf.c ****   */
 637:Src/usbd_conf.c **** USBD_StatusTypeDef USBD_Get_USB_Status(HAL_StatusTypeDef hal_status)
 638:Src/usbd_conf.c **** {
  27              		.loc 1 638 1 view -0
  28              		.cfi_startproc
  29              		@ args = 0, pretend = 0, frame = 0
  30              		@ frame_needed = 0, uses_anonymous_args = 0
  31              		@ link register save eliminated.
 639:Src/usbd_conf.c ****   USBD_StatusTypeDef usb_status = USBD_OK;
  32              		.loc 1 639 3 view .LVU1
 640:Src/usbd_conf.c **** 
 641:Src/usbd_conf.c ****   switch (hal_status)
  33              		.loc 1 641 3 view .LVU2
  34 0000 0228     		cmp	r0, #2
  35 0002 05D8     		bhi	.L6
  36 0004 DFE800F0 		tbb	[pc, r0]
  37              	.L4:
  38 0008 05       		.byte	(.L2-.L4)/2
  39 0009 04       		.byte	(.L6-.L4)/2
  40 000a 02       		.byte	(.L3-.L4)/2
  41 000b 00       		.p2align 1
  42              	.L3:
 642:Src/usbd_conf.c ****   {
 643:Src/usbd_conf.c ****     case HAL_OK :
ARM GAS  /tmp/ccdhtWWx.s 			page 13


 644:Src/usbd_conf.c ****       usb_status = USBD_OK;
 645:Src/usbd_conf.c ****     break;
 646:Src/usbd_conf.c ****     case HAL_ERROR :
 647:Src/usbd_conf.c ****       usb_status = USBD_FAIL;
 648:Src/usbd_conf.c ****     break;
 649:Src/usbd_conf.c ****     case HAL_BUSY :
 650:Src/usbd_conf.c ****       usb_status = USBD_BUSY;
  43              		.loc 1 650 7 view .LVU3
  44              	.LVL1:
 651:Src/usbd_conf.c ****     break;
  45              		.loc 1 651 5 view .LVU4
 650:Src/usbd_conf.c ****     break;
  46              		.loc 1 650 18 is_stmt 0 view .LVU5
  47 000c 0120     		movs	r0, #1
  48              	.LVL2:
  49              		.loc 1 651 5 view .LVU6
  50 000e 7047     		bx	lr
  51              	.LVL3:
  52              	.L6:
 647:Src/usbd_conf.c ****     break;
  53              		.loc 1 647 18 view .LVU7
  54 0010 0220     		movs	r0, #2
  55              	.LVL4:
  56              	.L2:
 652:Src/usbd_conf.c ****     case HAL_TIMEOUT :
 653:Src/usbd_conf.c ****       usb_status = USBD_FAIL;
 654:Src/usbd_conf.c ****     break;
 655:Src/usbd_conf.c ****     default :
 656:Src/usbd_conf.c ****       usb_status = USBD_FAIL;
 657:Src/usbd_conf.c ****     break;
 658:Src/usbd_conf.c ****   }
 659:Src/usbd_conf.c ****   return usb_status;
  57              		.loc 1 659 3 is_stmt 1 view .LVU8
 660:Src/usbd_conf.c **** }
  58              		.loc 1 660 1 is_stmt 0 view .LVU9
  59 0012 7047     		bx	lr
  60              		.cfi_endproc
  61              	.LFE99:
  63              		.section	.text.HAL_PCD_MspInit,"ax",%progbits
  64              		.align	1
  65              		.global	HAL_PCD_MspInit
  66              		.syntax unified
  67              		.thumb
  68              		.thumb_func
  70              	HAL_PCD_MspInit:
  71              	.LVL5:
  72              	.LFB68:
  70:Src/usbd_conf.c ****   if(pcdHandle->Instance==USB)
  73              		.loc 1 70 1 is_stmt 1 view -0
  74              		.cfi_startproc
  75              		@ args = 0, pretend = 0, frame = 8
  76              		@ frame_needed = 0, uses_anonymous_args = 0
  71:Src/usbd_conf.c ****   {
  77              		.loc 1 71 3 view .LVU11
  71:Src/usbd_conf.c ****   {
  78              		.loc 1 71 15 is_stmt 0 view .LVU12
  79 0000 0268     		ldr	r2, [r0]
ARM GAS  /tmp/ccdhtWWx.s 			page 14


  71:Src/usbd_conf.c ****   {
  80              		.loc 1 71 5 view .LVU13
  81 0002 0E4B     		ldr	r3, .L14
  82 0004 9A42     		cmp	r2, r3
  83 0006 00D0     		beq	.L13
  84 0008 7047     		bx	lr
  85              	.L13:
  70:Src/usbd_conf.c ****   if(pcdHandle->Instance==USB)
  86              		.loc 1 70 1 view .LVU14
  87 000a 00B5     		push	{lr}
  88              		.cfi_def_cfa_offset 4
  89              		.cfi_offset 14, -4
  90 000c 83B0     		sub	sp, sp, #12
  91              		.cfi_def_cfa_offset 16
  77:Src/usbd_conf.c **** 
  92              		.loc 1 77 5 is_stmt 1 view .LVU15
  93              	.LBB2:
  77:Src/usbd_conf.c **** 
  94              		.loc 1 77 5 view .LVU16
  77:Src/usbd_conf.c **** 
  95              		.loc 1 77 5 view .LVU17
  96 000e 03F5DA33 		add	r3, r3, #111616
  97 0012 DA69     		ldr	r2, [r3, #28]
  98 0014 42F40002 		orr	r2, r2, #8388608
  99 0018 DA61     		str	r2, [r3, #28]
  77:Src/usbd_conf.c **** 
 100              		.loc 1 77 5 view .LVU18
 101 001a DB69     		ldr	r3, [r3, #28]
 102 001c 03F40003 		and	r3, r3, #8388608
 103 0020 0193     		str	r3, [sp, #4]
  77:Src/usbd_conf.c **** 
 104              		.loc 1 77 5 view .LVU19
 105 0022 019B     		ldr	r3, [sp, #4]
 106              	.LBE2:
  77:Src/usbd_conf.c **** 
 107              		.loc 1 77 5 view .LVU20
  80:Src/usbd_conf.c ****     HAL_NVIC_EnableIRQ(USB_LP_CAN1_RX0_IRQn);
 108              		.loc 1 80 5 view .LVU21
 109 0024 0022     		movs	r2, #0
 110 0026 1146     		mov	r1, r2
 111 0028 1420     		movs	r0, #20
 112              	.LVL6:
  80:Src/usbd_conf.c ****     HAL_NVIC_EnableIRQ(USB_LP_CAN1_RX0_IRQn);
 113              		.loc 1 80 5 is_stmt 0 view .LVU22
 114 002a FFF7FEFF 		bl	HAL_NVIC_SetPriority
 115              	.LVL7:
  81:Src/usbd_conf.c ****   /* USER CODE BEGIN USB_MspInit 1 */
 116              		.loc 1 81 5 is_stmt 1 view .LVU23
 117 002e 1420     		movs	r0, #20
 118 0030 FFF7FEFF 		bl	HAL_NVIC_EnableIRQ
 119              	.LVL8:
  86:Src/usbd_conf.c **** 
 120              		.loc 1 86 1 is_stmt 0 view .LVU24
 121 0034 03B0     		add	sp, sp, #12
 122              		.cfi_def_cfa_offset 4
 123              		@ sp needed
 124 0036 5DF804FB 		ldr	pc, [sp], #4
ARM GAS  /tmp/ccdhtWWx.s 			page 15


 125              	.L15:
 126 003a 00BF     		.align	2
 127              	.L14:
 128 003c 005C0040 		.word	1073765376
 129              		.cfi_endproc
 130              	.LFE68:
 132              		.section	.text.HAL_PCD_MspDeInit,"ax",%progbits
 133              		.align	1
 134              		.global	HAL_PCD_MspDeInit
 135              		.syntax unified
 136              		.thumb
 137              		.thumb_func
 139              	HAL_PCD_MspDeInit:
 140              	.LVL9:
 141              	.LFB69:
  89:Src/usbd_conf.c ****   if(pcdHandle->Instance==USB)
 142              		.loc 1 89 1 is_stmt 1 view -0
 143              		.cfi_startproc
 144              		@ args = 0, pretend = 0, frame = 0
 145              		@ frame_needed = 0, uses_anonymous_args = 0
  89:Src/usbd_conf.c ****   if(pcdHandle->Instance==USB)
 146              		.loc 1 89 1 is_stmt 0 view .LVU26
 147 0000 08B5     		push	{r3, lr}
 148              		.cfi_def_cfa_offset 8
 149              		.cfi_offset 3, -8
 150              		.cfi_offset 14, -4
  90:Src/usbd_conf.c ****   {
 151              		.loc 1 90 3 is_stmt 1 view .LVU27
  90:Src/usbd_conf.c ****   {
 152              		.loc 1 90 15 is_stmt 0 view .LVU28
 153 0002 0268     		ldr	r2, [r0]
  90:Src/usbd_conf.c ****   {
 154              		.loc 1 90 5 view .LVU29
 155 0004 064B     		ldr	r3, .L20
 156 0006 9A42     		cmp	r2, r3
 157 0008 00D0     		beq	.L19
 158              	.LVL10:
 159              	.L16:
 105:Src/usbd_conf.c **** 
 160              		.loc 1 105 1 view .LVU30
 161 000a 08BD     		pop	{r3, pc}
 162              	.LVL11:
 163              	.L19:
  96:Src/usbd_conf.c **** 
 164              		.loc 1 96 5 is_stmt 1 view .LVU31
 165 000c 054A     		ldr	r2, .L20+4
 166 000e D369     		ldr	r3, [r2, #28]
 167 0010 23F40003 		bic	r3, r3, #8388608
 168 0014 D361     		str	r3, [r2, #28]
  99:Src/usbd_conf.c **** 
 169              		.loc 1 99 5 view .LVU32
 170 0016 1420     		movs	r0, #20
 171              	.LVL12:
  99:Src/usbd_conf.c **** 
 172              		.loc 1 99 5 is_stmt 0 view .LVU33
 173 0018 FFF7FEFF 		bl	HAL_NVIC_DisableIRQ
 174              	.LVL13:
ARM GAS  /tmp/ccdhtWWx.s 			page 16


 105:Src/usbd_conf.c **** 
 175              		.loc 1 105 1 view .LVU34
 176 001c F5E7     		b	.L16
 177              	.L21:
 178 001e 00BF     		.align	2
 179              	.L20:
 180 0020 005C0040 		.word	1073765376
 181 0024 00100240 		.word	1073876992
 182              		.cfi_endproc
 183              	.LFE69:
 185              		.section	.text.HAL_PCD_SetupStageCallback,"ax",%progbits
 186              		.align	1
 187              		.global	HAL_PCD_SetupStageCallback
 188              		.syntax unified
 189              		.thumb
 190              		.thumb_func
 192              	HAL_PCD_SetupStageCallback:
 193              	.LVL14:
 194              	.LFB70:
 117:Src/usbd_conf.c ****   USBD_LL_SetupStage((USBD_HandleTypeDef*)hpcd->pData, (uint8_t *)hpcd->Setup);
 195              		.loc 1 117 1 is_stmt 1 view -0
 196              		.cfi_startproc
 197              		@ args = 0, pretend = 0, frame = 0
 198              		@ frame_needed = 0, uses_anonymous_args = 0
 117:Src/usbd_conf.c ****   USBD_LL_SetupStage((USBD_HandleTypeDef*)hpcd->pData, (uint8_t *)hpcd->Setup);
 199              		.loc 1 117 1 is_stmt 0 view .LVU36
 200 0000 08B5     		push	{r3, lr}
 201              		.cfi_def_cfa_offset 8
 202              		.cfi_offset 3, -8
 203              		.cfi_offset 14, -4
 118:Src/usbd_conf.c **** }
 204              		.loc 1 118 3 is_stmt 1 view .LVU37
 205 0002 00F52671 		add	r1, r0, #664
 206 0006 D0F8D402 		ldr	r0, [r0, #724]
 207              	.LVL15:
 118:Src/usbd_conf.c **** }
 208              		.loc 1 118 3 is_stmt 0 view .LVU38
 209 000a FFF7FEFF 		bl	USBD_LL_SetupStage
 210              	.LVL16:
 119:Src/usbd_conf.c **** 
 211              		.loc 1 119 1 view .LVU39
 212 000e 08BD     		pop	{r3, pc}
 213              		.cfi_endproc
 214              	.LFE70:
 216              		.section	.text.HAL_PCD_DataOutStageCallback,"ax",%progbits
 217              		.align	1
 218              		.global	HAL_PCD_DataOutStageCallback
 219              		.syntax unified
 220              		.thumb
 221              		.thumb_func
 223              	HAL_PCD_DataOutStageCallback:
 224              	.LVL17:
 225              	.LFB71:
 132:Src/usbd_conf.c ****   USBD_LL_DataOutStage((USBD_HandleTypeDef*)hpcd->pData, epnum, hpcd->OUT_ep[epnum].xfer_buff);
 226              		.loc 1 132 1 is_stmt 1 view -0
 227              		.cfi_startproc
 228              		@ args = 0, pretend = 0, frame = 0
ARM GAS  /tmp/ccdhtWWx.s 			page 17


 229              		@ frame_needed = 0, uses_anonymous_args = 0
 132:Src/usbd_conf.c ****   USBD_LL_DataOutStage((USBD_HandleTypeDef*)hpcd->pData, epnum, hpcd->OUT_ep[epnum].xfer_buff);
 230              		.loc 1 132 1 is_stmt 0 view .LVU41
 231 0000 08B5     		push	{r3, lr}
 232              		.cfi_def_cfa_offset 8
 233              		.cfi_offset 3, -8
 234              		.cfi_offset 14, -4
 133:Src/usbd_conf.c **** }
 235              		.loc 1 133 3 is_stmt 1 view .LVU42
 236 0002 01EB8103 		add	r3, r1, r1, lsl #2
 237 0006 00EBC303 		add	r3, r0, r3, lsl #3
 238 000a D3F86421 		ldr	r2, [r3, #356]
 239 000e D0F8D402 		ldr	r0, [r0, #724]
 240              	.LVL18:
 133:Src/usbd_conf.c **** }
 241              		.loc 1 133 3 is_stmt 0 view .LVU43
 242 0012 FFF7FEFF 		bl	USBD_LL_DataOutStage
 243              	.LVL19:
 134:Src/usbd_conf.c **** 
 244              		.loc 1 134 1 view .LVU44
 245 0016 08BD     		pop	{r3, pc}
 246              		.cfi_endproc
 247              	.LFE71:
 249              		.section	.text.HAL_PCD_DataInStageCallback,"ax",%progbits
 250              		.align	1
 251              		.global	HAL_PCD_DataInStageCallback
 252              		.syntax unified
 253              		.thumb
 254              		.thumb_func
 256              	HAL_PCD_DataInStageCallback:
 257              	.LVL20:
 258              	.LFB72:
 147:Src/usbd_conf.c ****   USBD_LL_DataInStage((USBD_HandleTypeDef*)hpcd->pData, epnum, hpcd->IN_ep[epnum].xfer_buff);
 259              		.loc 1 147 1 is_stmt 1 view -0
 260              		.cfi_startproc
 261              		@ args = 0, pretend = 0, frame = 0
 262              		@ frame_needed = 0, uses_anonymous_args = 0
 147:Src/usbd_conf.c ****   USBD_LL_DataInStage((USBD_HandleTypeDef*)hpcd->pData, epnum, hpcd->IN_ep[epnum].xfer_buff);
 263              		.loc 1 147 1 is_stmt 0 view .LVU46
 264 0000 08B5     		push	{r3, lr}
 265              		.cfi_def_cfa_offset 8
 266              		.cfi_offset 3, -8
 267              		.cfi_offset 14, -4
 148:Src/usbd_conf.c **** }
 268              		.loc 1 148 3 is_stmt 1 view .LVU47
 269 0002 01EB8103 		add	r3, r1, r1, lsl #2
 270 0006 00EBC303 		add	r3, r0, r3, lsl #3
 271 000a 5A6A     		ldr	r2, [r3, #36]
 272 000c D0F8D402 		ldr	r0, [r0, #724]
 273              	.LVL21:
 148:Src/usbd_conf.c **** }
 274              		.loc 1 148 3 is_stmt 0 view .LVU48
 275 0010 FFF7FEFF 		bl	USBD_LL_DataInStage
 276              	.LVL22:
 149:Src/usbd_conf.c **** 
 277              		.loc 1 149 1 view .LVU49
 278 0014 08BD     		pop	{r3, pc}
ARM GAS  /tmp/ccdhtWWx.s 			page 18


 279              		.cfi_endproc
 280              	.LFE72:
 282              		.section	.text.HAL_PCD_SOFCallback,"ax",%progbits
 283              		.align	1
 284              		.global	HAL_PCD_SOFCallback
 285              		.syntax unified
 286              		.thumb
 287              		.thumb_func
 289              	HAL_PCD_SOFCallback:
 290              	.LVL23:
 291              	.LFB73:
 161:Src/usbd_conf.c ****   USBD_LL_SOF((USBD_HandleTypeDef*)hpcd->pData);
 292              		.loc 1 161 1 is_stmt 1 view -0
 293              		.cfi_startproc
 294              		@ args = 0, pretend = 0, frame = 0
 295              		@ frame_needed = 0, uses_anonymous_args = 0
 161:Src/usbd_conf.c ****   USBD_LL_SOF((USBD_HandleTypeDef*)hpcd->pData);
 296              		.loc 1 161 1 is_stmt 0 view .LVU51
 297 0000 08B5     		push	{r3, lr}
 298              		.cfi_def_cfa_offset 8
 299              		.cfi_offset 3, -8
 300              		.cfi_offset 14, -4
 162:Src/usbd_conf.c **** }
 301              		.loc 1 162 3 is_stmt 1 view .LVU52
 302 0002 D0F8D402 		ldr	r0, [r0, #724]
 303              	.LVL24:
 162:Src/usbd_conf.c **** }
 304              		.loc 1 162 3 is_stmt 0 view .LVU53
 305 0006 FFF7FEFF 		bl	USBD_LL_SOF
 306              	.LVL25:
 163:Src/usbd_conf.c **** 
 307              		.loc 1 163 1 view .LVU54
 308 000a 08BD     		pop	{r3, pc}
 309              		.cfi_endproc
 310              	.LFE73:
 312              		.section	.text.HAL_PCD_ResetCallback,"ax",%progbits
 313              		.align	1
 314              		.global	HAL_PCD_ResetCallback
 315              		.syntax unified
 316              		.thumb
 317              		.thumb_func
 319              	HAL_PCD_ResetCallback:
 320              	.LVL26:
 321              	.LFB74:
 175:Src/usbd_conf.c ****   USBD_SpeedTypeDef speed = USBD_SPEED_FULL;
 322              		.loc 1 175 1 is_stmt 1 view -0
 323              		.cfi_startproc
 324              		@ args = 0, pretend = 0, frame = 0
 325              		@ frame_needed = 0, uses_anonymous_args = 0
 175:Src/usbd_conf.c ****   USBD_SpeedTypeDef speed = USBD_SPEED_FULL;
 326              		.loc 1 175 1 is_stmt 0 view .LVU56
 327 0000 10B5     		push	{r4, lr}
 328              		.cfi_def_cfa_offset 8
 329              		.cfi_offset 4, -8
 330              		.cfi_offset 14, -4
 331 0002 0446     		mov	r4, r0
 176:Src/usbd_conf.c **** 
ARM GAS  /tmp/ccdhtWWx.s 			page 19


 332              		.loc 1 176 3 is_stmt 1 view .LVU57
 333              	.LVL27:
 178:Src/usbd_conf.c ****   {
 334              		.loc 1 178 3 view .LVU58
 178:Src/usbd_conf.c ****   {
 335              		.loc 1 178 18 is_stmt 0 view .LVU59
 336 0004 8379     		ldrb	r3, [r0, #6]	@ zero_extendqisi2
 178:Src/usbd_conf.c ****   {
 337              		.loc 1 178 6 view .LVU60
 338 0006 022B     		cmp	r3, #2
 339 0008 09D1     		bne	.L33
 340              	.LVL28:
 341              	.L31:
 183:Src/usbd_conf.c **** 
 342              		.loc 1 183 3 is_stmt 1 view .LVU61
 343 000a 0121     		movs	r1, #1
 344 000c D4F8D402 		ldr	r0, [r4, #724]
 345 0010 FFF7FEFF 		bl	USBD_LL_SetSpeed
 346              	.LVL29:
 186:Src/usbd_conf.c **** }
 347              		.loc 1 186 3 view .LVU62
 348 0014 D4F8D402 		ldr	r0, [r4, #724]
 349 0018 FFF7FEFF 		bl	USBD_LL_Reset
 350              	.LVL30:
 187:Src/usbd_conf.c **** 
 351              		.loc 1 187 1 is_stmt 0 view .LVU63
 352 001c 10BD     		pop	{r4, pc}
 353              	.LVL31:
 354              	.L33:
 180:Src/usbd_conf.c ****   }
 355              		.loc 1 180 5 is_stmt 1 view .LVU64
 356 001e FFF7FEFF 		bl	Error_Handler
 357              	.LVL32:
 180:Src/usbd_conf.c ****   }
 358              		.loc 1 180 5 is_stmt 0 view .LVU65
 359 0022 F2E7     		b	.L31
 360              		.cfi_endproc
 361              	.LFE74:
 363              		.section	.text.HAL_PCD_SuspendCallback,"ax",%progbits
 364              		.align	1
 365              		.global	HAL_PCD_SuspendCallback
 366              		.syntax unified
 367              		.thumb
 368              		.thumb_func
 370              	HAL_PCD_SuspendCallback:
 371              	.LVL33:
 372              	.LFB75:
 200:Src/usbd_conf.c ****   /* Inform USB library that core enters in suspend Mode. */
 373              		.loc 1 200 1 is_stmt 1 view -0
 374              		.cfi_startproc
 375              		@ args = 0, pretend = 0, frame = 0
 376              		@ frame_needed = 0, uses_anonymous_args = 0
 200:Src/usbd_conf.c ****   /* Inform USB library that core enters in suspend Mode. */
 377              		.loc 1 200 1 is_stmt 0 view .LVU67
 378 0000 10B5     		push	{r4, lr}
 379              		.cfi_def_cfa_offset 8
 380              		.cfi_offset 4, -8
ARM GAS  /tmp/ccdhtWWx.s 			page 20


 381              		.cfi_offset 14, -4
 382 0002 0446     		mov	r4, r0
 202:Src/usbd_conf.c ****   /* Enter in STOP mode. */
 383              		.loc 1 202 3 is_stmt 1 view .LVU68
 384 0004 D0F8D402 		ldr	r0, [r0, #724]
 385              	.LVL34:
 202:Src/usbd_conf.c ****   /* Enter in STOP mode. */
 386              		.loc 1 202 3 is_stmt 0 view .LVU69
 387 0008 FFF7FEFF 		bl	USBD_LL_Suspend
 388              	.LVL35:
 205:Src/usbd_conf.c ****   {
 389              		.loc 1 205 3 is_stmt 1 view .LVU70
 205:Src/usbd_conf.c ****   {
 390              		.loc 1 205 17 is_stmt 0 view .LVU71
 391 000c A37A     		ldrb	r3, [r4, #10]	@ zero_extendqisi2
 205:Src/usbd_conf.c ****   {
 392              		.loc 1 205 6 view .LVU72
 393 000e 23B1     		cbz	r3, .L34
 208:Src/usbd_conf.c ****   }
 394              		.loc 1 208 5 is_stmt 1 view .LVU73
 208:Src/usbd_conf.c ****   }
 395              		.loc 1 208 8 is_stmt 0 view .LVU74
 396 0010 024A     		ldr	r2, .L37
 397 0012 1369     		ldr	r3, [r2, #16]
 208:Src/usbd_conf.c ****   }
 398              		.loc 1 208 14 view .LVU75
 399 0014 43F00603 		orr	r3, r3, #6
 400 0018 1361     		str	r3, [r2, #16]
 401              	.L34:
 211:Src/usbd_conf.c **** 
 402              		.loc 1 211 1 view .LVU76
 403 001a 10BD     		pop	{r4, pc}
 404              	.LVL36:
 405              	.L38:
 211:Src/usbd_conf.c **** 
 406              		.loc 1 211 1 view .LVU77
 407              		.align	2
 408              	.L37:
 409 001c 00ED00E0 		.word	-536810240
 410              		.cfi_endproc
 411              	.LFE75:
 413              		.section	.text.HAL_PCD_ResumeCallback,"ax",%progbits
 414              		.align	1
 415              		.global	HAL_PCD_ResumeCallback
 416              		.syntax unified
 417              		.thumb
 418              		.thumb_func
 420              	HAL_PCD_ResumeCallback:
 421              	.LVL37:
 422              	.LFB76:
 224:Src/usbd_conf.c ****   /* USER CODE BEGIN 3 */
 423              		.loc 1 224 1 is_stmt 1 view -0
 424              		.cfi_startproc
 425              		@ args = 0, pretend = 0, frame = 0
 426              		@ frame_needed = 0, uses_anonymous_args = 0
 224:Src/usbd_conf.c ****   /* USER CODE BEGIN 3 */
 427              		.loc 1 224 1 is_stmt 0 view .LVU79
ARM GAS  /tmp/ccdhtWWx.s 			page 21


 428 0000 08B5     		push	{r3, lr}
 429              		.cfi_def_cfa_offset 8
 430              		.cfi_offset 3, -8
 431              		.cfi_offset 14, -4
 228:Src/usbd_conf.c **** }
 432              		.loc 1 228 3 is_stmt 1 view .LVU80
 433 0002 D0F8D402 		ldr	r0, [r0, #724]
 434              	.LVL38:
 228:Src/usbd_conf.c **** }
 435              		.loc 1 228 3 is_stmt 0 view .LVU81
 436 0006 FFF7FEFF 		bl	USBD_LL_Resume
 437              	.LVL39:
 229:Src/usbd_conf.c **** 
 438              		.loc 1 229 1 view .LVU82
 439 000a 08BD     		pop	{r3, pc}
 440              		.cfi_endproc
 441              	.LFE76:
 443              		.section	.text.HAL_PCD_ISOOUTIncompleteCallback,"ax",%progbits
 444              		.align	1
 445              		.global	HAL_PCD_ISOOUTIncompleteCallback
 446              		.syntax unified
 447              		.thumb
 448              		.thumb_func
 450              	HAL_PCD_ISOOUTIncompleteCallback:
 451              	.LVL40:
 452              	.LFB77:
 242:Src/usbd_conf.c ****   USBD_LL_IsoOUTIncomplete((USBD_HandleTypeDef*)hpcd->pData, epnum);
 453              		.loc 1 242 1 is_stmt 1 view -0
 454              		.cfi_startproc
 455              		@ args = 0, pretend = 0, frame = 0
 456              		@ frame_needed = 0, uses_anonymous_args = 0
 242:Src/usbd_conf.c ****   USBD_LL_IsoOUTIncomplete((USBD_HandleTypeDef*)hpcd->pData, epnum);
 457              		.loc 1 242 1 is_stmt 0 view .LVU84
 458 0000 08B5     		push	{r3, lr}
 459              		.cfi_def_cfa_offset 8
 460              		.cfi_offset 3, -8
 461              		.cfi_offset 14, -4
 243:Src/usbd_conf.c **** }
 462              		.loc 1 243 3 is_stmt 1 view .LVU85
 463 0002 D0F8D402 		ldr	r0, [r0, #724]
 464              	.LVL41:
 243:Src/usbd_conf.c **** }
 465              		.loc 1 243 3 is_stmt 0 view .LVU86
 466 0006 FFF7FEFF 		bl	USBD_LL_IsoOUTIncomplete
 467              	.LVL42:
 244:Src/usbd_conf.c **** 
 468              		.loc 1 244 1 view .LVU87
 469 000a 08BD     		pop	{r3, pc}
 470              		.cfi_endproc
 471              	.LFE77:
 473              		.section	.text.HAL_PCD_ISOINIncompleteCallback,"ax",%progbits
 474              		.align	1
 475              		.global	HAL_PCD_ISOINIncompleteCallback
 476              		.syntax unified
 477              		.thumb
 478              		.thumb_func
 480              	HAL_PCD_ISOINIncompleteCallback:
ARM GAS  /tmp/ccdhtWWx.s 			page 22


 481              	.LVL43:
 482              	.LFB78:
 257:Src/usbd_conf.c ****   USBD_LL_IsoINIncomplete((USBD_HandleTypeDef*)hpcd->pData, epnum);
 483              		.loc 1 257 1 is_stmt 1 view -0
 484              		.cfi_startproc
 485              		@ args = 0, pretend = 0, frame = 0
 486              		@ frame_needed = 0, uses_anonymous_args = 0
 257:Src/usbd_conf.c ****   USBD_LL_IsoINIncomplete((USBD_HandleTypeDef*)hpcd->pData, epnum);
 487              		.loc 1 257 1 is_stmt 0 view .LVU89
 488 0000 08B5     		push	{r3, lr}
 489              		.cfi_def_cfa_offset 8
 490              		.cfi_offset 3, -8
 491              		.cfi_offset 14, -4
 258:Src/usbd_conf.c **** }
 492              		.loc 1 258 3 is_stmt 1 view .LVU90
 493 0002 D0F8D402 		ldr	r0, [r0, #724]
 494              	.LVL44:
 258:Src/usbd_conf.c **** }
 495              		.loc 1 258 3 is_stmt 0 view .LVU91
 496 0006 FFF7FEFF 		bl	USBD_LL_IsoINIncomplete
 497              	.LVL45:
 259:Src/usbd_conf.c **** 
 498              		.loc 1 259 1 view .LVU92
 499 000a 08BD     		pop	{r3, pc}
 500              		.cfi_endproc
 501              	.LFE78:
 503              		.section	.text.HAL_PCD_ConnectCallback,"ax",%progbits
 504              		.align	1
 505              		.global	HAL_PCD_ConnectCallback
 506              		.syntax unified
 507              		.thumb
 508              		.thumb_func
 510              	HAL_PCD_ConnectCallback:
 511              	.LVL46:
 512              	.LFB79:
 271:Src/usbd_conf.c ****   USBD_LL_DevConnected((USBD_HandleTypeDef*)hpcd->pData);
 513              		.loc 1 271 1 is_stmt 1 view -0
 514              		.cfi_startproc
 515              		@ args = 0, pretend = 0, frame = 0
 516              		@ frame_needed = 0, uses_anonymous_args = 0
 271:Src/usbd_conf.c ****   USBD_LL_DevConnected((USBD_HandleTypeDef*)hpcd->pData);
 517              		.loc 1 271 1 is_stmt 0 view .LVU94
 518 0000 08B5     		push	{r3, lr}
 519              		.cfi_def_cfa_offset 8
 520              		.cfi_offset 3, -8
 521              		.cfi_offset 14, -4
 272:Src/usbd_conf.c **** }
 522              		.loc 1 272 3 is_stmt 1 view .LVU95
 523 0002 D0F8D402 		ldr	r0, [r0, #724]
 524              	.LVL47:
 272:Src/usbd_conf.c **** }
 525              		.loc 1 272 3 is_stmt 0 view .LVU96
 526 0006 FFF7FEFF 		bl	USBD_LL_DevConnected
 527              	.LVL48:
 273:Src/usbd_conf.c **** 
 528              		.loc 1 273 1 view .LVU97
 529 000a 08BD     		pop	{r3, pc}
ARM GAS  /tmp/ccdhtWWx.s 			page 23


 530              		.cfi_endproc
 531              	.LFE79:
 533              		.section	.text.HAL_PCD_DisconnectCallback,"ax",%progbits
 534              		.align	1
 535              		.global	HAL_PCD_DisconnectCallback
 536              		.syntax unified
 537              		.thumb
 538              		.thumb_func
 540              	HAL_PCD_DisconnectCallback:
 541              	.LVL49:
 542              	.LFB80:
 285:Src/usbd_conf.c ****   USBD_LL_DevDisconnected((USBD_HandleTypeDef*)hpcd->pData);
 543              		.loc 1 285 1 is_stmt 1 view -0
 544              		.cfi_startproc
 545              		@ args = 0, pretend = 0, frame = 0
 546              		@ frame_needed = 0, uses_anonymous_args = 0
 285:Src/usbd_conf.c ****   USBD_LL_DevDisconnected((USBD_HandleTypeDef*)hpcd->pData);
 547              		.loc 1 285 1 is_stmt 0 view .LVU99
 548 0000 08B5     		push	{r3, lr}
 549              		.cfi_def_cfa_offset 8
 550              		.cfi_offset 3, -8
 551              		.cfi_offset 14, -4
 286:Src/usbd_conf.c **** }
 552              		.loc 1 286 3 is_stmt 1 view .LVU100
 553 0002 D0F8D402 		ldr	r0, [r0, #724]
 554              	.LVL50:
 286:Src/usbd_conf.c **** }
 555              		.loc 1 286 3 is_stmt 0 view .LVU101
 556 0006 FFF7FEFF 		bl	USBD_LL_DevDisconnected
 557              	.LVL51:
 287:Src/usbd_conf.c **** 
 558              		.loc 1 287 1 view .LVU102
 559 000a 08BD     		pop	{r3, pc}
 560              		.cfi_endproc
 561              	.LFE80:
 563              		.section	.text.USBD_LL_Init,"ax",%progbits
 564              		.align	1
 565              		.global	USBD_LL_Init
 566              		.syntax unified
 567              		.thumb
 568              		.thumb_func
 570              	USBD_LL_Init:
 571              	.LVL52:
 572              	.LFB81:
 299:Src/usbd_conf.c ****   /* Init USB Ip. */
 573              		.loc 1 299 1 is_stmt 1 view -0
 574              		.cfi_startproc
 575              		@ args = 0, pretend = 0, frame = 0
 576              		@ frame_needed = 0, uses_anonymous_args = 0
 299:Src/usbd_conf.c ****   /* Init USB Ip. */
 577              		.loc 1 299 1 is_stmt 0 view .LVU104
 578 0000 10B5     		push	{r4, lr}
 579              		.cfi_def_cfa_offset 8
 580              		.cfi_offset 4, -8
 581              		.cfi_offset 14, -4
 582 0002 0446     		mov	r4, r0
 302:Src/usbd_conf.c ****   pdev->pData = &hpcd_USB_FS;
ARM GAS  /tmp/ccdhtWWx.s 			page 24


 583              		.loc 1 302 3 is_stmt 1 view .LVU105
 302:Src/usbd_conf.c ****   pdev->pData = &hpcd_USB_FS;
 584              		.loc 1 302 21 is_stmt 0 view .LVU106
 585 0004 1D48     		ldr	r0, .L53
 586              	.LVL53:
 302:Src/usbd_conf.c ****   pdev->pData = &hpcd_USB_FS;
 587              		.loc 1 302 21 view .LVU107
 588 0006 C0F8D442 		str	r4, [r0, #724]
 303:Src/usbd_conf.c **** 
 589              		.loc 1 303 3 is_stmt 1 view .LVU108
 303:Src/usbd_conf.c **** 
 590              		.loc 1 303 15 is_stmt 0 view .LVU109
 591 000a C4F8C002 		str	r0, [r4, #704]
 305:Src/usbd_conf.c ****   hpcd_USB_FS.Init.dev_endpoints = 8;
 592              		.loc 1 305 3 is_stmt 1 view .LVU110
 305:Src/usbd_conf.c ****   hpcd_USB_FS.Init.dev_endpoints = 8;
 593              		.loc 1 305 24 is_stmt 0 view .LVU111
 594 000e 1C4B     		ldr	r3, .L53+4
 595 0010 0360     		str	r3, [r0]
 306:Src/usbd_conf.c ****   hpcd_USB_FS.Init.speed = PCD_SPEED_FULL;
 596              		.loc 1 306 3 is_stmt 1 view .LVU112
 306:Src/usbd_conf.c ****   hpcd_USB_FS.Init.speed = PCD_SPEED_FULL;
 597              		.loc 1 306 34 is_stmt 0 view .LVU113
 598 0012 0823     		movs	r3, #8
 599 0014 0371     		strb	r3, [r0, #4]
 307:Src/usbd_conf.c ****   hpcd_USB_FS.Init.low_power_enable = DISABLE;
 600              		.loc 1 307 3 is_stmt 1 view .LVU114
 307:Src/usbd_conf.c ****   hpcd_USB_FS.Init.low_power_enable = DISABLE;
 601              		.loc 1 307 26 is_stmt 0 view .LVU115
 602 0016 0223     		movs	r3, #2
 603 0018 8371     		strb	r3, [r0, #6]
 308:Src/usbd_conf.c ****   hpcd_USB_FS.Init.lpm_enable = DISABLE;
 604              		.loc 1 308 3 is_stmt 1 view .LVU116
 308:Src/usbd_conf.c ****   hpcd_USB_FS.Init.lpm_enable = DISABLE;
 605              		.loc 1 308 37 is_stmt 0 view .LVU117
 606 001a 0023     		movs	r3, #0
 607 001c 8372     		strb	r3, [r0, #10]
 309:Src/usbd_conf.c ****   hpcd_USB_FS.Init.battery_charging_enable = DISABLE;
 608              		.loc 1 309 3 is_stmt 1 view .LVU118
 309:Src/usbd_conf.c ****   hpcd_USB_FS.Init.battery_charging_enable = DISABLE;
 609              		.loc 1 309 31 is_stmt 0 view .LVU119
 610 001e C372     		strb	r3, [r0, #11]
 310:Src/usbd_conf.c ****   if (HAL_PCD_Init(&hpcd_USB_FS) != HAL_OK)
 611              		.loc 1 310 3 is_stmt 1 view .LVU120
 310:Src/usbd_conf.c ****   if (HAL_PCD_Init(&hpcd_USB_FS) != HAL_OK)
 612              		.loc 1 310 44 is_stmt 0 view .LVU121
 613 0020 0373     		strb	r3, [r0, #12]
 311:Src/usbd_conf.c ****   {
 614              		.loc 1 311 3 is_stmt 1 view .LVU122
 311:Src/usbd_conf.c ****   {
 615              		.loc 1 311 7 is_stmt 0 view .LVU123
 616 0022 FFF7FEFF 		bl	HAL_PCD_Init
 617              	.LVL54:
 311:Src/usbd_conf.c ****   {
 618              		.loc 1 311 6 discriminator 1 view .LVU124
 619 0026 30BB     		cbnz	r0, .L52
 620              	.L50:
ARM GAS  /tmp/ccdhtWWx.s 			page 25


 332:Src/usbd_conf.c ****   HAL_PCDEx_PMAConfig((PCD_HandleTypeDef*)pdev->pData , 0x80 , PCD_SNG_BUF, 0x58);
 621              		.loc 1 332 3 is_stmt 1 view .LVU125
 622 0028 1823     		movs	r3, #24
 623 002a 0022     		movs	r2, #0
 624 002c 1146     		mov	r1, r2
 625 002e D4F8C002 		ldr	r0, [r4, #704]
 626 0032 FFF7FEFF 		bl	HAL_PCDEx_PMAConfig
 627              	.LVL55:
 333:Src/usbd_conf.c ****   /* USER CODE END EndPoint_Configuration */
 628              		.loc 1 333 3 view .LVU126
 629 0036 5823     		movs	r3, #88
 630 0038 0022     		movs	r2, #0
 631 003a 8021     		movs	r1, #128
 632 003c D4F8C002 		ldr	r0, [r4, #704]
 633 0040 FFF7FEFF 		bl	HAL_PCDEx_PMAConfig
 634              	.LVL56:
 336:Src/usbd_conf.c ****   HAL_PCDEx_PMAConfig((PCD_HandleTypeDef*)pdev->pData , 0x01 , PCD_SNG_BUF, 0x110);
 635              		.loc 1 336 3 view .LVU127
 636 0044 C023     		movs	r3, #192
 637 0046 0022     		movs	r2, #0
 638 0048 8121     		movs	r1, #129
 639 004a D4F8C002 		ldr	r0, [r4, #704]
 640 004e FFF7FEFF 		bl	HAL_PCDEx_PMAConfig
 641              	.LVL57:
 337:Src/usbd_conf.c ****   HAL_PCDEx_PMAConfig((PCD_HandleTypeDef*)pdev->pData , 0x82 , PCD_SNG_BUF, 0x100);
 642              		.loc 1 337 3 view .LVU128
 643 0052 4FF48873 		mov	r3, #272
 644 0056 0022     		movs	r2, #0
 645 0058 0121     		movs	r1, #1
 646 005a D4F8C002 		ldr	r0, [r4, #704]
 647 005e FFF7FEFF 		bl	HAL_PCDEx_PMAConfig
 648              	.LVL58:
 338:Src/usbd_conf.c ****   /* USER CODE END EndPoint_Configuration_CDC */
 649              		.loc 1 338 3 view .LVU129
 650 0062 4FF48073 		mov	r3, #256
 651 0066 0022     		movs	r2, #0
 652 0068 8221     		movs	r1, #130
 653 006a D4F8C002 		ldr	r0, [r4, #704]
 654 006e FFF7FEFF 		bl	HAL_PCDEx_PMAConfig
 655              	.LVL59:
 340:Src/usbd_conf.c **** }
 656              		.loc 1 340 3 view .LVU130
 341:Src/usbd_conf.c **** 
 657              		.loc 1 341 1 is_stmt 0 view .LVU131
 658 0072 0020     		movs	r0, #0
 659 0074 10BD     		pop	{r4, pc}
 660              	.LVL60:
 661              	.L52:
 313:Src/usbd_conf.c ****   }
 662              		.loc 1 313 5 is_stmt 1 view .LVU132
 663 0076 FFF7FEFF 		bl	Error_Handler
 664              	.LVL61:
 665 007a D5E7     		b	.L50
 666              	.L54:
 667              		.align	2
 668              	.L53:
 669 007c 00000000 		.word	hpcd_USB_FS
ARM GAS  /tmp/ccdhtWWx.s 			page 26


 670 0080 005C0040 		.word	1073765376
 671              		.cfi_endproc
 672              	.LFE81:
 674              		.section	.text.USBD_LL_DeInit,"ax",%progbits
 675              		.align	1
 676              		.global	USBD_LL_DeInit
 677              		.syntax unified
 678              		.thumb
 679              		.thumb_func
 681              	USBD_LL_DeInit:
 682              	.LVL62:
 683              	.LFB82:
 349:Src/usbd_conf.c ****   HAL_StatusTypeDef hal_status = HAL_OK;
 684              		.loc 1 349 1 view -0
 685              		.cfi_startproc
 686              		@ args = 0, pretend = 0, frame = 0
 687              		@ frame_needed = 0, uses_anonymous_args = 0
 349:Src/usbd_conf.c ****   HAL_StatusTypeDef hal_status = HAL_OK;
 688              		.loc 1 349 1 is_stmt 0 view .LVU134
 689 0000 08B5     		push	{r3, lr}
 690              		.cfi_def_cfa_offset 8
 691              		.cfi_offset 3, -8
 692              		.cfi_offset 14, -4
 350:Src/usbd_conf.c ****   USBD_StatusTypeDef usb_status = USBD_OK;
 693              		.loc 1 350 3 is_stmt 1 view .LVU135
 694              	.LVL63:
 351:Src/usbd_conf.c **** 
 695              		.loc 1 351 3 view .LVU136
 353:Src/usbd_conf.c **** 
 696              		.loc 1 353 3 view .LVU137
 353:Src/usbd_conf.c **** 
 697              		.loc 1 353 16 is_stmt 0 view .LVU138
 698 0002 D0F8C002 		ldr	r0, [r0, #704]
 699              	.LVL64:
 353:Src/usbd_conf.c **** 
 700              		.loc 1 353 16 view .LVU139
 701 0006 FFF7FEFF 		bl	HAL_PCD_DeInit
 702              	.LVL65:
 355:Src/usbd_conf.c **** 
 703              		.loc 1 355 3 is_stmt 1 view .LVU140
 355:Src/usbd_conf.c **** 
 704              		.loc 1 355 17 is_stmt 0 view .LVU141
 705 000a FFF7FEFF 		bl	USBD_Get_USB_Status
 706              	.LVL66:
 357:Src/usbd_conf.c **** }
 707              		.loc 1 357 3 is_stmt 1 view .LVU142
 358:Src/usbd_conf.c **** 
 708              		.loc 1 358 1 is_stmt 0 view .LVU143
 709 000e 08BD     		pop	{r3, pc}
 710              		.cfi_endproc
 711              	.LFE82:
 713              		.section	.text.USBD_LL_Start,"ax",%progbits
 714              		.align	1
 715              		.global	USBD_LL_Start
 716              		.syntax unified
 717              		.thumb
 718              		.thumb_func
ARM GAS  /tmp/ccdhtWWx.s 			page 27


 720              	USBD_LL_Start:
 721              	.LVL67:
 722              	.LFB83:
 366:Src/usbd_conf.c ****   HAL_StatusTypeDef hal_status = HAL_OK;
 723              		.loc 1 366 1 is_stmt 1 view -0
 724              		.cfi_startproc
 725              		@ args = 0, pretend = 0, frame = 0
 726              		@ frame_needed = 0, uses_anonymous_args = 0
 366:Src/usbd_conf.c ****   HAL_StatusTypeDef hal_status = HAL_OK;
 727              		.loc 1 366 1 is_stmt 0 view .LVU145
 728 0000 08B5     		push	{r3, lr}
 729              		.cfi_def_cfa_offset 8
 730              		.cfi_offset 3, -8
 731              		.cfi_offset 14, -4
 367:Src/usbd_conf.c ****   USBD_StatusTypeDef usb_status = USBD_OK;
 732              		.loc 1 367 3 is_stmt 1 view .LVU146
 733              	.LVL68:
 368:Src/usbd_conf.c **** 
 734              		.loc 1 368 3 view .LVU147
 370:Src/usbd_conf.c **** 
 735              		.loc 1 370 3 view .LVU148
 370:Src/usbd_conf.c **** 
 736              		.loc 1 370 16 is_stmt 0 view .LVU149
 737 0002 D0F8C002 		ldr	r0, [r0, #704]
 738              	.LVL69:
 370:Src/usbd_conf.c **** 
 739              		.loc 1 370 16 view .LVU150
 740 0006 FFF7FEFF 		bl	HAL_PCD_Start
 741              	.LVL70:
 372:Src/usbd_conf.c **** 
 742              		.loc 1 372 3 is_stmt 1 view .LVU151
 372:Src/usbd_conf.c **** 
 743              		.loc 1 372 17 is_stmt 0 view .LVU152
 744 000a FFF7FEFF 		bl	USBD_Get_USB_Status
 745              	.LVL71:
 374:Src/usbd_conf.c **** }
 746              		.loc 1 374 3 is_stmt 1 view .LVU153
 375:Src/usbd_conf.c **** 
 747              		.loc 1 375 1 is_stmt 0 view .LVU154
 748 000e 08BD     		pop	{r3, pc}
 749              		.cfi_endproc
 750              	.LFE83:
 752              		.section	.text.USBD_LL_Stop,"ax",%progbits
 753              		.align	1
 754              		.global	USBD_LL_Stop
 755              		.syntax unified
 756              		.thumb
 757              		.thumb_func
 759              	USBD_LL_Stop:
 760              	.LVL72:
 761              	.LFB84:
 383:Src/usbd_conf.c ****   HAL_StatusTypeDef hal_status = HAL_OK;
 762              		.loc 1 383 1 is_stmt 1 view -0
 763              		.cfi_startproc
 764              		@ args = 0, pretend = 0, frame = 0
 765              		@ frame_needed = 0, uses_anonymous_args = 0
 383:Src/usbd_conf.c ****   HAL_StatusTypeDef hal_status = HAL_OK;
ARM GAS  /tmp/ccdhtWWx.s 			page 28


 766              		.loc 1 383 1 is_stmt 0 view .LVU156
 767 0000 08B5     		push	{r3, lr}
 768              		.cfi_def_cfa_offset 8
 769              		.cfi_offset 3, -8
 770              		.cfi_offset 14, -4
 384:Src/usbd_conf.c ****   USBD_StatusTypeDef usb_status = USBD_OK;
 771              		.loc 1 384 3 is_stmt 1 view .LVU157
 772              	.LVL73:
 385:Src/usbd_conf.c **** 
 773              		.loc 1 385 3 view .LVU158
 387:Src/usbd_conf.c **** 
 774              		.loc 1 387 3 view .LVU159
 387:Src/usbd_conf.c **** 
 775              		.loc 1 387 16 is_stmt 0 view .LVU160
 776 0002 D0F8C002 		ldr	r0, [r0, #704]
 777              	.LVL74:
 387:Src/usbd_conf.c **** 
 778              		.loc 1 387 16 view .LVU161
 779 0006 FFF7FEFF 		bl	HAL_PCD_Stop
 780              	.LVL75:
 389:Src/usbd_conf.c **** 
 781              		.loc 1 389 3 is_stmt 1 view .LVU162
 389:Src/usbd_conf.c **** 
 782              		.loc 1 389 17 is_stmt 0 view .LVU163
 783 000a FFF7FEFF 		bl	USBD_Get_USB_Status
 784              	.LVL76:
 391:Src/usbd_conf.c **** }
 785              		.loc 1 391 3 is_stmt 1 view .LVU164
 392:Src/usbd_conf.c **** 
 786              		.loc 1 392 1 is_stmt 0 view .LVU165
 787 000e 08BD     		pop	{r3, pc}
 788              		.cfi_endproc
 789              	.LFE84:
 791              		.section	.text.USBD_LL_OpenEP,"ax",%progbits
 792              		.align	1
 793              		.global	USBD_LL_OpenEP
 794              		.syntax unified
 795              		.thumb
 796              		.thumb_func
 798              	USBD_LL_OpenEP:
 799              	.LVL77:
 800              	.LFB85:
 403:Src/usbd_conf.c ****   HAL_StatusTypeDef hal_status = HAL_OK;
 801              		.loc 1 403 1 is_stmt 1 view -0
 802              		.cfi_startproc
 803              		@ args = 0, pretend = 0, frame = 0
 804              		@ frame_needed = 0, uses_anonymous_args = 0
 403:Src/usbd_conf.c ****   HAL_StatusTypeDef hal_status = HAL_OK;
 805              		.loc 1 403 1 is_stmt 0 view .LVU167
 806 0000 08B5     		push	{r3, lr}
 807              		.cfi_def_cfa_offset 8
 808              		.cfi_offset 3, -8
 809              		.cfi_offset 14, -4
 810 0002 9446     		mov	ip, r2
 811 0004 1A46     		mov	r2, r3
 812              	.LVL78:
 404:Src/usbd_conf.c ****   USBD_StatusTypeDef usb_status = USBD_OK;
ARM GAS  /tmp/ccdhtWWx.s 			page 29


 813              		.loc 1 404 3 is_stmt 1 view .LVU168
 405:Src/usbd_conf.c **** 
 814              		.loc 1 405 3 view .LVU169
 407:Src/usbd_conf.c **** 
 815              		.loc 1 407 3 view .LVU170
 407:Src/usbd_conf.c **** 
 816              		.loc 1 407 16 is_stmt 0 view .LVU171
 817 0006 6346     		mov	r3, ip
 818              	.LVL79:
 407:Src/usbd_conf.c **** 
 819              		.loc 1 407 16 view .LVU172
 820 0008 D0F8C002 		ldr	r0, [r0, #704]
 821              	.LVL80:
 407:Src/usbd_conf.c **** 
 822              		.loc 1 407 16 view .LVU173
 823 000c FFF7FEFF 		bl	HAL_PCD_EP_Open
 824              	.LVL81:
 409:Src/usbd_conf.c **** 
 825              		.loc 1 409 3 is_stmt 1 view .LVU174
 409:Src/usbd_conf.c **** 
 826              		.loc 1 409 17 is_stmt 0 view .LVU175
 827 0010 FFF7FEFF 		bl	USBD_Get_USB_Status
 828              	.LVL82:
 411:Src/usbd_conf.c **** }
 829              		.loc 1 411 3 is_stmt 1 view .LVU176
 412:Src/usbd_conf.c **** 
 830              		.loc 1 412 1 is_stmt 0 view .LVU177
 831 0014 08BD     		pop	{r3, pc}
 832              		.cfi_endproc
 833              	.LFE85:
 835              		.section	.text.USBD_LL_CloseEP,"ax",%progbits
 836              		.align	1
 837              		.global	USBD_LL_CloseEP
 838              		.syntax unified
 839              		.thumb
 840              		.thumb_func
 842              	USBD_LL_CloseEP:
 843              	.LVL83:
 844              	.LFB86:
 421:Src/usbd_conf.c ****   HAL_StatusTypeDef hal_status = HAL_OK;
 845              		.loc 1 421 1 is_stmt 1 view -0
 846              		.cfi_startproc
 847              		@ args = 0, pretend = 0, frame = 0
 848              		@ frame_needed = 0, uses_anonymous_args = 0
 421:Src/usbd_conf.c ****   HAL_StatusTypeDef hal_status = HAL_OK;
 849              		.loc 1 421 1 is_stmt 0 view .LVU179
 850 0000 08B5     		push	{r3, lr}
 851              		.cfi_def_cfa_offset 8
 852              		.cfi_offset 3, -8
 853              		.cfi_offset 14, -4
 422:Src/usbd_conf.c ****   USBD_StatusTypeDef usb_status = USBD_OK;
 854              		.loc 1 422 3 is_stmt 1 view .LVU180
 855              	.LVL84:
 423:Src/usbd_conf.c **** 
 856              		.loc 1 423 3 view .LVU181
 425:Src/usbd_conf.c **** 
 857              		.loc 1 425 3 view .LVU182
ARM GAS  /tmp/ccdhtWWx.s 			page 30


 425:Src/usbd_conf.c **** 
 858              		.loc 1 425 16 is_stmt 0 view .LVU183
 859 0002 D0F8C002 		ldr	r0, [r0, #704]
 860              	.LVL85:
 425:Src/usbd_conf.c **** 
 861              		.loc 1 425 16 view .LVU184
 862 0006 FFF7FEFF 		bl	HAL_PCD_EP_Close
 863              	.LVL86:
 427:Src/usbd_conf.c **** 
 864              		.loc 1 427 3 is_stmt 1 view .LVU185
 427:Src/usbd_conf.c **** 
 865              		.loc 1 427 17 is_stmt 0 view .LVU186
 866 000a FFF7FEFF 		bl	USBD_Get_USB_Status
 867              	.LVL87:
 429:Src/usbd_conf.c **** }
 868              		.loc 1 429 3 is_stmt 1 view .LVU187
 430:Src/usbd_conf.c **** 
 869              		.loc 1 430 1 is_stmt 0 view .LVU188
 870 000e 08BD     		pop	{r3, pc}
 871              		.cfi_endproc
 872              	.LFE86:
 874              		.section	.text.USBD_LL_FlushEP,"ax",%progbits
 875              		.align	1
 876              		.global	USBD_LL_FlushEP
 877              		.syntax unified
 878              		.thumb
 879              		.thumb_func
 881              	USBD_LL_FlushEP:
 882              	.LVL88:
 883              	.LFB87:
 439:Src/usbd_conf.c ****   HAL_StatusTypeDef hal_status = HAL_OK;
 884              		.loc 1 439 1 is_stmt 1 view -0
 885              		.cfi_startproc
 886              		@ args = 0, pretend = 0, frame = 0
 887              		@ frame_needed = 0, uses_anonymous_args = 0
 439:Src/usbd_conf.c ****   HAL_StatusTypeDef hal_status = HAL_OK;
 888              		.loc 1 439 1 is_stmt 0 view .LVU190
 889 0000 08B5     		push	{r3, lr}
 890              		.cfi_def_cfa_offset 8
 891              		.cfi_offset 3, -8
 892              		.cfi_offset 14, -4
 440:Src/usbd_conf.c ****   USBD_StatusTypeDef usb_status = USBD_OK;
 893              		.loc 1 440 3 is_stmt 1 view .LVU191
 894              	.LVL89:
 441:Src/usbd_conf.c **** 
 895              		.loc 1 441 3 view .LVU192
 443:Src/usbd_conf.c **** 
 896              		.loc 1 443 3 view .LVU193
 443:Src/usbd_conf.c **** 
 897              		.loc 1 443 16 is_stmt 0 view .LVU194
 898 0002 D0F8C002 		ldr	r0, [r0, #704]
 899              	.LVL90:
 443:Src/usbd_conf.c **** 
 900              		.loc 1 443 16 view .LVU195
 901 0006 FFF7FEFF 		bl	HAL_PCD_EP_Flush
 902              	.LVL91:
 445:Src/usbd_conf.c **** 
ARM GAS  /tmp/ccdhtWWx.s 			page 31


 903              		.loc 1 445 3 is_stmt 1 view .LVU196
 445:Src/usbd_conf.c **** 
 904              		.loc 1 445 17 is_stmt 0 view .LVU197
 905 000a FFF7FEFF 		bl	USBD_Get_USB_Status
 906              	.LVL92:
 447:Src/usbd_conf.c **** }
 907              		.loc 1 447 3 is_stmt 1 view .LVU198
 448:Src/usbd_conf.c **** 
 908              		.loc 1 448 1 is_stmt 0 view .LVU199
 909 000e 08BD     		pop	{r3, pc}
 910              		.cfi_endproc
 911              	.LFE87:
 913              		.section	.text.USBD_LL_StallEP,"ax",%progbits
 914              		.align	1
 915              		.global	USBD_LL_StallEP
 916              		.syntax unified
 917              		.thumb
 918              		.thumb_func
 920              	USBD_LL_StallEP:
 921              	.LVL93:
 922              	.LFB88:
 457:Src/usbd_conf.c ****   HAL_StatusTypeDef hal_status = HAL_OK;
 923              		.loc 1 457 1 is_stmt 1 view -0
 924              		.cfi_startproc
 925              		@ args = 0, pretend = 0, frame = 0
 926              		@ frame_needed = 0, uses_anonymous_args = 0
 457:Src/usbd_conf.c ****   HAL_StatusTypeDef hal_status = HAL_OK;
 927              		.loc 1 457 1 is_stmt 0 view .LVU201
 928 0000 08B5     		push	{r3, lr}
 929              		.cfi_def_cfa_offset 8
 930              		.cfi_offset 3, -8
 931              		.cfi_offset 14, -4
 458:Src/usbd_conf.c ****   USBD_StatusTypeDef usb_status = USBD_OK;
 932              		.loc 1 458 3 is_stmt 1 view .LVU202
 933              	.LVL94:
 459:Src/usbd_conf.c **** 
 934              		.loc 1 459 3 view .LVU203
 461:Src/usbd_conf.c **** 
 935              		.loc 1 461 3 view .LVU204
 461:Src/usbd_conf.c **** 
 936              		.loc 1 461 16 is_stmt 0 view .LVU205
 937 0002 D0F8C002 		ldr	r0, [r0, #704]
 938              	.LVL95:
 461:Src/usbd_conf.c **** 
 939              		.loc 1 461 16 view .LVU206
 940 0006 FFF7FEFF 		bl	HAL_PCD_EP_SetStall
 941              	.LVL96:
 463:Src/usbd_conf.c **** 
 942              		.loc 1 463 3 is_stmt 1 view .LVU207
 463:Src/usbd_conf.c **** 
 943              		.loc 1 463 17 is_stmt 0 view .LVU208
 944 000a FFF7FEFF 		bl	USBD_Get_USB_Status
 945              	.LVL97:
 465:Src/usbd_conf.c **** }
 946              		.loc 1 465 3 is_stmt 1 view .LVU209
 466:Src/usbd_conf.c **** 
 947              		.loc 1 466 1 is_stmt 0 view .LVU210
ARM GAS  /tmp/ccdhtWWx.s 			page 32


 948 000e 08BD     		pop	{r3, pc}
 949              		.cfi_endproc
 950              	.LFE88:
 952              		.section	.text.USBD_LL_ClearStallEP,"ax",%progbits
 953              		.align	1
 954              		.global	USBD_LL_ClearStallEP
 955              		.syntax unified
 956              		.thumb
 957              		.thumb_func
 959              	USBD_LL_ClearStallEP:
 960              	.LVL98:
 961              	.LFB89:
 475:Src/usbd_conf.c ****   HAL_StatusTypeDef hal_status = HAL_OK;
 962              		.loc 1 475 1 is_stmt 1 view -0
 963              		.cfi_startproc
 964              		@ args = 0, pretend = 0, frame = 0
 965              		@ frame_needed = 0, uses_anonymous_args = 0
 475:Src/usbd_conf.c ****   HAL_StatusTypeDef hal_status = HAL_OK;
 966              		.loc 1 475 1 is_stmt 0 view .LVU212
 967 0000 08B5     		push	{r3, lr}
 968              		.cfi_def_cfa_offset 8
 969              		.cfi_offset 3, -8
 970              		.cfi_offset 14, -4
 476:Src/usbd_conf.c ****   USBD_StatusTypeDef usb_status = USBD_OK;
 971              		.loc 1 476 3 is_stmt 1 view .LVU213
 972              	.LVL99:
 477:Src/usbd_conf.c **** 
 973              		.loc 1 477 3 view .LVU214
 479:Src/usbd_conf.c **** 
 974              		.loc 1 479 3 view .LVU215
 479:Src/usbd_conf.c **** 
 975              		.loc 1 479 16 is_stmt 0 view .LVU216
 976 0002 D0F8C002 		ldr	r0, [r0, #704]
 977              	.LVL100:
 479:Src/usbd_conf.c **** 
 978              		.loc 1 479 16 view .LVU217
 979 0006 FFF7FEFF 		bl	HAL_PCD_EP_ClrStall
 980              	.LVL101:
 481:Src/usbd_conf.c **** 
 981              		.loc 1 481 3 is_stmt 1 view .LVU218
 481:Src/usbd_conf.c **** 
 982              		.loc 1 481 17 is_stmt 0 view .LVU219
 983 000a FFF7FEFF 		bl	USBD_Get_USB_Status
 984              	.LVL102:
 483:Src/usbd_conf.c **** }
 985              		.loc 1 483 3 is_stmt 1 view .LVU220
 484:Src/usbd_conf.c **** 
 986              		.loc 1 484 1 is_stmt 0 view .LVU221
 987 000e 08BD     		pop	{r3, pc}
 988              		.cfi_endproc
 989              	.LFE89:
 991              		.section	.text.USBD_LL_IsStallEP,"ax",%progbits
 992              		.align	1
 993              		.global	USBD_LL_IsStallEP
 994              		.syntax unified
 995              		.thumb
 996              		.thumb_func
ARM GAS  /tmp/ccdhtWWx.s 			page 33


 998              	USBD_LL_IsStallEP:
 999              	.LVL103:
 1000              	.LFB90:
 493:Src/usbd_conf.c ****   PCD_HandleTypeDef *hpcd = (PCD_HandleTypeDef*) pdev->pData;
 1001              		.loc 1 493 1 is_stmt 1 view -0
 1002              		.cfi_startproc
 1003              		@ args = 0, pretend = 0, frame = 0
 1004              		@ frame_needed = 0, uses_anonymous_args = 0
 1005              		@ link register save eliminated.
 494:Src/usbd_conf.c **** 
 1006              		.loc 1 494 3 view .LVU223
 494:Src/usbd_conf.c **** 
 1007              		.loc 1 494 22 is_stmt 0 view .LVU224
 1008 0000 D0F8C032 		ldr	r3, [r0, #704]
 1009              	.LVL104:
 496:Src/usbd_conf.c ****   {
 1010              		.loc 1 496 3 is_stmt 1 view .LVU225
 496:Src/usbd_conf.c ****   {
 1011              		.loc 1 496 5 is_stmt 0 view .LVU226
 1012 0004 11F0800F 		tst	r1, #128
 1013 0008 08D1     		bne	.L74
 502:Src/usbd_conf.c ****   }
 1014              		.loc 1 502 5 is_stmt 1 view .LVU227
 502:Src/usbd_conf.c ****   }
 1015              		.loc 1 502 33 is_stmt 0 view .LVU228
 1016 000a 01F07F01 		and	r1, r1, #127
 1017              	.LVL105:
 502:Src/usbd_conf.c ****   }
 1018              		.loc 1 502 40 view .LVU229
 1019 000e 01EB8101 		add	r1, r1, r1, lsl #2
 1020 0012 03EBC103 		add	r3, r3, r1, lsl #3
 1021              	.LVL106:
 502:Src/usbd_conf.c ****   }
 1022              		.loc 1 502 40 view .LVU230
 1023 0016 93F85201 		ldrb	r0, [r3, #338]	@ zero_extendqisi2
 1024              	.LVL107:
 504:Src/usbd_conf.c **** 
 1025              		.loc 1 504 1 view .LVU231
 1026 001a 7047     		bx	lr
 1027              	.LVL108:
 1028              	.L74:
 498:Src/usbd_conf.c ****   }
 1029              		.loc 1 498 5 is_stmt 1 view .LVU232
 498:Src/usbd_conf.c ****   }
 1030              		.loc 1 498 32 is_stmt 0 view .LVU233
 1031 001c 01F07F01 		and	r1, r1, #127
 1032              	.LVL109:
 498:Src/usbd_conf.c ****   }
 1033              		.loc 1 498 39 view .LVU234
 1034 0020 01EB8101 		add	r1, r1, r1, lsl #2
 1035 0024 03EBC103 		add	r3, r3, r1, lsl #3
 1036              	.LVL110:
 498:Src/usbd_conf.c ****   }
 1037              		.loc 1 498 39 view .LVU235
 1038 0028 987C     		ldrb	r0, [r3, #18]	@ zero_extendqisi2
 1039              	.LVL111:
 498:Src/usbd_conf.c ****   }
ARM GAS  /tmp/ccdhtWWx.s 			page 34


 1040              		.loc 1 498 39 view .LVU236
 1041 002a 7047     		bx	lr
 1042              		.cfi_endproc
 1043              	.LFE90:
 1045              		.section	.text.USBD_LL_SetUSBAddress,"ax",%progbits
 1046              		.align	1
 1047              		.global	USBD_LL_SetUSBAddress
 1048              		.syntax unified
 1049              		.thumb
 1050              		.thumb_func
 1052              	USBD_LL_SetUSBAddress:
 1053              	.LVL112:
 1054              	.LFB91:
 513:Src/usbd_conf.c ****   HAL_StatusTypeDef hal_status = HAL_OK;
 1055              		.loc 1 513 1 is_stmt 1 view -0
 1056              		.cfi_startproc
 1057              		@ args = 0, pretend = 0, frame = 0
 1058              		@ frame_needed = 0, uses_anonymous_args = 0
 513:Src/usbd_conf.c ****   HAL_StatusTypeDef hal_status = HAL_OK;
 1059              		.loc 1 513 1 is_stmt 0 view .LVU238
 1060 0000 08B5     		push	{r3, lr}
 1061              		.cfi_def_cfa_offset 8
 1062              		.cfi_offset 3, -8
 1063              		.cfi_offset 14, -4
 514:Src/usbd_conf.c ****   USBD_StatusTypeDef usb_status = USBD_OK;
 1064              		.loc 1 514 3 is_stmt 1 view .LVU239
 1065              	.LVL113:
 515:Src/usbd_conf.c **** 
 1066              		.loc 1 515 3 view .LVU240
 517:Src/usbd_conf.c **** 
 1067              		.loc 1 517 3 view .LVU241
 517:Src/usbd_conf.c **** 
 1068              		.loc 1 517 16 is_stmt 0 view .LVU242
 1069 0002 D0F8C002 		ldr	r0, [r0, #704]
 1070              	.LVL114:
 517:Src/usbd_conf.c **** 
 1071              		.loc 1 517 16 view .LVU243
 1072 0006 FFF7FEFF 		bl	HAL_PCD_SetAddress
 1073              	.LVL115:
 519:Src/usbd_conf.c **** 
 1074              		.loc 1 519 3 is_stmt 1 view .LVU244
 519:Src/usbd_conf.c **** 
 1075              		.loc 1 519 17 is_stmt 0 view .LVU245
 1076 000a FFF7FEFF 		bl	USBD_Get_USB_Status
 1077              	.LVL116:
 521:Src/usbd_conf.c **** }
 1078              		.loc 1 521 3 is_stmt 1 view .LVU246
 522:Src/usbd_conf.c **** 
 1079              		.loc 1 522 1 is_stmt 0 view .LVU247
 1080 000e 08BD     		pop	{r3, pc}
 1081              		.cfi_endproc
 1082              	.LFE91:
 1084              		.section	.text.USBD_LL_Transmit,"ax",%progbits
 1085              		.align	1
 1086              		.global	USBD_LL_Transmit
 1087              		.syntax unified
 1088              		.thumb
ARM GAS  /tmp/ccdhtWWx.s 			page 35


 1089              		.thumb_func
 1091              	USBD_LL_Transmit:
 1092              	.LVL117:
 1093              	.LFB92:
 533:Src/usbd_conf.c ****   HAL_StatusTypeDef hal_status = HAL_OK;
 1094              		.loc 1 533 1 is_stmt 1 view -0
 1095              		.cfi_startproc
 1096              		@ args = 0, pretend = 0, frame = 0
 1097              		@ frame_needed = 0, uses_anonymous_args = 0
 533:Src/usbd_conf.c ****   HAL_StatusTypeDef hal_status = HAL_OK;
 1098              		.loc 1 533 1 is_stmt 0 view .LVU249
 1099 0000 08B5     		push	{r3, lr}
 1100              		.cfi_def_cfa_offset 8
 1101              		.cfi_offset 3, -8
 1102              		.cfi_offset 14, -4
 534:Src/usbd_conf.c ****   USBD_StatusTypeDef usb_status = USBD_OK;
 1103              		.loc 1 534 3 is_stmt 1 view .LVU250
 1104              	.LVL118:
 535:Src/usbd_conf.c **** 
 1105              		.loc 1 535 3 view .LVU251
 537:Src/usbd_conf.c **** 
 1106              		.loc 1 537 3 view .LVU252
 537:Src/usbd_conf.c **** 
 1107              		.loc 1 537 16 is_stmt 0 view .LVU253
 1108 0002 D0F8C002 		ldr	r0, [r0, #704]
 1109              	.LVL119:
 537:Src/usbd_conf.c **** 
 1110              		.loc 1 537 16 view .LVU254
 1111 0006 FFF7FEFF 		bl	HAL_PCD_EP_Transmit
 1112              	.LVL120:
 539:Src/usbd_conf.c **** 
 1113              		.loc 1 539 3 is_stmt 1 view .LVU255
 539:Src/usbd_conf.c **** 
 1114              		.loc 1 539 17 is_stmt 0 view .LVU256
 1115 000a FFF7FEFF 		bl	USBD_Get_USB_Status
 1116              	.LVL121:
 541:Src/usbd_conf.c **** }
 1117              		.loc 1 541 3 is_stmt 1 view .LVU257
 542:Src/usbd_conf.c **** 
 1118              		.loc 1 542 1 is_stmt 0 view .LVU258
 1119 000e 08BD     		pop	{r3, pc}
 1120              		.cfi_endproc
 1121              	.LFE92:
 1123              		.section	.text.USBD_LL_PrepareReceive,"ax",%progbits
 1124              		.align	1
 1125              		.global	USBD_LL_PrepareReceive
 1126              		.syntax unified
 1127              		.thumb
 1128              		.thumb_func
 1130              	USBD_LL_PrepareReceive:
 1131              	.LVL122:
 1132              	.LFB93:
 553:Src/usbd_conf.c ****   HAL_StatusTypeDef hal_status = HAL_OK;
 1133              		.loc 1 553 1 is_stmt 1 view -0
 1134              		.cfi_startproc
 1135              		@ args = 0, pretend = 0, frame = 0
 1136              		@ frame_needed = 0, uses_anonymous_args = 0
ARM GAS  /tmp/ccdhtWWx.s 			page 36


 553:Src/usbd_conf.c ****   HAL_StatusTypeDef hal_status = HAL_OK;
 1137              		.loc 1 553 1 is_stmt 0 view .LVU260
 1138 0000 08B5     		push	{r3, lr}
 1139              		.cfi_def_cfa_offset 8
 1140              		.cfi_offset 3, -8
 1141              		.cfi_offset 14, -4
 554:Src/usbd_conf.c ****   USBD_StatusTypeDef usb_status = USBD_OK;
 1142              		.loc 1 554 3 is_stmt 1 view .LVU261
 1143              	.LVL123:
 555:Src/usbd_conf.c **** 
 1144              		.loc 1 555 3 view .LVU262
 557:Src/usbd_conf.c **** 
 1145              		.loc 1 557 3 view .LVU263
 557:Src/usbd_conf.c **** 
 1146              		.loc 1 557 16 is_stmt 0 view .LVU264
 1147 0002 D0F8C002 		ldr	r0, [r0, #704]
 1148              	.LVL124:
 557:Src/usbd_conf.c **** 
 1149              		.loc 1 557 16 view .LVU265
 1150 0006 FFF7FEFF 		bl	HAL_PCD_EP_Receive
 1151              	.LVL125:
 559:Src/usbd_conf.c **** 
 1152              		.loc 1 559 3 is_stmt 1 view .LVU266
 559:Src/usbd_conf.c **** 
 1153              		.loc 1 559 17 is_stmt 0 view .LVU267
 1154 000a FFF7FEFF 		bl	USBD_Get_USB_Status
 1155              	.LVL126:
 561:Src/usbd_conf.c **** }
 1156              		.loc 1 561 3 is_stmt 1 view .LVU268
 562:Src/usbd_conf.c **** 
 1157              		.loc 1 562 1 is_stmt 0 view .LVU269
 1158 000e 08BD     		pop	{r3, pc}
 1159              		.cfi_endproc
 1160              	.LFE93:
 1162              		.section	.text.USBD_LL_GetRxDataSize,"ax",%progbits
 1163              		.align	1
 1164              		.global	USBD_LL_GetRxDataSize
 1165              		.syntax unified
 1166              		.thumb
 1167              		.thumb_func
 1169              	USBD_LL_GetRxDataSize:
 1170              	.LVL127:
 1171              	.LFB94:
 571:Src/usbd_conf.c ****   return HAL_PCD_EP_GetRxCount((PCD_HandleTypeDef*) pdev->pData, ep_addr);
 1172              		.loc 1 571 1 is_stmt 1 view -0
 1173              		.cfi_startproc
 1174              		@ args = 0, pretend = 0, frame = 0
 1175              		@ frame_needed = 0, uses_anonymous_args = 0
 571:Src/usbd_conf.c ****   return HAL_PCD_EP_GetRxCount((PCD_HandleTypeDef*) pdev->pData, ep_addr);
 1176              		.loc 1 571 1 is_stmt 0 view .LVU271
 1177 0000 08B5     		push	{r3, lr}
 1178              		.cfi_def_cfa_offset 8
 1179              		.cfi_offset 3, -8
 1180              		.cfi_offset 14, -4
 572:Src/usbd_conf.c **** }
 1181              		.loc 1 572 3 is_stmt 1 view .LVU272
 572:Src/usbd_conf.c **** }
ARM GAS  /tmp/ccdhtWWx.s 			page 37


 1182              		.loc 1 572 10 is_stmt 0 view .LVU273
 1183 0002 D0F8C002 		ldr	r0, [r0, #704]
 1184              	.LVL128:
 572:Src/usbd_conf.c **** }
 1185              		.loc 1 572 10 view .LVU274
 1186 0006 FFF7FEFF 		bl	HAL_PCD_EP_GetRxCount
 1187              	.LVL129:
 573:Src/usbd_conf.c **** 
 1188              		.loc 1 573 1 view .LVU275
 1189 000a 08BD     		pop	{r3, pc}
 1190              		.cfi_endproc
 1191              	.LFE94:
 1193              		.section	.text.USBD_LL_Delay,"ax",%progbits
 1194              		.align	1
 1195              		.global	USBD_LL_Delay
 1196              		.syntax unified
 1197              		.thumb
 1198              		.thumb_func
 1200              	USBD_LL_Delay:
 1201              	.LVL130:
 1202              	.LFB95:
 581:Src/usbd_conf.c ****   HAL_Delay(Delay);
 1203              		.loc 1 581 1 is_stmt 1 view -0
 1204              		.cfi_startproc
 1205              		@ args = 0, pretend = 0, frame = 0
 1206              		@ frame_needed = 0, uses_anonymous_args = 0
 581:Src/usbd_conf.c ****   HAL_Delay(Delay);
 1207              		.loc 1 581 1 is_stmt 0 view .LVU277
 1208 0000 08B5     		push	{r3, lr}
 1209              		.cfi_def_cfa_offset 8
 1210              		.cfi_offset 3, -8
 1211              		.cfi_offset 14, -4
 582:Src/usbd_conf.c **** }
 1212              		.loc 1 582 3 is_stmt 1 view .LVU278
 1213 0002 FFF7FEFF 		bl	HAL_Delay
 1214              	.LVL131:
 583:Src/usbd_conf.c **** 
 1215              		.loc 1 583 1 is_stmt 0 view .LVU279
 1216 0006 08BD     		pop	{r3, pc}
 1217              		.cfi_endproc
 1218              	.LFE95:
 1220              		.section	.text.USBD_static_malloc,"ax",%progbits
 1221              		.align	1
 1222              		.global	USBD_static_malloc
 1223              		.syntax unified
 1224              		.thumb
 1225              		.thumb_func
 1227              	USBD_static_malloc:
 1228              	.LVL132:
 1229              	.LFB96:
 591:Src/usbd_conf.c ****   static uint32_t mem[(sizeof(USBD_CDC_HandleTypeDef)/4)+1];/* On 32-bit boundary */
 1230              		.loc 1 591 1 is_stmt 1 view -0
 1231              		.cfi_startproc
 1232              		@ args = 0, pretend = 0, frame = 0
 1233              		@ frame_needed = 0, uses_anonymous_args = 0
 1234              		@ link register save eliminated.
 592:Src/usbd_conf.c ****   return mem;
ARM GAS  /tmp/ccdhtWWx.s 			page 38


 1235              		.loc 1 592 3 view .LVU281
 593:Src/usbd_conf.c **** }
 1236              		.loc 1 593 3 view .LVU282
 594:Src/usbd_conf.c **** 
 1237              		.loc 1 594 1 is_stmt 0 view .LVU283
 1238 0000 0048     		ldr	r0, .L86
 1239              	.LVL133:
 594:Src/usbd_conf.c **** 
 1240              		.loc 1 594 1 view .LVU284
 1241 0002 7047     		bx	lr
 1242              	.L87:
 1243              		.align	2
 1244              	.L86:
 1245 0004 00000000 		.word	mem.0
 1246              		.cfi_endproc
 1247              	.LFE96:
 1249              		.section	.text.USBD_static_free,"ax",%progbits
 1250              		.align	1
 1251              		.global	USBD_static_free
 1252              		.syntax unified
 1253              		.thumb
 1254              		.thumb_func
 1256              	USBD_static_free:
 1257              	.LVL134:
 1258              	.LFB97:
 602:Src/usbd_conf.c **** 
 1259              		.loc 1 602 1 is_stmt 1 view -0
 1260              		.cfi_startproc
 1261              		@ args = 0, pretend = 0, frame = 0
 1262              		@ frame_needed = 0, uses_anonymous_args = 0
 1263              		@ link register save eliminated.
 604:Src/usbd_conf.c **** 
 1264              		.loc 1 604 1 view .LVU286
 1265 0000 7047     		bx	lr
 1266              		.cfi_endproc
 1267              	.LFE97:
 1269              		.section	.text.HAL_PCDEx_SetConnectionState,"ax",%progbits
 1270              		.align	1
 1271              		.global	HAL_PCDEx_SetConnectionState
 1272              		.syntax unified
 1273              		.thumb
 1274              		.thumb_func
 1276              	HAL_PCDEx_SetConnectionState:
 1277              	.LVL135:
 1278              	.LFB98:
 617:Src/usbd_conf.c ****   /* USER CODE BEGIN 6 */
 1279              		.loc 1 617 1 view -0
 1280              		.cfi_startproc
 1281              		@ args = 0, pretend = 0, frame = 0
 1282              		@ frame_needed = 0, uses_anonymous_args = 0
 1283              		@ link register save eliminated.
 619:Src/usbd_conf.c ****   {
 1284              		.loc 1 619 3 view .LVU288
 623:Src/usbd_conf.c ****   else
 1285              		.loc 1 623 3 view .LVU289
 628:Src/usbd_conf.c ****   /* USER CODE END 6 */
 1286              		.loc 1 628 3 view .LVU290
ARM GAS  /tmp/ccdhtWWx.s 			page 39


 630:Src/usbd_conf.c **** 
 1287              		.loc 1 630 1 is_stmt 0 view .LVU291
 1288 0000 7047     		bx	lr
 1289              		.cfi_endproc
 1290              	.LFE98:
 1292              		.section	.bss.mem.0,"aw",%nobits
 1293              		.align	2
 1296              	mem.0:
 1297 0000 00000000 		.space	544
 1297      00000000 
 1297      00000000 
 1297      00000000 
 1297      00000000 
 1298              		.global	hpcd_USB_FS
 1299              		.section	.bss.hpcd_USB_FS,"aw",%nobits
 1300              		.align	2
 1303              	hpcd_USB_FS:
 1304 0000 00000000 		.space	728
 1304      00000000 
 1304      00000000 
 1304      00000000 
 1304      00000000 
 1305              		.text
 1306              	.Letext0:
 1307              		.file 2 "Drivers/CMSIS/Device/ST/STM32F1xx/Include/stm32f103xb.h"
 1308              		.file 3 "/usr/lib/gcc/arm-none-eabi/13.3.1/include/stdint.h"
 1309              		.file 4 "Drivers/CMSIS/Include/core_cm3.h"
 1310              		.file 5 "Drivers/CMSIS/Device/ST/STM32F1xx/Include/stm32f1xx.h"
 1311              		.file 6 "Drivers/STM32F1xx_HAL_Driver/Inc/stm32f1xx_hal_def.h"
 1312              		.file 7 "Drivers/STM32F1xx_HAL_Driver/Inc/stm32f1xx_ll_usb.h"
 1313              		.file 8 "Drivers/STM32F1xx_HAL_Driver/Inc/stm32f1xx_hal_pcd.h"
 1314              		.file 9 "Middlewares/ST/STM32_USB_Device_Library/Core/Inc/usbd_def.h"
 1315              		.file 10 "Drivers/STM32F1xx_HAL_Driver/Inc/stm32f1xx_hal_pcd_ex.h"
 1316              		.file 11 "Middlewares/ST/STM32_USB_Device_Library/Core/Inc/usbd_core.h"
 1317              		.file 12 "Drivers/STM32F1xx_HAL_Driver/Inc/stm32f1xx_hal.h"
 1318              		.file 13 "Drivers/STM32F1xx_HAL_Driver/Inc/stm32f1xx_hal_cortex.h"
ARM GAS  /tmp/ccdhtWWx.s 			page 40

