ARM GAS  /tmp/ccbQqCsF.s 			page 1


   1              		.cpu cortex-m3
   2              		.arch armv7-m
   3              		.fpu softvfp
   4              		.eabi_attribute 20, 1
   5              		.eabi_attribute 21, 1
   6              		.eabi_attribute 23, 3
   7              		.eabi_attribute 24, 1
   8              		.eabi_attribute 25, 1
   9              		.eabi_attribute 26, 1
  10              		.eabi_attribute 30, 1
  11              		.eabi_attribute 34, 1
  12              		.eabi_attribute 18, 4
  13              		.file	"adc.c"
  14              		.text
  15              		.section	.text.MX_ADC1_Init,"ax",%progbits
  16              		.align	1
  17              		.global	MX_ADC1_Init
  18              		.syntax unified
  19              		.thumb
  20              		.thumb_func
  22              	MX_ADC1_Init:
  23              		@ args = 0, pretend = 0, frame = 16
  24              		@ frame_needed = 0, uses_anonymous_args = 0
  25 0000 00B5     		push	{lr}
  26 0002 85B0     		sub	sp, sp, #20
  27 0004 0023     		movs	r3, #0
  28 0006 0193     		str	r3, [sp, #4]
  29 0008 0293     		str	r3, [sp, #8]
  30 000a 0393     		str	r3, [sp, #12]
  31 000c 3148     		ldr	r0, .L17
  32 000e 324A     		ldr	r2, .L17+4
  33 0010 0260     		str	r2, [r0]
  34 0012 4FF48072 		mov	r2, #256
  35 0016 8260     		str	r2, [r0, #8]
  36 0018 0122     		movs	r2, #1
  37 001a 0273     		strb	r2, [r0, #12]
  38 001c 0375     		strb	r3, [r0, #20]
  39 001e 4FF46022 		mov	r2, #917504
  40 0022 C261     		str	r2, [r0, #28]
  41 0024 4360     		str	r3, [r0, #4]
  42 0026 0623     		movs	r3, #6
  43 0028 0361     		str	r3, [r0, #16]
  44 002a FFF7FEFF 		bl	HAL_ADC_Init
  45 002e 0028     		cmp	r0, #0
  46 0030 3BD1     		bne	.L10
  47              	.L2:
  48 0032 0523     		movs	r3, #5
  49 0034 0193     		str	r3, [sp, #4]
  50 0036 0122     		movs	r2, #1
  51 0038 0292     		str	r2, [sp, #8]
  52 003a 0393     		str	r3, [sp, #12]
  53 003c 01A9     		add	r1, sp, #4
  54 003e 2548     		ldr	r0, .L17
  55 0040 FFF7FEFF 		bl	HAL_ADC_ConfigChannel
  56 0044 0028     		cmp	r0, #0
  57 0046 33D1     		bne	.L11
  58              	.L3:
ARM GAS  /tmp/ccbQqCsF.s 			page 2


  59 0048 0823     		movs	r3, #8
  60 004a 0193     		str	r3, [sp, #4]
  61 004c 0223     		movs	r3, #2
  62 004e 0293     		str	r3, [sp, #8]
  63 0050 01A9     		add	r1, sp, #4
  64 0052 2048     		ldr	r0, .L17
  65 0054 FFF7FEFF 		bl	HAL_ADC_ConfigChannel
  66 0058 68BB     		cbnz	r0, .L12
  67              	.L4:
  68 005a 0423     		movs	r3, #4
  69 005c 0193     		str	r3, [sp, #4]
  70 005e 0323     		movs	r3, #3
  71 0060 0293     		str	r3, [sp, #8]
  72 0062 01A9     		add	r1, sp, #4
  73 0064 1B48     		ldr	r0, .L17
  74 0066 FFF7FEFF 		bl	HAL_ADC_ConfigChannel
  75 006a 38BB     		cbnz	r0, .L13
  76              	.L5:
  77 006c 0623     		movs	r3, #6
  78 006e 0193     		str	r3, [sp, #4]
  79 0070 0423     		movs	r3, #4
  80 0072 0293     		str	r3, [sp, #8]
  81 0074 0DEB0301 		add	r1, sp, r3
  82 0078 1648     		ldr	r0, .L17
  83 007a FFF7FEFF 		bl	HAL_ADC_ConfigChannel
  84 007e 00BB     		cbnz	r0, .L14
  85              	.L6:
  86 0080 0723     		movs	r3, #7
  87 0082 0193     		str	r3, [sp, #4]
  88 0084 0523     		movs	r3, #5
  89 0086 0293     		str	r3, [sp, #8]
  90 0088 01A9     		add	r1, sp, #4
  91 008a 1248     		ldr	r0, .L17
  92 008c FFF7FEFF 		bl	HAL_ADC_ConfigChannel
  93 0090 D0B9     		cbnz	r0, .L15
  94              	.L7:
  95 0092 0923     		movs	r3, #9
  96 0094 0193     		str	r3, [sp, #4]
  97 0096 0623     		movs	r3, #6
  98 0098 0293     		str	r3, [sp, #8]
  99 009a 01A9     		add	r1, sp, #4
 100 009c 0D48     		ldr	r0, .L17
 101 009e FFF7FEFF 		bl	HAL_ADC_ConfigChannel
 102 00a2 A0B9     		cbnz	r0, .L16
 103              	.L1:
 104 00a4 05B0     		add	sp, sp, #20
 105              		@ sp needed
 106 00a6 5DF804FB 		ldr	pc, [sp], #4
 107              	.L10:
 108 00aa FFF7FEFF 		bl	Error_Handler
 109 00ae C0E7     		b	.L2
 110              	.L11:
 111 00b0 FFF7FEFF 		bl	Error_Handler
 112 00b4 C8E7     		b	.L3
 113              	.L12:
 114 00b6 FFF7FEFF 		bl	Error_Handler
 115 00ba CEE7     		b	.L4
ARM GAS  /tmp/ccbQqCsF.s 			page 3


 116              	.L13:
 117 00bc FFF7FEFF 		bl	Error_Handler
 118 00c0 D4E7     		b	.L5
 119              	.L14:
 120 00c2 FFF7FEFF 		bl	Error_Handler
 121 00c6 DBE7     		b	.L6
 122              	.L15:
 123 00c8 FFF7FEFF 		bl	Error_Handler
 124 00cc E1E7     		b	.L7
 125              	.L16:
 126 00ce FFF7FEFF 		bl	Error_Handler
 127 00d2 E7E7     		b	.L1
 128              	.L18:
 129              		.align	2
 130              	.L17:
 131 00d4 00000000 		.word	hadc1
 132 00d8 00240140 		.word	1073816576
 134              		.section	.text.HAL_ADC_MspInit,"ax",%progbits
 135              		.align	1
 136              		.global	HAL_ADC_MspInit
 137              		.syntax unified
 138              		.thumb
 139              		.thumb_func
 141              	HAL_ADC_MspInit:
 142              		@ args = 0, pretend = 0, frame = 32
 143              		@ frame_needed = 0, uses_anonymous_args = 0
 144 0000 30B5     		push	{r4, r5, lr}
 145 0002 89B0     		sub	sp, sp, #36
 146 0004 0023     		movs	r3, #0
 147 0006 0493     		str	r3, [sp, #16]
 148 0008 0593     		str	r3, [sp, #20]
 149 000a 0693     		str	r3, [sp, #24]
 150 000c 0793     		str	r3, [sp, #28]
 151 000e 0268     		ldr	r2, [r0]
 152 0010 254B     		ldr	r3, .L25
 153 0012 9A42     		cmp	r2, r3
 154 0014 01D0     		beq	.L23
 155              	.L19:
 156 0016 09B0     		add	sp, sp, #36
 157              		@ sp needed
 158 0018 30BD     		pop	{r4, r5, pc}
 159              	.L23:
 160 001a 0446     		mov	r4, r0
 161 001c 03F56C43 		add	r3, r3, #60416
 162 0020 9A69     		ldr	r2, [r3, #24]
 163 0022 42F40072 		orr	r2, r2, #512
 164 0026 9A61     		str	r2, [r3, #24]
 165 0028 9A69     		ldr	r2, [r3, #24]
 166 002a 02F40072 		and	r2, r2, #512
 167 002e 0192     		str	r2, [sp, #4]
 168 0030 019A     		ldr	r2, [sp, #4]
 169 0032 9A69     		ldr	r2, [r3, #24]
 170 0034 42F00402 		orr	r2, r2, #4
 171 0038 9A61     		str	r2, [r3, #24]
 172 003a 9A69     		ldr	r2, [r3, #24]
 173 003c 02F00402 		and	r2, r2, #4
 174 0040 0292     		str	r2, [sp, #8]
ARM GAS  /tmp/ccbQqCsF.s 			page 4


 175 0042 029A     		ldr	r2, [sp, #8]
 176 0044 9A69     		ldr	r2, [r3, #24]
 177 0046 42F00802 		orr	r2, r2, #8
 178 004a 9A61     		str	r2, [r3, #24]
 179 004c 9B69     		ldr	r3, [r3, #24]
 180 004e 03F00803 		and	r3, r3, #8
 181 0052 0393     		str	r3, [sp, #12]
 182 0054 039B     		ldr	r3, [sp, #12]
 183 0056 F023     		movs	r3, #240
 184 0058 0493     		str	r3, [sp, #16]
 185 005a 0325     		movs	r5, #3
 186 005c 0595     		str	r5, [sp, #20]
 187 005e 04A9     		add	r1, sp, #16
 188 0060 1248     		ldr	r0, .L25+4
 189 0062 FFF7FEFF 		bl	HAL_GPIO_Init
 190 0066 0495     		str	r5, [sp, #16]
 191 0068 0595     		str	r5, [sp, #20]
 192 006a 04A9     		add	r1, sp, #16
 193 006c 1048     		ldr	r0, .L25+8
 194 006e FFF7FEFF 		bl	HAL_GPIO_Init
 195 0072 1048     		ldr	r0, .L25+12
 196 0074 104B     		ldr	r3, .L25+16
 197 0076 0360     		str	r3, [r0]
 198 0078 0023     		movs	r3, #0
 199 007a 4360     		str	r3, [r0, #4]
 200 007c 8360     		str	r3, [r0, #8]
 201 007e 8022     		movs	r2, #128
 202 0080 C260     		str	r2, [r0, #12]
 203 0082 4FF40072 		mov	r2, #512
 204 0086 0261     		str	r2, [r0, #16]
 205 0088 4FF40062 		mov	r2, #2048
 206 008c 4261     		str	r2, [r0, #20]
 207 008e 2022     		movs	r2, #32
 208 0090 8261     		str	r2, [r0, #24]
 209 0092 C361     		str	r3, [r0, #28]
 210 0094 FFF7FEFF 		bl	HAL_DMA_Init
 211 0098 18B9     		cbnz	r0, .L24
 212              	.L21:
 213 009a 064B     		ldr	r3, .L25+12
 214 009c 2362     		str	r3, [r4, #32]
 215 009e 5C62     		str	r4, [r3, #36]
 216 00a0 B9E7     		b	.L19
 217              	.L24:
 218 00a2 FFF7FEFF 		bl	Error_Handler
 219 00a6 F8E7     		b	.L21
 220              	.L26:
 221              		.align	2
 222              	.L25:
 223 00a8 00240140 		.word	1073816576
 224 00ac 00080140 		.word	1073809408
 225 00b0 000C0140 		.word	1073810432
 226 00b4 00000000 		.word	hdma_adc1
 227 00b8 08000240 		.word	1073872904
 229              		.section	.text.HAL_ADC_MspDeInit,"ax",%progbits
 230              		.align	1
 231              		.global	HAL_ADC_MspDeInit
 232              		.syntax unified
ARM GAS  /tmp/ccbQqCsF.s 			page 5


 233              		.thumb
 234              		.thumb_func
 236              	HAL_ADC_MspDeInit:
 237              		@ args = 0, pretend = 0, frame = 0
 238              		@ frame_needed = 0, uses_anonymous_args = 0
 239 0000 0268     		ldr	r2, [r0]
 240 0002 0B4B     		ldr	r3, .L34
 241 0004 9A42     		cmp	r2, r3
 242 0006 00D0     		beq	.L33
 243 0008 7047     		bx	lr
 244              	.L33:
 245 000a 10B5     		push	{r4, lr}
 246 000c 0446     		mov	r4, r0
 247 000e 094A     		ldr	r2, .L34+4
 248 0010 9369     		ldr	r3, [r2, #24]
 249 0012 23F40073 		bic	r3, r3, #512
 250 0016 9361     		str	r3, [r2, #24]
 251 0018 F021     		movs	r1, #240
 252 001a 0748     		ldr	r0, .L34+8
 253 001c FFF7FEFF 		bl	HAL_GPIO_DeInit
 254 0020 0321     		movs	r1, #3
 255 0022 0648     		ldr	r0, .L34+12
 256 0024 FFF7FEFF 		bl	HAL_GPIO_DeInit
 257 0028 206A     		ldr	r0, [r4, #32]
 258 002a FFF7FEFF 		bl	HAL_DMA_DeInit
 259 002e 10BD     		pop	{r4, pc}
 260              	.L35:
 261              		.align	2
 262              	.L34:
 263 0030 00240140 		.word	1073816576
 264 0034 00100240 		.word	1073876992
 265 0038 00080140 		.word	1073809408
 266 003c 000C0140 		.word	1073810432
 268              		.global	hdma_adc1
 269              		.section	.bss.hdma_adc1,"aw",%nobits
 270              		.align	2
 273              	hdma_adc1:
 274 0000 00000000 		.space	68
 274      00000000 
 274      00000000 
 274      00000000 
 274      00000000 
 275              		.global	hadc1
 276              		.section	.bss.hadc1,"aw",%nobits
 277              		.align	2
 280              	hadc1:
 281 0000 00000000 		.space	48
 281      00000000 
 281      00000000 
 281      00000000 
 281      00000000 
 282              		.ident	"GCC: (15:13.3.rel1-1) 13.3.1 20240614"
ARM GAS  /tmp/ccbQqCsF.s 			page 6

