ARM GAS  /tmp/ccnKtHGu.s 			page 1


   1              		.cpu cortex-m3
   2              		.arch armv7-m
   3              		.fpu softvfp
   4              		.eabi_attribute 20, 1
   5              		.eabi_attribute 21, 1
   6              		.eabi_attribute 23, 3
   7              		.eabi_attribute 24, 1
   8              		.eabi_attribute 25, 1
   9              		.eabi_attribute 26, 1
  10              		.eabi_attribute 30, 1
  11              		.eabi_attribute 34, 1
  12              		.eabi_attribute 18, 4
  13              		.file	"gpio.c"
  14              		.text
  15              		.section	.text.MX_GPIO_Init,"ax",%progbits
  16              		.align	1
  17              		.global	MX_GPIO_Init
  18              		.syntax unified
  19              		.thumb
  20              		.thumb_func
  22              	MX_GPIO_Init:
  23              		@ args = 0, pretend = 0, frame = 32
  24              		@ frame_needed = 0, uses_anonymous_args = 0
  25 0000 F0B5     		push	{r4, r5, r6, r7, lr}
  26 0002 89B0     		sub	sp, sp, #36
  27 0004 0024     		movs	r4, #0
  28 0006 0494     		str	r4, [sp, #16]
  29 0008 0594     		str	r4, [sp, #20]
  30 000a 0694     		str	r4, [sp, #24]
  31 000c 0794     		str	r4, [sp, #28]
  32 000e 364B     		ldr	r3, .L3
  33 0010 9A69     		ldr	r2, [r3, #24]
  34 0012 42F01002 		orr	r2, r2, #16
  35 0016 9A61     		str	r2, [r3, #24]
  36 0018 9A69     		ldr	r2, [r3, #24]
  37 001a 02F01002 		and	r2, r2, #16
  38 001e 0092     		str	r2, [sp]
  39 0020 009A     		ldr	r2, [sp]
  40 0022 9A69     		ldr	r2, [r3, #24]
  41 0024 42F02002 		orr	r2, r2, #32
  42 0028 9A61     		str	r2, [r3, #24]
  43 002a 9A69     		ldr	r2, [r3, #24]
  44 002c 02F02002 		and	r2, r2, #32
  45 0030 0192     		str	r2, [sp, #4]
  46 0032 019A     		ldr	r2, [sp, #4]
  47 0034 9A69     		ldr	r2, [r3, #24]
  48 0036 42F00402 		orr	r2, r2, #4
  49 003a 9A61     		str	r2, [r3, #24]
  50 003c 9A69     		ldr	r2, [r3, #24]
  51 003e 02F00402 		and	r2, r2, #4
  52 0042 0292     		str	r2, [sp, #8]
  53 0044 029A     		ldr	r2, [sp, #8]
  54 0046 9A69     		ldr	r2, [r3, #24]
  55 0048 42F00802 		orr	r2, r2, #8
  56 004c 9A61     		str	r2, [r3, #24]
  57 004e 9B69     		ldr	r3, [r3, #24]
  58 0050 03F00803 		and	r3, r3, #8
ARM GAS  /tmp/ccnKtHGu.s 			page 2


  59 0054 0393     		str	r3, [sp, #12]
  60 0056 039B     		ldr	r3, [sp, #12]
  61 0058 244D     		ldr	r5, .L3+4
  62 005a 2246     		mov	r2, r4
  63 005c 4FF4C041 		mov	r1, #24576
  64 0060 2846     		mov	r0, r5
  65 0062 FFF7FEFF 		bl	HAL_GPIO_WritePin
  66 0066 4FF4C043 		mov	r3, #24576
  67 006a 0493     		str	r3, [sp, #16]
  68 006c 0123     		movs	r3, #1
  69 006e 0593     		str	r3, [sp, #20]
  70 0070 0694     		str	r4, [sp, #24]
  71 0072 0223     		movs	r3, #2
  72 0074 0793     		str	r3, [sp, #28]
  73 0076 04A9     		add	r1, sp, #16
  74 0078 2846     		mov	r0, r5
  75 007a FFF7FEFF 		bl	HAL_GPIO_Init
  76 007e 0726     		movs	r6, #7
  77 0080 0496     		str	r6, [sp, #16]
  78 0082 1B4B     		ldr	r3, .L3+8
  79 0084 0593     		str	r3, [sp, #20]
  80 0086 0694     		str	r4, [sp, #24]
  81 0088 1A4F     		ldr	r7, .L3+12
  82 008a 04A9     		add	r1, sp, #16
  83 008c 3846     		mov	r0, r7
  84 008e FFF7FEFF 		bl	HAL_GPIO_Init
  85 0092 0825     		movs	r5, #8
  86 0094 0495     		str	r5, [sp, #16]
  87 0096 0594     		str	r4, [sp, #20]
  88 0098 0694     		str	r4, [sp, #24]
  89 009a 04A9     		add	r1, sp, #16
  90 009c 3846     		mov	r0, r7
  91 009e FFF7FEFF 		bl	HAL_GPIO_Init
  92 00a2 2023     		movs	r3, #32
  93 00a4 0493     		str	r3, [sp, #16]
  94 00a6 0594     		str	r4, [sp, #20]
  95 00a8 0694     		str	r4, [sp, #24]
  96 00aa 04A9     		add	r1, sp, #16
  97 00ac 1248     		ldr	r0, .L3+16
  98 00ae FFF7FEFF 		bl	HAL_GPIO_Init
  99 00b2 2246     		mov	r2, r4
 100 00b4 0321     		movs	r1, #3
 101 00b6 0620     		movs	r0, #6
 102 00b8 FFF7FEFF 		bl	HAL_NVIC_SetPriority
 103 00bc 0620     		movs	r0, #6
 104 00be FFF7FEFF 		bl	HAL_NVIC_EnableIRQ
 105 00c2 2246     		mov	r2, r4
 106 00c4 0321     		movs	r1, #3
 107 00c6 3046     		mov	r0, r6
 108 00c8 FFF7FEFF 		bl	HAL_NVIC_SetPriority
 109 00cc 3046     		mov	r0, r6
 110 00ce FFF7FEFF 		bl	HAL_NVIC_EnableIRQ
 111 00d2 2246     		mov	r2, r4
 112 00d4 0321     		movs	r1, #3
 113 00d6 2846     		mov	r0, r5
 114 00d8 FFF7FEFF 		bl	HAL_NVIC_SetPriority
 115 00dc 2846     		mov	r0, r5
ARM GAS  /tmp/ccnKtHGu.s 			page 3


 116 00de FFF7FEFF 		bl	HAL_NVIC_EnableIRQ
 117 00e2 09B0     		add	sp, sp, #36
 118              		@ sp needed
 119 00e4 F0BD     		pop	{r4, r5, r6, r7, pc}
 120              	.L4:
 121 00e6 00BF     		.align	2
 122              	.L3:
 123 00e8 00100240 		.word	1073876992
 124 00ec 00100140 		.word	1073811456
 125 00f0 00003110 		.word	271646720
 126 00f4 00080140 		.word	1073809408
 127 00f8 000C0140 		.word	1073810432
 129              		.ident	"GCC: (15:13.3.rel1-1) 13.3.1 20240614"
ARM GAS  /tmp/ccnKtHGu.s 			page 4


DEFINED SYMBOLS
                            *ABS*:00000000 gpio.c
     /tmp/ccnKtHGu.s:16     .text.MX_GPIO_Init:00000000 $t
     /tmp/ccnKtHGu.s:22     .text.MX_GPIO_Init:00000000 MX_GPIO_Init
     /tmp/ccnKtHGu.s:123    .text.MX_GPIO_Init:000000e8 $d

UNDEFINED SYMBOLS
HAL_GPIO_WritePin
HAL_GPIO_Init
HAL_NVIC_SetPriority
HAL_NVIC_EnableIRQ
