ARM GAS  /tmp/ccRNiEIX.s 			page 1


   1              		.cpu cortex-m3
   2              		.arch armv7-m
   3              		.fpu softvfp
   4              		.eabi_attribute 20, 1
   5              		.eabi_attribute 21, 1
   6              		.eabi_attribute 23, 3
   7              		.eabi_attribute 24, 1
   8              		.eabi_attribute 25, 1
   9              		.eabi_attribute 26, 1
  10              		.eabi_attribute 30, 1
  11              		.eabi_attribute 34, 1
  12              		.eabi_attribute 18, 4
  13              		.file	"main.c"
  14              		.text
  15              		.section	.text.map,"ax",%progbits
  16              		.align	1
  17              		.global	map
  18              		.syntax unified
  19              		.thumb
  20              		.thumb_func
  22              	map:
  23              		@ args = 4, pretend = 0, frame = 0
  24              		@ frame_needed = 0, uses_anonymous_args = 0
  25              		@ link register save eliminated.
  26 0000 A0EB010C 		sub	ip, r0, r1
  27 0004 0098     		ldr	r0, [sp]
  28 0006 C01A     		subs	r0, r0, r3
  29 0008 00FB0CFC 		mul	ip, r0, ip
  30 000c 521A     		subs	r2, r2, r1
  31 000e 9CFBF2FC 		sdiv	ip, ip, r2
  32 0012 0CEB0300 		add	r0, ip, r3
  33 0016 7047     		bx	lr
  35              		.section	.text.ema_filter,"ax",%progbits
  36              		.align	1
  37              		.global	ema_filter
  38              		.syntax unified
  39              		.thumb
  40              		.thumb_func
  42              	ema_filter:
  43              		@ args = 0, pretend = 0, frame = 0
  44              		@ frame_needed = 0, uses_anonymous_args = 0
  45              		@ link register save eliminated.
  46 0000 064B     		ldr	r3, .L4
  47 0002 1B88     		ldrh	r3, [r3]
  48 0004 0BB9     		cbnz	r3, .L3
  49 0006 054B     		ldr	r3, .L4
  50 0008 1880     		strh	r0, [r3]	@ movhi
  51              	.L3:
  52 000a 044A     		ldr	r2, .L4
  53 000c 1388     		ldrh	r3, [r2]
  54 000e C01A     		subs	r0, r0, r3
  55 0010 03EB2020 		add	r0, r3, r0, asr #8
  56 0014 80B2     		uxth	r0, r0
  57 0016 1080     		strh	r0, [r2]	@ movhi
  58 0018 7047     		bx	lr
  59              	.L5:
  60 001a 00BF     		.align	2
ARM GAS  /tmp/ccRNiEIX.s 			page 2


  61              	.L4:
  62 001c 00000000 		.word	filtered_value.0
  64              		.section	.text.filtreye_koy,"ax",%progbits
  65              		.align	1
  66              		.global	filtreye_koy
  67              		.syntax unified
  68              		.thumb
  69              		.thumb_func
  71              	filtreye_koy:
  72              		@ args = 0, pretend = 0, frame = 0
  73              		@ frame_needed = 0, uses_anonymous_args = 0
  74              		@ link register save eliminated.
  75 0000 1149     		ldr	r1, .L13
  76 0002 0A88     		ldrh	r2, [r1]
  77 0004 531C     		adds	r3, r2, #1
  78 0006 9BB2     		uxth	r3, r3
  79 0008 0B80     		strh	r3, [r1]	@ movhi
  80 000a 1049     		ldr	r1, .L13+4
  81 000c 21F81200 		strh	r0, [r1, r2, lsl #1]	@ movhi
  82 0010 782B     		cmp	r3, #120
  83 0012 02D0     		beq	.L12
  84              	.L7:
  85 0014 0023     		movs	r3, #0
  86 0016 1A46     		mov	r2, r3
  87 0018 0AE0     		b	.L8
  88              	.L12:
  89 001a 0B4B     		ldr	r3, .L13
  90 001c 0022     		movs	r2, #0
  91 001e 1A80     		strh	r2, [r3]	@ movhi
  92 0020 F8E7     		b	.L7
  93              	.L9:
  94 0022 0A49     		ldr	r1, .L13+4
  95 0024 31F81310 		ldrh	r1, [r1, r3, lsl #1]
  96 0028 0A44     		add	r2, r2, r1
  97 002a 92B2     		uxth	r2, r2
  98 002c 0133     		adds	r3, r3, #1
  99 002e DBB2     		uxtb	r3, r3
 100              	.L8:
 101 0030 772B     		cmp	r3, #119
 102 0032 F6D9     		bls	.L9
 103 0034 782A     		cmp	r2, #120
 104 0036 05D9     		bls	.L11
 105 0038 054B     		ldr	r3, .L13+8
 106 003a A3FB0232 		umull	r3, r2, r3, r2
 107 003e C2F38F10 		ubfx	r0, r2, #6, #16
 108 0042 7047     		bx	lr
 109              	.L11:
 110 0044 0020     		movs	r0, #0
 111 0046 7047     		bx	lr
 112              	.L14:
 113              		.align	2
 114              	.L13:
 115 0048 00000000 		.word	dizi_index
 116 004c 00000000 		.word	dizi
 117 0050 89888888 		.word	-2004318071
 119              		.global	__aeabi_ui2d
 120              		.global	__aeabi_dmul
ARM GAS  /tmp/ccRNiEIX.s 			page 3


 121              		.global	__aeabi_d2uiz
 122              		.section	.text.HAL_ADC_ConvCpltCallback,"ax",%progbits
 123              		.align	1
 124              		.global	HAL_ADC_ConvCpltCallback
 125              		.syntax unified
 126              		.thumb
 127              		.thumb_func
 129              	HAL_ADC_ConvCpltCallback:
 130              		@ args = 0, pretend = 0, frame = 0
 131              		@ frame_needed = 0, uses_anonymous_args = 0
 132 0000 0268     		ldr	r2, [r0]
 133 0002 6F4B     		ldr	r3, .L32+16
 134 0004 9A42     		cmp	r2, r3
 135 0006 00D0     		beq	.L31
 136 0008 7047     		bx	lr
 137              	.L31:
 138 000a 00B5     		push	{lr}
 139 000c 83B0     		sub	sp, sp, #12
 140 000e 6D4B     		ldr	r3, .L32+20
 141 0010 5869     		ldr	r0, [r3, #20]
 142 0012 FFF7FEFF 		bl	__aeabi_ui2d
 143 0016 66A3     		adr	r3, .L32
 144 0018 D3E90023 		ldrd	r2, [r3]
 145 001c FFF7FEFF 		bl	__aeabi_dmul
 146 0020 FFF7FEFF 		bl	__aeabi_d2uiz
 147 0024 684B     		ldr	r3, .L32+24
 148 0026 1880     		strh	r0, [r3]	@ movhi
 149 0028 684A     		ldr	r2, .L32+28
 150 002a 9368     		ldr	r3, [r2, #8]
 151 002c 03F48073 		and	r3, r3, #256
 152 0030 9168     		ldr	r1, [r2, #8]
 153 0032 01F40071 		and	r1, r1, #512
 154 0036 0B43     		orrs	r3, r3, r1
 155 0038 9268     		ldr	r2, [r2, #8]
 156 003a 02F48062 		and	r2, r2, #1024
 157 003e D342     		cmn	r3, r2
 158 0040 50D1     		bne	.L17
 159 0042 634B     		ldr	r3, .L32+32
 160 0044 9B68     		ldr	r3, [r3, #8]
 161 0046 13F4005F 		tst	r3, #8192
 162 004a 10D1     		bne	.L18
 163 004c 5D4B     		ldr	r3, .L32+20
 164 004e 9A68     		ldr	r2, [r3, #8]
 165 0050 604B     		ldr	r3, .L32+36
 166 0052 1A60     		str	r2, [r3]
 167 0054 1868     		ldr	r0, [r3]
 168 0056 FFF7FEFF 		bl	__aeabi_ui2d
 169 005a 57A3     		adr	r3, .L32+8
 170 005c D3E90023 		ldrd	r2, [r3]
 171 0060 FFF7FEFF 		bl	__aeabi_dmul
 172 0064 FFF7FEFF 		bl	__aeabi_d2uiz
 173 0068 80B2     		uxth	r0, r0
 174 006a 5B4B     		ldr	r3, .L32+40
 175 006c 1880     		strh	r0, [r3]	@ movhi
 176              	.L18:
 177 006e 584B     		ldr	r3, .L32+32
 178 0070 9B68     		ldr	r3, [r3, #8]
ARM GAS  /tmp/ccRNiEIX.s 			page 4


 179 0072 13F4804F 		tst	r3, #16384
 180 0076 10D1     		bne	.L19
 181 0078 524B     		ldr	r3, .L32+20
 182 007a DA68     		ldr	r2, [r3, #12]
 183 007c 574B     		ldr	r3, .L32+44
 184 007e 1A60     		str	r2, [r3]
 185 0080 1868     		ldr	r0, [r3]
 186 0082 FFF7FEFF 		bl	__aeabi_ui2d
 187 0086 4CA3     		adr	r3, .L32+8
 188 0088 D3E90023 		ldrd	r2, [r3]
 189 008c FFF7FEFF 		bl	__aeabi_dmul
 190 0090 FFF7FEFF 		bl	__aeabi_d2uiz
 191 0094 80B2     		uxth	r0, r0
 192 0096 504B     		ldr	r3, .L32+40
 193 0098 1880     		strh	r0, [r3]	@ movhi
 194              	.L19:
 195 009a 4D4B     		ldr	r3, .L32+32
 196 009c 9B68     		ldr	r3, [r3, #8]
 197 009e 13F4004F 		tst	r3, #32768
 198 00a2 10D1     		bne	.L20
 199 00a4 474B     		ldr	r3, .L32+20
 200 00a6 1A69     		ldr	r2, [r3, #16]
 201 00a8 4D4B     		ldr	r3, .L32+48
 202 00aa 1A60     		str	r2, [r3]
 203 00ac 1868     		ldr	r0, [r3]
 204 00ae FFF7FEFF 		bl	__aeabi_ui2d
 205 00b2 41A3     		adr	r3, .L32+8
 206 00b4 D3E90023 		ldrd	r2, [r3]
 207 00b8 FFF7FEFF 		bl	__aeabi_dmul
 208 00bc FFF7FEFF 		bl	__aeabi_d2uiz
 209 00c0 80B2     		uxth	r0, r0
 210 00c2 454B     		ldr	r3, .L32+40
 211 00c4 1880     		strh	r0, [r3]	@ movhi
 212              	.L20:
 213 00c6 434B     		ldr	r3, .L32+36
 214 00c8 1B68     		ldr	r3, [r3]
 215 00ca 444A     		ldr	r2, .L32+44
 216 00cc 1268     		ldr	r2, [r2]
 217 00ce 1344     		add	r3, r3, r2
 218 00d0 434A     		ldr	r2, .L32+48
 219 00d2 1268     		ldr	r2, [r2]
 220 00d4 1344     		add	r3, r3, r2
 221 00d6 434A     		ldr	r2, .L32+52
 222 00d8 A2FB0323 		umull	r2, r3, r2, r3
 223 00dc C3F34F03 		ubfx	r3, r3, #1, #16
 224 00e0 3D4A     		ldr	r2, .L32+40
 225 00e2 1380     		strh	r3, [r2]	@ movhi
 226              	.L17:
 227 00e4 374B     		ldr	r3, .L32+20
 228 00e6 9A88     		ldrh	r2, [r3, #4]
 229 00e8 3F4B     		ldr	r3, .L32+56
 230 00ea 1A80     		strh	r2, [r3]	@ movhi
 231 00ec 1B88     		ldrh	r3, [r3]
 232 00ee 9BB2     		uxth	r3, r3
 233 00f0 C3F58C53 		rsb	r3, r3, #4480
 234 00f4 1433     		adds	r3, r3, #20
 235 00f6 9BB2     		uxth	r3, r3
ARM GAS  /tmp/ccRNiEIX.s 			page 5


 236 00f8 3C4A     		ldr	r2, .L32+60
 237 00fa 1380     		strh	r3, [r2]	@ movhi
 238 00fc 1388     		ldrh	r3, [r2]
 239 00fe 9BB2     		uxth	r3, r3
 240 0100 B3F5C86F 		cmp	r3, #1600
 241 0104 15D8     		bhi	.L21
 242 0106 1388     		ldrh	r3, [r2]
 243 0108 9BB2     		uxth	r3, r3
 244 010a 40F21352 		movw	r2, #1299
 245 010e 9342     		cmp	r3, r2
 246 0110 0FD9     		bls	.L21
 247 0112 364B     		ldr	r3, .L32+60
 248 0114 1888     		ldrh	r0, [r3]
 249 0116 41F24E13 		movw	r3, #4430
 250 011a 0093     		str	r3, [sp]
 251 011c 0023     		movs	r3, #0
 252 011e 4FF4C862 		mov	r2, #1600
 253 0122 40F21451 		movw	r1, #1300
 254 0126 80B2     		uxth	r0, r0
 255 0128 FFF7FEFF 		bl	map
 256 012c 304B     		ldr	r3, .L32+64
 257 012e 1880     		strh	r0, [r3]	@ movhi
 258 0130 09E0     		b	.L22
 259              	.L21:
 260 0132 2E4B     		ldr	r3, .L32+60
 261 0134 1B88     		ldrh	r3, [r3]
 262 0136 9BB2     		uxth	r3, r3
 263 0138 B3F5C86F 		cmp	r3, #1600
 264 013c 31D9     		bls	.L23
 265 013e 2C4B     		ldr	r3, .L32+64
 266 0140 41F24E12 		movw	r2, #4430
 267 0144 1A80     		strh	r2, [r3]	@ movhi
 268              	.L22:
 269 0146 1F4B     		ldr	r3, .L32+20
 270 0148 1A88     		ldrh	r2, [r3]
 271 014a 2A4B     		ldr	r3, .L32+68
 272 014c 1A80     		strh	r2, [r3]	@ movhi
 273 014e 264B     		ldr	r3, .L32+56
 274 0150 1B88     		ldrh	r3, [r3]
 275 0152 9BB2     		uxth	r3, r3
 276 0154 40F2DC52 		movw	r2, #1500
 277 0158 9342     		cmp	r3, r2
 278 015a 07D8     		bhi	.L24
 279 015c 264B     		ldr	r3, .L32+72
 280 015e 1B68     		ldr	r3, [r3]
 281 0160 642B     		cmp	r3, #100
 282 0162 03D9     		bls	.L24
 283 0164 244A     		ldr	r2, .L32+72
 284 0166 1368     		ldr	r3, [r2]
 285 0168 013B     		subs	r3, r3, #1
 286 016a 1360     		str	r3, [r2]
 287              	.L24:
 288 016c 234B     		ldr	r3, .L32+76
 289 016e 1A88     		ldrh	r2, [r3]
 290 0170 1E4B     		ldr	r3, .L32+60
 291 0172 1B88     		ldrh	r3, [r3]
 292 0174 9BB2     		uxth	r3, r3
ARM GAS  /tmp/ccRNiEIX.s 			page 6


 293 0176 9A42     		cmp	r2, r3
 294 0178 03D9     		bls	.L25
 295 017a 1C4B     		ldr	r3, .L32+60
 296 017c 1A88     		ldrh	r2, [r3]
 297 017e 1F4B     		ldr	r3, .L32+76
 298 0180 1A80     		strh	r2, [r3]	@ movhi
 299              	.L25:
 300 0182 1F4B     		ldr	r3, .L32+80
 301 0184 1A88     		ldrh	r2, [r3]
 302 0186 194B     		ldr	r3, .L32+60
 303 0188 1B88     		ldrh	r3, [r3]
 304 018a 9BB2     		uxth	r3, r3
 305 018c 9A42     		cmp	r2, r3
 306 018e 03D2     		bcs	.L26
 307 0190 164B     		ldr	r3, .L32+60
 308 0192 1A88     		ldrh	r2, [r3]
 309 0194 1A4B     		ldr	r3, .L32+80
 310 0196 1A80     		strh	r2, [r3]	@ movhi
 311              	.L26:
 312 0198 FFF7FEFF 		bl	phaseControlBemf
 313 019c 03B0     		add	sp, sp, #12
 314              		@ sp needed
 315 019e 5DF804FB 		ldr	pc, [sp], #4
 316              	.L23:
 317 01a2 134B     		ldr	r3, .L32+64
 318 01a4 40F21452 		movw	r2, #1300
 319 01a8 1A80     		strh	r2, [r3]	@ movhi
 320 01aa CCE7     		b	.L22
 321              	.L33:
 322 01ac AFF30080 		.align	3
 323              	.L32:
 324 01b0 E1A0947B 		.word	2073338081
 325 01b4 47AEA33F 		.word	1067691591
 326 01b8 378AAC35 		.word	900500023
 327 01bc 94CA0940 		.word	1074383508
 328 01c0 00240140 		.word	1073816576
 329 01c4 00000000 		.word	adcbuffer
 330 01c8 00000000 		.word	battery_voltage
 331 01cc 00080140 		.word	1073809408
 332 01d0 000C0140 		.word	1073810432
 333 01d4 00000000 		.word	phase_A
 334 01d8 00000000 		.word	motor_voltage
 335 01dc 00000000 		.word	phase_B
 336 01e0 00000000 		.word	phase_C
 337 01e4 ABAAAAAA 		.word	-1431655765
 338 01e8 00000000 		.word	currentValue
 339 01ec 00000000 		.word	filtered_current
 340 01f0 00000000 		.word	temporary_current_value
 341 01f4 00000000 		.word	speedInAdc
 342 01f8 00000000 		.word	pwm_value
 343 01fc 00000000 		.word	minCurrent
 344 0200 00000000 		.word	maxCurrent
 346              		.section	.text.Error_Handler,"ax",%progbits
 347              		.align	1
 348              		.global	Error_Handler
 349              		.syntax unified
 350              		.thumb
ARM GAS  /tmp/ccRNiEIX.s 			page 7


 351              		.thumb_func
 353              	Error_Handler:
 354              		@ Volatile: function does not return.
 355              		@ args = 0, pretend = 0, frame = 0
 356              		@ frame_needed = 0, uses_anonymous_args = 0
 357              		@ link register save eliminated.
 358              		.syntax unified
 359              	@ 142 "Drivers/CMSIS/Include/cmsis_gcc.h" 1
 360 0000 72B6     		cpsid i
 361              	@ 0 "" 2
 362              		.thumb
 363              		.syntax unified
 364              	.L35:
 365 0002 FEE7     		b	.L35
 367              		.section	.text.SystemClock_Config,"ax",%progbits
 368              		.align	1
 369              		.global	SystemClock_Config
 370              		.syntax unified
 371              		.thumb
 372              		.thumb_func
 374              	SystemClock_Config:
 375              		@ args = 0, pretend = 0, frame = 80
 376              		@ frame_needed = 0, uses_anonymous_args = 0
 377 0000 00B5     		push	{lr}
 378 0002 95B0     		sub	sp, sp, #84
 379 0004 2822     		movs	r2, #40
 380 0006 0021     		movs	r1, #0
 381 0008 0DEB0200 		add	r0, sp, r2
 382 000c FFF7FEFF 		bl	memset
 383 0010 0023     		movs	r3, #0
 384 0012 0593     		str	r3, [sp, #20]
 385 0014 0693     		str	r3, [sp, #24]
 386 0016 0793     		str	r3, [sp, #28]
 387 0018 0893     		str	r3, [sp, #32]
 388 001a 0993     		str	r3, [sp, #36]
 389 001c 0193     		str	r3, [sp, #4]
 390 001e 0293     		str	r3, [sp, #8]
 391 0020 0393     		str	r3, [sp, #12]
 392 0022 0493     		str	r3, [sp, #16]
 393 0024 0122     		movs	r2, #1
 394 0026 0A92     		str	r2, [sp, #40]
 395 0028 4FF48033 		mov	r3, #65536
 396 002c 0B93     		str	r3, [sp, #44]
 397 002e 0E92     		str	r2, [sp, #56]
 398 0030 0222     		movs	r2, #2
 399 0032 1192     		str	r2, [sp, #68]
 400 0034 1293     		str	r3, [sp, #72]
 401 0036 4FF4E013 		mov	r3, #1835008
 402 003a 1393     		str	r3, [sp, #76]
 403 003c 0AA8     		add	r0, sp, #40
 404 003e FFF7FEFF 		bl	HAL_RCC_OscConfig
 405 0042 D8B9     		cbnz	r0, .L41
 406 0044 0F23     		movs	r3, #15
 407 0046 0593     		str	r3, [sp, #20]
 408 0048 0221     		movs	r1, #2
 409 004a 0691     		str	r1, [sp, #24]
 410 004c 0023     		movs	r3, #0
ARM GAS  /tmp/ccRNiEIX.s 			page 8


 411 004e 0793     		str	r3, [sp, #28]
 412 0050 4FF48062 		mov	r2, #1024
 413 0054 0892     		str	r2, [sp, #32]
 414 0056 0993     		str	r3, [sp, #36]
 415 0058 05A8     		add	r0, sp, #20
 416 005a FFF7FEFF 		bl	HAL_RCC_ClockConfig
 417 005e 78B9     		cbnz	r0, .L42
 418 0060 1223     		movs	r3, #18
 419 0062 0193     		str	r3, [sp, #4]
 420 0064 4FF40043 		mov	r3, #32768
 421 0068 0393     		str	r3, [sp, #12]
 422 006a 0023     		movs	r3, #0
 423 006c 0493     		str	r3, [sp, #16]
 424 006e 01A8     		add	r0, sp, #4
 425 0070 FFF7FEFF 		bl	HAL_RCCEx_PeriphCLKConfig
 426 0074 30B9     		cbnz	r0, .L43
 427 0076 15B0     		add	sp, sp, #84
 428              		@ sp needed
 429 0078 5DF804FB 		ldr	pc, [sp], #4
 430              	.L41:
 431 007c FFF7FEFF 		bl	Error_Handler
 432              	.L42:
 433 0080 FFF7FEFF 		bl	Error_Handler
 434              	.L43:
 435 0084 FFF7FEFF 		bl	Error_Handler
 437              		.global	__aeabi_i2d
 438              		.global	__aeabi_ddiv
 439              		.section	.text.main,"ax",%progbits
 440              		.align	1
 441              		.global	main
 442              		.syntax unified
 443              		.thumb
 444              		.thumb_func
 446              	main:
 447              		@ Volatile: function does not return.
 448              		@ args = 0, pretend = 0, frame = 0
 449              		@ frame_needed = 0, uses_anonymous_args = 0
 450 0000 00B5     		push	{lr}
 451 0002 83B0     		sub	sp, sp, #12
 452 0004 FFF7FEFF 		bl	HAL_Init
 453 0008 FFF7FEFF 		bl	SystemClock_Config
 454 000c FFF7FEFF 		bl	MX_GPIO_Init
 455 0010 FFF7FEFF 		bl	MX_DMA_Init
 456 0014 FFF7FEFF 		bl	MX_ADC1_Init
 457 0018 FFF7FEFF 		bl	MX_TIM1_Init
 458 001c FFF7FEFF 		bl	MX_USB_DEVICE_Init
 459 0020 FFF7FEFF 		bl	MX_TIM2_Init
 460 0024 FFF7FEFF 		bl	MX_TIM3_Init
 461 0028 FFF7FEFF 		bl	MX_TIM4_Init
 462 002c 0622     		movs	r2, #6
 463 002e 3C49     		ldr	r1, .L62
 464 0030 3C48     		ldr	r0, .L62+4
 465 0032 FFF7FEFF 		bl	HAL_ADC_Start_DMA
 466 0036 3C4C     		ldr	r4, .L62+8
 467 0038 0021     		movs	r1, #0
 468 003a 2046     		mov	r0, r4
 469 003c FFF7FEFF 		bl	HAL_TIM_PWM_Start
ARM GAS  /tmp/ccRNiEIX.s 			page 9


 470 0040 0021     		movs	r1, #0
 471 0042 2046     		mov	r0, r4
 472 0044 FFF7FEFF 		bl	HAL_TIMEx_PWMN_Start
 473 0048 0421     		movs	r1, #4
 474 004a 2046     		mov	r0, r4
 475 004c FFF7FEFF 		bl	HAL_TIM_PWM_Start
 476 0050 0421     		movs	r1, #4
 477 0052 2046     		mov	r0, r4
 478 0054 FFF7FEFF 		bl	HAL_TIMEx_PWMN_Start
 479 0058 0821     		movs	r1, #8
 480 005a 2046     		mov	r0, r4
 481 005c FFF7FEFF 		bl	HAL_TIM_PWM_Start
 482 0060 0821     		movs	r1, #8
 483 0062 2046     		mov	r0, r4
 484 0064 FFF7FEFF 		bl	HAL_TIMEx_PWMN_Start
 485 0068 3048     		ldr	r0, .L62+12
 486 006a FFF7FEFF 		bl	HAL_TIM_Base_Start
 487 006e 4FF47A70 		mov	r0, #1000
 488 0072 FFF7FEFF 		bl	HAL_Delay
 489 0076 0024     		movs	r4, #0
 490 0078 2D4B     		ldr	r3, .L62+16
 491 007a 1C62     		str	r4, [r3, #32]
 492 007c FFF7FEFF 		bl	HAL_GetTick
 493 0080 2C4B     		ldr	r3, .L62+20
 494 0082 1860     		str	r0, [r3]
 495 0084 FFF7FEFF 		bl	HAL_GetTick
 496 0088 2B4B     		ldr	r3, .L62+24
 497 008a 1860     		str	r0, [r3]
 498 008c 2B4D     		ldr	r5, .L62+28
 499 008e 2846     		mov	r0, r5
 500 0090 FFF7FEFF 		bl	HAL_TIM_Base_Start_IT
 501 0094 2B68     		ldr	r3, [r5]
 502 0096 5C62     		str	r4, [r3, #36]
 503 0098 294D     		ldr	r5, .L62+32
 504 009a 2846     		mov	r0, r5
 505 009c FFF7FEFF 		bl	HAL_TIM_Base_Start_IT
 506 00a0 2B68     		ldr	r3, [r5]
 507 00a2 5C62     		str	r4, [r3, #36]
 508 00a4 78E0     		b	.L45
 509              	.L60:
 510 00a6 274B     		ldr	r3, .L62+36
 511 00a8 0022     		movs	r2, #0
 512 00aa 1A70     		strb	r2, [r3]
 513 00ac FFF7FEFF 		bl	HAL_GetTick
 514 00b0 214B     		ldr	r3, .L62+24
 515 00b2 1860     		str	r0, [r3]
 516 00b4 B3E0     		b	.L47
 517              	.L61:
 518 00b6 1C4B     		ldr	r3, .L62+8
 519 00b8 1A68     		ldr	r2, [r3]
 520 00ba 0023     		movs	r3, #0
 521 00bc D363     		str	r3, [r2, #60]
 522 00be 9363     		str	r3, [r2, #56]
 523 00c0 5363     		str	r3, [r2, #52]
 524 00c2 1B4A     		ldr	r2, .L62+16
 525 00c4 1362     		str	r3, [r2, #32]
 526 00c6 FFF7FEFF 		bl	HAL_GetTick
ARM GAS  /tmp/ccRNiEIX.s 			page 10


 527 00ca 1A4B     		ldr	r3, .L62+20
 528 00cc 1860     		str	r0, [r3]
 529 00ce B4E0     		b	.L48
 530              	.L50:
 531 00d0 1D4B     		ldr	r3, .L62+40
 532 00d2 1888     		ldrh	r0, [r3]
 533 00d4 1D4B     		ldr	r3, .L62+44
 534 00d6 1B88     		ldrh	r3, [r3]
 535 00d8 0093     		str	r3, [sp]
 536 00da 0023     		movs	r3, #0
 537 00dc 4FF46162 		mov	r2, #3600
 538 00e0 4FF42F71 		mov	r1, #700
 539 00e4 80B2     		uxth	r0, r0
 540 00e6 FFF7FEFF 		bl	map
 541 00ea 194B     		ldr	r3, .L62+48
 542 00ec 1880     		strh	r0, [r3]	@ movhi
 543 00ee C8E0     		b	.L51
 544              	.L53:
 545 00f0 184A     		ldr	r2, .L62+52
 546 00f2 1360     		str	r3, [r2]
 547 00f4 DAE0     		b	.L54
 548              	.L52:
 549 00f6 184B     		ldr	r3, .L62+56
 550 00f8 1B88     		ldrh	r3, [r3]
 551 00fa 164A     		ldr	r2, .L62+52
 552 00fc 1268     		ldr	r2, [r2]
 553 00fe 9342     		cmp	r3, r2
 554 0100 02D9     		bls	.L55
 555 0102 144A     		ldr	r2, .L62+52
 556 0104 1360     		str	r3, [r2]
 557 0106 D1E0     		b	.L54
 558              	.L55:
 559 0108 124B     		ldr	r3, .L62+52
 560 010a 1B68     		ldr	r3, [r3]
 561 010c B3F5FA7F 		cmp	r3, #500
 562 0110 80F0CC80 		bcs	.L54
 563 0114 0F4A     		ldr	r2, .L62+52
 564 0116 1368     		ldr	r3, [r2]
 565 0118 0133     		adds	r3, r3, #1
 566 011a 1360     		str	r3, [r2]
 567 011c C6E0     		b	.L54
 568              	.L63:
 569 011e 00BF     		.align	2
 570              	.L62:
 571 0120 00000000 		.word	adcbuffer
 572 0124 00000000 		.word	hadc1
 573 0128 00000000 		.word	htim1
 574 012c 00000000 		.word	htim2
 575 0130 002C0140 		.word	1073818624
 576 0134 00000000 		.word	previousTime2
 577 0138 00000000 		.word	previousTime3
 578 013c 00000000 		.word	htim3
 579 0140 00000000 		.word	htim4
 580 0144 00000000 		.word	step_atlandi
 581 0148 00000000 		.word	speedInAdc
 582 014c 00000000 		.word	max_rpm_limit
 583 0150 00000000 		.word	target_rpm
ARM GAS  /tmp/ccRNiEIX.s 			page 11


 584 0154 00000000 		.word	pwm_value
 585 0158 00000000 		.word	min_pwm_limit
 586              	.L49:
 587 015c 754B     		ldr	r3, .L64
 588 015e 1B78     		ldrb	r3, [r3]	@ zero_extendqisi2
 589 0160 D3B1     		cbz	r3, .L45
 590 0162 754B     		ldr	r3, .L64+4
 591 0164 1B88     		ldrh	r3, [r3]
 592 0166 9BB2     		uxth	r3, r3
 593 0168 B3F5487F 		cmp	r3, #800
 594 016c 14D2     		bcs	.L45
 595 016e 734B     		ldr	r3, .L64+8
 596 0170 1A68     		ldr	r2, [r3]
 597 0172 0023     		movs	r3, #0
 598 0174 5363     		str	r3, [r2, #52]
 599 0176 9363     		str	r3, [r2, #56]
 600 0178 D363     		str	r3, [r2, #60]
 601 017a 714A     		ldr	r2, .L64+12
 602 017c 1362     		str	r3, [r2, #32]
 603 017e 0123     		movs	r3, #1
 604 0180 704A     		ldr	r2, .L64+16
 605 0182 1370     		strb	r3, [r2]
 606 0184 704A     		ldr	r2, .L64+20
 607 0186 1370     		strb	r3, [r2]
 608 0188 704B     		ldr	r3, .L64+24
 609 018a 1B68     		ldr	r3, [r3]
 610 018c 002B     		cmp	r3, #0
 611 018e 40F0C880 		bne	.L59
 612              	.L57:
 613 0192 684B     		ldr	r3, .L64
 614 0194 0022     		movs	r2, #0
 615 0196 1A70     		strb	r2, [r3]
 616              	.L45:
 617 0198 6D4C     		ldr	r4, .L64+28
 618 019a 0121     		movs	r1, #1
 619 019c 2046     		mov	r0, r4
 620 019e FFF7FEFF 		bl	HAL_GPIO_ReadPin
 621 01a2 0038     		subs	r0, r0, #0
 622 01a4 18BF     		it	ne
 623 01a6 0120     		movne	r0, #1
 624 01a8 6A4B     		ldr	r3, .L64+32
 625 01aa 1870     		strb	r0, [r3]
 626 01ac 0221     		movs	r1, #2
 627 01ae 2046     		mov	r0, r4
 628 01b0 FFF7FEFF 		bl	HAL_GPIO_ReadPin
 629 01b4 0038     		subs	r0, r0, #0
 630 01b6 18BF     		it	ne
 631 01b8 0120     		movne	r0, #1
 632 01ba 674B     		ldr	r3, .L64+36
 633 01bc 1870     		strb	r0, [r3]
 634 01be 0421     		movs	r1, #4
 635 01c0 2046     		mov	r0, r4
 636 01c2 FFF7FEFF 		bl	HAL_GPIO_ReadPin
 637 01c6 0038     		subs	r0, r0, #0
 638 01c8 18BF     		it	ne
 639 01ca 0120     		movne	r0, #1
 640 01cc 634B     		ldr	r3, .L64+40
ARM GAS  /tmp/ccRNiEIX.s 			page 12


 641 01ce 1870     		strb	r0, [r3]
 642 01d0 584B     		ldr	r3, .L64
 643 01d2 1B78     		ldrb	r3, [r3]	@ zero_extendqisi2
 644 01d4 C3B9     		cbnz	r3, .L46
 645 01d6 624B     		ldr	r3, .L64+44
 646 01d8 1888     		ldrh	r0, [r3]
 647 01da 80B2     		uxth	r0, r0
 648 01dc FFF7FEFF 		bl	__aeabi_i2d
 649 01e0 0022     		movs	r2, #0
 650 01e2 604B     		ldr	r3, .L64+48
 651 01e4 FFF7FEFF 		bl	__aeabi_dmul
 652 01e8 0446     		mov	r4, r0
 653 01ea 0D46     		mov	r5, r1
 654 01ec 5E4B     		ldr	r3, .L64+52
 655 01ee 1888     		ldrh	r0, [r3]
 656 01f0 FFF7FEFF 		bl	__aeabi_i2d
 657 01f4 0246     		mov	r2, r0
 658 01f6 0B46     		mov	r3, r1
 659 01f8 2046     		mov	r0, r4
 660 01fa 2946     		mov	r1, r5
 661 01fc FFF7FEFF 		bl	__aeabi_ddiv
 662 0200 FFF7FEFF 		bl	__aeabi_d2uiz
 663 0204 594B     		ldr	r3, .L64+56
 664 0206 1860     		str	r0, [r3]
 665              	.L46:
 666 0208 594B     		ldr	r3, .L64+60
 667 020a 0022     		movs	r2, #0
 668 020c 1A80     		strh	r2, [r3]	@ movhi
 669 020e FFF7FEFF 		bl	HAL_GetTick
 670 0212 584B     		ldr	r3, .L64+64
 671 0214 1B68     		ldr	r3, [r3]
 672 0216 C01A     		subs	r0, r0, r3
 673 0218 0A28     		cmp	r0, #10
 674 021a 3FF644AF 		bhi	.L60
 675              	.L47:
 676 021e FFF7FEFF 		bl	HAL_GetTick
 677 0222 554B     		ldr	r3, .L64+68
 678 0224 1B68     		ldr	r3, [r3]
 679 0226 C01A     		subs	r0, r0, r3
 680 0228 40F2DC53 		movw	r3, #1500
 681 022c 9842     		cmp	r0, r3
 682 022e 04D9     		bls	.L48
 683 0230 404B     		ldr	r3, .L64
 684 0232 1B78     		ldrb	r3, [r3]	@ zero_extendqisi2
 685 0234 002B     		cmp	r3, #0
 686 0236 7FF43EAF 		bne	.L61
 687              	.L48:
 688 023a 3F4B     		ldr	r3, .L64+4
 689 023c 1B88     		ldrh	r3, [r3]
 690 023e 9BB2     		uxth	r3, r3
 691 0240 B3F5617F 		cmp	r3, #900
 692 0244 8AD3     		bcc	.L49
 693 0246 414B     		ldr	r3, .L64+24
 694 0248 0122     		movs	r2, #1
 695 024a 1A60     		str	r2, [r3]
 696 024c 2021     		movs	r1, #32
 697 024e 4B48     		ldr	r0, .L64+72
ARM GAS  /tmp/ccRNiEIX.s 			page 13


 698 0250 FFF7FEFF 		bl	HAL_GPIO_ReadPin
 699 0254 0028     		cmp	r0, #0
 700 0256 14BF     		ite	ne
 701 0258 0122     		movne	r2, #1
 702 025a 0022     		moveq	r2, #0
 703 025c 484B     		ldr	r3, .L64+76
 704 025e 1A70     		strb	r2, [r3]
 705 0260 7FF436AF 		bne	.L50
 706 0264 344B     		ldr	r3, .L64+4
 707 0266 1888     		ldrh	r0, [r3]
 708 0268 464B     		ldr	r3, .L64+80
 709 026a 1B88     		ldrh	r3, [r3]
 710 026c 0093     		str	r3, [sp]
 711 026e 0023     		movs	r3, #0
 712 0270 4FF46162 		mov	r2, #3600
 713 0274 4FF42F71 		mov	r1, #700
 714 0278 80B2     		uxth	r0, r0
 715 027a FFF7FEFF 		bl	map
 716 027e 424B     		ldr	r3, .L64+84
 717 0280 1880     		strh	r0, [r3]	@ movhi
 718              	.L51:
 719 0282 0120     		movs	r0, #1
 720 0284 FFF7FEFF 		bl	HAL_Delay
 721 0288 3F4B     		ldr	r3, .L64+84
 722 028a 1A88     		ldrh	r2, [r3]
 723 028c 3F4B     		ldr	r3, .L64+88
 724 028e 1B68     		ldr	r3, [r3]
 725 0290 9A42     		cmp	r2, r3
 726 0292 BFF430AF 		bcs	.L52
 727 0296 3E4B     		ldr	r3, .L64+92
 728 0298 1B88     		ldrh	r3, [r3]
 729 029a 344A     		ldr	r2, .L64+56
 730 029c 1268     		ldr	r2, [r2]
 731 029e 9342     		cmp	r3, r2
 732 02a0 BFF426AF 		bcs	.L53
 733 02a4 314A     		ldr	r2, .L64+56
 734 02a6 1368     		ldr	r3, [r2]
 735 02a8 013B     		subs	r3, r3, #1
 736 02aa 1360     		str	r3, [r2]
 737              	.L54:
 738 02ac 214B     		ldr	r3, .L64
 739 02ae 1B78     		ldrb	r3, [r3]	@ zero_extendqisi2
 740 02b0 002B     		cmp	r3, #0
 741 02b2 7FF471AF 		bne	.L45
 742 02b6 0125     		movs	r5, #1
 743 02b8 1E4B     		ldr	r3, .L64
 744 02ba 1D70     		strb	r5, [r3]
 745 02bc 244C     		ldr	r4, .L64+28
 746 02be 0821     		movs	r1, #8
 747 02c0 2046     		mov	r0, r4
 748 02c2 FFF7FEFF 		bl	HAL_GPIO_ReadPin
 749 02c6 0038     		subs	r0, r0, #0
 750 02c8 18BF     		it	ne
 751 02ca 0120     		movne	r0, #1
 752 02cc 314B     		ldr	r3, .L64+96
 753 02ce 1870     		strb	r0, [r3]
 754 02d0 2946     		mov	r1, r5
ARM GAS  /tmp/ccRNiEIX.s 			page 14


 755 02d2 2046     		mov	r0, r4
 756 02d4 FFF7FEFF 		bl	HAL_GPIO_ReadPin
 757 02d8 0038     		subs	r0, r0, #0
 758 02da 18BF     		it	ne
 759 02dc 0120     		movne	r0, #1
 760 02de 1D4B     		ldr	r3, .L64+32
 761 02e0 1870     		strb	r0, [r3]
 762 02e2 0221     		movs	r1, #2
 763 02e4 2046     		mov	r0, r4
 764 02e6 FFF7FEFF 		bl	HAL_GPIO_ReadPin
 765 02ea 0038     		subs	r0, r0, #0
 766 02ec 18BF     		it	ne
 767 02ee 0120     		movne	r0, #1
 768 02f0 194B     		ldr	r3, .L64+36
 769 02f2 1870     		strb	r0, [r3]
 770 02f4 0421     		movs	r1, #4
 771 02f6 2046     		mov	r0, r4
 772 02f8 FFF7FEFF 		bl	HAL_GPIO_ReadPin
 773 02fc 0038     		subs	r0, r0, #0
 774 02fe 18BF     		it	ne
 775 0300 0120     		movne	r0, #1
 776 0302 164B     		ldr	r3, .L64+40
 777 0304 1870     		strb	r0, [r3]
 778 0306 164B     		ldr	r3, .L64+44
 779 0308 1B88     		ldrh	r3, [r3]
 780 030a 9BB2     		uxth	r3, r3
 781 030c 952B     		cmp	r3, #149
 782 030e 3FF643AF 		bhi	.L45
 783 0312 1F4B     		ldr	r3, .L64+92
 784 0314 1A88     		ldrh	r2, [r3]
 785 0316 154B     		ldr	r3, .L64+56
 786 0318 1A60     		str	r2, [r3]
 787 031a 0420     		movs	r0, #4
 788 031c FFF7FEFF 		bl	HAL_GPIO_EXTI_Callback
 789 0320 3AE7     		b	.L45
 790              	.L59:
 791 0322 FFF7FEFF 		bl	HAL_GetTick
 792 0326 1C4B     		ldr	r3, .L64+100
 793 0328 1860     		str	r0, [r3]
 794 032a 084B     		ldr	r3, .L64+24
 795 032c 0022     		movs	r2, #0
 796 032e 1A60     		str	r2, [r3]
 797 0330 2FE7     		b	.L57
 798              	.L65:
 799 0332 00BF     		.align	2
 800              	.L64:
 801 0334 00000000 		.word	run_status
 802 0338 00000000 		.word	speedInAdc
 803 033c 00000000 		.word	htim1
 804 0340 002C0140 		.word	1073818624
 805 0344 00000000 		.word	flagg
 806 0348 00000000 		.word	first_step_flag
 807 034c 00000000 		.word	timeForRotorStopStatusMsFlag
 808 0350 00080140 		.word	1073809408
 809 0354 00000000 		.word	hall_A
 810 0358 00000000 		.word	hall_B
 811 035c 00000000 		.word	hall_C
ARM GAS  /tmp/ccRNiEIX.s 			page 15


 812 0360 00000000 		.word	motor_voltage
 813 0364 00002540 		.word	1076166656
 814 0368 00000000 		.word	battery_voltage
 815 036c 00000000 		.word	pwm_value
 816 0370 00000000 		.word	average
 817 0374 00000000 		.word	previousTime3
 818 0378 00000000 		.word	previousTime2
 819 037c 000C0140 		.word	1073810432
 820 0380 00000000 		.word	mode
 821 0384 00000000 		.word	max_rpm_limit
 822 0388 00000000 		.word	target_rpm
 823 038c 00000000 		.word	rpm
 824 0390 00000000 		.word	min_pwm_limit
 825 0394 00000000 		.word	geri_vites
 826 0398 00000000 		.word	timeForRotorStopStatusMs
 828              		.section	.bss.filtered_value.0,"aw",%nobits
 829              		.align	1
 832              	filtered_value.0:
 833 0000 0000     		.space	2
 834              		.global	dizi_index
 835              		.section	.bss.dizi_index,"aw",%nobits
 836              		.align	1
 839              	dizi_index:
 840 0000 0000     		.space	2
 841              		.global	dizi
 842              		.section	.bss.dizi,"aw",%nobits
 843              		.align	2
 846              	dizi:
 847 0000 00000000 		.space	240
 847      00000000 
 847      00000000 
 847      00000000 
 847      00000000 
 848              		.global	intersection_interval
 849              		.section	.bss.intersection_interval,"aw",%nobits
 850              		.align	2
 853              	intersection_interval:
 854 0000 00000000 		.space	4
 855              		.global	polarity_C
 856              		.section	.bss.polarity_C,"aw",%nobits
 859              	polarity_C:
 860 0000 00       		.space	1
 861              		.global	polarity_B
 862              		.section	.bss.polarity_B,"aw",%nobits
 865              	polarity_B:
 866 0000 00       		.space	1
 867              		.global	polarity_A
 868              		.section	.bss.polarity_A,"aw",%nobits
 871              	polarity_A:
 872 0000 00       		.space	1
 873              		.global	backEMF_mode
 874              		.section	.bss.backEMF_mode,"aw",%nobits
 877              	backEMF_mode:
 878 0000 00       		.space	1
 879              		.global	rpm_max_limit_flag
 880              		.section	.data.rpm_max_limit_flag,"aw"
 881              		.align	1
ARM GAS  /tmp/ccRNiEIX.s 			page 16


 884              	rpm_max_limit_flag:
 885 0000 0100     		.short	1
 886              		.global	step_atlandi
 887              		.section	.bss.step_atlandi,"aw",%nobits
 890              	step_atlandi:
 891 0000 00       		.space	1
 892              		.global	interval_of_steps
 893              		.section	.bss.interval_of_steps,"aw",%nobits
 894              		.align	2
 897              	interval_of_steps:
 898 0000 00000000 		.space	2048
 898      00000000 
 898      00000000 
 898      00000000 
 898      00000000 
 899              		.global	rpm_analysis
 900              		.section	.bss.rpm_analysis,"aw",%nobits
 901              		.align	2
 904              	rpm_analysis:
 905 0000 00000000 		.space	2048
 905      00000000 
 905      00000000 
 905      00000000 
 905      00000000 
 906              		.global	array_counter
 907              		.section	.bss.array_counter,"aw",%nobits
 908              		.align	1
 911              	array_counter:
 912 0000 0000     		.space	2
 913              		.global	analyze_data_1
 914              		.section	.bss.analyze_data_1,"aw",%nobits
 915              		.align	2
 918              	analyze_data_1:
 919 0000 00000000 		.space	960
 919      00000000 
 919      00000000 
 919      00000000 
 919      00000000 
 920              		.global	previousTime4
 921              		.section	.bss.previousTime4,"aw",%nobits
 922              		.align	2
 925              	previousTime4:
 926 0000 00000000 		.space	4
 927              		.global	motor_voltage
 928              		.section	.bss.motor_voltage,"aw",%nobits
 929              		.align	1
 932              	motor_voltage:
 933 0000 0000     		.space	2
 934              		.global	battery_voltage
 935              		.section	.bss.battery_voltage,"aw",%nobits
 936              		.align	1
 939              	battery_voltage:
 940 0000 0000     		.space	2
 941              		.global	flag12
 942              		.section	.bss.flag12,"aw",%nobits
 945              	flag12:
 946 0000 00       		.space	1
ARM GAS  /tmp/ccRNiEIX.s 			page 17


 947              		.global	max_current_limit
 948              		.section	.data.max_current_limit,"aw"
 949              		.align	1
 952              	max_current_limit:
 953 0000 3408     		.short	2100
 954              		.global	max_rpm_limit
 955              		.section	.data.max_rpm_limit,"aw"
 956              		.align	1
 959              	max_rpm_limit:
 960 0000 DC05     		.short	1500
 961              		.global	target_rpm
 962              		.section	.bss.target_rpm,"aw",%nobits
 963              		.align	1
 966              	target_rpm:
 967 0000 0000     		.space	2
 968              		.global	phase_C
 969              		.section	.bss.phase_C,"aw",%nobits
 970              		.align	2
 973              	phase_C:
 974 0000 00000000 		.space	4
 975              		.global	phase_B
 976              		.section	.bss.phase_B,"aw",%nobits
 977              		.align	2
 980              	phase_B:
 981 0000 00000000 		.space	4
 982              		.global	phase_A
 983              		.section	.bss.phase_A,"aw",%nobits
 984              		.align	2
 987              	phase_A:
 988 0000 00000000 		.space	4
 989              		.global	interval_of_runstatus
 990              		.section	.bss.interval_of_runstatus,"aw",%nobits
 991              		.align	2
 994              	interval_of_runstatus:
 995 0000 00000000 		.space	4
 996              		.global	saved_pwm_rpm
 997              		.section	.bss.saved_pwm_rpm,"aw",%nobits
 998              		.align	2
 1001              	saved_pwm_rpm:
 1002 0000 00000000 		.space	60
 1002      00000000 
 1002      00000000 
 1002      00000000 
 1002      00000000 
 1003              		.global	isStoppedTimers
 1004              		.section	.bss.isStoppedTimers,"aw",%nobits
 1007              	isStoppedTimers:
 1008 0000 00       		.space	1
 1009              		.global	new_ARR
 1010              		.section	.bss.new_ARR,"aw",%nobits
 1011              		.align	2
 1014              	new_ARR:
 1015 0000 00000000 		.space	4
 1016              		.global	tim3sayi
 1017              		.section	.bss.tim3sayi,"aw",%nobits
 1018              		.align	2
 1021              	tim3sayi:
ARM GAS  /tmp/ccRNiEIX.s 			page 18


 1022 0000 00000000 		.space	4
 1023              		.global	average
 1024              		.section	.bss.average,"aw",%nobits
 1025              		.align	1
 1028              	average:
 1029 0000 0000     		.space	2
 1030              		.global	temporary_current_value
 1031              		.section	.bss.temporary_current_value,"aw",%nobits
 1032              		.align	1
 1035              	temporary_current_value:
 1036 0000 0000     		.space	2
 1037              		.global	maxCurrent
 1038              		.section	.bss.maxCurrent,"aw",%nobits
 1039              		.align	1
 1042              	maxCurrent:
 1043 0000 0000     		.space	2
 1044              		.global	minCurrent
 1045              		.section	.data.minCurrent,"aw"
 1046              		.align	1
 1049              	minCurrent:
 1050 0000 8813     		.short	5000
 1051              		.global	previousTime3
 1052              		.section	.bss.previousTime3,"aw",%nobits
 1053              		.align	2
 1056              	previousTime3:
 1057 0000 00000000 		.space	4
 1058              		.global	difference_two_coummutation_time
 1059              		.section	.data.difference_two_coummutation_time,"aw"
 1060              		.align	2
 1063              	difference_two_coummutation_time:
 1064 0000 01000000 		.word	1
 1065              		.global	rpm
 1066              		.section	.bss.rpm,"aw",%nobits
 1067              		.align	2
 1070              	rpm:
 1071 0000 00000000 		.space	4
 1072              		.global	rpm_counter
 1073              		.section	.bss.rpm_counter,"aw",%nobits
 1074              		.align	2
 1077              	rpm_counter:
 1078 0000 00000000 		.space	4
 1079              		.global	timeForRotorStopStatusMsFlag
 1080              		.section	.bss.timeForRotorStopStatusMsFlag,"aw",%nobits
 1081              		.align	2
 1084              	timeForRotorStopStatusMsFlag:
 1085 0000 00000000 		.space	4
 1086              		.global	timeForRotorStopStatusMs
 1087              		.section	.bss.timeForRotorStopStatusMs,"aw",%nobits
 1088              		.align	2
 1091              	timeForRotorStopStatusMs:
 1092 0000 00000000 		.space	4
 1093              		.global	oncekiDegerler
 1094              		.section	.bss.oncekiDegerler,"aw",%nobits
 1095              		.align	2
 1098              	oncekiDegerler:
 1099 0000 000000   		.space	3
 1100              		.global	previousTime2
ARM GAS  /tmp/ccRNiEIX.s 			page 19


 1101              		.section	.bss.previousTime2,"aw",%nobits
 1102              		.align	2
 1105              	previousTime2:
 1106 0000 00000000 		.space	4
 1107              		.global	firstStepDelay
 1108              		.section	.data.firstStepDelay,"aw"
 1109              		.align	1
 1112              	firstStepDelay:
 1113 0000 C800     		.short	200
 1114              		.global	min_pwm_limit
 1115              		.section	.data.min_pwm_limit,"aw"
 1116              		.align	1
 1119              	min_pwm_limit:
 1120 0000 8200     		.short	130
 1121              		.global	pedal_value_mapped
 1122              		.section	.bss.pedal_value_mapped,"aw",%nobits
 1123              		.align	2
 1126              	pedal_value_mapped:
 1127 0000 00000000 		.space	4
 1128              		.global	pwm_value2
 1129              		.section	.bss.pwm_value2,"aw",%nobits
 1130              		.align	2
 1133              	pwm_value2:
 1134 0000 00000000 		.space	4
 1135              		.global	pwm_value
 1136              		.section	.bss.pwm_value,"aw",%nobits
 1137              		.align	2
 1140              	pwm_value:
 1141 0000 00000000 		.space	4
 1142              		.global	step
 1143              		.section	.bss.step,"aw",%nobits
 1144              		.align	2
 1147              	step:
 1148 0000 00000000 		.space	4
 1149              		.global	geri_vites
 1150              		.section	.data.geri_vites,"aw"
 1153              	geri_vites:
 1154 0000 01       		.byte	1
 1155              		.global	hall_C
 1156              		.section	.bss.hall_C,"aw",%nobits
 1159              	hall_C:
 1160 0000 00       		.space	1
 1161              		.global	hall_B
 1162              		.section	.bss.hall_B,"aw",%nobits
 1165              	hall_B:
 1166 0000 00       		.space	1
 1167              		.global	hall_A
 1168              		.section	.bss.hall_A,"aw",%nobits
 1171              	hall_A:
 1172 0000 00       		.space	1
 1173              		.global	run_status
 1174              		.section	.bss.run_status,"aw",%nobits
 1177              	run_status:
 1178 0000 00       		.space	1
 1179              		.global	filtered_current
 1180              		.section	.bss.filtered_current,"aw",%nobits
 1181              		.align	1
ARM GAS  /tmp/ccRNiEIX.s 			page 20


 1184              	filtered_current:
 1185 0000 0000     		.space	2
 1186              		.global	currentValue
 1187              		.section	.bss.currentValue,"aw",%nobits
 1188              		.align	1
 1191              	currentValue:
 1192 0000 0000     		.space	2
 1193              		.global	speedInAdc
 1194              		.section	.bss.speedInAdc,"aw",%nobits
 1195              		.align	1
 1198              	speedInAdc:
 1199 0000 0000     		.space	2
 1200              		.global	adcbuffer
 1201              		.section	.bss.adcbuffer,"aw",%nobits
 1202              		.align	2
 1205              	adcbuffer:
 1206 0000 00000000 		.space	24
 1206      00000000 
 1206      00000000 
 1206      00000000 
 1206      00000000 
 1207              		.global	flagg
 1208              		.section	.data.flagg,"aw"
 1211              	flagg:
 1212 0000 01       		.byte	1
 1213              		.global	first_step_flag
 1214              		.section	.data.first_step_flag,"aw"
 1217              	first_step_flag:
 1218 0000 01       		.byte	1
 1219              		.global	mode
 1220              		.section	.data.mode,"aw"
 1223              	mode:
 1224 0000 01       		.byte	1
 1225              		.global	oldValue
 1226              		.section	.bss.oldValue,"aw",%nobits
 1227              		.align	2
 1230              	oldValue:
 1231 0000 000000   		.space	3
 1232              		.ident	"GCC: (15:13.3.rel1-1) 13.3.1 20240614"
ARM GAS  /tmp/ccRNiEIX.s 			page 21

