
build/release/MotorSurucuC8T6.elf:     file format elf32-littlearm

Sections:
Idx Name          Size      VMA       LMA       File off  Algn
  0 .isr_vector   0000010c  08000000  08000000  00001000  2**0
                  CONTENTS, ALLOC, LOAD, READONLY, DATA
  1 .text         00007b98  08000110  08000110  00001110  2**3
                  CONTENTS, ALLOC, LOAD, READONLY, CODE
  2 .rodata       000000d0  08007ca8  08007ca8  00008ca8  2**2
                  CONTENTS, ALLOC, LOAD, READONLY, DATA
  3 .ARM          00000008  08007d78  08007d78  00008d78  2**2
                  CONTENTS, ALLOC, LOAD, READONLY, DATA
  4 .init_array   00000004  08007d80  08007d80  00008d80  2**2
                  CONTENTS, ALLOC, LOAD, DATA
  5 .fini_array   00000004  08007d84  08007d84  00008d84  2**2
                  CONTENTS, ALLOC, LOAD, DATA
  6 .data         000001dc  20000000  08007d88  00009000  2**2
                  CONTENTS, ALLOC, LOAD, DATA
  7 .bss          00001790  200001dc  08007f64  000091dc  2**2
                  ALLOC
  8 ._user_heap_stack 00000604  2000196c  08007f64  0000996c  2**0
                  ALLOC
  9 .ARM.attributes 00000029  00000000  00000000  000091dc  2**0
                  CONTENTS, READONLY
 10 .comment      00000026  00000000  00000000  00009205  2**0
                  CONTENTS, READONLY
 11 .debug_info   0000841c  00000000  00000000  0000922b  2**0
                  CONTENTS, READONLY, DEBUGGING, OCTETS
 12 .debug_abbrev 00001fd7  00000000  00000000  00011647  2**0
                  CONTENTS, READONLY, DEBUGGING, OCTETS
 13 .debug_aranges 00000298  00000000  00000000  00013620  2**3
                  CONTENTS, READONLY, DEBUGGING, OCTETS
 14 .debug_line   0000358c  00000000  00000000  000138b8  2**0
                  CONTENTS, READONLY, DEBUGGING, OCTETS
 15 .debug_str    00000fdd  00000000  00000000  00016e44  2**0
                  CONTENTS, READONLY, DEBUGGING, OCTETS
 16 .debug_frame  00000654  00000000  00000000  00017e24  2**2
                  CONTENTS, READONLY, DEBUGGING, OCTETS
 17 .debug_loclists 0000191f  00000000  00000000  00018478  2**0
                  CONTENTS, READONLY, DEBUGGING, OCTETS
 18 .debug_rnglists 00000154  00000000  00000000  00019d97  2**0
                  CONTENTS, READONLY, DEBUGGING, OCTETS
 19 .debug_line_str 0000012a  00000000  00000000  00019eeb  2**0
                  CONTENTS, READONLY, DEBUGGING, OCTETS

Disassembly of section .text:

08000110 <deregister_tm_clones>:
 8000110:	4803      	ldr	r0, [pc, #12]	@ (8000120 <deregister_tm_clones+0x10>)
 8000112:	4b04      	ldr	r3, [pc, #16]	@ (8000124 <deregister_tm_clones+0x14>)
 8000114:	4283      	cmp	r3, r0
 8000116:	d002      	beq.n	800011e <deregister_tm_clones+0xe>
 8000118:	4b03      	ldr	r3, [pc, #12]	@ (8000128 <deregister_tm_clones+0x18>)
 800011a:	b103      	cbz	r3, 800011e <deregister_tm_clones+0xe>
 800011c:	4718      	bx	r3
 800011e:	4770      	bx	lr
 8000120:	200001dc 	.word	0x200001dc
 8000124:	200001dc 	.word	0x200001dc
 8000128:	00000000 	.word	0x00000000

0800012c <register_tm_clones>:
 800012c:	4805      	ldr	r0, [pc, #20]	@ (8000144 <register_tm_clones+0x18>)
 800012e:	4b06      	ldr	r3, [pc, #24]	@ (8000148 <register_tm_clones+0x1c>)
 8000130:	1a1b      	subs	r3, r3, r0
 8000132:	0fd9      	lsrs	r1, r3, #31
 8000134:	eb01 01a3 	add.w	r1, r1, r3, asr #2
 8000138:	1049      	asrs	r1, r1, #1
 800013a:	d002      	beq.n	8000142 <register_tm_clones+0x16>
 800013c:	4b03      	ldr	r3, [pc, #12]	@ (800014c <register_tm_clones+0x20>)
 800013e:	b103      	cbz	r3, 8000142 <register_tm_clones+0x16>
 8000140:	4718      	bx	r3
 8000142:	4770      	bx	lr
 8000144:	200001dc 	.word	0x200001dc
 8000148:	200001dc 	.word	0x200001dc
 800014c:	00000000 	.word	0x00000000

08000150 <__do_global_dtors_aux>:
 8000150:	b510      	push	{r4, lr}
 8000152:	4c06      	ldr	r4, [pc, #24]	@ (800016c <__do_global_dtors_aux+0x1c>)
 8000154:	7823      	ldrb	r3, [r4, #0]
 8000156:	b943      	cbnz	r3, 800016a <__do_global_dtors_aux+0x1a>
 8000158:	f7ff ffda 	bl	8000110 <deregister_tm_clones>
 800015c:	4b04      	ldr	r3, [pc, #16]	@ (8000170 <__do_global_dtors_aux+0x20>)
 800015e:	b113      	cbz	r3, 8000166 <__do_global_dtors_aux+0x16>
 8000160:	4804      	ldr	r0, [pc, #16]	@ (8000174 <__do_global_dtors_aux+0x24>)
 8000162:	f3af 8000 	nop.w
 8000166:	2301      	movs	r3, #1
 8000168:	7023      	strb	r3, [r4, #0]
 800016a:	bd10      	pop	{r4, pc}
 800016c:	200001dc 	.word	0x200001dc
 8000170:	00000000 	.word	0x00000000
 8000174:	08007c90 	.word	0x08007c90

08000178 <frame_dummy>:
 8000178:	b508      	push	{r3, lr}
 800017a:	4b04      	ldr	r3, [pc, #16]	@ (800018c <frame_dummy+0x14>)
 800017c:	b11b      	cbz	r3, 8000186 <frame_dummy+0xe>
 800017e:	4904      	ldr	r1, [pc, #16]	@ (8000190 <frame_dummy+0x18>)
 8000180:	4804      	ldr	r0, [pc, #16]	@ (8000194 <frame_dummy+0x1c>)
 8000182:	f3af 8000 	nop.w
 8000186:	e8bd 4008 	ldmia.w	sp!, {r3, lr}
 800018a:	e7cf      	b.n	800012c <register_tm_clones>
 800018c:	00000000 	.word	0x00000000
 8000190:	200001e0 	.word	0x200001e0
 8000194:	08007c90 	.word	0x08007c90

08000198 <__errno>:
 8000198:	4b01      	ldr	r3, [pc, #4]	@ (80001a0 <__errno+0x8>)
 800019a:	6818      	ldr	r0, [r3, #0]
 800019c:	4770      	bx	lr
 800019e:	bf00      	nop
 80001a0:	20000000 	.word	0x20000000

080001a4 <__libc_init_array>:
 80001a4:	b570      	push	{r4, r5, r6, lr}
 80001a6:	4b0f      	ldr	r3, [pc, #60]	@ (80001e4 <__libc_init_array+0x40>)
 80001a8:	4d0f      	ldr	r5, [pc, #60]	@ (80001e8 <__libc_init_array+0x44>)
 80001aa:	42ab      	cmp	r3, r5
 80001ac:	eba3 0605 	sub.w	r6, r3, r5
 80001b0:	d007      	beq.n	80001c2 <__libc_init_array+0x1e>
 80001b2:	2400      	movs	r4, #0
 80001b4:	10b6      	asrs	r6, r6, #2
 80001b6:	f855 3b04 	ldr.w	r3, [r5], #4
 80001ba:	3401      	adds	r4, #1
 80001bc:	4798      	blx	r3
 80001be:	42a6      	cmp	r6, r4
 80001c0:	d8f9      	bhi.n	80001b6 <__libc_init_array+0x12>
 80001c2:	f007 fd65 	bl	8007c90 <_init>
 80001c6:	4d09      	ldr	r5, [pc, #36]	@ (80001ec <__libc_init_array+0x48>)
 80001c8:	4b09      	ldr	r3, [pc, #36]	@ (80001f0 <__libc_init_array+0x4c>)
 80001ca:	1b5e      	subs	r6, r3, r5
 80001cc:	42ab      	cmp	r3, r5
 80001ce:	ea4f 06a6 	mov.w	r6, r6, asr #2
 80001d2:	d006      	beq.n	80001e2 <__libc_init_array+0x3e>
 80001d4:	2400      	movs	r4, #0
 80001d6:	f855 3b04 	ldr.w	r3, [r5], #4
 80001da:	3401      	adds	r4, #1
 80001dc:	4798      	blx	r3
 80001de:	42a6      	cmp	r6, r4
 80001e0:	d8f9      	bhi.n	80001d6 <__libc_init_array+0x32>
 80001e2:	bd70      	pop	{r4, r5, r6, pc}
 80001e4:	08007d80 	.word	0x08007d80
 80001e8:	08007d80 	.word	0x08007d80
 80001ec:	08007d80 	.word	0x08007d80
 80001f0:	08007d84 	.word	0x08007d84

080001f4 <memset>:
 80001f4:	b570      	push	{r4, r5, r6, lr}
 80001f6:	0786      	lsls	r6, r0, #30
 80001f8:	d047      	beq.n	800028a <memset+0x96>
 80001fa:	1e54      	subs	r4, r2, #1
 80001fc:	2a00      	cmp	r2, #0
 80001fe:	d03e      	beq.n	800027e <memset+0x8a>
 8000200:	4603      	mov	r3, r0
 8000202:	b2ca      	uxtb	r2, r1
 8000204:	e001      	b.n	800020a <memset+0x16>
 8000206:	3c01      	subs	r4, #1
 8000208:	d339      	bcc.n	800027e <memset+0x8a>
 800020a:	f803 2b01 	strb.w	r2, [r3], #1
 800020e:	079d      	lsls	r5, r3, #30
 8000210:	d1f9      	bne.n	8000206 <memset+0x12>
 8000212:	2c03      	cmp	r4, #3
 8000214:	d92c      	bls.n	8000270 <memset+0x7c>
 8000216:	b2cd      	uxtb	r5, r1
 8000218:	eb05 2505 	add.w	r5, r5, r5, lsl #8
 800021c:	2c0f      	cmp	r4, #15
 800021e:	461a      	mov	r2, r3
 8000220:	eb05 4505 	add.w	r5, r5, r5, lsl #16
 8000224:	d934      	bls.n	8000290 <memset+0x9c>
 8000226:	f1a4 0c10 	sub.w	ip, r4, #16
 800022a:	f02c 060f 	bic.w	r6, ip, #15
 800022e:	f103 0e10 	add.w	lr, r3, #16
 8000232:	44b6      	add	lr, r6
 8000234:	ea4f 1c1c 	mov.w	ip, ip, lsr #4
 8000238:	e9c2 5500 	strd	r5, r5, [r2]
 800023c:	e9c2 5502 	strd	r5, r5, [r2, #8]
 8000240:	3210      	adds	r2, #16
 8000242:	4572      	cmp	r2, lr
 8000244:	d1f8      	bne.n	8000238 <memset+0x44>
 8000246:	f10c 0201 	add.w	r2, ip, #1
 800024a:	f014 0f0c 	tst.w	r4, #12
 800024e:	eb03 1202 	add.w	r2, r3, r2, lsl #4
 8000252:	f004 0c0f 	and.w	ip, r4, #15
 8000256:	d013      	beq.n	8000280 <memset+0x8c>
 8000258:	f1ac 0304 	sub.w	r3, ip, #4
 800025c:	f023 0303 	bic.w	r3, r3, #3
 8000260:	3304      	adds	r3, #4
 8000262:	4413      	add	r3, r2
 8000264:	f842 5b04 	str.w	r5, [r2], #4
 8000268:	4293      	cmp	r3, r2
 800026a:	d1fb      	bne.n	8000264 <memset+0x70>
 800026c:	f00c 0403 	and.w	r4, ip, #3
 8000270:	b12c      	cbz	r4, 800027e <memset+0x8a>
 8000272:	b2c9      	uxtb	r1, r1
 8000274:	441c      	add	r4, r3
 8000276:	f803 1b01 	strb.w	r1, [r3], #1
 800027a:	42a3      	cmp	r3, r4
 800027c:	d1fb      	bne.n	8000276 <memset+0x82>
 800027e:	bd70      	pop	{r4, r5, r6, pc}
 8000280:	4664      	mov	r4, ip
 8000282:	4613      	mov	r3, r2
 8000284:	2c00      	cmp	r4, #0
 8000286:	d1f4      	bne.n	8000272 <memset+0x7e>
 8000288:	e7f9      	b.n	800027e <memset+0x8a>
 800028a:	4603      	mov	r3, r0
 800028c:	4614      	mov	r4, r2
 800028e:	e7c0      	b.n	8000212 <memset+0x1e>
 8000290:	46a4      	mov	ip, r4
 8000292:	e7e1      	b.n	8000258 <memset+0x64>

08000294 <_sniprintf_r>:
 8000294:	b408      	push	{r3}
 8000296:	b510      	push	{r4, lr}
 8000298:	2a00      	cmp	r2, #0
 800029a:	4604      	mov	r4, r0
 800029c:	b09d      	sub	sp, #116	@ 0x74
 800029e:	db34      	blt.n	800030a <_sniprintf_r+0x76>
 80002a0:	f44f 7c02 	mov.w	ip, #520	@ 0x208
 80002a4:	f04f 0300 	mov.w	r3, #0
 80002a8:	f8ad c014 	strh.w	ip, [sp, #20]
 80002ac:	931b      	str	r3, [sp, #108]	@ 0x6c
 80002ae:	f64f 7cff 	movw	ip, #65535	@ 0xffff
 80002b2:	9102      	str	r1, [sp, #8]
 80002b4:	9106      	str	r1, [sp, #24]
 80002b6:	ab20      	add	r3, sp, #128	@ 0x80
 80002b8:	d015      	beq.n	80002e6 <_sniprintf_r+0x52>
 80002ba:	3a01      	subs	r2, #1
 80002bc:	9204      	str	r2, [sp, #16]
 80002be:	9207      	str	r2, [sp, #28]
 80002c0:	a902      	add	r1, sp, #8
 80002c2:	9a1f      	ldr	r2, [sp, #124]	@ 0x7c
 80002c4:	9301      	str	r3, [sp, #4]
 80002c6:	f8ad c016 	strh.w	ip, [sp, #22]
 80002ca:	f000 f951 	bl	8000570 <_svfiprintf_r>
 80002ce:	1c42      	adds	r2, r0, #1
 80002d0:	da01      	bge.n	80002d6 <_sniprintf_r+0x42>
 80002d2:	238b      	movs	r3, #139	@ 0x8b
 80002d4:	6023      	str	r3, [r4, #0]
 80002d6:	2200      	movs	r2, #0
 80002d8:	9b02      	ldr	r3, [sp, #8]
 80002da:	701a      	strb	r2, [r3, #0]
 80002dc:	b01d      	add	sp, #116	@ 0x74
 80002de:	e8bd 4010 	ldmia.w	sp!, {r4, lr}
 80002e2:	b001      	add	sp, #4
 80002e4:	4770      	bx	lr
 80002e6:	9204      	str	r2, [sp, #16]
 80002e8:	9207      	str	r2, [sp, #28]
 80002ea:	a902      	add	r1, sp, #8
 80002ec:	9a1f      	ldr	r2, [sp, #124]	@ 0x7c
 80002ee:	9301      	str	r3, [sp, #4]
 80002f0:	f8ad c016 	strh.w	ip, [sp, #22]
 80002f4:	f000 f93c 	bl	8000570 <_svfiprintf_r>
 80002f8:	1c43      	adds	r3, r0, #1
 80002fa:	da01      	bge.n	8000300 <_sniprintf_r+0x6c>
 80002fc:	238b      	movs	r3, #139	@ 0x8b
 80002fe:	6023      	str	r3, [r4, #0]
 8000300:	b01d      	add	sp, #116	@ 0x74
 8000302:	e8bd 4010 	ldmia.w	sp!, {r4, lr}
 8000306:	b001      	add	sp, #4
 8000308:	4770      	bx	lr
 800030a:	238b      	movs	r3, #139	@ 0x8b
 800030c:	f04f 30ff 	mov.w	r0, #4294967295	@ 0xffffffff
 8000310:	6023      	str	r3, [r4, #0]
 8000312:	e7f5      	b.n	8000300 <_sniprintf_r+0x6c>

08000314 <sniprintf>:
 8000314:	b40c      	push	{r2, r3}
 8000316:	b510      	push	{r4, lr}
 8000318:	4b20      	ldr	r3, [pc, #128]	@ (800039c <sniprintf+0x88>)
 800031a:	2900      	cmp	r1, #0
 800031c:	681c      	ldr	r4, [r3, #0]
 800031e:	b09c      	sub	sp, #112	@ 0x70
 8000320:	db36      	blt.n	8000390 <sniprintf+0x7c>
 8000322:	f04f 0300 	mov.w	r3, #0
 8000326:	f44f 7202 	mov.w	r2, #520	@ 0x208
 800032a:	931b      	str	r3, [sp, #108]	@ 0x6c
 800032c:	f64f 7cff 	movw	ip, #65535	@ 0xffff
 8000330:	9002      	str	r0, [sp, #8]
 8000332:	9006      	str	r0, [sp, #24]
 8000334:	f8ad 2014 	strh.w	r2, [sp, #20]
 8000338:	ab1f      	add	r3, sp, #124	@ 0x7c
 800033a:	d016      	beq.n	800036a <sniprintf+0x56>
 800033c:	3901      	subs	r1, #1
 800033e:	9a1e      	ldr	r2, [sp, #120]	@ 0x78
 8000340:	9104      	str	r1, [sp, #16]
 8000342:	9107      	str	r1, [sp, #28]
 8000344:	4620      	mov	r0, r4
 8000346:	a902      	add	r1, sp, #8
 8000348:	9301      	str	r3, [sp, #4]
 800034a:	f8ad c016 	strh.w	ip, [sp, #22]
 800034e:	f000 f90f 	bl	8000570 <_svfiprintf_r>
 8000352:	1c42      	adds	r2, r0, #1
 8000354:	da01      	bge.n	800035a <sniprintf+0x46>
 8000356:	238b      	movs	r3, #139	@ 0x8b
 8000358:	6023      	str	r3, [r4, #0]
 800035a:	2200      	movs	r2, #0
 800035c:	9b02      	ldr	r3, [sp, #8]
 800035e:	701a      	strb	r2, [r3, #0]
 8000360:	b01c      	add	sp, #112	@ 0x70
 8000362:	e8bd 4010 	ldmia.w	sp!, {r4, lr}
 8000366:	b002      	add	sp, #8
 8000368:	4770      	bx	lr
 800036a:	9104      	str	r1, [sp, #16]
 800036c:	9107      	str	r1, [sp, #28]
 800036e:	4620      	mov	r0, r4
 8000370:	9a1e      	ldr	r2, [sp, #120]	@ 0x78
 8000372:	a902      	add	r1, sp, #8
 8000374:	9301      	str	r3, [sp, #4]
 8000376:	f8ad c016 	strh.w	ip, [sp, #22]
 800037a:	f000 f8f9 	bl	8000570 <_svfiprintf_r>
 800037e:	1c43      	adds	r3, r0, #1
 8000380:	da01      	bge.n	8000386 <sniprintf+0x72>
 8000382:	238b      	movs	r3, #139	@ 0x8b
 8000384:	6023      	str	r3, [r4, #0]
 8000386:	b01c      	add	sp, #112	@ 0x70
 8000388:	e8bd 4010 	ldmia.w	sp!, {r4, lr}
 800038c:	b002      	add	sp, #8
 800038e:	4770      	bx	lr
 8000390:	238b      	movs	r3, #139	@ 0x8b
 8000392:	f04f 30ff 	mov.w	r0, #4294967295	@ 0xffffffff
 8000396:	6023      	str	r3, [r4, #0]
 8000398:	e7f5      	b.n	8000386 <sniprintf+0x72>
 800039a:	bf00      	nop
 800039c:	20000000 	.word	0x20000000

080003a0 <__ssputs_r>:
 80003a0:	e92d 47f0 	stmdb	sp!, {r4, r5, r6, r7, r8, r9, sl, lr}
 80003a4:	461d      	mov	r5, r3
 80003a6:	688f      	ldr	r7, [r1, #8]
 80003a8:	460c      	mov	r4, r1
 80003aa:	42af      	cmp	r7, r5
 80003ac:	4616      	mov	r6, r2
 80003ae:	680b      	ldr	r3, [r1, #0]
 80003b0:	d836      	bhi.n	8000420 <__ssputs_r+0x80>
 80003b2:	f9b1 c00c 	ldrsh.w	ip, [r1, #12]
 80003b6:	f41c 6f90 	tst.w	ip, #1152	@ 0x480
 80003ba:	d10e      	bne.n	80003da <__ssputs_r+0x3a>
 80003bc:	463d      	mov	r5, r7
 80003be:	4618      	mov	r0, r3
 80003c0:	4631      	mov	r1, r6
 80003c2:	462a      	mov	r2, r5
 80003c4:	f000 fdbc 	bl	8000f40 <memmove>
 80003c8:	2000      	movs	r0, #0
 80003ca:	68a3      	ldr	r3, [r4, #8]
 80003cc:	1bdf      	subs	r7, r3, r7
 80003ce:	6823      	ldr	r3, [r4, #0]
 80003d0:	60a7      	str	r7, [r4, #8]
 80003d2:	442b      	add	r3, r5
 80003d4:	6023      	str	r3, [r4, #0]
 80003d6:	e8bd 87f0 	ldmia.w	sp!, {r4, r5, r6, r7, r8, r9, sl, pc}
 80003da:	694a      	ldr	r2, [r1, #20]
 80003dc:	6909      	ldr	r1, [r1, #16]
 80003de:	eb02 0242 	add.w	r2, r2, r2, lsl #1
 80003e2:	1a5f      	subs	r7, r3, r1
 80003e4:	eb02 72d2 	add.w	r2, r2, r2, lsr #31
 80003e8:	1c6b      	adds	r3, r5, #1
 80003ea:	1052      	asrs	r2, r2, #1
 80003ec:	443b      	add	r3, r7
 80003ee:	4293      	cmp	r3, r2
 80003f0:	bf92      	itee	ls
 80003f2:	4691      	movls	r9, r2
 80003f4:	4699      	movhi	r9, r3
 80003f6:	461a      	movhi	r2, r3
 80003f8:	f41c 6f80 	tst.w	ip, #1024	@ 0x400
 80003fc:	4680      	mov	r8, r0
 80003fe:	d011      	beq.n	8000424 <__ssputs_r+0x84>
 8000400:	4611      	mov	r1, r2
 8000402:	f000 fa3f 	bl	8000884 <_malloc_r>
 8000406:	4682      	mov	sl, r0
 8000408:	b300      	cbz	r0, 800044c <__ssputs_r+0xac>
 800040a:	463a      	mov	r2, r7
 800040c:	6921      	ldr	r1, [r4, #16]
 800040e:	f000 fab9 	bl	8000984 <memcpy>
 8000412:	89a3      	ldrh	r3, [r4, #12]
 8000414:	f423 6390 	bic.w	r3, r3, #1152	@ 0x480
 8000418:	f043 0380 	orr.w	r3, r3, #128	@ 0x80
 800041c:	81a3      	strh	r3, [r4, #12]
 800041e:	e005      	b.n	800042c <__ssputs_r+0x8c>
 8000420:	462f      	mov	r7, r5
 8000422:	e7cc      	b.n	80003be <__ssputs_r+0x1e>
 8000424:	f000 fb82 	bl	8000b2c <_realloc_r>
 8000428:	4682      	mov	sl, r0
 800042a:	b158      	cbz	r0, 8000444 <__ssputs_r+0xa4>
 800042c:	eb0a 0307 	add.w	r3, sl, r7
 8000430:	eba9 0707 	sub.w	r7, r9, r7
 8000434:	60a7      	str	r7, [r4, #8]
 8000436:	f8c4 a010 	str.w	sl, [r4, #16]
 800043a:	462f      	mov	r7, r5
 800043c:	f8c4 9014 	str.w	r9, [r4, #20]
 8000440:	6023      	str	r3, [r4, #0]
 8000442:	e7bc      	b.n	80003be <__ssputs_r+0x1e>
 8000444:	4640      	mov	r0, r8
 8000446:	6921      	ldr	r1, [r4, #16]
 8000448:	f000 fb12 	bl	8000a70 <_free_r>
 800044c:	220c      	movs	r2, #12
 800044e:	89a3      	ldrh	r3, [r4, #12]
 8000450:	f04f 30ff 	mov.w	r0, #4294967295	@ 0xffffffff
 8000454:	f043 0340 	orr.w	r3, r3, #64	@ 0x40
 8000458:	f8c8 2000 	str.w	r2, [r8]
 800045c:	81a3      	strh	r3, [r4, #12]
 800045e:	e7ba      	b.n	80003d6 <__ssputs_r+0x36>

08000460 <__ssprint_r>:
 8000460:	e92d 4ff0 	stmdb	sp!, {r4, r5, r6, r7, r8, r9, sl, fp, lr}
 8000464:	6893      	ldr	r3, [r2, #8]
 8000466:	b083      	sub	sp, #12
 8000468:	4692      	mov	sl, r2
 800046a:	6817      	ldr	r7, [r2, #0]
 800046c:	9001      	str	r0, [sp, #4]
 800046e:	2b00      	cmp	r3, #0
 8000470:	d076      	beq.n	8000560 <__ssprint_r+0x100>
 8000472:	f04f 0b00 	mov.w	fp, #0
 8000476:	460c      	mov	r4, r1
 8000478:	465d      	mov	r5, fp
 800047a:	688b      	ldr	r3, [r1, #8]
 800047c:	680a      	ldr	r2, [r1, #0]
 800047e:	e048      	b.n	8000512 <__ssprint_r+0xb2>
 8000480:	f9b4 c00c 	ldrsh.w	ip, [r4, #12]
 8000484:	f41c 6f90 	tst.w	ip, #1152	@ 0x480
 8000488:	d02f      	beq.n	80004ea <__ssprint_r+0x8a>
 800048a:	e9d4 0304 	ldrd	r0, r3, [r4, #16]
 800048e:	eba2 0800 	sub.w	r8, r2, r0
 8000492:	eb03 0243 	add.w	r2, r3, r3, lsl #1
 8000496:	eb02 72d2 	add.w	r2, r2, r2, lsr #31
 800049a:	f108 0101 	add.w	r1, r8, #1
 800049e:	1052      	asrs	r2, r2, #1
 80004a0:	4429      	add	r1, r5
 80004a2:	4291      	cmp	r1, r2
 80004a4:	bf92      	itee	ls
 80004a6:	4691      	movls	r9, r2
 80004a8:	4689      	movhi	r9, r1
 80004aa:	460a      	movhi	r2, r1
 80004ac:	f41c 6f80 	tst.w	ip, #1024	@ 0x400
 80004b0:	d039      	beq.n	8000526 <__ssprint_r+0xc6>
 80004b2:	4611      	mov	r1, r2
 80004b4:	9801      	ldr	r0, [sp, #4]
 80004b6:	f000 f9e5 	bl	8000884 <_malloc_r>
 80004ba:	4606      	mov	r6, r0
 80004bc:	2800      	cmp	r0, #0
 80004be:	d03d      	beq.n	800053c <__ssprint_r+0xdc>
 80004c0:	4642      	mov	r2, r8
 80004c2:	6921      	ldr	r1, [r4, #16]
 80004c4:	f000 fa5e 	bl	8000984 <memcpy>
 80004c8:	89a2      	ldrh	r2, [r4, #12]
 80004ca:	f422 6290 	bic.w	r2, r2, #1152	@ 0x480
 80004ce:	f042 0280 	orr.w	r2, r2, #128	@ 0x80
 80004d2:	81a2      	strh	r2, [r4, #12]
 80004d4:	eb06 0008 	add.w	r0, r6, r8
 80004d8:	eba9 0208 	sub.w	r2, r9, r8
 80004dc:	6126      	str	r6, [r4, #16]
 80004de:	46a8      	mov	r8, r5
 80004e0:	462e      	mov	r6, r5
 80004e2:	60a2      	str	r2, [r4, #8]
 80004e4:	6020      	str	r0, [r4, #0]
 80004e6:	f8c4 9014 	str.w	r9, [r4, #20]
 80004ea:	4632      	mov	r2, r6
 80004ec:	4659      	mov	r1, fp
 80004ee:	f000 fd27 	bl	8000f40 <memmove>
 80004f2:	f8da 1008 	ldr.w	r1, [sl, #8]
 80004f6:	68a3      	ldr	r3, [r4, #8]
 80004f8:	6822      	ldr	r2, [r4, #0]
 80004fa:	eba3 0308 	sub.w	r3, r3, r8
 80004fe:	4432      	add	r2, r6
 8000500:	1b49      	subs	r1, r1, r5
 8000502:	60a3      	str	r3, [r4, #8]
 8000504:	6022      	str	r2, [r4, #0]
 8000506:	f8ca 1008 	str.w	r1, [sl, #8]
 800050a:	b349      	cbz	r1, 8000560 <__ssprint_r+0x100>
 800050c:	e9d7 b500 	ldrd	fp, r5, [r7]
 8000510:	3708      	adds	r7, #8
 8000512:	4698      	mov	r8, r3
 8000514:	4610      	mov	r0, r2
 8000516:	2d00      	cmp	r5, #0
 8000518:	d0f8      	beq.n	800050c <__ssprint_r+0xac>
 800051a:	429d      	cmp	r5, r3
 800051c:	461e      	mov	r6, r3
 800051e:	d2af      	bcs.n	8000480 <__ssprint_r+0x20>
 8000520:	46a8      	mov	r8, r5
 8000522:	462e      	mov	r6, r5
 8000524:	e7e1      	b.n	80004ea <__ssprint_r+0x8a>
 8000526:	4601      	mov	r1, r0
 8000528:	9801      	ldr	r0, [sp, #4]
 800052a:	f000 faff 	bl	8000b2c <_realloc_r>
 800052e:	4606      	mov	r6, r0
 8000530:	2800      	cmp	r0, #0
 8000532:	d1cf      	bne.n	80004d4 <__ssprint_r+0x74>
 8000534:	9801      	ldr	r0, [sp, #4]
 8000536:	6921      	ldr	r1, [r4, #16]
 8000538:	f000 fa9a 	bl	8000a70 <_free_r>
 800053c:	210c      	movs	r1, #12
 800053e:	89a3      	ldrh	r3, [r4, #12]
 8000540:	9d01      	ldr	r5, [sp, #4]
 8000542:	f043 0340 	orr.w	r3, r3, #64	@ 0x40
 8000546:	6029      	str	r1, [r5, #0]
 8000548:	2200      	movs	r2, #0
 800054a:	81a3      	strh	r3, [r4, #12]
 800054c:	f04f 30ff 	mov.w	r0, #4294967295	@ 0xffffffff
 8000550:	2300      	movs	r3, #0
 8000552:	f8ca 2008 	str.w	r2, [sl, #8]
 8000556:	f8ca 3004 	str.w	r3, [sl, #4]
 800055a:	b003      	add	sp, #12
 800055c:	e8bd 8ff0 	ldmia.w	sp!, {r4, r5, r6, r7, r8, r9, sl, fp, pc}
 8000560:	2000      	movs	r0, #0
 8000562:	2300      	movs	r3, #0
 8000564:	f8ca 3004 	str.w	r3, [sl, #4]
 8000568:	b003      	add	sp, #12
 800056a:	e8bd 8ff0 	ldmia.w	sp!, {r4, r5, r6, r7, r8, r9, sl, fp, pc}
 800056e:	bf00      	nop

08000570 <_svfiprintf_r>:
 8000570:	e92d 4ff0 	stmdb	sp!, {r4, r5, r6, r7, r8, r9, sl, fp, lr}
 8000574:	461c      	mov	r4, r3
 8000576:	898b      	ldrh	r3, [r1, #12]
 8000578:	4689      	mov	r9, r1
 800057a:	061d      	lsls	r5, r3, #24
 800057c:	4682      	mov	sl, r0
 800057e:	4693      	mov	fp, r2
 8000580:	b09d      	sub	sp, #116	@ 0x74
 8000582:	d503      	bpl.n	800058c <_svfiprintf_r+0x1c>
 8000584:	690b      	ldr	r3, [r1, #16]
 8000586:	2b00      	cmp	r3, #0
 8000588:	f000 80ee 	beq.w	8000768 <_svfiprintf_r+0x1f8>
 800058c:	2300      	movs	r3, #0
 800058e:	f243 0220 	movw	r2, #12320	@ 0x3020
 8000592:	9309      	str	r3, [sp, #36]	@ 0x24
 8000594:	f89b 3000 	ldrb.w	r3, [fp]
 8000598:	2701      	movs	r7, #1
 800059a:	4e7c      	ldr	r6, [pc, #496]	@ (800078c <_svfiprintf_r+0x21c>)
 800059c:	9403      	str	r4, [sp, #12]
 800059e:	f8ad 2029 	strh.w	r2, [sp, #41]	@ 0x29
 80005a2:	2b00      	cmp	r3, #0
 80005a4:	d071      	beq.n	800068a <_svfiprintf_r+0x11a>
 80005a6:	465d      	mov	r5, fp
 80005a8:	e003      	b.n	80005b2 <_svfiprintf_r+0x42>
 80005aa:	f815 3f01 	ldrb.w	r3, [r5, #1]!
 80005ae:	2b00      	cmp	r3, #0
 80005b0:	d073      	beq.n	800069a <_svfiprintf_r+0x12a>
 80005b2:	2b25      	cmp	r3, #37	@ 0x25
 80005b4:	d1f9      	bne.n	80005aa <_svfiprintf_r+0x3a>
 80005b6:	ebb5 040b 	subs.w	r4, r5, fp
 80005ba:	d171      	bne.n	80006a0 <_svfiprintf_r+0x130>
 80005bc:	782a      	ldrb	r2, [r5, #0]
 80005be:	2a00      	cmp	r2, #0
 80005c0:	d063      	beq.n	800068a <_svfiprintf_r+0x11a>
 80005c2:	2300      	movs	r3, #0
 80005c4:	f04f 32ff 	mov.w	r2, #4294967295	@ 0xffffffff
 80005c8:	3501      	adds	r5, #1
 80005ca:	e9cd 2305 	strd	r2, r3, [sp, #20]
 80005ce:	9304      	str	r3, [sp, #16]
 80005d0:	9307      	str	r3, [sp, #28]
 80005d2:	f88d 3053 	strb.w	r3, [sp, #83]	@ 0x53
 80005d6:	931a      	str	r3, [sp, #104]	@ 0x68
 80005d8:	e006      	b.n	80005e8 <_svfiprintf_r+0x78>
 80005da:	4625      	mov	r5, r4
 80005dc:	9b04      	ldr	r3, [sp, #16]
 80005de:	1b80      	subs	r0, r0, r6
 80005e0:	fa07 f000 	lsl.w	r0, r7, r0
 80005e4:	4303      	orrs	r3, r0
 80005e6:	9304      	str	r3, [sp, #16]
 80005e8:	462c      	mov	r4, r5
 80005ea:	2205      	movs	r2, #5
 80005ec:	f814 1b01 	ldrb.w	r1, [r4], #1
 80005f0:	4630      	mov	r0, r6
 80005f2:	f000 f8d5 	bl	80007a0 <memchr>
 80005f6:	46a3      	mov	fp, r4
 80005f8:	2800      	cmp	r0, #0
 80005fa:	d1ee      	bne.n	80005da <_svfiprintf_r+0x6a>
 80005fc:	9b04      	ldr	r3, [sp, #16]
 80005fe:	06d9      	lsls	r1, r3, #27
 8000600:	bf44      	itt	mi
 8000602:	2220      	movmi	r2, #32
 8000604:	f88d 2053 	strbmi.w	r2, [sp, #83]	@ 0x53
 8000608:	071a      	lsls	r2, r3, #28
 800060a:	bf48      	it	mi
 800060c:	222b      	movmi	r2, #43	@ 0x2b
 800060e:	7829      	ldrb	r1, [r5, #0]
 8000610:	bf48      	it	mi
 8000612:	f88d 2053 	strbmi.w	r2, [sp, #83]	@ 0x53
 8000616:	292a      	cmp	r1, #42	@ 0x2a
 8000618:	d14f      	bne.n	80006ba <_svfiprintf_r+0x14a>
 800061a:	9a03      	ldr	r2, [sp, #12]
 800061c:	6811      	ldr	r1, [r2, #0]
 800061e:	3204      	adds	r2, #4
 8000620:	2900      	cmp	r1, #0
 8000622:	9203      	str	r2, [sp, #12]
 8000624:	db7b      	blt.n	800071e <_svfiprintf_r+0x1ae>
 8000626:	9107      	str	r1, [sp, #28]
 8000628:	7869      	ldrb	r1, [r5, #1]
 800062a:	292e      	cmp	r1, #46	@ 0x2e
 800062c:	d05b      	beq.n	80006e6 <_svfiprintf_r+0x176>
 800062e:	4c58      	ldr	r4, [pc, #352]	@ (8000790 <_svfiprintf_r+0x220>)
 8000630:	2203      	movs	r2, #3
 8000632:	4620      	mov	r0, r4
 8000634:	f000 f8b4 	bl	80007a0 <memchr>
 8000638:	b138      	cbz	r0, 800064a <_svfiprintf_r+0xda>
 800063a:	2240      	movs	r2, #64	@ 0x40
 800063c:	9b04      	ldr	r3, [sp, #16]
 800063e:	1b00      	subs	r0, r0, r4
 8000640:	4082      	lsls	r2, r0
 8000642:	4313      	orrs	r3, r2
 8000644:	f10b 0b01 	add.w	fp, fp, #1
 8000648:	9304      	str	r3, [sp, #16]
 800064a:	f81b 1b01 	ldrb.w	r1, [fp], #1
 800064e:	2206      	movs	r2, #6
 8000650:	4850      	ldr	r0, [pc, #320]	@ (8000794 <_svfiprintf_r+0x224>)
 8000652:	f88d 1028 	strb.w	r1, [sp, #40]	@ 0x28
 8000656:	f000 f8a3 	bl	80007a0 <memchr>
 800065a:	2800      	cmp	r0, #0
 800065c:	d065      	beq.n	800072a <_svfiprintf_r+0x1ba>
 800065e:	4b4e      	ldr	r3, [pc, #312]	@ (8000798 <_svfiprintf_r+0x228>)
 8000660:	2b00      	cmp	r3, #0
 8000662:	d055      	beq.n	8000710 <_svfiprintf_r+0x1a0>
 8000664:	a903      	add	r1, sp, #12
 8000666:	9100      	str	r1, [sp, #0]
 8000668:	464a      	mov	r2, r9
 800066a:	4650      	mov	r0, sl
 800066c:	4b4b      	ldr	r3, [pc, #300]	@ (800079c <_svfiprintf_r+0x22c>)
 800066e:	a904      	add	r1, sp, #16
 8000670:	f3af 8000 	nop.w
 8000674:	4680      	mov	r8, r0
 8000676:	f1b8 3fff 	cmp.w	r8, #4294967295	@ 0xffffffff
 800067a:	d006      	beq.n	800068a <_svfiprintf_r+0x11a>
 800067c:	9b09      	ldr	r3, [sp, #36]	@ 0x24
 800067e:	4443      	add	r3, r8
 8000680:	9309      	str	r3, [sp, #36]	@ 0x24
 8000682:	f89b 3000 	ldrb.w	r3, [fp]
 8000686:	2b00      	cmp	r3, #0
 8000688:	d18d      	bne.n	80005a6 <_svfiprintf_r+0x36>
 800068a:	f8b9 300c 	ldrh.w	r3, [r9, #12]
 800068e:	065b      	lsls	r3, r3, #25
 8000690:	d479      	bmi.n	8000786 <_svfiprintf_r+0x216>
 8000692:	9809      	ldr	r0, [sp, #36]	@ 0x24
 8000694:	b01d      	add	sp, #116	@ 0x74
 8000696:	e8bd 8ff0 	ldmia.w	sp!, {r4, r5, r6, r7, r8, r9, sl, fp, pc}
 800069a:	ebb5 040b 	subs.w	r4, r5, fp
 800069e:	d0f4      	beq.n	800068a <_svfiprintf_r+0x11a>
 80006a0:	4623      	mov	r3, r4
 80006a2:	465a      	mov	r2, fp
 80006a4:	4649      	mov	r1, r9
 80006a6:	4650      	mov	r0, sl
 80006a8:	f7ff fe7a 	bl	80003a0 <__ssputs_r>
 80006ac:	3001      	adds	r0, #1
 80006ae:	d0ec      	beq.n	800068a <_svfiprintf_r+0x11a>
 80006b0:	9b09      	ldr	r3, [sp, #36]	@ 0x24
 80006b2:	782a      	ldrb	r2, [r5, #0]
 80006b4:	4423      	add	r3, r4
 80006b6:	9309      	str	r3, [sp, #36]	@ 0x24
 80006b8:	e781      	b.n	80005be <_svfiprintf_r+0x4e>
 80006ba:	f1a1 0230 	sub.w	r2, r1, #48	@ 0x30
 80006be:	2a09      	cmp	r2, #9
 80006c0:	bf88      	it	hi
 80006c2:	46ab      	movhi	fp, r5
 80006c4:	d8b1      	bhi.n	800062a <_svfiprintf_r+0xba>
 80006c6:	9b07      	ldr	r3, [sp, #28]
 80006c8:	e000      	b.n	80006cc <_svfiprintf_r+0x15c>
 80006ca:	3401      	adds	r4, #1
 80006cc:	7821      	ldrb	r1, [r4, #0]
 80006ce:	eb03 0383 	add.w	r3, r3, r3, lsl #2
 80006d2:	eb02 0343 	add.w	r3, r2, r3, lsl #1
 80006d6:	f1a1 0230 	sub.w	r2, r1, #48	@ 0x30
 80006da:	2a09      	cmp	r2, #9
 80006dc:	d9f5      	bls.n	80006ca <_svfiprintf_r+0x15a>
 80006de:	292e      	cmp	r1, #46	@ 0x2e
 80006e0:	46a3      	mov	fp, r4
 80006e2:	9307      	str	r3, [sp, #28]
 80006e4:	d1a3      	bne.n	800062e <_svfiprintf_r+0xbe>
 80006e6:	f89b 1001 	ldrb.w	r1, [fp, #1]
 80006ea:	292a      	cmp	r1, #42	@ 0x2a
 80006ec:	d127      	bne.n	800073e <_svfiprintf_r+0x1ce>
 80006ee:	9b03      	ldr	r3, [sp, #12]
 80006f0:	f10b 0002 	add.w	r0, fp, #2
 80006f4:	681a      	ldr	r2, [r3, #0]
 80006f6:	3304      	adds	r3, #4
 80006f8:	2a00      	cmp	r2, #0
 80006fa:	9303      	str	r3, [sp, #12]
 80006fc:	bfb8      	it	lt
 80006fe:	f04f 33ff 	movlt.w	r3, #4294967295	@ 0xffffffff
 8000702:	f89b 1002 	ldrb.w	r1, [fp, #2]
 8000706:	9205      	str	r2, [sp, #20]
 8000708:	4683      	mov	fp, r0
 800070a:	bfb8      	it	lt
 800070c:	9305      	strlt	r3, [sp, #20]
 800070e:	e78e      	b.n	800062e <_svfiprintf_r+0xbe>
 8000710:	9b03      	ldr	r3, [sp, #12]
 8000712:	3307      	adds	r3, #7
 8000714:	f023 0307 	bic.w	r3, r3, #7
 8000718:	3308      	adds	r3, #8
 800071a:	9303      	str	r3, [sp, #12]
 800071c:	e7ae      	b.n	800067c <_svfiprintf_r+0x10c>
 800071e:	4249      	negs	r1, r1
 8000720:	f043 0302 	orr.w	r3, r3, #2
 8000724:	9107      	str	r1, [sp, #28]
 8000726:	9304      	str	r3, [sp, #16]
 8000728:	e77e      	b.n	8000628 <_svfiprintf_r+0xb8>
 800072a:	a903      	add	r1, sp, #12
 800072c:	9100      	str	r1, [sp, #0]
 800072e:	464a      	mov	r2, r9
 8000730:	4650      	mov	r0, sl
 8000732:	4b1a      	ldr	r3, [pc, #104]	@ (800079c <_svfiprintf_r+0x22c>)
 8000734:	a904      	add	r1, sp, #16
 8000736:	f000 fabd 	bl	8000cb4 <_printf_i>
 800073a:	4680      	mov	r8, r0
 800073c:	e79b      	b.n	8000676 <_svfiprintf_r+0x106>
 800073e:	2300      	movs	r3, #0
 8000740:	f1a1 0230 	sub.w	r2, r1, #48	@ 0x30
 8000744:	2a09      	cmp	r2, #9
 8000746:	f10b 0b01 	add.w	fp, fp, #1
 800074a:	9305      	str	r3, [sp, #20]
 800074c:	f63f af6f 	bhi.w	800062e <_svfiprintf_r+0xbe>
 8000750:	f81b 1f01 	ldrb.w	r1, [fp, #1]!
 8000754:	eb03 0383 	add.w	r3, r3, r3, lsl #2
 8000758:	eb02 0343 	add.w	r3, r2, r3, lsl #1
 800075c:	f1a1 0230 	sub.w	r2, r1, #48	@ 0x30
 8000760:	2a09      	cmp	r2, #9
 8000762:	d9f5      	bls.n	8000750 <_svfiprintf_r+0x1e0>
 8000764:	9305      	str	r3, [sp, #20]
 8000766:	e762      	b.n	800062e <_svfiprintf_r+0xbe>
 8000768:	2140      	movs	r1, #64	@ 0x40
 800076a:	f000 f88b 	bl	8000884 <_malloc_r>
 800076e:	f8c9 0000 	str.w	r0, [r9]
 8000772:	f8c9 0010 	str.w	r0, [r9, #16]
 8000776:	b118      	cbz	r0, 8000780 <_svfiprintf_r+0x210>
 8000778:	2340      	movs	r3, #64	@ 0x40
 800077a:	f8c9 3014 	str.w	r3, [r9, #20]
 800077e:	e705      	b.n	800058c <_svfiprintf_r+0x1c>
 8000780:	230c      	movs	r3, #12
 8000782:	f8ca 3000 	str.w	r3, [sl]
 8000786:	f04f 30ff 	mov.w	r0, #4294967295	@ 0xffffffff
 800078a:	e783      	b.n	8000694 <_svfiprintf_r+0x124>
 800078c:	08007d18 	.word	0x08007d18
 8000790:	08007d20 	.word	0x08007d20
 8000794:	08007d24 	.word	0x08007d24
 8000798:	00000000 	.word	0x00000000
 800079c:	080003a1 	.word	0x080003a1

080007a0 <memchr>:
 80007a0:	fa5f fc81 	uxtb.w	ip, r1
 80007a4:	0781      	lsls	r1, r0, #30
 80007a6:	d044      	beq.n	8000832 <memchr+0x92>
 80007a8:	4603      	mov	r3, r0
 80007aa:	1e51      	subs	r1, r2, #1
 80007ac:	b922      	cbnz	r2, 80007b8 <memchr+0x18>
 80007ae:	e009      	b.n	80007c4 <memchr+0x24>
 80007b0:	079a      	lsls	r2, r3, #30
 80007b2:	d009      	beq.n	80007c8 <memchr+0x28>
 80007b4:	3901      	subs	r1, #1
 80007b6:	d305      	bcc.n	80007c4 <memchr+0x24>
 80007b8:	4618      	mov	r0, r3
 80007ba:	7802      	ldrb	r2, [r0, #0]
 80007bc:	3301      	adds	r3, #1
 80007be:	4562      	cmp	r2, ip
 80007c0:	d1f6      	bne.n	80007b0 <memchr+0x10>
 80007c2:	4770      	bx	lr
 80007c4:	2000      	movs	r0, #0
 80007c6:	4770      	bx	lr
 80007c8:	4618      	mov	r0, r3
 80007ca:	2903      	cmp	r1, #3
 80007cc:	d80c      	bhi.n	80007e8 <memchr+0x48>
 80007ce:	2900      	cmp	r1, #0
 80007d0:	d0f8      	beq.n	80007c4 <memchr+0x24>
 80007d2:	4603      	mov	r3, r0
 80007d4:	4401      	add	r1, r0
 80007d6:	e001      	b.n	80007dc <memchr+0x3c>
 80007d8:	428b      	cmp	r3, r1
 80007da:	d0f3      	beq.n	80007c4 <memchr+0x24>
 80007dc:	4618      	mov	r0, r3
 80007de:	f813 2b01 	ldrb.w	r2, [r3], #1
 80007e2:	4562      	cmp	r2, ip
 80007e4:	d1f8      	bne.n	80007d8 <memchr+0x38>
 80007e6:	4770      	bx	lr
 80007e8:	b510      	push	{r4, lr}
 80007ea:	eb0c 240c 	add.w	r4, ip, ip, lsl #8
 80007ee:	4602      	mov	r2, r0
 80007f0:	eb04 4404 	add.w	r4, r4, r4, lsl #16
 80007f4:	e002      	b.n	80007fc <memchr+0x5c>
 80007f6:	3904      	subs	r1, #4
 80007f8:	2903      	cmp	r1, #3
 80007fa:	d915      	bls.n	8000828 <memchr+0x88>
 80007fc:	4610      	mov	r0, r2
 80007fe:	f852 3b04 	ldr.w	r3, [r2], #4
 8000802:	4063      	eors	r3, r4
 8000804:	f1a3 3e01 	sub.w	lr, r3, #16843009	@ 0x1010101
 8000808:	ea2e 0303 	bic.w	r3, lr, r3
 800080c:	f013 3f80 	tst.w	r3, #2155905152	@ 0x80808080
 8000810:	d0f1      	beq.n	80007f6 <memchr+0x56>
 8000812:	4603      	mov	r3, r0
 8000814:	4401      	add	r1, r0
 8000816:	e001      	b.n	800081c <memchr+0x7c>
 8000818:	428b      	cmp	r3, r1
 800081a:	d008      	beq.n	800082e <memchr+0x8e>
 800081c:	4618      	mov	r0, r3
 800081e:	f813 2b01 	ldrb.w	r2, [r3], #1
 8000822:	4562      	cmp	r2, ip
 8000824:	d1f8      	bne.n	8000818 <memchr+0x78>
 8000826:	bd10      	pop	{r4, pc}
 8000828:	4610      	mov	r0, r2
 800082a:	2900      	cmp	r1, #0
 800082c:	d1f1      	bne.n	8000812 <memchr+0x72>
 800082e:	2000      	movs	r0, #0
 8000830:	bd10      	pop	{r4, pc}
 8000832:	4611      	mov	r1, r2
 8000834:	e7c9      	b.n	80007ca <memchr+0x2a>
 8000836:	bf00      	nop

08000838 <sbrk_aligned>:
 8000838:	b570      	push	{r4, r5, r6, lr}
 800083a:	4e11      	ldr	r6, [pc, #68]	@ (8000880 <sbrk_aligned+0x48>)
 800083c:	4605      	mov	r5, r0
 800083e:	6833      	ldr	r3, [r6, #0]
 8000840:	460c      	mov	r4, r1
 8000842:	b1bb      	cbz	r3, 8000874 <sbrk_aligned+0x3c>
 8000844:	4621      	mov	r1, r4
 8000846:	4628      	mov	r0, r5
 8000848:	f000 fbf8 	bl	800103c <_sbrk_r>
 800084c:	1c43      	adds	r3, r0, #1
 800084e:	4601      	mov	r1, r0
 8000850:	d00c      	beq.n	800086c <sbrk_aligned+0x34>
 8000852:	1cc4      	adds	r4, r0, #3
 8000854:	f024 0403 	bic.w	r4, r4, #3
 8000858:	42a0      	cmp	r0, r4
 800085a:	d005      	beq.n	8000868 <sbrk_aligned+0x30>
 800085c:	4628      	mov	r0, r5
 800085e:	1a61      	subs	r1, r4, r1
 8000860:	f000 fbec 	bl	800103c <_sbrk_r>
 8000864:	3001      	adds	r0, #1
 8000866:	d001      	beq.n	800086c <sbrk_aligned+0x34>
 8000868:	4620      	mov	r0, r4
 800086a:	bd70      	pop	{r4, r5, r6, pc}
 800086c:	f04f 34ff 	mov.w	r4, #4294967295	@ 0xffffffff
 8000870:	4620      	mov	r0, r4
 8000872:	bd70      	pop	{r4, r5, r6, pc}
 8000874:	4619      	mov	r1, r3
 8000876:	f000 fbe1 	bl	800103c <_sbrk_r>
 800087a:	6030      	str	r0, [r6, #0]
 800087c:	e7e2      	b.n	8000844 <sbrk_aligned+0xc>
 800087e:	bf00      	nop
 8000880:	20000334 	.word	0x20000334

08000884 <_malloc_r>:
 8000884:	e92d 43f8 	stmdb	sp!, {r3, r4, r5, r6, r7, r8, r9, lr}
 8000888:	1ccd      	adds	r5, r1, #3
 800088a:	f025 0503 	bic.w	r5, r5, #3
 800088e:	3508      	adds	r5, #8
 8000890:	2d0c      	cmp	r5, #12
 8000892:	bf38      	it	cc
 8000894:	250c      	movcc	r5, #12
 8000896:	2d00      	cmp	r5, #0
 8000898:	4606      	mov	r6, r0
 800089a:	db18      	blt.n	80008ce <_malloc_r+0x4a>
 800089c:	42a9      	cmp	r1, r5
 800089e:	d816      	bhi.n	80008ce <_malloc_r+0x4a>
 80008a0:	f8df 80dc 	ldr.w	r8, [pc, #220]	@ 8000980 <_malloc_r+0xfc>
 80008a4:	f000 fb48 	bl	8000f38 <__malloc_lock>
 80008a8:	f8d8 2004 	ldr.w	r2, [r8, #4]
 80008ac:	b1a2      	cbz	r2, 80008d8 <_malloc_r+0x54>
 80008ae:	4614      	mov	r4, r2
 80008b0:	e003      	b.n	80008ba <_malloc_r+0x36>
 80008b2:	6863      	ldr	r3, [r4, #4]
 80008b4:	4622      	mov	r2, r4
 80008b6:	b17b      	cbz	r3, 80008d8 <_malloc_r+0x54>
 80008b8:	461c      	mov	r4, r3
 80008ba:	6823      	ldr	r3, [r4, #0]
 80008bc:	1b5b      	subs	r3, r3, r5
 80008be:	d4f8      	bmi.n	80008b2 <_malloc_r+0x2e>
 80008c0:	2b0b      	cmp	r3, #11
 80008c2:	d81f      	bhi.n	8000904 <_malloc_r+0x80>
 80008c4:	4294      	cmp	r4, r2
 80008c6:	6863      	ldr	r3, [r4, #4]
 80008c8:	d054      	beq.n	8000974 <_malloc_r+0xf0>
 80008ca:	6053      	str	r3, [r2, #4]
 80008cc:	e00c      	b.n	80008e8 <_malloc_r+0x64>
 80008ce:	230c      	movs	r3, #12
 80008d0:	6033      	str	r3, [r6, #0]
 80008d2:	2000      	movs	r0, #0
 80008d4:	e8bd 83f8 	ldmia.w	sp!, {r3, r4, r5, r6, r7, r8, r9, pc}
 80008d8:	4629      	mov	r1, r5
 80008da:	4630      	mov	r0, r6
 80008dc:	f7ff ffac 	bl	8000838 <sbrk_aligned>
 80008e0:	1c43      	adds	r3, r0, #1
 80008e2:	4604      	mov	r4, r0
 80008e4:	d019      	beq.n	800091a <_malloc_r+0x96>
 80008e6:	6005      	str	r5, [r0, #0]
 80008e8:	4630      	mov	r0, r6
 80008ea:	f000 fb27 	bl	8000f3c <__malloc_unlock>
 80008ee:	f104 000b 	add.w	r0, r4, #11
 80008f2:	1d23      	adds	r3, r4, #4
 80008f4:	f020 0007 	bic.w	r0, r0, #7
 80008f8:	1ac2      	subs	r2, r0, r3
 80008fa:	bf1c      	itt	ne
 80008fc:	1a1b      	subne	r3, r3, r0
 80008fe:	50a3      	strne	r3, [r4, r2]
 8000900:	e8bd 83f8 	ldmia.w	sp!, {r3, r4, r5, r6, r7, r8, r9, pc}
 8000904:	1961      	adds	r1, r4, r5
 8000906:	4294      	cmp	r4, r2
 8000908:	6025      	str	r5, [r4, #0]
 800090a:	bf14      	ite	ne
 800090c:	6051      	strne	r1, [r2, #4]
 800090e:	f8c8 1004 	streq.w	r1, [r8, #4]
 8000912:	5163      	str	r3, [r4, r5]
 8000914:	6863      	ldr	r3, [r4, #4]
 8000916:	604b      	str	r3, [r1, #4]
 8000918:	e7e6      	b.n	80008e8 <_malloc_r+0x64>
 800091a:	f8d8 7004 	ldr.w	r7, [r8, #4]
 800091e:	b31f      	cbz	r7, 8000968 <_malloc_r+0xe4>
 8000920:	463c      	mov	r4, r7
 8000922:	687f      	ldr	r7, [r7, #4]
 8000924:	2f00      	cmp	r7, #0
 8000926:	d1fb      	bne.n	8000920 <_malloc_r+0x9c>
 8000928:	6823      	ldr	r3, [r4, #0]
 800092a:	4639      	mov	r1, r7
 800092c:	4630      	mov	r0, r6
 800092e:	eb04 0903 	add.w	r9, r4, r3
 8000932:	f000 fb83 	bl	800103c <_sbrk_r>
 8000936:	4581      	cmp	r9, r0
 8000938:	d116      	bne.n	8000968 <_malloc_r+0xe4>
 800093a:	6823      	ldr	r3, [r4, #0]
 800093c:	4630      	mov	r0, r6
 800093e:	1aed      	subs	r5, r5, r3
 8000940:	4629      	mov	r1, r5
 8000942:	f7ff ff79 	bl	8000838 <sbrk_aligned>
 8000946:	3001      	adds	r0, #1
 8000948:	d00e      	beq.n	8000968 <_malloc_r+0xe4>
 800094a:	6823      	ldr	r3, [r4, #0]
 800094c:	f8d8 2004 	ldr.w	r2, [r8, #4]
 8000950:	442b      	add	r3, r5
 8000952:	6023      	str	r3, [r4, #0]
 8000954:	6853      	ldr	r3, [r2, #4]
 8000956:	b183      	cbz	r3, 800097a <_malloc_r+0xf6>
 8000958:	42a3      	cmp	r3, r4
 800095a:	d003      	beq.n	8000964 <_malloc_r+0xe0>
 800095c:	461a      	mov	r2, r3
 800095e:	685b      	ldr	r3, [r3, #4]
 8000960:	429c      	cmp	r4, r3
 8000962:	d1fb      	bne.n	800095c <_malloc_r+0xd8>
 8000964:	2300      	movs	r3, #0
 8000966:	e7b0      	b.n	80008ca <_malloc_r+0x46>
 8000968:	230c      	movs	r3, #12
 800096a:	4630      	mov	r0, r6
 800096c:	6033      	str	r3, [r6, #0]
 800096e:	f000 fae5 	bl	8000f3c <__malloc_unlock>
 8000972:	e7ae      	b.n	80008d2 <_malloc_r+0x4e>
 8000974:	f8c8 3004 	str.w	r3, [r8, #4]
 8000978:	e7b6      	b.n	80008e8 <_malloc_r+0x64>
 800097a:	f8c8 7004 	str.w	r7, [r8, #4]
 800097e:	e7b3      	b.n	80008e8 <_malloc_r+0x64>
 8000980:	20000334 	.word	0x20000334

08000984 <memcpy>:
 8000984:	4684      	mov	ip, r0
 8000986:	ea41 0300 	orr.w	r3, r1, r0
 800098a:	f013 0303 	ands.w	r3, r3, #3
 800098e:	d149      	bne.n	8000a24 <memcpy+0xa0>
 8000990:	3a40      	subs	r2, #64	@ 0x40
 8000992:	d323      	bcc.n	80009dc <memcpy+0x58>
 8000994:	680b      	ldr	r3, [r1, #0]
 8000996:	6003      	str	r3, [r0, #0]
 8000998:	684b      	ldr	r3, [r1, #4]
 800099a:	6043      	str	r3, [r0, #4]
 800099c:	688b      	ldr	r3, [r1, #8]
 800099e:	6083      	str	r3, [r0, #8]
 80009a0:	68cb      	ldr	r3, [r1, #12]
 80009a2:	60c3      	str	r3, [r0, #12]
 80009a4:	690b      	ldr	r3, [r1, #16]
 80009a6:	6103      	str	r3, [r0, #16]
 80009a8:	694b      	ldr	r3, [r1, #20]
 80009aa:	6143      	str	r3, [r0, #20]
 80009ac:	698b      	ldr	r3, [r1, #24]
 80009ae:	6183      	str	r3, [r0, #24]
 80009b0:	69cb      	ldr	r3, [r1, #28]
 80009b2:	61c3      	str	r3, [r0, #28]
 80009b4:	6a0b      	ldr	r3, [r1, #32]
 80009b6:	6203      	str	r3, [r0, #32]
 80009b8:	6a4b      	ldr	r3, [r1, #36]	@ 0x24
 80009ba:	6243      	str	r3, [r0, #36]	@ 0x24
 80009bc:	6a8b      	ldr	r3, [r1, #40]	@ 0x28
 80009be:	6283      	str	r3, [r0, #40]	@ 0x28
 80009c0:	6acb      	ldr	r3, [r1, #44]	@ 0x2c
 80009c2:	62c3      	str	r3, [r0, #44]	@ 0x2c
 80009c4:	6b0b      	ldr	r3, [r1, #48]	@ 0x30
 80009c6:	6303      	str	r3, [r0, #48]	@ 0x30
 80009c8:	6b4b      	ldr	r3, [r1, #52]	@ 0x34
 80009ca:	6343      	str	r3, [r0, #52]	@ 0x34
 80009cc:	6b8b      	ldr	r3, [r1, #56]	@ 0x38
 80009ce:	6383      	str	r3, [r0, #56]	@ 0x38
 80009d0:	6bcb      	ldr	r3, [r1, #60]	@ 0x3c
 80009d2:	63c3      	str	r3, [r0, #60]	@ 0x3c
 80009d4:	3040      	adds	r0, #64	@ 0x40
 80009d6:	3140      	adds	r1, #64	@ 0x40
 80009d8:	3a40      	subs	r2, #64	@ 0x40
 80009da:	d2db      	bcs.n	8000994 <memcpy+0x10>
 80009dc:	3230      	adds	r2, #48	@ 0x30
 80009de:	d30b      	bcc.n	80009f8 <memcpy+0x74>
 80009e0:	680b      	ldr	r3, [r1, #0]
 80009e2:	6003      	str	r3, [r0, #0]
 80009e4:	684b      	ldr	r3, [r1, #4]
 80009e6:	6043      	str	r3, [r0, #4]
 80009e8:	688b      	ldr	r3, [r1, #8]
 80009ea:	6083      	str	r3, [r0, #8]
 80009ec:	68cb      	ldr	r3, [r1, #12]
 80009ee:	60c3      	str	r3, [r0, #12]
 80009f0:	3010      	adds	r0, #16
 80009f2:	3110      	adds	r1, #16
 80009f4:	3a10      	subs	r2, #16
 80009f6:	d2f3      	bcs.n	80009e0 <memcpy+0x5c>
 80009f8:	320c      	adds	r2, #12
 80009fa:	d305      	bcc.n	8000a08 <memcpy+0x84>
 80009fc:	f851 3b04 	ldr.w	r3, [r1], #4
 8000a00:	f840 3b04 	str.w	r3, [r0], #4
 8000a04:	3a04      	subs	r2, #4
 8000a06:	d2f9      	bcs.n	80009fc <memcpy+0x78>
 8000a08:	3204      	adds	r2, #4
 8000a0a:	d008      	beq.n	8000a1e <memcpy+0x9a>
 8000a0c:	07d2      	lsls	r2, r2, #31
 8000a0e:	bf1c      	itt	ne
 8000a10:	f811 3b01 	ldrbne.w	r3, [r1], #1
 8000a14:	f800 3b01 	strbne.w	r3, [r0], #1
 8000a18:	d301      	bcc.n	8000a1e <memcpy+0x9a>
 8000a1a:	880b      	ldrh	r3, [r1, #0]
 8000a1c:	8003      	strh	r3, [r0, #0]
 8000a1e:	4660      	mov	r0, ip
 8000a20:	4770      	bx	lr
 8000a22:	bf00      	nop
 8000a24:	2a08      	cmp	r2, #8
 8000a26:	d313      	bcc.n	8000a50 <memcpy+0xcc>
 8000a28:	078b      	lsls	r3, r1, #30
 8000a2a:	d0b1      	beq.n	8000990 <memcpy+0xc>
 8000a2c:	f010 0303 	ands.w	r3, r0, #3
 8000a30:	d0ae      	beq.n	8000990 <memcpy+0xc>
 8000a32:	f1c3 0304 	rsb	r3, r3, #4
 8000a36:	1ad2      	subs	r2, r2, r3
 8000a38:	07db      	lsls	r3, r3, #31
 8000a3a:	bf1c      	itt	ne
 8000a3c:	f811 3b01 	ldrbne.w	r3, [r1], #1
 8000a40:	f800 3b01 	strbne.w	r3, [r0], #1
 8000a44:	d3a4      	bcc.n	8000990 <memcpy+0xc>
 8000a46:	f831 3b02 	ldrh.w	r3, [r1], #2
 8000a4a:	f820 3b02 	strh.w	r3, [r0], #2
 8000a4e:	e79f      	b.n	8000990 <memcpy+0xc>
 8000a50:	3a04      	subs	r2, #4
 8000a52:	d3d9      	bcc.n	8000a08 <memcpy+0x84>
 8000a54:	3a01      	subs	r2, #1
 8000a56:	f811 3b01 	ldrb.w	r3, [r1], #1
 8000a5a:	f800 3b01 	strb.w	r3, [r0], #1
 8000a5e:	d2f9      	bcs.n	8000a54 <memcpy+0xd0>
 8000a60:	780b      	ldrb	r3, [r1, #0]
 8000a62:	7003      	strb	r3, [r0, #0]
 8000a64:	784b      	ldrb	r3, [r1, #1]
 8000a66:	7043      	strb	r3, [r0, #1]
 8000a68:	788b      	ldrb	r3, [r1, #2]
 8000a6a:	7083      	strb	r3, [r0, #2]
 8000a6c:	4660      	mov	r0, ip
 8000a6e:	4770      	bx	lr

08000a70 <_free_r>:
 8000a70:	2900      	cmp	r1, #0
 8000a72:	d050      	beq.n	8000b16 <_free_r+0xa6>
 8000a74:	b538      	push	{r3, r4, r5, lr}
 8000a76:	f851 3c04 	ldr.w	r3, [r1, #-4]
 8000a7a:	1f0c      	subs	r4, r1, #4
 8000a7c:	2b00      	cmp	r3, #0
 8000a7e:	bfb8      	it	lt
 8000a80:	18e4      	addlt	r4, r4, r3
 8000a82:	4605      	mov	r5, r0
 8000a84:	f000 fa58 	bl	8000f38 <__malloc_lock>
 8000a88:	4a27      	ldr	r2, [pc, #156]	@ (8000b28 <_free_r+0xb8>)
 8000a8a:	6813      	ldr	r3, [r2, #0]
 8000a8c:	b12b      	cbz	r3, 8000a9a <_free_r+0x2a>
 8000a8e:	42a3      	cmp	r3, r4
 8000a90:	d90c      	bls.n	8000aac <_free_r+0x3c>
 8000a92:	6821      	ldr	r1, [r4, #0]
 8000a94:	1860      	adds	r0, r4, r1
 8000a96:	4283      	cmp	r3, r0
 8000a98:	d02c      	beq.n	8000af4 <_free_r+0x84>
 8000a9a:	4628      	mov	r0, r5
 8000a9c:	6063      	str	r3, [r4, #4]
 8000a9e:	6014      	str	r4, [r2, #0]
 8000aa0:	e8bd 4038 	ldmia.w	sp!, {r3, r4, r5, lr}
 8000aa4:	f000 ba4a 	b.w	8000f3c <__malloc_unlock>
 8000aa8:	42a3      	cmp	r3, r4
 8000aaa:	d80f      	bhi.n	8000acc <_free_r+0x5c>
 8000aac:	461a      	mov	r2, r3
 8000aae:	685b      	ldr	r3, [r3, #4]
 8000ab0:	2b00      	cmp	r3, #0
 8000ab2:	d1f9      	bne.n	8000aa8 <_free_r+0x38>
 8000ab4:	6811      	ldr	r1, [r2, #0]
 8000ab6:	1850      	adds	r0, r2, r1
 8000ab8:	4284      	cmp	r4, r0
 8000aba:	d017      	beq.n	8000aec <_free_r+0x7c>
 8000abc:	d32c      	bcc.n	8000b18 <_free_r+0xa8>
 8000abe:	6063      	str	r3, [r4, #4]
 8000ac0:	6054      	str	r4, [r2, #4]
 8000ac2:	4628      	mov	r0, r5
 8000ac4:	e8bd 4038 	ldmia.w	sp!, {r3, r4, r5, lr}
 8000ac8:	f000 ba38 	b.w	8000f3c <__malloc_unlock>
 8000acc:	6811      	ldr	r1, [r2, #0]
 8000ace:	1850      	adds	r0, r2, r1
 8000ad0:	42a0      	cmp	r0, r4
 8000ad2:	d014      	beq.n	8000afe <_free_r+0x8e>
 8000ad4:	d820      	bhi.n	8000b18 <_free_r+0xa8>
 8000ad6:	6821      	ldr	r1, [r4, #0]
 8000ad8:	1860      	adds	r0, r4, r1
 8000ada:	4283      	cmp	r3, r0
 8000adc:	d1ef      	bne.n	8000abe <_free_r+0x4e>
 8000ade:	6818      	ldr	r0, [r3, #0]
 8000ae0:	685b      	ldr	r3, [r3, #4]
 8000ae2:	4408      	add	r0, r1
 8000ae4:	e9c4 0300 	strd	r0, r3, [r4]
 8000ae8:	6054      	str	r4, [r2, #4]
 8000aea:	e7ea      	b.n	8000ac2 <_free_r+0x52>
 8000aec:	6823      	ldr	r3, [r4, #0]
 8000aee:	440b      	add	r3, r1
 8000af0:	6013      	str	r3, [r2, #0]
 8000af2:	e7e6      	b.n	8000ac2 <_free_r+0x52>
 8000af4:	6818      	ldr	r0, [r3, #0]
 8000af6:	685b      	ldr	r3, [r3, #4]
 8000af8:	4408      	add	r0, r1
 8000afa:	6020      	str	r0, [r4, #0]
 8000afc:	e7cd      	b.n	8000a9a <_free_r+0x2a>
 8000afe:	6820      	ldr	r0, [r4, #0]
 8000b00:	4401      	add	r1, r0
 8000b02:	1850      	adds	r0, r2, r1
 8000b04:	4283      	cmp	r3, r0
 8000b06:	6011      	str	r1, [r2, #0]
 8000b08:	d1db      	bne.n	8000ac2 <_free_r+0x52>
 8000b0a:	e9d3 0400 	ldrd	r0, r4, [r3]
 8000b0e:	4401      	add	r1, r0
 8000b10:	e9c2 1400 	strd	r1, r4, [r2]
 8000b14:	e7d5      	b.n	8000ac2 <_free_r+0x52>
 8000b16:	4770      	bx	lr
 8000b18:	230c      	movs	r3, #12
 8000b1a:	4628      	mov	r0, r5
 8000b1c:	602b      	str	r3, [r5, #0]
 8000b1e:	e8bd 4038 	ldmia.w	sp!, {r3, r4, r5, lr}
 8000b22:	f000 ba0b 	b.w	8000f3c <__malloc_unlock>
 8000b26:	bf00      	nop
 8000b28:	20000338 	.word	0x20000338

08000b2c <_realloc_r>:
 8000b2c:	e92d 41f0 	stmdb	sp!, {r4, r5, r6, r7, r8, lr}
 8000b30:	4614      	mov	r4, r2
 8000b32:	b341      	cbz	r1, 8000b86 <_realloc_r+0x5a>
 8000b34:	b30a      	cbz	r2, 8000b7a <_realloc_r+0x4e>
 8000b36:	4606      	mov	r6, r0
 8000b38:	460d      	mov	r5, r1
 8000b3a:	f000 fa91 	bl	8001060 <_malloc_usable_size_r>
 8000b3e:	4284      	cmp	r4, r0
 8000b40:	4607      	mov	r7, r0
 8000b42:	d802      	bhi.n	8000b4a <_realloc_r+0x1e>
 8000b44:	ebb4 0f50 	cmp.w	r4, r0, lsr #1
 8000b48:	d813      	bhi.n	8000b72 <_realloc_r+0x46>
 8000b4a:	4621      	mov	r1, r4
 8000b4c:	4630      	mov	r0, r6
 8000b4e:	f7ff fe99 	bl	8000884 <_malloc_r>
 8000b52:	4680      	mov	r8, r0
 8000b54:	b150      	cbz	r0, 8000b6c <_realloc_r+0x40>
 8000b56:	42bc      	cmp	r4, r7
 8000b58:	4622      	mov	r2, r4
 8000b5a:	4629      	mov	r1, r5
 8000b5c:	bf28      	it	cs
 8000b5e:	463a      	movcs	r2, r7
 8000b60:	f7ff ff10 	bl	8000984 <memcpy>
 8000b64:	4629      	mov	r1, r5
 8000b66:	4630      	mov	r0, r6
 8000b68:	f7ff ff82 	bl	8000a70 <_free_r>
 8000b6c:	4640      	mov	r0, r8
 8000b6e:	e8bd 81f0 	ldmia.w	sp!, {r4, r5, r6, r7, r8, pc}
 8000b72:	46a8      	mov	r8, r5
 8000b74:	4640      	mov	r0, r8
 8000b76:	e8bd 81f0 	ldmia.w	sp!, {r4, r5, r6, r7, r8, pc}
 8000b7a:	46a0      	mov	r8, r4
 8000b7c:	f7ff ff78 	bl	8000a70 <_free_r>
 8000b80:	4640      	mov	r0, r8
 8000b82:	e8bd 81f0 	ldmia.w	sp!, {r4, r5, r6, r7, r8, pc}
 8000b86:	4611      	mov	r1, r2
 8000b88:	e8bd 41f0 	ldmia.w	sp!, {r4, r5, r6, r7, r8, lr}
 8000b8c:	f7ff be7a 	b.w	8000884 <_malloc_r>

08000b90 <_printf_common>:
 8000b90:	e92d 4ff8 	stmdb	sp!, {r3, r4, r5, r6, r7, r8, r9, sl, fp, lr}
 8000b94:	4692      	mov	sl, r2
 8000b96:	461f      	mov	r7, r3
 8000b98:	690a      	ldr	r2, [r1, #16]
 8000b9a:	688b      	ldr	r3, [r1, #8]
 8000b9c:	460c      	mov	r4, r1
 8000b9e:	429a      	cmp	r2, r3
 8000ba0:	bfb8      	it	lt
 8000ba2:	461a      	movlt	r2, r3
 8000ba4:	f8ca 2000 	str.w	r2, [sl]
 8000ba8:	f891 3043 	ldrb.w	r3, [r1, #67]	@ 0x43
 8000bac:	4606      	mov	r6, r0
 8000bae:	f8dd 9028 	ldr.w	r9, [sp, #40]	@ 0x28
 8000bb2:	b113      	cbz	r3, 8000bba <_printf_common+0x2a>
 8000bb4:	3201      	adds	r2, #1
 8000bb6:	f8ca 2000 	str.w	r2, [sl]
 8000bba:	6822      	ldr	r2, [r4, #0]
 8000bbc:	0691      	lsls	r1, r2, #26
 8000bbe:	d55f      	bpl.n	8000c80 <_printf_common+0xf0>
 8000bc0:	f8da 3000 	ldr.w	r3, [sl]
 8000bc4:	3302      	adds	r3, #2
 8000bc6:	f8ca 3000 	str.w	r3, [sl]
 8000bca:	6822      	ldr	r2, [r4, #0]
 8000bcc:	f012 0f06 	tst.w	r2, #6
 8000bd0:	4611      	mov	r1, r2
 8000bd2:	d11d      	bne.n	8000c10 <_printf_common+0x80>
 8000bd4:	68e1      	ldr	r1, [r4, #12]
 8000bd6:	4299      	cmp	r1, r3
 8000bd8:	bfd8      	it	le
 8000bda:	4611      	movle	r1, r2
 8000bdc:	dd18      	ble.n	8000c10 <_printf_common+0x80>
 8000bde:	f04f 0800 	mov.w	r8, #0
 8000be2:	f104 0b19 	add.w	fp, r4, #25
 8000be6:	e005      	b.n	8000bf4 <_printf_common+0x64>
 8000be8:	68e5      	ldr	r5, [r4, #12]
 8000bea:	f8da 3000 	ldr.w	r3, [sl]
 8000bee:	1aed      	subs	r5, r5, r3
 8000bf0:	4545      	cmp	r5, r8
 8000bf2:	dd0c      	ble.n	8000c0e <_printf_common+0x7e>
 8000bf4:	2301      	movs	r3, #1
 8000bf6:	465a      	mov	r2, fp
 8000bf8:	4639      	mov	r1, r7
 8000bfa:	4630      	mov	r0, r6
 8000bfc:	47c8      	blx	r9
 8000bfe:	3001      	adds	r0, #1
 8000c00:	f108 0801 	add.w	r8, r8, #1
 8000c04:	d1f0      	bne.n	8000be8 <_printf_common+0x58>
 8000c06:	f04f 30ff 	mov.w	r0, #4294967295	@ 0xffffffff
 8000c0a:	e8bd 8ff8 	ldmia.w	sp!, {r3, r4, r5, r6, r7, r8, r9, sl, fp, pc}
 8000c0e:	6821      	ldr	r1, [r4, #0]
 8000c10:	f894 3043 	ldrb.w	r3, [r4, #67]	@ 0x43
 8000c14:	3b00      	subs	r3, #0
 8000c16:	bf18      	it	ne
 8000c18:	2301      	movne	r3, #1
 8000c1a:	068a      	lsls	r2, r1, #26
 8000c1c:	d50a      	bpl.n	8000c34 <_printf_common+0xa4>
 8000c1e:	2130      	movs	r1, #48	@ 0x30
 8000c20:	18e2      	adds	r2, r4, r3
 8000c22:	f882 1043 	strb.w	r1, [r2, #67]	@ 0x43
 8000c26:	f894 1045 	ldrb.w	r1, [r4, #69]	@ 0x45
 8000c2a:	1c5a      	adds	r2, r3, #1
 8000c2c:	4422      	add	r2, r4
 8000c2e:	3302      	adds	r3, #2
 8000c30:	f882 1043 	strb.w	r1, [r2, #67]	@ 0x43
 8000c34:	4639      	mov	r1, r7
 8000c36:	4630      	mov	r0, r6
 8000c38:	f104 0243 	add.w	r2, r4, #67	@ 0x43
 8000c3c:	47c8      	blx	r9
 8000c3e:	3001      	adds	r0, #1
 8000c40:	d0e1      	beq.n	8000c06 <_printf_common+0x76>
 8000c42:	e9d4 2002 	ldrd	r2, r0, [r4, #8]
 8000c46:	6823      	ldr	r3, [r4, #0]
 8000c48:	f8da 5000 	ldr.w	r5, [sl]
 8000c4c:	f003 0306 	and.w	r3, r3, #6
 8000c50:	2b04      	cmp	r3, #4
 8000c52:	6921      	ldr	r1, [r4, #16]
 8000c54:	d01b      	beq.n	8000c8e <_printf_common+0xfe>
 8000c56:	428a      	cmp	r2, r1
 8000c58:	dd20      	ble.n	8000c9c <_printf_common+0x10c>
 8000c5a:	f04f 0800 	mov.w	r8, #0
 8000c5e:	1a52      	subs	r2, r2, r1
 8000c60:	4490      	add	r8, r2
 8000c62:	2500      	movs	r5, #0
 8000c64:	341a      	adds	r4, #26
 8000c66:	e001      	b.n	8000c6c <_printf_common+0xdc>
 8000c68:	4545      	cmp	r5, r8
 8000c6a:	da17      	bge.n	8000c9c <_printf_common+0x10c>
 8000c6c:	2301      	movs	r3, #1
 8000c6e:	4622      	mov	r2, r4
 8000c70:	4639      	mov	r1, r7
 8000c72:	4630      	mov	r0, r6
 8000c74:	47c8      	blx	r9
 8000c76:	3001      	adds	r0, #1
 8000c78:	f105 0501 	add.w	r5, r5, #1
 8000c7c:	d1f4      	bne.n	8000c68 <_printf_common+0xd8>
 8000c7e:	e7c2      	b.n	8000c06 <_printf_common+0x76>
 8000c80:	f012 0f06 	tst.w	r2, #6
 8000c84:	d00d      	beq.n	8000ca2 <_printf_common+0x112>
 8000c86:	3b00      	subs	r3, #0
 8000c88:	bf18      	it	ne
 8000c8a:	2301      	movne	r3, #1
 8000c8c:	e7d2      	b.n	8000c34 <_printf_common+0xa4>
 8000c8e:	1b40      	subs	r0, r0, r5
 8000c90:	428a      	cmp	r2, r1
 8000c92:	ea20 78e0 	bic.w	r8, r0, r0, asr #31
 8000c96:	dce2      	bgt.n	8000c5e <_printf_common+0xce>
 8000c98:	2800      	cmp	r0, #0
 8000c9a:	dce2      	bgt.n	8000c62 <_printf_common+0xd2>
 8000c9c:	2000      	movs	r0, #0
 8000c9e:	e8bd 8ff8 	ldmia.w	sp!, {r3, r4, r5, r6, r7, r8, r9, sl, fp, pc}
 8000ca2:	68e1      	ldr	r1, [r4, #12]
 8000ca4:	f8da 3000 	ldr.w	r3, [sl]
 8000ca8:	4299      	cmp	r1, r3
 8000caa:	bfd8      	it	le
 8000cac:	4611      	movle	r1, r2
 8000cae:	dc96      	bgt.n	8000bde <_printf_common+0x4e>
 8000cb0:	e7ae      	b.n	8000c10 <_printf_common+0x80>
 8000cb2:	bf00      	nop

08000cb4 <_printf_i>:
 8000cb4:	e92d 47f0 	stmdb	sp!, {r4, r5, r6, r7, r8, r9, sl, lr}
 8000cb8:	4617      	mov	r7, r2
 8000cba:	7e0a      	ldrb	r2, [r1, #24]
 8000cbc:	b084      	sub	sp, #16
 8000cbe:	460c      	mov	r4, r1
 8000cc0:	4606      	mov	r6, r0
 8000cc2:	4698      	mov	r8, r3
 8000cc4:	9d0c      	ldr	r5, [sp, #48]	@ 0x30
 8000cc6:	f101 0c43 	add.w	ip, r1, #67	@ 0x43
 8000cca:	2a00      	cmp	r2, #0
 8000ccc:	d035      	beq.n	8000d3a <_printf_i+0x86>
 8000cce:	f1a2 0358 	sub.w	r3, r2, #88	@ 0x58
 8000cd2:	b2d9      	uxtb	r1, r3
 8000cd4:	2920      	cmp	r1, #32
 8000cd6:	d869      	bhi.n	8000dac <_printf_i+0xf8>
 8000cd8:	2b20      	cmp	r3, #32
 8000cda:	d867      	bhi.n	8000dac <_printf_i+0xf8>
 8000cdc:	e8df f013 	tbh	[pc, r3, lsl #1]
 8000ce0:	006600e6 	.word	0x006600e6
 8000ce4:	00660066 	.word	0x00660066
 8000ce8:	00660066 	.word	0x00660066
 8000cec:	00660066 	.word	0x00660066
 8000cf0:	00660066 	.word	0x00660066
 8000cf4:	00ac0066 	.word	0x00ac0066
 8000cf8:	00660070 	.word	0x00660070
 8000cfc:	00660066 	.word	0x00660066
 8000d00:	00700066 	.word	0x00700066
 8000d04:	00660066 	.word	0x00660066
 8000d08:	00660066 	.word	0x00660066
 8000d0c:	00830021 	.word	0x00830021
 8000d10:	006600c6 	.word	0x006600c6
 8000d14:	00b60066 	.word	0x00b60066
 8000d18:	00830066 	.word	0x00830066
 8000d1c:	00660066 	.word	0x00660066
 8000d20:	00ec      	.short	0x00ec
 8000d22:	682b      	ldr	r3, [r5, #0]
 8000d24:	6822      	ldr	r2, [r4, #0]
 8000d26:	1d18      	adds	r0, r3, #4
 8000d28:	6961      	ldr	r1, [r4, #20]
 8000d2a:	6028      	str	r0, [r5, #0]
 8000d2c:	0610      	lsls	r0, r2, #24
 8000d2e:	681b      	ldr	r3, [r3, #0]
 8000d30:	d402      	bmi.n	8000d38 <_printf_i+0x84>
 8000d32:	0652      	lsls	r2, r2, #25
 8000d34:	f100 80e0 	bmi.w	8000ef8 <_printf_i+0x244>
 8000d38:	6019      	str	r1, [r3, #0]
 8000d3a:	2300      	movs	r3, #0
 8000d3c:	46e1      	mov	r9, ip
 8000d3e:	6123      	str	r3, [r4, #16]
 8000d40:	463b      	mov	r3, r7
 8000d42:	4621      	mov	r1, r4
 8000d44:	4630      	mov	r0, r6
 8000d46:	f8cd 8000 	str.w	r8, [sp]
 8000d4a:	aa03      	add	r2, sp, #12
 8000d4c:	f7ff ff20 	bl	8000b90 <_printf_common>
 8000d50:	3001      	adds	r0, #1
 8000d52:	d020      	beq.n	8000d96 <_printf_i+0xe2>
 8000d54:	464a      	mov	r2, r9
 8000d56:	4639      	mov	r1, r7
 8000d58:	4630      	mov	r0, r6
 8000d5a:	6923      	ldr	r3, [r4, #16]
 8000d5c:	47c0      	blx	r8
 8000d5e:	3001      	adds	r0, #1
 8000d60:	d019      	beq.n	8000d96 <_printf_i+0xe2>
 8000d62:	6823      	ldr	r3, [r4, #0]
 8000d64:	68e0      	ldr	r0, [r4, #12]
 8000d66:	079b      	lsls	r3, r3, #30
 8000d68:	f8dd 900c 	ldr.w	r9, [sp, #12]
 8000d6c:	d518      	bpl.n	8000da0 <_printf_i+0xec>
 8000d6e:	4548      	cmp	r0, r9
 8000d70:	dd16      	ble.n	8000da0 <_printf_i+0xec>
 8000d72:	2500      	movs	r5, #0
 8000d74:	f104 0a19 	add.w	sl, r4, #25
 8000d78:	e004      	b.n	8000d84 <_printf_i+0xd0>
 8000d7a:	68e0      	ldr	r0, [r4, #12]
 8000d7c:	eba0 0309 	sub.w	r3, r0, r9
 8000d80:	42ab      	cmp	r3, r5
 8000d82:	dd0d      	ble.n	8000da0 <_printf_i+0xec>
 8000d84:	2301      	movs	r3, #1
 8000d86:	4652      	mov	r2, sl
 8000d88:	4639      	mov	r1, r7
 8000d8a:	4630      	mov	r0, r6
 8000d8c:	47c0      	blx	r8
 8000d8e:	3001      	adds	r0, #1
 8000d90:	f105 0501 	add.w	r5, r5, #1
 8000d94:	d1f1      	bne.n	8000d7a <_printf_i+0xc6>
 8000d96:	f04f 30ff 	mov.w	r0, #4294967295	@ 0xffffffff
 8000d9a:	b004      	add	sp, #16
 8000d9c:	e8bd 87f0 	ldmia.w	sp!, {r4, r5, r6, r7, r8, r9, sl, pc}
 8000da0:	4548      	cmp	r0, r9
 8000da2:	bfb8      	it	lt
 8000da4:	4648      	movlt	r0, r9
 8000da6:	b004      	add	sp, #16
 8000da8:	e8bd 87f0 	ldmia.w	sp!, {r4, r5, r6, r7, r8, r9, sl, pc}
 8000dac:	2001      	movs	r0, #1
 8000dae:	f884 2042 	strb.w	r2, [r4, #66]	@ 0x42
 8000db2:	f104 0942 	add.w	r9, r4, #66	@ 0x42
 8000db6:	2300      	movs	r3, #0
 8000db8:	6120      	str	r0, [r4, #16]
 8000dba:	f884 3043 	strb.w	r3, [r4, #67]	@ 0x43
 8000dbe:	e7bf      	b.n	8000d40 <_printf_i+0x8c>
 8000dc0:	682a      	ldr	r2, [r5, #0]
 8000dc2:	6823      	ldr	r3, [r4, #0]
 8000dc4:	1d11      	adds	r1, r2, #4
 8000dc6:	0618      	lsls	r0, r3, #24
 8000dc8:	6029      	str	r1, [r5, #0]
 8000dca:	d402      	bmi.n	8000dd2 <_printf_i+0x11e>
 8000dcc:	0659      	lsls	r1, r3, #25
 8000dce:	f100 8095 	bmi.w	8000efc <_printf_i+0x248>
 8000dd2:	6810      	ldr	r0, [r2, #0]
 8000dd4:	4601      	mov	r1, r0
 8000dd6:	2800      	cmp	r0, #0
 8000dd8:	6862      	ldr	r2, [r4, #4]
 8000dda:	f2c0 8093 	blt.w	8000f04 <_printf_i+0x250>
 8000dde:	f04f 0e0a 	mov.w	lr, #10
 8000de2:	4853      	ldr	r0, [pc, #332]	@ (8000f30 <_printf_i+0x27c>)
 8000de4:	e015      	b.n	8000e12 <_printf_i+0x15e>
 8000de6:	6820      	ldr	r0, [r4, #0]
 8000de8:	682b      	ldr	r3, [r5, #0]
 8000dea:	f010 0f80 	tst.w	r0, #128	@ 0x80
 8000dee:	f853 1b04 	ldr.w	r1, [r3], #4
 8000df2:	d102      	bne.n	8000dfa <_printf_i+0x146>
 8000df4:	0640      	lsls	r0, r0, #25
 8000df6:	bf48      	it	mi
 8000df8:	b289      	uxthmi	r1, r1
 8000dfa:	2a6f      	cmp	r2, #111	@ 0x6f
 8000dfc:	bf14      	ite	ne
 8000dfe:	f04f 0e0a 	movne.w	lr, #10
 8000e02:	f04f 0e08 	moveq.w	lr, #8
 8000e06:	484a      	ldr	r0, [pc, #296]	@ (8000f30 <_printf_i+0x27c>)
 8000e08:	602b      	str	r3, [r5, #0]
 8000e0a:	2300      	movs	r3, #0
 8000e0c:	6862      	ldr	r2, [r4, #4]
 8000e0e:	f884 3043 	strb.w	r3, [r4, #67]	@ 0x43
 8000e12:	2a00      	cmp	r2, #0
 8000e14:	60a2      	str	r2, [r4, #8]
 8000e16:	db51      	blt.n	8000ebc <_printf_i+0x208>
 8000e18:	6823      	ldr	r3, [r4, #0]
 8000e1a:	f023 0304 	bic.w	r3, r3, #4
 8000e1e:	6023      	str	r3, [r4, #0]
 8000e20:	2900      	cmp	r1, #0
 8000e22:	d14b      	bne.n	8000ebc <_printf_i+0x208>
 8000e24:	2a00      	cmp	r2, #0
 8000e26:	d17b      	bne.n	8000f20 <_printf_i+0x26c>
 8000e28:	46e1      	mov	r9, ip
 8000e2a:	f1be 0f08 	cmp.w	lr, #8
 8000e2e:	d056      	beq.n	8000ede <_printf_i+0x22a>
 8000e30:	ebac 0309 	sub.w	r3, ip, r9
 8000e34:	6123      	str	r3, [r4, #16]
 8000e36:	e783      	b.n	8000d40 <_printf_i+0x8c>
 8000e38:	682a      	ldr	r2, [r5, #0]
 8000e3a:	2001      	movs	r0, #1
 8000e3c:	6811      	ldr	r1, [r2, #0]
 8000e3e:	3204      	adds	r2, #4
 8000e40:	602a      	str	r2, [r5, #0]
 8000e42:	f104 0942 	add.w	r9, r4, #66	@ 0x42
 8000e46:	f884 1042 	strb.w	r1, [r4, #66]	@ 0x42
 8000e4a:	e7b4      	b.n	8000db6 <_printf_i+0x102>
 8000e4c:	682b      	ldr	r3, [r5, #0]
 8000e4e:	2100      	movs	r1, #0
 8000e50:	1d1a      	adds	r2, r3, #4
 8000e52:	602a      	str	r2, [r5, #0]
 8000e54:	f8d3 9000 	ldr.w	r9, [r3]
 8000e58:	6862      	ldr	r2, [r4, #4]
 8000e5a:	4648      	mov	r0, r9
 8000e5c:	f7ff fca0 	bl	80007a0 <memchr>
 8000e60:	2800      	cmp	r0, #0
 8000e62:	d063      	beq.n	8000f2c <_printf_i+0x278>
 8000e64:	eba0 0009 	sub.w	r0, r0, r9
 8000e68:	6060      	str	r0, [r4, #4]
 8000e6a:	e7a4      	b.n	8000db6 <_printf_i+0x102>
 8000e6c:	6823      	ldr	r3, [r4, #0]
 8000e6e:	f043 0320 	orr.w	r3, r3, #32
 8000e72:	6023      	str	r3, [r4, #0]
 8000e74:	2278      	movs	r2, #120	@ 0x78
 8000e76:	482f      	ldr	r0, [pc, #188]	@ (8000f34 <_printf_i+0x280>)
 8000e78:	f884 2045 	strb.w	r2, [r4, #69]	@ 0x45
 8000e7c:	682a      	ldr	r2, [r5, #0]
 8000e7e:	f013 0f80 	tst.w	r3, #128	@ 0x80
 8000e82:	f852 1b04 	ldr.w	r1, [r2], #4
 8000e86:	d103      	bne.n	8000e90 <_printf_i+0x1dc>
 8000e88:	f013 0f40 	tst.w	r3, #64	@ 0x40
 8000e8c:	bf18      	it	ne
 8000e8e:	b289      	uxthne	r1, r1
 8000e90:	602a      	str	r2, [r5, #0]
 8000e92:	07da      	lsls	r2, r3, #31
 8000e94:	bf44      	itt	mi
 8000e96:	f043 0320 	orrmi.w	r3, r3, #32
 8000e9a:	6023      	strmi	r3, [r4, #0]
 8000e9c:	b919      	cbnz	r1, 8000ea6 <_printf_i+0x1f2>
 8000e9e:	6823      	ldr	r3, [r4, #0]
 8000ea0:	f023 0320 	bic.w	r3, r3, #32
 8000ea4:	6023      	str	r3, [r4, #0]
 8000ea6:	f04f 0e10 	mov.w	lr, #16
 8000eaa:	e7ae      	b.n	8000e0a <_printf_i+0x156>
 8000eac:	2358      	movs	r3, #88	@ 0x58
 8000eae:	4820      	ldr	r0, [pc, #128]	@ (8000f30 <_printf_i+0x27c>)
 8000eb0:	f884 3045 	strb.w	r3, [r4, #69]	@ 0x45
 8000eb4:	6823      	ldr	r3, [r4, #0]
 8000eb6:	e7e1      	b.n	8000e7c <_printf_i+0x1c8>
 8000eb8:	6823      	ldr	r3, [r4, #0]
 8000eba:	e7db      	b.n	8000e74 <_printf_i+0x1c0>
 8000ebc:	4675      	mov	r5, lr
 8000ebe:	46e1      	mov	r9, ip
 8000ec0:	fbb1 f3f5 	udiv	r3, r1, r5
 8000ec4:	460a      	mov	r2, r1
 8000ec6:	fb05 1a13 	mls	sl, r5, r3, r1
 8000eca:	4619      	mov	r1, r3
 8000ecc:	f810 300a 	ldrb.w	r3, [r0, sl]
 8000ed0:	42aa      	cmp	r2, r5
 8000ed2:	f809 3d01 	strb.w	r3, [r9, #-1]!
 8000ed6:	d2f3      	bcs.n	8000ec0 <_printf_i+0x20c>
 8000ed8:	f1be 0f08 	cmp.w	lr, #8
 8000edc:	d1a8      	bne.n	8000e30 <_printf_i+0x17c>
 8000ede:	6823      	ldr	r3, [r4, #0]
 8000ee0:	07dd      	lsls	r5, r3, #31
 8000ee2:	d5a5      	bpl.n	8000e30 <_printf_i+0x17c>
 8000ee4:	6862      	ldr	r2, [r4, #4]
 8000ee6:	6923      	ldr	r3, [r4, #16]
 8000ee8:	429a      	cmp	r2, r3
 8000eea:	dca1      	bgt.n	8000e30 <_printf_i+0x17c>
 8000eec:	2330      	movs	r3, #48	@ 0x30
 8000eee:	f109 39ff 	add.w	r9, r9, #4294967295	@ 0xffffffff
 8000ef2:	f889 3000 	strb.w	r3, [r9]
 8000ef6:	e79b      	b.n	8000e30 <_printf_i+0x17c>
 8000ef8:	8019      	strh	r1, [r3, #0]
 8000efa:	e71e      	b.n	8000d3a <_printf_i+0x86>
 8000efc:	f9b2 1000 	ldrsh.w	r1, [r2]
 8000f00:	4608      	mov	r0, r1
 8000f02:	e768      	b.n	8000dd6 <_printf_i+0x122>
 8000f04:	202d      	movs	r0, #45	@ 0x2d
 8000f06:	2a00      	cmp	r2, #0
 8000f08:	60a2      	str	r2, [r4, #8]
 8000f0a:	f884 0043 	strb.w	r0, [r4, #67]	@ 0x43
 8000f0e:	db02      	blt.n	8000f16 <_printf_i+0x262>
 8000f10:	f023 0304 	bic.w	r3, r3, #4
 8000f14:	6023      	str	r3, [r4, #0]
 8000f16:	250a      	movs	r5, #10
 8000f18:	4805      	ldr	r0, [pc, #20]	@ (8000f30 <_printf_i+0x27c>)
 8000f1a:	46ae      	mov	lr, r5
 8000f1c:	4249      	negs	r1, r1
 8000f1e:	e7ce      	b.n	8000ebe <_printf_i+0x20a>
 8000f20:	7803      	ldrb	r3, [r0, #0]
 8000f22:	f104 0942 	add.w	r9, r4, #66	@ 0x42
 8000f26:	f884 3042 	strb.w	r3, [r4, #66]	@ 0x42
 8000f2a:	e77e      	b.n	8000e2a <_printf_i+0x176>
 8000f2c:	6860      	ldr	r0, [r4, #4]
 8000f2e:	e742      	b.n	8000db6 <_printf_i+0x102>
 8000f30:	08007d2c 	.word	0x08007d2c
 8000f34:	08007d40 	.word	0x08007d40

08000f38 <__malloc_lock>:
 8000f38:	4770      	bx	lr
 8000f3a:	bf00      	nop

08000f3c <__malloc_unlock>:
 8000f3c:	4770      	bx	lr
 8000f3e:	bf00      	nop

08000f40 <memmove>:
 8000f40:	4288      	cmp	r0, r1
 8000f42:	d90e      	bls.n	8000f62 <memmove+0x22>
 8000f44:	188b      	adds	r3, r1, r2
 8000f46:	4283      	cmp	r3, r0
 8000f48:	d90b      	bls.n	8000f62 <memmove+0x22>
 8000f4a:	eb00 0c02 	add.w	ip, r0, r2
 8000f4e:	2a00      	cmp	r2, #0
 8000f50:	d06d      	beq.n	800102e <memmove+0xee>
 8000f52:	4662      	mov	r2, ip
 8000f54:	f813 cd01 	ldrb.w	ip, [r3, #-1]!
 8000f58:	4299      	cmp	r1, r3
 8000f5a:	f802 cd01 	strb.w	ip, [r2, #-1]!
 8000f5e:	d1f9      	bne.n	8000f54 <memmove+0x14>
 8000f60:	4770      	bx	lr
 8000f62:	2a0f      	cmp	r2, #15
 8000f64:	d80f      	bhi.n	8000f86 <memmove+0x46>
 8000f66:	4603      	mov	r3, r0
 8000f68:	f102 3cff 	add.w	ip, r2, #4294967295	@ 0xffffffff
 8000f6c:	2a00      	cmp	r2, #0
 8000f6e:	d05e      	beq.n	800102e <memmove+0xee>
 8000f70:	f10c 0c01 	add.w	ip, ip, #1
 8000f74:	3b01      	subs	r3, #1
 8000f76:	448c      	add	ip, r1
 8000f78:	f811 2b01 	ldrb.w	r2, [r1], #1
 8000f7c:	4561      	cmp	r1, ip
 8000f7e:	f803 2f01 	strb.w	r2, [r3, #1]!
 8000f82:	d1f9      	bne.n	8000f78 <memmove+0x38>
 8000f84:	4770      	bx	lr
 8000f86:	ea40 0301 	orr.w	r3, r0, r1
 8000f8a:	079b      	lsls	r3, r3, #30
 8000f8c:	d150      	bne.n	8001030 <memmove+0xf0>
 8000f8e:	f1a2 0310 	sub.w	r3, r2, #16
 8000f92:	b570      	push	{r4, r5, r6, lr}
 8000f94:	f101 0c20 	add.w	ip, r1, #32
 8000f98:	f023 050f 	bic.w	r5, r3, #15
 8000f9c:	f101 0e10 	add.w	lr, r1, #16
 8000fa0:	f100 0410 	add.w	r4, r0, #16
 8000fa4:	44ac      	add	ip, r5
 8000fa6:	091b      	lsrs	r3, r3, #4
 8000fa8:	f85e 5c10 	ldr.w	r5, [lr, #-16]
 8000fac:	f10e 0e10 	add.w	lr, lr, #16
 8000fb0:	f844 5c10 	str.w	r5, [r4, #-16]
 8000fb4:	f85e 5c1c 	ldr.w	r5, [lr, #-28]
 8000fb8:	3410      	adds	r4, #16
 8000fba:	f844 5c1c 	str.w	r5, [r4, #-28]
 8000fbe:	f85e 5c18 	ldr.w	r5, [lr, #-24]
 8000fc2:	f844 5c18 	str.w	r5, [r4, #-24]
 8000fc6:	f85e 5c14 	ldr.w	r5, [lr, #-20]
 8000fca:	45e6      	cmp	lr, ip
 8000fcc:	f844 5c14 	str.w	r5, [r4, #-20]
 8000fd0:	d1ea      	bne.n	8000fa8 <memmove+0x68>
 8000fd2:	3301      	adds	r3, #1
 8000fd4:	f012 0f0c 	tst.w	r2, #12
 8000fd8:	eb01 1103 	add.w	r1, r1, r3, lsl #4
 8000fdc:	f002 040f 	and.w	r4, r2, #15
 8000fe0:	eb00 1303 	add.w	r3, r0, r3, lsl #4
 8000fe4:	d028      	beq.n	8001038 <memmove+0xf8>
 8000fe6:	468e      	mov	lr, r1
 8000fe8:	3c04      	subs	r4, #4
 8000fea:	f024 0603 	bic.w	r6, r4, #3
 8000fee:	ea4f 0c94 	mov.w	ip, r4, lsr #2
 8000ff2:	441e      	add	r6, r3
 8000ff4:	1f1c      	subs	r4, r3, #4
 8000ff6:	f85e 5b04 	ldr.w	r5, [lr], #4
 8000ffa:	f844 5f04 	str.w	r5, [r4, #4]!
 8000ffe:	42b4      	cmp	r4, r6
 8001000:	d1f9      	bne.n	8000ff6 <memmove+0xb6>
 8001002:	f10c 0401 	add.w	r4, ip, #1
 8001006:	f002 0203 	and.w	r2, r2, #3
 800100a:	eb03 0384 	add.w	r3, r3, r4, lsl #2
 800100e:	eb01 0184 	add.w	r1, r1, r4, lsl #2
 8001012:	f102 3cff 	add.w	ip, r2, #4294967295	@ 0xffffffff
 8001016:	b14a      	cbz	r2, 800102c <memmove+0xec>
 8001018:	f10c 0c01 	add.w	ip, ip, #1
 800101c:	3b01      	subs	r3, #1
 800101e:	448c      	add	ip, r1
 8001020:	f811 2b01 	ldrb.w	r2, [r1], #1
 8001024:	4561      	cmp	r1, ip
 8001026:	f803 2f01 	strb.w	r2, [r3, #1]!
 800102a:	d1f9      	bne.n	8001020 <memmove+0xe0>
 800102c:	bd70      	pop	{r4, r5, r6, pc}
 800102e:	4770      	bx	lr
 8001030:	4603      	mov	r3, r0
 8001032:	f102 3cff 	add.w	ip, r2, #4294967295	@ 0xffffffff
 8001036:	e79b      	b.n	8000f70 <memmove+0x30>
 8001038:	4622      	mov	r2, r4
 800103a:	e7ea      	b.n	8001012 <memmove+0xd2>

0800103c <_sbrk_r>:
 800103c:	2200      	movs	r2, #0
 800103e:	b538      	push	{r3, r4, r5, lr}
 8001040:	4d06      	ldr	r5, [pc, #24]	@ (800105c <_sbrk_r+0x20>)
 8001042:	4604      	mov	r4, r0
 8001044:	4608      	mov	r0, r1
 8001046:	602a      	str	r2, [r5, #0]
 8001048:	f005 fb6c 	bl	8006724 <_sbrk>
 800104c:	1c43      	adds	r3, r0, #1
 800104e:	d000      	beq.n	8001052 <_sbrk_r+0x16>
 8001050:	bd38      	pop	{r3, r4, r5, pc}
 8001052:	682b      	ldr	r3, [r5, #0]
 8001054:	2b00      	cmp	r3, #0
 8001056:	d0fb      	beq.n	8001050 <_sbrk_r+0x14>
 8001058:	6023      	str	r3, [r4, #0]
 800105a:	bd38      	pop	{r3, r4, r5, pc}
 800105c:	2000033c 	.word	0x2000033c

08001060 <_malloc_usable_size_r>:
 8001060:	f851 3c04 	ldr.w	r3, [r1, #-4]
 8001064:	1f18      	subs	r0, r3, #4
 8001066:	2b00      	cmp	r3, #0
 8001068:	bfbc      	itt	lt
 800106a:	580b      	ldrlt	r3, [r1, r0]
 800106c:	18c0      	addlt	r0, r0, r3
 800106e:	4770      	bx	lr

08001070 <__aeabi_drsub>:
 8001070:	f081 4100 	eor.w	r1, r1, #2147483648	@ 0x80000000
 8001074:	e002      	b.n	800107c <__adddf3>
 8001076:	bf00      	nop

08001078 <__aeabi_dsub>:
 8001078:	f083 4300 	eor.w	r3, r3, #2147483648	@ 0x80000000

0800107c <__adddf3>:
 800107c:	b530      	push	{r4, r5, lr}
 800107e:	ea4f 0441 	mov.w	r4, r1, lsl #1
 8001082:	ea4f 0543 	mov.w	r5, r3, lsl #1
 8001086:	ea94 0f05 	teq	r4, r5
 800108a:	bf08      	it	eq
 800108c:	ea90 0f02 	teqeq	r0, r2
 8001090:	bf1f      	itttt	ne
 8001092:	ea54 0c00 	orrsne.w	ip, r4, r0
 8001096:	ea55 0c02 	orrsne.w	ip, r5, r2
 800109a:	ea7f 5c64 	mvnsne.w	ip, r4, asr #21
 800109e:	ea7f 5c65 	mvnsne.w	ip, r5, asr #21
 80010a2:	f000 80e2 	beq.w	800126a <__adddf3+0x1ee>
 80010a6:	ea4f 5454 	mov.w	r4, r4, lsr #21
 80010aa:	ebd4 5555 	rsbs	r5, r4, r5, lsr #21
 80010ae:	bfb8      	it	lt
 80010b0:	426d      	neglt	r5, r5
 80010b2:	dd0c      	ble.n	80010ce <__adddf3+0x52>
 80010b4:	442c      	add	r4, r5
 80010b6:	ea80 0202 	eor.w	r2, r0, r2
 80010ba:	ea81 0303 	eor.w	r3, r1, r3
 80010be:	ea82 0000 	eor.w	r0, r2, r0
 80010c2:	ea83 0101 	eor.w	r1, r3, r1
 80010c6:	ea80 0202 	eor.w	r2, r0, r2
 80010ca:	ea81 0303 	eor.w	r3, r1, r3
 80010ce:	2d36      	cmp	r5, #54	@ 0x36
 80010d0:	bf88      	it	hi
 80010d2:	bd30      	pophi	{r4, r5, pc}
 80010d4:	f011 4f00 	tst.w	r1, #2147483648	@ 0x80000000
 80010d8:	ea4f 3101 	mov.w	r1, r1, lsl #12
 80010dc:	f44f 1c80 	mov.w	ip, #1048576	@ 0x100000
 80010e0:	ea4c 3111 	orr.w	r1, ip, r1, lsr #12
 80010e4:	d002      	beq.n	80010ec <__adddf3+0x70>
 80010e6:	4240      	negs	r0, r0
 80010e8:	eb61 0141 	sbc.w	r1, r1, r1, lsl #1
 80010ec:	f013 4f00 	tst.w	r3, #2147483648	@ 0x80000000
 80010f0:	ea4f 3303 	mov.w	r3, r3, lsl #12
 80010f4:	ea4c 3313 	orr.w	r3, ip, r3, lsr #12
 80010f8:	d002      	beq.n	8001100 <__adddf3+0x84>
 80010fa:	4252      	negs	r2, r2
 80010fc:	eb63 0343 	sbc.w	r3, r3, r3, lsl #1
 8001100:	ea94 0f05 	teq	r4, r5
 8001104:	f000 80a7 	beq.w	8001256 <__adddf3+0x1da>
 8001108:	f1a4 0401 	sub.w	r4, r4, #1
 800110c:	f1d5 0e20 	rsbs	lr, r5, #32
 8001110:	db0d      	blt.n	800112e <__adddf3+0xb2>
 8001112:	fa02 fc0e 	lsl.w	ip, r2, lr
 8001116:	fa22 f205 	lsr.w	r2, r2, r5
 800111a:	1880      	adds	r0, r0, r2
 800111c:	f141 0100 	adc.w	r1, r1, #0
 8001120:	fa03 f20e 	lsl.w	r2, r3, lr
 8001124:	1880      	adds	r0, r0, r2
 8001126:	fa43 f305 	asr.w	r3, r3, r5
 800112a:	4159      	adcs	r1, r3
 800112c:	e00e      	b.n	800114c <__adddf3+0xd0>
 800112e:	f1a5 0520 	sub.w	r5, r5, #32
 8001132:	f10e 0e20 	add.w	lr, lr, #32
 8001136:	2a01      	cmp	r2, #1
 8001138:	fa03 fc0e 	lsl.w	ip, r3, lr
 800113c:	bf28      	it	cs
 800113e:	f04c 0c02 	orrcs.w	ip, ip, #2
 8001142:	fa43 f305 	asr.w	r3, r3, r5
 8001146:	18c0      	adds	r0, r0, r3
 8001148:	eb51 71e3 	adcs.w	r1, r1, r3, asr #31
 800114c:	f001 4500 	and.w	r5, r1, #2147483648	@ 0x80000000
 8001150:	d507      	bpl.n	8001162 <__adddf3+0xe6>
 8001152:	f04f 0e00 	mov.w	lr, #0
 8001156:	f1dc 0c00 	rsbs	ip, ip, #0
 800115a:	eb7e 0000 	sbcs.w	r0, lr, r0
 800115e:	eb6e 0101 	sbc.w	r1, lr, r1
 8001162:	f5b1 1f80 	cmp.w	r1, #1048576	@ 0x100000
 8001166:	d31b      	bcc.n	80011a0 <__adddf3+0x124>
 8001168:	f5b1 1f00 	cmp.w	r1, #2097152	@ 0x200000
 800116c:	d30c      	bcc.n	8001188 <__adddf3+0x10c>
 800116e:	0849      	lsrs	r1, r1, #1
 8001170:	ea5f 0030 	movs.w	r0, r0, rrx
 8001174:	ea4f 0c3c 	mov.w	ip, ip, rrx
 8001178:	f104 0401 	add.w	r4, r4, #1
 800117c:	ea4f 5244 	mov.w	r2, r4, lsl #21
 8001180:	f512 0f80 	cmn.w	r2, #4194304	@ 0x400000
 8001184:	f080 809a 	bcs.w	80012bc <__adddf3+0x240>
 8001188:	f1bc 4f00 	cmp.w	ip, #2147483648	@ 0x80000000
 800118c:	bf08      	it	eq
 800118e:	ea5f 0c50 	movseq.w	ip, r0, lsr #1
 8001192:	f150 0000 	adcs.w	r0, r0, #0
 8001196:	eb41 5104 	adc.w	r1, r1, r4, lsl #20
 800119a:	ea41 0105 	orr.w	r1, r1, r5
 800119e:	bd30      	pop	{r4, r5, pc}
 80011a0:	ea5f 0c4c 	movs.w	ip, ip, lsl #1
 80011a4:	4140      	adcs	r0, r0
 80011a6:	eb41 0101 	adc.w	r1, r1, r1
 80011aa:	3c01      	subs	r4, #1
 80011ac:	bf28      	it	cs
 80011ae:	f5b1 1f80 	cmpcs.w	r1, #1048576	@ 0x100000
 80011b2:	d2e9      	bcs.n	8001188 <__adddf3+0x10c>
 80011b4:	f091 0f00 	teq	r1, #0
 80011b8:	bf04      	itt	eq
 80011ba:	4601      	moveq	r1, r0
 80011bc:	2000      	moveq	r0, #0
 80011be:	fab1 f381 	clz	r3, r1
 80011c2:	bf08      	it	eq
 80011c4:	3320      	addeq	r3, #32
 80011c6:	f1a3 030b 	sub.w	r3, r3, #11
 80011ca:	f1b3 0220 	subs.w	r2, r3, #32
 80011ce:	da0c      	bge.n	80011ea <__adddf3+0x16e>
 80011d0:	320c      	adds	r2, #12
 80011d2:	dd08      	ble.n	80011e6 <__adddf3+0x16a>
 80011d4:	f102 0c14 	add.w	ip, r2, #20
 80011d8:	f1c2 020c 	rsb	r2, r2, #12
 80011dc:	fa01 f00c 	lsl.w	r0, r1, ip
 80011e0:	fa21 f102 	lsr.w	r1, r1, r2
 80011e4:	e00c      	b.n	8001200 <__adddf3+0x184>
 80011e6:	f102 0214 	add.w	r2, r2, #20
 80011ea:	bfd8      	it	le
 80011ec:	f1c2 0c20 	rsble	ip, r2, #32
 80011f0:	fa01 f102 	lsl.w	r1, r1, r2
 80011f4:	fa20 fc0c 	lsr.w	ip, r0, ip
 80011f8:	bfdc      	itt	le
 80011fa:	ea41 010c 	orrle.w	r1, r1, ip
 80011fe:	4090      	lslle	r0, r2
 8001200:	1ae4      	subs	r4, r4, r3
 8001202:	bfa2      	ittt	ge
 8001204:	eb01 5104 	addge.w	r1, r1, r4, lsl #20
 8001208:	4329      	orrge	r1, r5
 800120a:	bd30      	popge	{r4, r5, pc}
 800120c:	ea6f 0404 	mvn.w	r4, r4
 8001210:	3c1f      	subs	r4, #31
 8001212:	da1c      	bge.n	800124e <__adddf3+0x1d2>
 8001214:	340c      	adds	r4, #12
 8001216:	dc0e      	bgt.n	8001236 <__adddf3+0x1ba>
 8001218:	f104 0414 	add.w	r4, r4, #20
 800121c:	f1c4 0220 	rsb	r2, r4, #32
 8001220:	fa20 f004 	lsr.w	r0, r0, r4
 8001224:	fa01 f302 	lsl.w	r3, r1, r2
 8001228:	ea40 0003 	orr.w	r0, r0, r3
 800122c:	fa21 f304 	lsr.w	r3, r1, r4
 8001230:	ea45 0103 	orr.w	r1, r5, r3
 8001234:	bd30      	pop	{r4, r5, pc}
 8001236:	f1c4 040c 	rsb	r4, r4, #12
 800123a:	f1c4 0220 	rsb	r2, r4, #32
 800123e:	fa20 f002 	lsr.w	r0, r0, r2
 8001242:	fa01 f304 	lsl.w	r3, r1, r4
 8001246:	ea40 0003 	orr.w	r0, r0, r3
 800124a:	4629      	mov	r1, r5
 800124c:	bd30      	pop	{r4, r5, pc}
 800124e:	fa21 f004 	lsr.w	r0, r1, r4
 8001252:	4629      	mov	r1, r5
 8001254:	bd30      	pop	{r4, r5, pc}
 8001256:	f094 0f00 	teq	r4, #0
 800125a:	f483 1380 	eor.w	r3, r3, #1048576	@ 0x100000
 800125e:	bf06      	itte	eq
 8001260:	f481 1180 	eoreq.w	r1, r1, #1048576	@ 0x100000
 8001264:	3401      	addeq	r4, #1
 8001266:	3d01      	subne	r5, #1
 8001268:	e74e      	b.n	8001108 <__adddf3+0x8c>
 800126a:	ea7f 5c64 	mvns.w	ip, r4, asr #21
 800126e:	bf18      	it	ne
 8001270:	ea7f 5c65 	mvnsne.w	ip, r5, asr #21
 8001274:	d029      	beq.n	80012ca <__adddf3+0x24e>
 8001276:	ea94 0f05 	teq	r4, r5
 800127a:	bf08      	it	eq
 800127c:	ea90 0f02 	teqeq	r0, r2
 8001280:	d005      	beq.n	800128e <__adddf3+0x212>
 8001282:	ea54 0c00 	orrs.w	ip, r4, r0
 8001286:	bf04      	itt	eq
 8001288:	4619      	moveq	r1, r3
 800128a:	4610      	moveq	r0, r2
 800128c:	bd30      	pop	{r4, r5, pc}
 800128e:	ea91 0f03 	teq	r1, r3
 8001292:	bf1e      	ittt	ne
 8001294:	2100      	movne	r1, #0
 8001296:	2000      	movne	r0, #0
 8001298:	bd30      	popne	{r4, r5, pc}
 800129a:	ea5f 5c54 	movs.w	ip, r4, lsr #21
 800129e:	d105      	bne.n	80012ac <__adddf3+0x230>
 80012a0:	0040      	lsls	r0, r0, #1
 80012a2:	4149      	adcs	r1, r1
 80012a4:	bf28      	it	cs
 80012a6:	f041 4100 	orrcs.w	r1, r1, #2147483648	@ 0x80000000
 80012aa:	bd30      	pop	{r4, r5, pc}
 80012ac:	f514 0480 	adds.w	r4, r4, #4194304	@ 0x400000
 80012b0:	bf3c      	itt	cc
 80012b2:	f501 1180 	addcc.w	r1, r1, #1048576	@ 0x100000
 80012b6:	bd30      	popcc	{r4, r5, pc}
 80012b8:	f001 4500 	and.w	r5, r1, #2147483648	@ 0x80000000
 80012bc:	f045 41fe 	orr.w	r1, r5, #2130706432	@ 0x7f000000
 80012c0:	f441 0170 	orr.w	r1, r1, #15728640	@ 0xf00000
 80012c4:	f04f 0000 	mov.w	r0, #0
 80012c8:	bd30      	pop	{r4, r5, pc}
 80012ca:	ea7f 5c64 	mvns.w	ip, r4, asr #21
 80012ce:	bf1a      	itte	ne
 80012d0:	4619      	movne	r1, r3
 80012d2:	4610      	movne	r0, r2
 80012d4:	ea7f 5c65 	mvnseq.w	ip, r5, asr #21
 80012d8:	bf1c      	itt	ne
 80012da:	460b      	movne	r3, r1
 80012dc:	4602      	movne	r2, r0
 80012de:	ea50 3401 	orrs.w	r4, r0, r1, lsl #12
 80012e2:	bf06      	itte	eq
 80012e4:	ea52 3503 	orrseq.w	r5, r2, r3, lsl #12
 80012e8:	ea91 0f03 	teqeq	r1, r3
 80012ec:	f441 2100 	orrne.w	r1, r1, #524288	@ 0x80000
 80012f0:	bd30      	pop	{r4, r5, pc}
 80012f2:	bf00      	nop

080012f4 <__aeabi_ui2d>:
 80012f4:	f090 0f00 	teq	r0, #0
 80012f8:	bf04      	itt	eq
 80012fa:	2100      	moveq	r1, #0
 80012fc:	4770      	bxeq	lr
 80012fe:	b530      	push	{r4, r5, lr}
 8001300:	f44f 6480 	mov.w	r4, #1024	@ 0x400
 8001304:	f104 0432 	add.w	r4, r4, #50	@ 0x32
 8001308:	f04f 0500 	mov.w	r5, #0
 800130c:	f04f 0100 	mov.w	r1, #0
 8001310:	e750      	b.n	80011b4 <__adddf3+0x138>
 8001312:	bf00      	nop

08001314 <__aeabi_i2d>:
 8001314:	f090 0f00 	teq	r0, #0
 8001318:	bf04      	itt	eq
 800131a:	2100      	moveq	r1, #0
 800131c:	4770      	bxeq	lr
 800131e:	b530      	push	{r4, r5, lr}
 8001320:	f44f 6480 	mov.w	r4, #1024	@ 0x400
 8001324:	f104 0432 	add.w	r4, r4, #50	@ 0x32
 8001328:	f010 4500 	ands.w	r5, r0, #2147483648	@ 0x80000000
 800132c:	bf48      	it	mi
 800132e:	4240      	negmi	r0, r0
 8001330:	f04f 0100 	mov.w	r1, #0
 8001334:	e73e      	b.n	80011b4 <__adddf3+0x138>
 8001336:	bf00      	nop

08001338 <__aeabi_f2d>:
 8001338:	0042      	lsls	r2, r0, #1
 800133a:	ea4f 01e2 	mov.w	r1, r2, asr #3
 800133e:	ea4f 0131 	mov.w	r1, r1, rrx
 8001342:	ea4f 7002 	mov.w	r0, r2, lsl #28
 8001346:	bf1f      	itttt	ne
 8001348:	f012 437f 	andsne.w	r3, r2, #4278190080	@ 0xff000000
 800134c:	f093 4f7f 	teqne	r3, #4278190080	@ 0xff000000
 8001350:	f081 5160 	eorne.w	r1, r1, #939524096	@ 0x38000000
 8001354:	4770      	bxne	lr
 8001356:	f032 427f 	bics.w	r2, r2, #4278190080	@ 0xff000000
 800135a:	bf08      	it	eq
 800135c:	4770      	bxeq	lr
 800135e:	f093 4f7f 	teq	r3, #4278190080	@ 0xff000000
 8001362:	bf04      	itt	eq
 8001364:	f441 2100 	orreq.w	r1, r1, #524288	@ 0x80000
 8001368:	4770      	bxeq	lr
 800136a:	b530      	push	{r4, r5, lr}
 800136c:	f44f 7460 	mov.w	r4, #896	@ 0x380
 8001370:	f001 4500 	and.w	r5, r1, #2147483648	@ 0x80000000
 8001374:	f021 4100 	bic.w	r1, r1, #2147483648	@ 0x80000000
 8001378:	e71c      	b.n	80011b4 <__adddf3+0x138>
 800137a:	bf00      	nop

0800137c <__aeabi_ul2d>:
 800137c:	ea50 0201 	orrs.w	r2, r0, r1
 8001380:	bf08      	it	eq
 8001382:	4770      	bxeq	lr
 8001384:	b530      	push	{r4, r5, lr}
 8001386:	f04f 0500 	mov.w	r5, #0
 800138a:	e00a      	b.n	80013a2 <__aeabi_l2d+0x16>

0800138c <__aeabi_l2d>:
 800138c:	ea50 0201 	orrs.w	r2, r0, r1
 8001390:	bf08      	it	eq
 8001392:	4770      	bxeq	lr
 8001394:	b530      	push	{r4, r5, lr}
 8001396:	f011 4500 	ands.w	r5, r1, #2147483648	@ 0x80000000
 800139a:	d502      	bpl.n	80013a2 <__aeabi_l2d+0x16>
 800139c:	4240      	negs	r0, r0
 800139e:	eb61 0141 	sbc.w	r1, r1, r1, lsl #1
 80013a2:	f44f 6480 	mov.w	r4, #1024	@ 0x400
 80013a6:	f104 0432 	add.w	r4, r4, #50	@ 0x32
 80013aa:	ea5f 5c91 	movs.w	ip, r1, lsr #22
 80013ae:	f43f aed8 	beq.w	8001162 <__adddf3+0xe6>
 80013b2:	f04f 0203 	mov.w	r2, #3
 80013b6:	ea5f 0cdc 	movs.w	ip, ip, lsr #3
 80013ba:	bf18      	it	ne
 80013bc:	3203      	addne	r2, #3
 80013be:	ea5f 0cdc 	movs.w	ip, ip, lsr #3
 80013c2:	bf18      	it	ne
 80013c4:	3203      	addne	r2, #3
 80013c6:	eb02 02dc 	add.w	r2, r2, ip, lsr #3
 80013ca:	f1c2 0320 	rsb	r3, r2, #32
 80013ce:	fa00 fc03 	lsl.w	ip, r0, r3
 80013d2:	fa20 f002 	lsr.w	r0, r0, r2
 80013d6:	fa01 fe03 	lsl.w	lr, r1, r3
 80013da:	ea40 000e 	orr.w	r0, r0, lr
 80013de:	fa21 f102 	lsr.w	r1, r1, r2
 80013e2:	4414      	add	r4, r2
 80013e4:	e6bd      	b.n	8001162 <__adddf3+0xe6>
 80013e6:	bf00      	nop

080013e8 <__aeabi_dmul>:
 80013e8:	b570      	push	{r4, r5, r6, lr}
 80013ea:	f04f 0cff 	mov.w	ip, #255	@ 0xff
 80013ee:	f44c 6ce0 	orr.w	ip, ip, #1792	@ 0x700
 80013f2:	ea1c 5411 	ands.w	r4, ip, r1, lsr #20
 80013f6:	bf1d      	ittte	ne
 80013f8:	ea1c 5513 	andsne.w	r5, ip, r3, lsr #20
 80013fc:	ea94 0f0c 	teqne	r4, ip
 8001400:	ea95 0f0c 	teqne	r5, ip
 8001404:	f000 f8de 	bleq	80015c4 <__aeabi_dmul+0x1dc>
 8001408:	442c      	add	r4, r5
 800140a:	ea81 0603 	eor.w	r6, r1, r3
 800140e:	ea21 514c 	bic.w	r1, r1, ip, lsl #21
 8001412:	ea23 534c 	bic.w	r3, r3, ip, lsl #21
 8001416:	ea50 3501 	orrs.w	r5, r0, r1, lsl #12
 800141a:	bf18      	it	ne
 800141c:	ea52 3503 	orrsne.w	r5, r2, r3, lsl #12
 8001420:	f441 1180 	orr.w	r1, r1, #1048576	@ 0x100000
 8001424:	f443 1380 	orr.w	r3, r3, #1048576	@ 0x100000
 8001428:	d038      	beq.n	800149c <__aeabi_dmul+0xb4>
 800142a:	fba0 ce02 	umull	ip, lr, r0, r2
 800142e:	f04f 0500 	mov.w	r5, #0
 8001432:	fbe1 e502 	umlal	lr, r5, r1, r2
 8001436:	f006 4200 	and.w	r2, r6, #2147483648	@ 0x80000000
 800143a:	fbe0 e503 	umlal	lr, r5, r0, r3
 800143e:	f04f 0600 	mov.w	r6, #0
 8001442:	fbe1 5603 	umlal	r5, r6, r1, r3
 8001446:	f09c 0f00 	teq	ip, #0
 800144a:	bf18      	it	ne
 800144c:	f04e 0e01 	orrne.w	lr, lr, #1
 8001450:	f1a4 04ff 	sub.w	r4, r4, #255	@ 0xff
 8001454:	f5b6 7f00 	cmp.w	r6, #512	@ 0x200
 8001458:	f564 7440 	sbc.w	r4, r4, #768	@ 0x300
 800145c:	d204      	bcs.n	8001468 <__aeabi_dmul+0x80>
 800145e:	ea5f 0e4e 	movs.w	lr, lr, lsl #1
 8001462:	416d      	adcs	r5, r5
 8001464:	eb46 0606 	adc.w	r6, r6, r6
 8001468:	ea42 21c6 	orr.w	r1, r2, r6, lsl #11
 800146c:	ea41 5155 	orr.w	r1, r1, r5, lsr #21
 8001470:	ea4f 20c5 	mov.w	r0, r5, lsl #11
 8001474:	ea40 505e 	orr.w	r0, r0, lr, lsr #21
 8001478:	ea4f 2ece 	mov.w	lr, lr, lsl #11
 800147c:	f1b4 0cfd 	subs.w	ip, r4, #253	@ 0xfd
 8001480:	bf88      	it	hi
 8001482:	f5bc 6fe0 	cmphi.w	ip, #1792	@ 0x700
 8001486:	d81e      	bhi.n	80014c6 <__aeabi_dmul+0xde>
 8001488:	f1be 4f00 	cmp.w	lr, #2147483648	@ 0x80000000
 800148c:	bf08      	it	eq
 800148e:	ea5f 0e50 	movseq.w	lr, r0, lsr #1
 8001492:	f150 0000 	adcs.w	r0, r0, #0
 8001496:	eb41 5104 	adc.w	r1, r1, r4, lsl #20
 800149a:	bd70      	pop	{r4, r5, r6, pc}
 800149c:	f006 4600 	and.w	r6, r6, #2147483648	@ 0x80000000
 80014a0:	ea46 0101 	orr.w	r1, r6, r1
 80014a4:	ea40 0002 	orr.w	r0, r0, r2
 80014a8:	ea81 0103 	eor.w	r1, r1, r3
 80014ac:	ebb4 045c 	subs.w	r4, r4, ip, lsr #1
 80014b0:	bfc2      	ittt	gt
 80014b2:	ebd4 050c 	rsbsgt	r5, r4, ip
 80014b6:	ea41 5104 	orrgt.w	r1, r1, r4, lsl #20
 80014ba:	bd70      	popgt	{r4, r5, r6, pc}
 80014bc:	f441 1180 	orr.w	r1, r1, #1048576	@ 0x100000
 80014c0:	f04f 0e00 	mov.w	lr, #0
 80014c4:	3c01      	subs	r4, #1
 80014c6:	f300 80ab 	bgt.w	8001620 <__aeabi_dmul+0x238>
 80014ca:	f114 0f36 	cmn.w	r4, #54	@ 0x36
 80014ce:	bfde      	ittt	le
 80014d0:	2000      	movle	r0, #0
 80014d2:	f001 4100 	andle.w	r1, r1, #2147483648	@ 0x80000000
 80014d6:	bd70      	pople	{r4, r5, r6, pc}
 80014d8:	f1c4 0400 	rsb	r4, r4, #0
 80014dc:	3c20      	subs	r4, #32
 80014de:	da35      	bge.n	800154c <__aeabi_dmul+0x164>
 80014e0:	340c      	adds	r4, #12
 80014e2:	dc1b      	bgt.n	800151c <__aeabi_dmul+0x134>
 80014e4:	f104 0414 	add.w	r4, r4, #20
 80014e8:	f1c4 0520 	rsb	r5, r4, #32
 80014ec:	fa00 f305 	lsl.w	r3, r0, r5
 80014f0:	fa20 f004 	lsr.w	r0, r0, r4
 80014f4:	fa01 f205 	lsl.w	r2, r1, r5
 80014f8:	ea40 0002 	orr.w	r0, r0, r2
 80014fc:	f001 4200 	and.w	r2, r1, #2147483648	@ 0x80000000
 8001500:	f021 4100 	bic.w	r1, r1, #2147483648	@ 0x80000000
 8001504:	eb10 70d3 	adds.w	r0, r0, r3, lsr #31
 8001508:	fa21 f604 	lsr.w	r6, r1, r4
 800150c:	eb42 0106 	adc.w	r1, r2, r6
 8001510:	ea5e 0e43 	orrs.w	lr, lr, r3, lsl #1
 8001514:	bf08      	it	eq
 8001516:	ea20 70d3 	biceq.w	r0, r0, r3, lsr #31
 800151a:	bd70      	pop	{r4, r5, r6, pc}
 800151c:	f1c4 040c 	rsb	r4, r4, #12
 8001520:	f1c4 0520 	rsb	r5, r4, #32
 8001524:	fa00 f304 	lsl.w	r3, r0, r4
 8001528:	fa20 f005 	lsr.w	r0, r0, r5
 800152c:	fa01 f204 	lsl.w	r2, r1, r4
 8001530:	ea40 0002 	orr.w	r0, r0, r2
 8001534:	f001 4100 	and.w	r1, r1, #2147483648	@ 0x80000000
 8001538:	eb10 70d3 	adds.w	r0, r0, r3, lsr #31
 800153c:	f141 0100 	adc.w	r1, r1, #0
 8001540:	ea5e 0e43 	orrs.w	lr, lr, r3, lsl #1
 8001544:	bf08      	it	eq
 8001546:	ea20 70d3 	biceq.w	r0, r0, r3, lsr #31
 800154a:	bd70      	pop	{r4, r5, r6, pc}
 800154c:	f1c4 0520 	rsb	r5, r4, #32
 8001550:	fa00 f205 	lsl.w	r2, r0, r5
 8001554:	ea4e 0e02 	orr.w	lr, lr, r2
 8001558:	fa20 f304 	lsr.w	r3, r0, r4
 800155c:	fa01 f205 	lsl.w	r2, r1, r5
 8001560:	ea43 0302 	orr.w	r3, r3, r2
 8001564:	fa21 f004 	lsr.w	r0, r1, r4
 8001568:	f001 4100 	and.w	r1, r1, #2147483648	@ 0x80000000
 800156c:	fa21 f204 	lsr.w	r2, r1, r4
 8001570:	ea20 0002 	bic.w	r0, r0, r2
 8001574:	eb00 70d3 	add.w	r0, r0, r3, lsr #31
 8001578:	ea5e 0e43 	orrs.w	lr, lr, r3, lsl #1
 800157c:	bf08      	it	eq
 800157e:	ea20 70d3 	biceq.w	r0, r0, r3, lsr #31
 8001582:	bd70      	pop	{r4, r5, r6, pc}
 8001584:	f094 0f00 	teq	r4, #0
 8001588:	d10f      	bne.n	80015aa <__aeabi_dmul+0x1c2>
 800158a:	f001 4600 	and.w	r6, r1, #2147483648	@ 0x80000000
 800158e:	0040      	lsls	r0, r0, #1
 8001590:	eb41 0101 	adc.w	r1, r1, r1
 8001594:	f411 1f80 	tst.w	r1, #1048576	@ 0x100000
 8001598:	bf08      	it	eq
 800159a:	3c01      	subeq	r4, #1
 800159c:	d0f7      	beq.n	800158e <__aeabi_dmul+0x1a6>
 800159e:	ea41 0106 	orr.w	r1, r1, r6
 80015a2:	f095 0f00 	teq	r5, #0
 80015a6:	bf18      	it	ne
 80015a8:	4770      	bxne	lr
 80015aa:	f003 4600 	and.w	r6, r3, #2147483648	@ 0x80000000
 80015ae:	0052      	lsls	r2, r2, #1
 80015b0:	eb43 0303 	adc.w	r3, r3, r3
 80015b4:	f413 1f80 	tst.w	r3, #1048576	@ 0x100000
 80015b8:	bf08      	it	eq
 80015ba:	3d01      	subeq	r5, #1
 80015bc:	d0f7      	beq.n	80015ae <__aeabi_dmul+0x1c6>
 80015be:	ea43 0306 	orr.w	r3, r3, r6
 80015c2:	4770      	bx	lr
 80015c4:	ea94 0f0c 	teq	r4, ip
 80015c8:	ea0c 5513 	and.w	r5, ip, r3, lsr #20
 80015cc:	bf18      	it	ne
 80015ce:	ea95 0f0c 	teqne	r5, ip
 80015d2:	d00c      	beq.n	80015ee <__aeabi_dmul+0x206>
 80015d4:	ea50 0641 	orrs.w	r6, r0, r1, lsl #1
 80015d8:	bf18      	it	ne
 80015da:	ea52 0643 	orrsne.w	r6, r2, r3, lsl #1
 80015de:	d1d1      	bne.n	8001584 <__aeabi_dmul+0x19c>
 80015e0:	ea81 0103 	eor.w	r1, r1, r3
 80015e4:	f001 4100 	and.w	r1, r1, #2147483648	@ 0x80000000
 80015e8:	f04f 0000 	mov.w	r0, #0
 80015ec:	bd70      	pop	{r4, r5, r6, pc}
 80015ee:	ea50 0641 	orrs.w	r6, r0, r1, lsl #1
 80015f2:	bf06      	itte	eq
 80015f4:	4610      	moveq	r0, r2
 80015f6:	4619      	moveq	r1, r3
 80015f8:	ea52 0643 	orrsne.w	r6, r2, r3, lsl #1
 80015fc:	d019      	beq.n	8001632 <__aeabi_dmul+0x24a>
 80015fe:	ea94 0f0c 	teq	r4, ip
 8001602:	d102      	bne.n	800160a <__aeabi_dmul+0x222>
 8001604:	ea50 3601 	orrs.w	r6, r0, r1, lsl #12
 8001608:	d113      	bne.n	8001632 <__aeabi_dmul+0x24a>
 800160a:	ea95 0f0c 	teq	r5, ip
 800160e:	d105      	bne.n	800161c <__aeabi_dmul+0x234>
 8001610:	ea52 3603 	orrs.w	r6, r2, r3, lsl #12
 8001614:	bf1c      	itt	ne
 8001616:	4610      	movne	r0, r2
 8001618:	4619      	movne	r1, r3
 800161a:	d10a      	bne.n	8001632 <__aeabi_dmul+0x24a>
 800161c:	ea81 0103 	eor.w	r1, r1, r3
 8001620:	f001 4100 	and.w	r1, r1, #2147483648	@ 0x80000000
 8001624:	f041 41fe 	orr.w	r1, r1, #2130706432	@ 0x7f000000
 8001628:	f441 0170 	orr.w	r1, r1, #15728640	@ 0xf00000
 800162c:	f04f 0000 	mov.w	r0, #0
 8001630:	bd70      	pop	{r4, r5, r6, pc}
 8001632:	f041 41fe 	orr.w	r1, r1, #2130706432	@ 0x7f000000
 8001636:	f441 0178 	orr.w	r1, r1, #16252928	@ 0xf80000
 800163a:	bd70      	pop	{r4, r5, r6, pc}

0800163c <__aeabi_ddiv>:
 800163c:	b570      	push	{r4, r5, r6, lr}
 800163e:	f04f 0cff 	mov.w	ip, #255	@ 0xff
 8001642:	f44c 6ce0 	orr.w	ip, ip, #1792	@ 0x700
 8001646:	ea1c 5411 	ands.w	r4, ip, r1, lsr #20
 800164a:	bf1d      	ittte	ne
 800164c:	ea1c 5513 	andsne.w	r5, ip, r3, lsr #20
 8001650:	ea94 0f0c 	teqne	r4, ip
 8001654:	ea95 0f0c 	teqne	r5, ip
 8001658:	f000 f8a7 	bleq	80017aa <__aeabi_ddiv+0x16e>
 800165c:	eba4 0405 	sub.w	r4, r4, r5
 8001660:	ea81 0e03 	eor.w	lr, r1, r3
 8001664:	ea52 3503 	orrs.w	r5, r2, r3, lsl #12
 8001668:	ea4f 3101 	mov.w	r1, r1, lsl #12
 800166c:	f000 8088 	beq.w	8001780 <__aeabi_ddiv+0x144>
 8001670:	ea4f 3303 	mov.w	r3, r3, lsl #12
 8001674:	f04f 5580 	mov.w	r5, #268435456	@ 0x10000000
 8001678:	ea45 1313 	orr.w	r3, r5, r3, lsr #4
 800167c:	ea43 6312 	orr.w	r3, r3, r2, lsr #24
 8001680:	ea4f 2202 	mov.w	r2, r2, lsl #8
 8001684:	ea45 1511 	orr.w	r5, r5, r1, lsr #4
 8001688:	ea45 6510 	orr.w	r5, r5, r0, lsr #24
 800168c:	ea4f 2600 	mov.w	r6, r0, lsl #8
 8001690:	f00e 4100 	and.w	r1, lr, #2147483648	@ 0x80000000
 8001694:	429d      	cmp	r5, r3
 8001696:	bf08      	it	eq
 8001698:	4296      	cmpeq	r6, r2
 800169a:	f144 04fd 	adc.w	r4, r4, #253	@ 0xfd
 800169e:	f504 7440 	add.w	r4, r4, #768	@ 0x300
 80016a2:	d202      	bcs.n	80016aa <__aeabi_ddiv+0x6e>
 80016a4:	085b      	lsrs	r3, r3, #1
 80016a6:	ea4f 0232 	mov.w	r2, r2, rrx
 80016aa:	1ab6      	subs	r6, r6, r2
 80016ac:	eb65 0503 	sbc.w	r5, r5, r3
 80016b0:	085b      	lsrs	r3, r3, #1
 80016b2:	ea4f 0232 	mov.w	r2, r2, rrx
 80016b6:	f44f 1080 	mov.w	r0, #1048576	@ 0x100000
 80016ba:	f44f 2c00 	mov.w	ip, #524288	@ 0x80000
 80016be:	ebb6 0e02 	subs.w	lr, r6, r2
 80016c2:	eb75 0e03 	sbcs.w	lr, r5, r3
 80016c6:	bf22      	ittt	cs
 80016c8:	1ab6      	subcs	r6, r6, r2
 80016ca:	4675      	movcs	r5, lr
 80016cc:	ea40 000c 	orrcs.w	r0, r0, ip
 80016d0:	085b      	lsrs	r3, r3, #1
 80016d2:	ea4f 0232 	mov.w	r2, r2, rrx
 80016d6:	ebb6 0e02 	subs.w	lr, r6, r2
 80016da:	eb75 0e03 	sbcs.w	lr, r5, r3
 80016de:	bf22      	ittt	cs
 80016e0:	1ab6      	subcs	r6, r6, r2
 80016e2:	4675      	movcs	r5, lr
 80016e4:	ea40 005c 	orrcs.w	r0, r0, ip, lsr #1
 80016e8:	085b      	lsrs	r3, r3, #1
 80016ea:	ea4f 0232 	mov.w	r2, r2, rrx
 80016ee:	ebb6 0e02 	subs.w	lr, r6, r2
 80016f2:	eb75 0e03 	sbcs.w	lr, r5, r3
 80016f6:	bf22      	ittt	cs
 80016f8:	1ab6      	subcs	r6, r6, r2
 80016fa:	4675      	movcs	r5, lr
 80016fc:	ea40 009c 	orrcs.w	r0, r0, ip, lsr #2
 8001700:	085b      	lsrs	r3, r3, #1
 8001702:	ea4f 0232 	mov.w	r2, r2, rrx
 8001706:	ebb6 0e02 	subs.w	lr, r6, r2
 800170a:	eb75 0e03 	sbcs.w	lr, r5, r3
 800170e:	bf22      	ittt	cs
 8001710:	1ab6      	subcs	r6, r6, r2
 8001712:	4675      	movcs	r5, lr
 8001714:	ea40 00dc 	orrcs.w	r0, r0, ip, lsr #3
 8001718:	ea55 0e06 	orrs.w	lr, r5, r6
 800171c:	d018      	beq.n	8001750 <__aeabi_ddiv+0x114>
 800171e:	ea4f 1505 	mov.w	r5, r5, lsl #4
 8001722:	ea45 7516 	orr.w	r5, r5, r6, lsr #28
 8001726:	ea4f 1606 	mov.w	r6, r6, lsl #4
 800172a:	ea4f 03c3 	mov.w	r3, r3, lsl #3
 800172e:	ea43 7352 	orr.w	r3, r3, r2, lsr #29
 8001732:	ea4f 02c2 	mov.w	r2, r2, lsl #3
 8001736:	ea5f 1c1c 	movs.w	ip, ip, lsr #4
 800173a:	d1c0      	bne.n	80016be <__aeabi_ddiv+0x82>
 800173c:	f411 1f80 	tst.w	r1, #1048576	@ 0x100000
 8001740:	d10b      	bne.n	800175a <__aeabi_ddiv+0x11e>
 8001742:	ea41 0100 	orr.w	r1, r1, r0
 8001746:	f04f 0000 	mov.w	r0, #0
 800174a:	f04f 4c00 	mov.w	ip, #2147483648	@ 0x80000000
 800174e:	e7b6      	b.n	80016be <__aeabi_ddiv+0x82>
 8001750:	f411 1f80 	tst.w	r1, #1048576	@ 0x100000
 8001754:	bf04      	itt	eq
 8001756:	4301      	orreq	r1, r0
 8001758:	2000      	moveq	r0, #0
 800175a:	f1b4 0cfd 	subs.w	ip, r4, #253	@ 0xfd
 800175e:	bf88      	it	hi
 8001760:	f5bc 6fe0 	cmphi.w	ip, #1792	@ 0x700
 8001764:	f63f aeaf 	bhi.w	80014c6 <__aeabi_dmul+0xde>
 8001768:	ebb5 0c03 	subs.w	ip, r5, r3
 800176c:	bf04      	itt	eq
 800176e:	ebb6 0c02 	subseq.w	ip, r6, r2
 8001772:	ea5f 0c50 	movseq.w	ip, r0, lsr #1
 8001776:	f150 0000 	adcs.w	r0, r0, #0
 800177a:	eb41 5104 	adc.w	r1, r1, r4, lsl #20
 800177e:	bd70      	pop	{r4, r5, r6, pc}
 8001780:	f00e 4e00 	and.w	lr, lr, #2147483648	@ 0x80000000
 8001784:	ea4e 3111 	orr.w	r1, lr, r1, lsr #12
 8001788:	eb14 045c 	adds.w	r4, r4, ip, lsr #1
 800178c:	bfc2      	ittt	gt
 800178e:	ebd4 050c 	rsbsgt	r5, r4, ip
 8001792:	ea41 5104 	orrgt.w	r1, r1, r4, lsl #20
 8001796:	bd70      	popgt	{r4, r5, r6, pc}
 8001798:	f441 1180 	orr.w	r1, r1, #1048576	@ 0x100000
 800179c:	f04f 0e00 	mov.w	lr, #0
 80017a0:	3c01      	subs	r4, #1
 80017a2:	e690      	b.n	80014c6 <__aeabi_dmul+0xde>
 80017a4:	ea45 0e06 	orr.w	lr, r5, r6
 80017a8:	e68d      	b.n	80014c6 <__aeabi_dmul+0xde>
 80017aa:	ea0c 5513 	and.w	r5, ip, r3, lsr #20
 80017ae:	ea94 0f0c 	teq	r4, ip
 80017b2:	bf08      	it	eq
 80017b4:	ea95 0f0c 	teqeq	r5, ip
 80017b8:	f43f af3b 	beq.w	8001632 <__aeabi_dmul+0x24a>
 80017bc:	ea94 0f0c 	teq	r4, ip
 80017c0:	d10a      	bne.n	80017d8 <__aeabi_ddiv+0x19c>
 80017c2:	ea50 3401 	orrs.w	r4, r0, r1, lsl #12
 80017c6:	f47f af34 	bne.w	8001632 <__aeabi_dmul+0x24a>
 80017ca:	ea95 0f0c 	teq	r5, ip
 80017ce:	f47f af25 	bne.w	800161c <__aeabi_dmul+0x234>
 80017d2:	4610      	mov	r0, r2
 80017d4:	4619      	mov	r1, r3
 80017d6:	e72c      	b.n	8001632 <__aeabi_dmul+0x24a>
 80017d8:	ea95 0f0c 	teq	r5, ip
 80017dc:	d106      	bne.n	80017ec <__aeabi_ddiv+0x1b0>
 80017de:	ea52 3503 	orrs.w	r5, r2, r3, lsl #12
 80017e2:	f43f aefd 	beq.w	80015e0 <__aeabi_dmul+0x1f8>
 80017e6:	4610      	mov	r0, r2
 80017e8:	4619      	mov	r1, r3
 80017ea:	e722      	b.n	8001632 <__aeabi_dmul+0x24a>
 80017ec:	ea50 0641 	orrs.w	r6, r0, r1, lsl #1
 80017f0:	bf18      	it	ne
 80017f2:	ea52 0643 	orrsne.w	r6, r2, r3, lsl #1
 80017f6:	f47f aec5 	bne.w	8001584 <__aeabi_dmul+0x19c>
 80017fa:	ea50 0441 	orrs.w	r4, r0, r1, lsl #1
 80017fe:	f47f af0d 	bne.w	800161c <__aeabi_dmul+0x234>
 8001802:	ea52 0543 	orrs.w	r5, r2, r3, lsl #1
 8001806:	f47f aeeb 	bne.w	80015e0 <__aeabi_dmul+0x1f8>
 800180a:	e712      	b.n	8001632 <__aeabi_dmul+0x24a>

0800180c <__aeabi_d2uiz>:
 800180c:	004a      	lsls	r2, r1, #1
 800180e:	d211      	bcs.n	8001834 <__aeabi_d2uiz+0x28>
 8001810:	f512 1200 	adds.w	r2, r2, #2097152	@ 0x200000
 8001814:	d211      	bcs.n	800183a <__aeabi_d2uiz+0x2e>
 8001816:	d50d      	bpl.n	8001834 <__aeabi_d2uiz+0x28>
 8001818:	f46f 7378 	mvn.w	r3, #992	@ 0x3e0
 800181c:	ebb3 5262 	subs.w	r2, r3, r2, asr #21
 8001820:	d40e      	bmi.n	8001840 <__aeabi_d2uiz+0x34>
 8001822:	ea4f 23c1 	mov.w	r3, r1, lsl #11
 8001826:	f043 4300 	orr.w	r3, r3, #2147483648	@ 0x80000000
 800182a:	ea43 5350 	orr.w	r3, r3, r0, lsr #21
 800182e:	fa23 f002 	lsr.w	r0, r3, r2
 8001832:	4770      	bx	lr
 8001834:	f04f 0000 	mov.w	r0, #0
 8001838:	4770      	bx	lr
 800183a:	ea50 3001 	orrs.w	r0, r0, r1, lsl #12
 800183e:	d102      	bne.n	8001846 <__aeabi_d2uiz+0x3a>
 8001840:	f04f 30ff 	mov.w	r0, #4294967295	@ 0xffffffff
 8001844:	4770      	bx	lr
 8001846:	f04f 0000 	mov.w	r0, #0
 800184a:	4770      	bx	lr

0800184c <MX_ADC1_Init>:
 800184c:	b500      	push	{lr}
 800184e:	b085      	sub	sp, #20
 8001850:	2300      	movs	r3, #0
 8001852:	9301      	str	r3, [sp, #4]
 8001854:	9302      	str	r3, [sp, #8]
 8001856:	9303      	str	r3, [sp, #12]
 8001858:	4831      	ldr	r0, [pc, #196]	@ (8001920 <MX_ADC1_Init+0xd4>)
 800185a:	4a32      	ldr	r2, [pc, #200]	@ (8001924 <MX_ADC1_Init+0xd8>)
 800185c:	6002      	str	r2, [r0, #0]
 800185e:	f44f 7280 	mov.w	r2, #256	@ 0x100
 8001862:	6082      	str	r2, [r0, #8]
 8001864:	2201      	movs	r2, #1
 8001866:	7302      	strb	r2, [r0, #12]
 8001868:	7503      	strb	r3, [r0, #20]
 800186a:	f44f 2260 	mov.w	r2, #917504	@ 0xe0000
 800186e:	61c2      	str	r2, [r0, #28]
 8001870:	6043      	str	r3, [r0, #4]
 8001872:	2306      	movs	r3, #6
 8001874:	6103      	str	r3, [r0, #16]
 8001876:	f001 fb6d 	bl	8002f54 <HAL_ADC_Init>
 800187a:	2800      	cmp	r0, #0
 800187c:	d13b      	bne.n	80018f6 <MX_ADC1_Init+0xaa>
 800187e:	2305      	movs	r3, #5
 8001880:	9301      	str	r3, [sp, #4]
 8001882:	2201      	movs	r2, #1
 8001884:	9202      	str	r2, [sp, #8]
 8001886:	9303      	str	r3, [sp, #12]
 8001888:	a901      	add	r1, sp, #4
 800188a:	4825      	ldr	r0, [pc, #148]	@ (8001920 <MX_ADC1_Init+0xd4>)
 800188c:	f001 f9ba 	bl	8002c04 <HAL_ADC_ConfigChannel>
 8001890:	2800      	cmp	r0, #0
 8001892:	d133      	bne.n	80018fc <MX_ADC1_Init+0xb0>
 8001894:	2308      	movs	r3, #8
 8001896:	9301      	str	r3, [sp, #4]
 8001898:	2302      	movs	r3, #2
 800189a:	9302      	str	r3, [sp, #8]
 800189c:	a901      	add	r1, sp, #4
 800189e:	4820      	ldr	r0, [pc, #128]	@ (8001920 <MX_ADC1_Init+0xd4>)
 80018a0:	f001 f9b0 	bl	8002c04 <HAL_ADC_ConfigChannel>
 80018a4:	bb68      	cbnz	r0, 8001902 <MX_ADC1_Init+0xb6>
 80018a6:	2304      	movs	r3, #4
 80018a8:	9301      	str	r3, [sp, #4]
 80018aa:	2303      	movs	r3, #3
 80018ac:	9302      	str	r3, [sp, #8]
 80018ae:	a901      	add	r1, sp, #4
 80018b0:	481b      	ldr	r0, [pc, #108]	@ (8001920 <MX_ADC1_Init+0xd4>)
 80018b2:	f001 f9a7 	bl	8002c04 <HAL_ADC_ConfigChannel>
 80018b6:	bb38      	cbnz	r0, 8001908 <MX_ADC1_Init+0xbc>
 80018b8:	2306      	movs	r3, #6
 80018ba:	9301      	str	r3, [sp, #4]
 80018bc:	2304      	movs	r3, #4
 80018be:	9302      	str	r3, [sp, #8]
 80018c0:	eb0d 0103 	add.w	r1, sp, r3
 80018c4:	4816      	ldr	r0, [pc, #88]	@ (8001920 <MX_ADC1_Init+0xd4>)
 80018c6:	f001 f99d 	bl	8002c04 <HAL_ADC_ConfigChannel>
 80018ca:	bb00      	cbnz	r0, 800190e <MX_ADC1_Init+0xc2>
 80018cc:	2307      	movs	r3, #7
 80018ce:	9301      	str	r3, [sp, #4]
 80018d0:	2305      	movs	r3, #5
 80018d2:	9302      	str	r3, [sp, #8]
 80018d4:	a901      	add	r1, sp, #4
 80018d6:	4812      	ldr	r0, [pc, #72]	@ (8001920 <MX_ADC1_Init+0xd4>)
 80018d8:	f001 f994 	bl	8002c04 <HAL_ADC_ConfigChannel>
 80018dc:	b9d0      	cbnz	r0, 8001914 <MX_ADC1_Init+0xc8>
 80018de:	2309      	movs	r3, #9
 80018e0:	9301      	str	r3, [sp, #4]
 80018e2:	2306      	movs	r3, #6
 80018e4:	9302      	str	r3, [sp, #8]
 80018e6:	a901      	add	r1, sp, #4
 80018e8:	480d      	ldr	r0, [pc, #52]	@ (8001920 <MX_ADC1_Init+0xd4>)
 80018ea:	f001 f98b 	bl	8002c04 <HAL_ADC_ConfigChannel>
 80018ee:	b9a0      	cbnz	r0, 800191a <MX_ADC1_Init+0xce>
 80018f0:	b005      	add	sp, #20
 80018f2:	f85d fb04 	ldr.w	pc, [sp], #4
 80018f6:	f000 fc19 	bl	800212c <Error_Handler>
 80018fa:	e7c0      	b.n	800187e <MX_ADC1_Init+0x32>
 80018fc:	f000 fc16 	bl	800212c <Error_Handler>
 8001900:	e7c8      	b.n	8001894 <MX_ADC1_Init+0x48>
 8001902:	f000 fc13 	bl	800212c <Error_Handler>
 8001906:	e7ce      	b.n	80018a6 <MX_ADC1_Init+0x5a>
 8001908:	f000 fc10 	bl	800212c <Error_Handler>
 800190c:	e7d4      	b.n	80018b8 <MX_ADC1_Init+0x6c>
 800190e:	f000 fc0d 	bl	800212c <Error_Handler>
 8001912:	e7db      	b.n	80018cc <MX_ADC1_Init+0x80>
 8001914:	f000 fc0a 	bl	800212c <Error_Handler>
 8001918:	e7e1      	b.n	80018de <MX_ADC1_Init+0x92>
 800191a:	f000 fc07 	bl	800212c <Error_Handler>
 800191e:	e7e7      	b.n	80018f0 <MX_ADC1_Init+0xa4>
 8001920:	20000384 	.word	0x20000384
 8001924:	40012400 	.word	0x40012400

08001928 <HAL_ADC_MspInit>:
 8001928:	b530      	push	{r4, r5, lr}
 800192a:	b089      	sub	sp, #36	@ 0x24
 800192c:	2300      	movs	r3, #0
 800192e:	9304      	str	r3, [sp, #16]
 8001930:	9305      	str	r3, [sp, #20]
 8001932:	9306      	str	r3, [sp, #24]
 8001934:	9307      	str	r3, [sp, #28]
 8001936:	6802      	ldr	r2, [r0, #0]
 8001938:	4b25      	ldr	r3, [pc, #148]	@ (80019d0 <HAL_ADC_MspInit+0xa8>)
 800193a:	429a      	cmp	r2, r3
 800193c:	d001      	beq.n	8001942 <HAL_ADC_MspInit+0x1a>
 800193e:	b009      	add	sp, #36	@ 0x24
 8001940:	bd30      	pop	{r4, r5, pc}
 8001942:	4604      	mov	r4, r0
 8001944:	f503 436c 	add.w	r3, r3, #60416	@ 0xec00
 8001948:	699a      	ldr	r2, [r3, #24]
 800194a:	f442 7200 	orr.w	r2, r2, #512	@ 0x200
 800194e:	619a      	str	r2, [r3, #24]
 8001950:	699a      	ldr	r2, [r3, #24]
 8001952:	f402 7200 	and.w	r2, r2, #512	@ 0x200
 8001956:	9201      	str	r2, [sp, #4]
 8001958:	9a01      	ldr	r2, [sp, #4]
 800195a:	699a      	ldr	r2, [r3, #24]
 800195c:	f042 0204 	orr.w	r2, r2, #4
 8001960:	619a      	str	r2, [r3, #24]
 8001962:	699a      	ldr	r2, [r3, #24]
 8001964:	f002 0204 	and.w	r2, r2, #4
 8001968:	9202      	str	r2, [sp, #8]
 800196a:	9a02      	ldr	r2, [sp, #8]
 800196c:	699a      	ldr	r2, [r3, #24]
 800196e:	f042 0208 	orr.w	r2, r2, #8
 8001972:	619a      	str	r2, [r3, #24]
 8001974:	699b      	ldr	r3, [r3, #24]
 8001976:	f003 0308 	and.w	r3, r3, #8
 800197a:	9303      	str	r3, [sp, #12]
 800197c:	9b03      	ldr	r3, [sp, #12]
 800197e:	23f0      	movs	r3, #240	@ 0xf0
 8001980:	9304      	str	r3, [sp, #16]
 8001982:	2503      	movs	r5, #3
 8001984:	9505      	str	r5, [sp, #20]
 8001986:	a904      	add	r1, sp, #16
 8001988:	4812      	ldr	r0, [pc, #72]	@ (80019d4 <HAL_ADC_MspInit+0xac>)
 800198a:	f001 fd07 	bl	800339c <HAL_GPIO_Init>
 800198e:	9504      	str	r5, [sp, #16]
 8001990:	9505      	str	r5, [sp, #20]
 8001992:	a904      	add	r1, sp, #16
 8001994:	4810      	ldr	r0, [pc, #64]	@ (80019d8 <HAL_ADC_MspInit+0xb0>)
 8001996:	f001 fd01 	bl	800339c <HAL_GPIO_Init>
 800199a:	4810      	ldr	r0, [pc, #64]	@ (80019dc <HAL_ADC_MspInit+0xb4>)
 800199c:	4b10      	ldr	r3, [pc, #64]	@ (80019e0 <HAL_ADC_MspInit+0xb8>)
 800199e:	6003      	str	r3, [r0, #0]
 80019a0:	2300      	movs	r3, #0
 80019a2:	6043      	str	r3, [r0, #4]
 80019a4:	6083      	str	r3, [r0, #8]
 80019a6:	2280      	movs	r2, #128	@ 0x80
 80019a8:	60c2      	str	r2, [r0, #12]
 80019aa:	f44f 7200 	mov.w	r2, #512	@ 0x200
 80019ae:	6102      	str	r2, [r0, #16]
 80019b0:	f44f 6200 	mov.w	r2, #2048	@ 0x800
 80019b4:	6142      	str	r2, [r0, #20]
 80019b6:	2220      	movs	r2, #32
 80019b8:	6182      	str	r2, [r0, #24]
 80019ba:	61c3      	str	r3, [r0, #28]
 80019bc:	f001 fbdc 	bl	8003178 <HAL_DMA_Init>
 80019c0:	b918      	cbnz	r0, 80019ca <HAL_ADC_MspInit+0xa2>
 80019c2:	4b06      	ldr	r3, [pc, #24]	@ (80019dc <HAL_ADC_MspInit+0xb4>)
 80019c4:	6223      	str	r3, [r4, #32]
 80019c6:	625c      	str	r4, [r3, #36]	@ 0x24
 80019c8:	e7b9      	b.n	800193e <HAL_ADC_MspInit+0x16>
 80019ca:	f000 fbaf 	bl	800212c <Error_Handler>
 80019ce:	e7f8      	b.n	80019c2 <HAL_ADC_MspInit+0x9a>
 80019d0:	40012400 	.word	0x40012400
 80019d4:	40010800 	.word	0x40010800
 80019d8:	40010c00 	.word	0x40010c00
 80019dc:	20000340 	.word	0x20000340
 80019e0:	40020008 	.word	0x40020008

080019e4 <log_var_analysis>:
 80019e4:	b508      	push	{r3, lr}
 80019e6:	4b22      	ldr	r3, [pc, #136]	@ (8001a70 <log_var_analysis+0x8c>)
 80019e8:	681b      	ldr	r3, [r3, #0]
 80019ea:	f5b3 7f61 	cmp.w	r3, #900	@ 0x384
 80019ee:	d91f      	bls.n	8001a30 <log_var_analysis+0x4c>
 80019f0:	4a20      	ldr	r2, [pc, #128]	@ (8001a74 <log_var_analysis+0x90>)
 80019f2:	7813      	ldrb	r3, [r2, #0]
 80019f4:	3303      	adds	r3, #3
 80019f6:	b2db      	uxtb	r3, r3
 80019f8:	7013      	strb	r3, [r2, #0]
 80019fa:	2b1e      	cmp	r3, #30
 80019fc:	d019      	beq.n	8001a32 <log_var_analysis+0x4e>
 80019fe:	4b1e      	ldr	r3, [pc, #120]	@ (8001a78 <log_var_analysis+0x94>)
 8001a00:	7819      	ldrb	r1, [r3, #0]
 8001a02:	481e      	ldr	r0, [pc, #120]	@ (8001a7c <log_var_analysis+0x98>)
 8001a04:	f000 f91e 	bl	8001c44 <log_variable>
 8001a08:	4b1d      	ldr	r3, [pc, #116]	@ (8001a80 <log_var_analysis+0x9c>)
 8001a0a:	7819      	ldrb	r1, [r3, #0]
 8001a0c:	481d      	ldr	r0, [pc, #116]	@ (8001a84 <log_var_analysis+0xa0>)
 8001a0e:	f000 f919 	bl	8001c44 <log_variable>
 8001a12:	4b1d      	ldr	r3, [pc, #116]	@ (8001a88 <log_var_analysis+0xa4>)
 8001a14:	7819      	ldrb	r1, [r3, #0]
 8001a16:	481d      	ldr	r0, [pc, #116]	@ (8001a8c <log_var_analysis+0xa8>)
 8001a18:	f000 f914 	bl	8001c44 <log_variable>
 8001a1c:	4b14      	ldr	r3, [pc, #80]	@ (8001a70 <log_var_analysis+0x8c>)
 8001a1e:	6819      	ldr	r1, [r3, #0]
 8001a20:	481b      	ldr	r0, [pc, #108]	@ (8001a90 <log_var_analysis+0xac>)
 8001a22:	f000 f90f 	bl	8001c44 <log_variable>
 8001a26:	4b1b      	ldr	r3, [pc, #108]	@ (8001a94 <log_var_analysis+0xb0>)
 8001a28:	6819      	ldr	r1, [r3, #0]
 8001a2a:	481b      	ldr	r0, [pc, #108]	@ (8001a98 <log_var_analysis+0xb4>)
 8001a2c:	f000 f90a 	bl	8001c44 <log_variable>
 8001a30:	bd08      	pop	{r3, pc}
 8001a32:	f000 f91f 	bl	8001c74 <LOG_POST>
 8001a36:	4b0f      	ldr	r3, [pc, #60]	@ (8001a74 <log_var_analysis+0x90>)
 8001a38:	2200      	movs	r2, #0
 8001a3a:	701a      	strb	r2, [r3, #0]
 8001a3c:	4b0e      	ldr	r3, [pc, #56]	@ (8001a78 <log_var_analysis+0x94>)
 8001a3e:	7819      	ldrb	r1, [r3, #0]
 8001a40:	480e      	ldr	r0, [pc, #56]	@ (8001a7c <log_var_analysis+0x98>)
 8001a42:	f000 f8ff 	bl	8001c44 <log_variable>
 8001a46:	4b0e      	ldr	r3, [pc, #56]	@ (8001a80 <log_var_analysis+0x9c>)
 8001a48:	7819      	ldrb	r1, [r3, #0]
 8001a4a:	480e      	ldr	r0, [pc, #56]	@ (8001a84 <log_var_analysis+0xa0>)
 8001a4c:	f000 f8fa 	bl	8001c44 <log_variable>
 8001a50:	4b0d      	ldr	r3, [pc, #52]	@ (8001a88 <log_var_analysis+0xa4>)
 8001a52:	7819      	ldrb	r1, [r3, #0]
 8001a54:	480d      	ldr	r0, [pc, #52]	@ (8001a8c <log_var_analysis+0xa8>)
 8001a56:	f000 f8f5 	bl	8001c44 <log_variable>
 8001a5a:	4b05      	ldr	r3, [pc, #20]	@ (8001a70 <log_var_analysis+0x8c>)
 8001a5c:	6819      	ldr	r1, [r3, #0]
 8001a5e:	480c      	ldr	r0, [pc, #48]	@ (8001a90 <log_var_analysis+0xac>)
 8001a60:	f000 f8f0 	bl	8001c44 <log_variable>
 8001a64:	4b0b      	ldr	r3, [pc, #44]	@ (8001a94 <log_var_analysis+0xb0>)
 8001a66:	6819      	ldr	r1, [r3, #0]
 8001a68:	480b      	ldr	r0, [pc, #44]	@ (8001a98 <log_var_analysis+0xb4>)
 8001a6a:	f000 f8eb 	bl	8001c44 <log_variable>
 8001a6e:	e7df      	b.n	8001a30 <log_var_analysis+0x4c>
 8001a70:	20000620 	.word	0x20000620
 8001a74:	200003b4 	.word	0x200003b4
 8001a78:	200005c2 	.word	0x200005c2
 8001a7c:	08007ca8 	.word	0x08007ca8
 8001a80:	200005c1 	.word	0x200005c1
 8001a84:	08007cb8 	.word	0x08007cb8
 8001a88:	200005c0 	.word	0x200005c0
 8001a8c:	08007cc4 	.word	0x08007cc4
 8001a90:	08007cd0 	.word	0x08007cd0
 8001a94:	20000638 	.word	0x20000638
 8001a98:	08007cd4 	.word	0x08007cd4

08001a9c <phaseControlBemf>:
 8001a9c:	b510      	push	{r4, lr}
 8001a9e:	4b5f      	ldr	r3, [pc, #380]	@ (8001c1c <phaseControlBemf+0x180>)
 8001aa0:	881b      	ldrh	r3, [r3, #0]
 8001aa2:	b29b      	uxth	r3, r3
 8001aa4:	3303      	adds	r3, #3
 8001aa6:	4a5e      	ldr	r2, [pc, #376]	@ (8001c20 <phaseControlBemf+0x184>)
 8001aa8:	6812      	ldr	r2, [r2, #0]
 8001aaa:	4293      	cmp	r3, r2
 8001aac:	d82f      	bhi.n	8001b0e <phaseControlBemf+0x72>
 8001aae:	4b5d      	ldr	r3, [pc, #372]	@ (8001c24 <phaseControlBemf+0x188>)
 8001ab0:	781b      	ldrb	r3, [r3, #0]
 8001ab2:	b1c3      	cbz	r3, 8001ae6 <phaseControlBemf+0x4a>
 8001ab4:	4b59      	ldr	r3, [pc, #356]	@ (8001c1c <phaseControlBemf+0x180>)
 8001ab6:	881b      	ldrh	r3, [r3, #0]
 8001ab8:	b29b      	uxth	r3, r3
 8001aba:	3303      	adds	r3, #3
 8001abc:	4a5a      	ldr	r2, [pc, #360]	@ (8001c28 <phaseControlBemf+0x18c>)
 8001abe:	6812      	ldr	r2, [r2, #0]
 8001ac0:	4293      	cmp	r3, r2
 8001ac2:	d857      	bhi.n	8001b74 <phaseControlBemf+0xd8>
 8001ac4:	4b59      	ldr	r3, [pc, #356]	@ (8001c2c <phaseControlBemf+0x190>)
 8001ac6:	781b      	ldrb	r3, [r3, #0]
 8001ac8:	2b00      	cmp	r3, #0
 8001aca:	d03f      	beq.n	8001b4c <phaseControlBemf+0xb0>
 8001acc:	4b53      	ldr	r3, [pc, #332]	@ (8001c1c <phaseControlBemf+0x180>)
 8001ace:	881b      	ldrh	r3, [r3, #0]
 8001ad0:	b29b      	uxth	r3, r3
 8001ad2:	3303      	adds	r3, #3
 8001ad4:	4a56      	ldr	r2, [pc, #344]	@ (8001c30 <phaseControlBemf+0x194>)
 8001ad6:	6812      	ldr	r2, [r2, #0]
 8001ad8:	4293      	cmp	r3, r2
 8001ada:	d87e      	bhi.n	8001bda <phaseControlBemf+0x13e>
 8001adc:	4b55      	ldr	r3, [pc, #340]	@ (8001c34 <phaseControlBemf+0x198>)
 8001ade:	781b      	ldrb	r3, [r3, #0]
 8001ae0:	2b00      	cmp	r3, #0
 8001ae2:	d066      	beq.n	8001bb2 <phaseControlBemf+0x116>
 8001ae4:	bd10      	pop	{r4, pc}
 8001ae6:	4c54      	ldr	r4, [pc, #336]	@ (8001c38 <phaseControlBemf+0x19c>)
 8001ae8:	6823      	ldr	r3, [r4, #0]
 8001aea:	6a5b      	ldr	r3, [r3, #36]	@ 0x24
 8001aec:	4a53      	ldr	r2, [pc, #332]	@ (8001c3c <phaseControlBemf+0x1a0>)
 8001aee:	6013      	str	r3, [r2, #0]
 8001af0:	4853      	ldr	r0, [pc, #332]	@ (8001c40 <phaseControlBemf+0x1a4>)
 8001af2:	6802      	ldr	r2, [r0, #0]
 8001af4:	62d3      	str	r3, [r2, #44]	@ 0x2c
 8001af6:	60c3      	str	r3, [r0, #12]
 8001af8:	f003 fa20 	bl	8004f3c <HAL_TIM_Base_Start_IT>
 8001afc:	6823      	ldr	r3, [r4, #0]
 8001afe:	2200      	movs	r2, #0
 8001b00:	625a      	str	r2, [r3, #36]	@ 0x24
 8001b02:	4b48      	ldr	r3, [pc, #288]	@ (8001c24 <phaseControlBemf+0x188>)
 8001b04:	2201      	movs	r2, #1
 8001b06:	701a      	strb	r2, [r3, #0]
 8001b08:	f7ff ff6c 	bl	80019e4 <log_var_analysis>
 8001b0c:	e7d2      	b.n	8001ab4 <phaseControlBemf+0x18>
 8001b0e:	4b45      	ldr	r3, [pc, #276]	@ (8001c24 <phaseControlBemf+0x188>)
 8001b10:	781b      	ldrb	r3, [r3, #0]
 8001b12:	2b00      	cmp	r3, #0
 8001b14:	d0ce      	beq.n	8001ab4 <phaseControlBemf+0x18>
 8001b16:	4b41      	ldr	r3, [pc, #260]	@ (8001c1c <phaseControlBemf+0x180>)
 8001b18:	881b      	ldrh	r3, [r3, #0]
 8001b1a:	b29b      	uxth	r3, r3
 8001b1c:	3b03      	subs	r3, #3
 8001b1e:	4a40      	ldr	r2, [pc, #256]	@ (8001c20 <phaseControlBemf+0x184>)
 8001b20:	6812      	ldr	r2, [r2, #0]
 8001b22:	4293      	cmp	r3, r2
 8001b24:	d9c6      	bls.n	8001ab4 <phaseControlBemf+0x18>
 8001b26:	4c44      	ldr	r4, [pc, #272]	@ (8001c38 <phaseControlBemf+0x19c>)
 8001b28:	6823      	ldr	r3, [r4, #0]
 8001b2a:	6a5b      	ldr	r3, [r3, #36]	@ 0x24
 8001b2c:	4a43      	ldr	r2, [pc, #268]	@ (8001c3c <phaseControlBemf+0x1a0>)
 8001b2e:	6013      	str	r3, [r2, #0]
 8001b30:	4843      	ldr	r0, [pc, #268]	@ (8001c40 <phaseControlBemf+0x1a4>)
 8001b32:	6802      	ldr	r2, [r0, #0]
 8001b34:	62d3      	str	r3, [r2, #44]	@ 0x2c
 8001b36:	60c3      	str	r3, [r0, #12]
 8001b38:	f003 fa00 	bl	8004f3c <HAL_TIM_Base_Start_IT>
 8001b3c:	6822      	ldr	r2, [r4, #0]
 8001b3e:	2300      	movs	r3, #0
 8001b40:	6253      	str	r3, [r2, #36]	@ 0x24
 8001b42:	4a38      	ldr	r2, [pc, #224]	@ (8001c24 <phaseControlBemf+0x188>)
 8001b44:	7013      	strb	r3, [r2, #0]
 8001b46:	f7ff ff4d 	bl	80019e4 <log_var_analysis>
 8001b4a:	e7b3      	b.n	8001ab4 <phaseControlBemf+0x18>
 8001b4c:	4c3a      	ldr	r4, [pc, #232]	@ (8001c38 <phaseControlBemf+0x19c>)
 8001b4e:	6823      	ldr	r3, [r4, #0]
 8001b50:	6a5b      	ldr	r3, [r3, #36]	@ 0x24
 8001b52:	4a3a      	ldr	r2, [pc, #232]	@ (8001c3c <phaseControlBemf+0x1a0>)
 8001b54:	6013      	str	r3, [r2, #0]
 8001b56:	483a      	ldr	r0, [pc, #232]	@ (8001c40 <phaseControlBemf+0x1a4>)
 8001b58:	6802      	ldr	r2, [r0, #0]
 8001b5a:	62d3      	str	r3, [r2, #44]	@ 0x2c
 8001b5c:	60c3      	str	r3, [r0, #12]
 8001b5e:	f003 f9ed 	bl	8004f3c <HAL_TIM_Base_Start_IT>
 8001b62:	6823      	ldr	r3, [r4, #0]
 8001b64:	2200      	movs	r2, #0
 8001b66:	625a      	str	r2, [r3, #36]	@ 0x24
 8001b68:	4b30      	ldr	r3, [pc, #192]	@ (8001c2c <phaseControlBemf+0x190>)
 8001b6a:	2201      	movs	r2, #1
 8001b6c:	701a      	strb	r2, [r3, #0]
 8001b6e:	f7ff ff39 	bl	80019e4 <log_var_analysis>
 8001b72:	e7ab      	b.n	8001acc <phaseControlBemf+0x30>
 8001b74:	4b2d      	ldr	r3, [pc, #180]	@ (8001c2c <phaseControlBemf+0x190>)
 8001b76:	781b      	ldrb	r3, [r3, #0]
 8001b78:	2b00      	cmp	r3, #0
 8001b7a:	d0a7      	beq.n	8001acc <phaseControlBemf+0x30>
 8001b7c:	4b27      	ldr	r3, [pc, #156]	@ (8001c1c <phaseControlBemf+0x180>)
 8001b7e:	881b      	ldrh	r3, [r3, #0]
 8001b80:	b29b      	uxth	r3, r3
 8001b82:	3b03      	subs	r3, #3
 8001b84:	4a28      	ldr	r2, [pc, #160]	@ (8001c28 <phaseControlBemf+0x18c>)
 8001b86:	6812      	ldr	r2, [r2, #0]
 8001b88:	4293      	cmp	r3, r2
 8001b8a:	d99f      	bls.n	8001acc <phaseControlBemf+0x30>
 8001b8c:	4c2a      	ldr	r4, [pc, #168]	@ (8001c38 <phaseControlBemf+0x19c>)
 8001b8e:	6823      	ldr	r3, [r4, #0]
 8001b90:	6a5b      	ldr	r3, [r3, #36]	@ 0x24
 8001b92:	4a2a      	ldr	r2, [pc, #168]	@ (8001c3c <phaseControlBemf+0x1a0>)
 8001b94:	6013      	str	r3, [r2, #0]
 8001b96:	482a      	ldr	r0, [pc, #168]	@ (8001c40 <phaseControlBemf+0x1a4>)
 8001b98:	6802      	ldr	r2, [r0, #0]
 8001b9a:	62d3      	str	r3, [r2, #44]	@ 0x2c
 8001b9c:	60c3      	str	r3, [r0, #12]
 8001b9e:	f003 f9cd 	bl	8004f3c <HAL_TIM_Base_Start_IT>
 8001ba2:	6822      	ldr	r2, [r4, #0]
 8001ba4:	2300      	movs	r3, #0
 8001ba6:	6253      	str	r3, [r2, #36]	@ 0x24
 8001ba8:	4a20      	ldr	r2, [pc, #128]	@ (8001c2c <phaseControlBemf+0x190>)
 8001baa:	7013      	strb	r3, [r2, #0]
 8001bac:	f7ff ff1a 	bl	80019e4 <log_var_analysis>
 8001bb0:	e78c      	b.n	8001acc <phaseControlBemf+0x30>
 8001bb2:	4c21      	ldr	r4, [pc, #132]	@ (8001c38 <phaseControlBemf+0x19c>)
 8001bb4:	6823      	ldr	r3, [r4, #0]
 8001bb6:	6a5b      	ldr	r3, [r3, #36]	@ 0x24
 8001bb8:	4a20      	ldr	r2, [pc, #128]	@ (8001c3c <phaseControlBemf+0x1a0>)
 8001bba:	6013      	str	r3, [r2, #0]
 8001bbc:	4820      	ldr	r0, [pc, #128]	@ (8001c40 <phaseControlBemf+0x1a4>)
 8001bbe:	6802      	ldr	r2, [r0, #0]
 8001bc0:	62d3      	str	r3, [r2, #44]	@ 0x2c
 8001bc2:	60c3      	str	r3, [r0, #12]
 8001bc4:	f003 f9ba 	bl	8004f3c <HAL_TIM_Base_Start_IT>
 8001bc8:	6823      	ldr	r3, [r4, #0]
 8001bca:	2200      	movs	r2, #0
 8001bcc:	625a      	str	r2, [r3, #36]	@ 0x24
 8001bce:	4b19      	ldr	r3, [pc, #100]	@ (8001c34 <phaseControlBemf+0x198>)
 8001bd0:	2201      	movs	r2, #1
 8001bd2:	701a      	strb	r2, [r3, #0]
 8001bd4:	f7ff ff06 	bl	80019e4 <log_var_analysis>
 8001bd8:	e784      	b.n	8001ae4 <phaseControlBemf+0x48>
 8001bda:	4b16      	ldr	r3, [pc, #88]	@ (8001c34 <phaseControlBemf+0x198>)
 8001bdc:	781b      	ldrb	r3, [r3, #0]
 8001bde:	2b00      	cmp	r3, #0
 8001be0:	d080      	beq.n	8001ae4 <phaseControlBemf+0x48>
 8001be2:	4b0e      	ldr	r3, [pc, #56]	@ (8001c1c <phaseControlBemf+0x180>)
 8001be4:	881b      	ldrh	r3, [r3, #0]
 8001be6:	b29b      	uxth	r3, r3
 8001be8:	3b03      	subs	r3, #3
 8001bea:	4a11      	ldr	r2, [pc, #68]	@ (8001c30 <phaseControlBemf+0x194>)
 8001bec:	6812      	ldr	r2, [r2, #0]
 8001bee:	4293      	cmp	r3, r2
 8001bf0:	f67f af78 	bls.w	8001ae4 <phaseControlBemf+0x48>
 8001bf4:	4c10      	ldr	r4, [pc, #64]	@ (8001c38 <phaseControlBemf+0x19c>)
 8001bf6:	6823      	ldr	r3, [r4, #0]
 8001bf8:	6a5b      	ldr	r3, [r3, #36]	@ 0x24
 8001bfa:	4a10      	ldr	r2, [pc, #64]	@ (8001c3c <phaseControlBemf+0x1a0>)
 8001bfc:	6013      	str	r3, [r2, #0]
 8001bfe:	4810      	ldr	r0, [pc, #64]	@ (8001c40 <phaseControlBemf+0x1a4>)
 8001c00:	6802      	ldr	r2, [r0, #0]
 8001c02:	62d3      	str	r3, [r2, #44]	@ 0x2c
 8001c04:	60c3      	str	r3, [r0, #12]
 8001c06:	f003 f999 	bl	8004f3c <HAL_TIM_Base_Start_IT>
 8001c0a:	6822      	ldr	r2, [r4, #0]
 8001c0c:	2300      	movs	r3, #0
 8001c0e:	6253      	str	r3, [r2, #36]	@ 0x24
 8001c10:	4a08      	ldr	r2, [pc, #32]	@ (8001c34 <phaseControlBemf+0x198>)
 8001c12:	7013      	strb	r3, [r2, #0]
 8001c14:	f7ff fee6 	bl	80019e4 <log_var_analysis>
 8001c18:	e764      	b.n	8001ae4 <phaseControlBemf+0x48>
 8001c1a:	bf00      	nop
 8001c1c:	200005c6 	.word	0x200005c6
 8001c20:	200005d4 	.word	0x200005d4
 8001c24:	200005c2 	.word	0x200005c2
 8001c28:	200005d0 	.word	0x200005d0
 8001c2c:	200005c1 	.word	0x200005c1
 8001c30:	200005cc 	.word	0x200005cc
 8001c34:	200005c0 	.word	0x200005c0
 8001c38:	2000068c 	.word	0x2000068c
 8001c3c:	200005bc 	.word	0x200005bc
 8001c40:	200006d4 	.word	0x200006d4

08001c44 <log_variable>:
 8001c44:	b530      	push	{r4, r5, lr}
 8001c46:	b083      	sub	sp, #12
 8001c48:	4603      	mov	r3, r0
 8001c4a:	4c07      	ldr	r4, [pc, #28]	@ (8001c68 <log_variable+0x24>)
 8001c4c:	6825      	ldr	r5, [r4, #0]
 8001c4e:	9100      	str	r1, [sp, #0]
 8001c50:	4a06      	ldr	r2, [pc, #24]	@ (8001c6c <log_variable+0x28>)
 8001c52:	f5c5 7100 	rsb	r1, r5, #512	@ 0x200
 8001c56:	4806      	ldr	r0, [pc, #24]	@ (8001c70 <log_variable+0x2c>)
 8001c58:	4428      	add	r0, r5
 8001c5a:	f7fe fb5b 	bl	8000314 <sniprintf>
 8001c5e:	6823      	ldr	r3, [r4, #0]
 8001c60:	4403      	add	r3, r0
 8001c62:	6023      	str	r3, [r4, #0]
 8001c64:	b003      	add	sp, #12
 8001c66:	bd30      	pop	{r4, r5, pc}
 8001c68:	200003b8 	.word	0x200003b8
 8001c6c:	08007cdc 	.word	0x08007cdc
 8001c70:	200003bc 	.word	0x200003bc

08001c74 <LOG_POST>:
 8001c74:	b508      	push	{r3, lr}
 8001c76:	4b09      	ldr	r3, [pc, #36]	@ (8001c9c <LOG_POST+0x28>)
 8001c78:	6819      	ldr	r1, [r3, #0]
 8001c7a:	2900      	cmp	r1, #0
 8001c7c:	dc05      	bgt.n	8001c8a <LOG_POST+0x16>
 8001c7e:	2300      	movs	r3, #0
 8001c80:	4a06      	ldr	r2, [pc, #24]	@ (8001c9c <LOG_POST+0x28>)
 8001c82:	6013      	str	r3, [r2, #0]
 8001c84:	4a06      	ldr	r2, [pc, #24]	@ (8001ca0 <LOG_POST+0x2c>)
 8001c86:	7013      	strb	r3, [r2, #0]
 8001c88:	bd08      	pop	{r3, pc}
 8001c8a:	1e4b      	subs	r3, r1, #1
 8001c8c:	4804      	ldr	r0, [pc, #16]	@ (8001ca0 <LOG_POST+0x2c>)
 8001c8e:	220a      	movs	r2, #10
 8001c90:	54c2      	strb	r2, [r0, r3]
 8001c92:	b289      	uxth	r1, r1
 8001c94:	f005 f932 	bl	8006efc <CDC_Transmit_FS>
 8001c98:	e7f1      	b.n	8001c7e <LOG_POST+0xa>
 8001c9a:	bf00      	nop
 8001c9c:	200003b8 	.word	0x200003b8
 8001ca0:	200003bc 	.word	0x200003bc

08001ca4 <MX_DMA_Init>:
 8001ca4:	b500      	push	{lr}
 8001ca6:	b083      	sub	sp, #12
 8001ca8:	4b0a      	ldr	r3, [pc, #40]	@ (8001cd4 <MX_DMA_Init+0x30>)
 8001caa:	695a      	ldr	r2, [r3, #20]
 8001cac:	f042 0201 	orr.w	r2, r2, #1
 8001cb0:	615a      	str	r2, [r3, #20]
 8001cb2:	695b      	ldr	r3, [r3, #20]
 8001cb4:	f003 0301 	and.w	r3, r3, #1
 8001cb8:	9301      	str	r3, [sp, #4]
 8001cba:	9b01      	ldr	r3, [sp, #4]
 8001cbc:	2200      	movs	r2, #0
 8001cbe:	4611      	mov	r1, r2
 8001cc0:	200b      	movs	r0, #11
 8001cc2:	f001 fa11 	bl	80030e8 <HAL_NVIC_SetPriority>
 8001cc6:	200b      	movs	r0, #11
 8001cc8:	f001 fa1e 	bl	8003108 <HAL_NVIC_EnableIRQ>
 8001ccc:	b003      	add	sp, #12
 8001cce:	f85d fb04 	ldr.w	pc, [sp], #4
 8001cd2:	bf00      	nop
 8001cd4:	40021000 	.word	0x40021000

08001cd8 <MX_GPIO_Init>:
 8001cd8:	b5f0      	push	{r4, r5, r6, r7, lr}
 8001cda:	b089      	sub	sp, #36	@ 0x24
 8001cdc:	2400      	movs	r4, #0
 8001cde:	9404      	str	r4, [sp, #16]
 8001ce0:	9405      	str	r4, [sp, #20]
 8001ce2:	9406      	str	r4, [sp, #24]
 8001ce4:	9407      	str	r4, [sp, #28]
 8001ce6:	4b36      	ldr	r3, [pc, #216]	@ (8001dc0 <MX_GPIO_Init+0xe8>)
 8001ce8:	699a      	ldr	r2, [r3, #24]
 8001cea:	f042 0210 	orr.w	r2, r2, #16
 8001cee:	619a      	str	r2, [r3, #24]
 8001cf0:	699a      	ldr	r2, [r3, #24]
 8001cf2:	f002 0210 	and.w	r2, r2, #16
 8001cf6:	9200      	str	r2, [sp, #0]
 8001cf8:	9a00      	ldr	r2, [sp, #0]
 8001cfa:	699a      	ldr	r2, [r3, #24]
 8001cfc:	f042 0220 	orr.w	r2, r2, #32
 8001d00:	619a      	str	r2, [r3, #24]
 8001d02:	699a      	ldr	r2, [r3, #24]
 8001d04:	f002 0220 	and.w	r2, r2, #32
 8001d08:	9201      	str	r2, [sp, #4]
 8001d0a:	9a01      	ldr	r2, [sp, #4]
 8001d0c:	699a      	ldr	r2, [r3, #24]
 8001d0e:	f042 0204 	orr.w	r2, r2, #4
 8001d12:	619a      	str	r2, [r3, #24]
 8001d14:	699a      	ldr	r2, [r3, #24]
 8001d16:	f002 0204 	and.w	r2, r2, #4
 8001d1a:	9202      	str	r2, [sp, #8]
 8001d1c:	9a02      	ldr	r2, [sp, #8]
 8001d1e:	699a      	ldr	r2, [r3, #24]
 8001d20:	f042 0208 	orr.w	r2, r2, #8
 8001d24:	619a      	str	r2, [r3, #24]
 8001d26:	699b      	ldr	r3, [r3, #24]
 8001d28:	f003 0308 	and.w	r3, r3, #8
 8001d2c:	9303      	str	r3, [sp, #12]
 8001d2e:	9b03      	ldr	r3, [sp, #12]
 8001d30:	4d24      	ldr	r5, [pc, #144]	@ (8001dc4 <MX_GPIO_Init+0xec>)
 8001d32:	4622      	mov	r2, r4
 8001d34:	f44f 41c0 	mov.w	r1, #24576	@ 0x6000
 8001d38:	4628      	mov	r0, r5
 8001d3a:	f001 fc44 	bl	80035c6 <HAL_GPIO_WritePin>
 8001d3e:	f44f 43c0 	mov.w	r3, #24576	@ 0x6000
 8001d42:	9304      	str	r3, [sp, #16]
 8001d44:	2301      	movs	r3, #1
 8001d46:	9305      	str	r3, [sp, #20]
 8001d48:	9406      	str	r4, [sp, #24]
 8001d4a:	2302      	movs	r3, #2
 8001d4c:	9307      	str	r3, [sp, #28]
 8001d4e:	a904      	add	r1, sp, #16
 8001d50:	4628      	mov	r0, r5
 8001d52:	f001 fb23 	bl	800339c <HAL_GPIO_Init>
 8001d56:	2607      	movs	r6, #7
 8001d58:	9604      	str	r6, [sp, #16]
 8001d5a:	4b1b      	ldr	r3, [pc, #108]	@ (8001dc8 <MX_GPIO_Init+0xf0>)
 8001d5c:	9305      	str	r3, [sp, #20]
 8001d5e:	9406      	str	r4, [sp, #24]
 8001d60:	4f1a      	ldr	r7, [pc, #104]	@ (8001dcc <MX_GPIO_Init+0xf4>)
 8001d62:	a904      	add	r1, sp, #16
 8001d64:	4638      	mov	r0, r7
 8001d66:	f001 fb19 	bl	800339c <HAL_GPIO_Init>
 8001d6a:	2508      	movs	r5, #8
 8001d6c:	9504      	str	r5, [sp, #16]
 8001d6e:	9405      	str	r4, [sp, #20]
 8001d70:	9406      	str	r4, [sp, #24]
 8001d72:	a904      	add	r1, sp, #16
 8001d74:	4638      	mov	r0, r7
 8001d76:	f001 fb11 	bl	800339c <HAL_GPIO_Init>
 8001d7a:	2320      	movs	r3, #32
 8001d7c:	9304      	str	r3, [sp, #16]
 8001d7e:	9405      	str	r4, [sp, #20]
 8001d80:	9406      	str	r4, [sp, #24]
 8001d82:	a904      	add	r1, sp, #16
 8001d84:	4812      	ldr	r0, [pc, #72]	@ (8001dd0 <MX_GPIO_Init+0xf8>)
 8001d86:	f001 fb09 	bl	800339c <HAL_GPIO_Init>
 8001d8a:	4622      	mov	r2, r4
 8001d8c:	2103      	movs	r1, #3
 8001d8e:	2006      	movs	r0, #6
 8001d90:	f001 f9aa 	bl	80030e8 <HAL_NVIC_SetPriority>
 8001d94:	2006      	movs	r0, #6
 8001d96:	f001 f9b7 	bl	8003108 <HAL_NVIC_EnableIRQ>
 8001d9a:	4622      	mov	r2, r4
 8001d9c:	2103      	movs	r1, #3
 8001d9e:	4630      	mov	r0, r6
 8001da0:	f001 f9a2 	bl	80030e8 <HAL_NVIC_SetPriority>
 8001da4:	4630      	mov	r0, r6
 8001da6:	f001 f9af 	bl	8003108 <HAL_NVIC_EnableIRQ>
 8001daa:	4622      	mov	r2, r4
 8001dac:	2103      	movs	r1, #3
 8001dae:	4628      	mov	r0, r5
 8001db0:	f001 f99a 	bl	80030e8 <HAL_NVIC_SetPriority>
 8001db4:	4628      	mov	r0, r5
 8001db6:	f001 f9a7 	bl	8003108 <HAL_NVIC_EnableIRQ>
 8001dba:	b009      	add	sp, #36	@ 0x24
 8001dbc:	bdf0      	pop	{r4, r5, r6, r7, pc}
 8001dbe:	bf00      	nop
 8001dc0:	40021000 	.word	0x40021000
 8001dc4:	40011000 	.word	0x40011000
 8001dc8:	10310000 	.word	0x10310000
 8001dcc:	40010800 	.word	0x40010800
 8001dd0:	40010c00 	.word	0x40010c00

08001dd4 <HAL_GPIO_EXTI_Callback>:
 8001dd4:	b510      	push	{r4, lr}
 8001dd6:	4c41      	ldr	r4, [pc, #260]	@ (8001edc <HAL_GPIO_EXTI_Callback+0x108>)
 8001dd8:	2101      	movs	r1, #1
 8001dda:	4620      	mov	r0, r4
 8001ddc:	f001 fbec 	bl	80035b8 <HAL_GPIO_ReadPin>
 8001de0:	3800      	subs	r0, #0
 8001de2:	bf18      	it	ne
 8001de4:	2001      	movne	r0, #1
 8001de6:	4b3e      	ldr	r3, [pc, #248]	@ (8001ee0 <HAL_GPIO_EXTI_Callback+0x10c>)
 8001de8:	7018      	strb	r0, [r3, #0]
 8001dea:	2102      	movs	r1, #2
 8001dec:	4620      	mov	r0, r4
 8001dee:	f001 fbe3 	bl	80035b8 <HAL_GPIO_ReadPin>
 8001df2:	3800      	subs	r0, #0
 8001df4:	bf18      	it	ne
 8001df6:	2001      	movne	r0, #1
 8001df8:	4b3a      	ldr	r3, [pc, #232]	@ (8001ee4 <HAL_GPIO_EXTI_Callback+0x110>)
 8001dfa:	7018      	strb	r0, [r3, #0]
 8001dfc:	2104      	movs	r1, #4
 8001dfe:	4620      	mov	r0, r4
 8001e00:	f001 fbda 	bl	80035b8 <HAL_GPIO_ReadPin>
 8001e04:	3800      	subs	r0, #0
 8001e06:	bf18      	it	ne
 8001e08:	2001      	movne	r0, #1
 8001e0a:	4b37      	ldr	r3, [pc, #220]	@ (8001ee8 <HAL_GPIO_EXTI_Callback+0x114>)
 8001e0c:	7018      	strb	r0, [r3, #0]
 8001e0e:	4b37      	ldr	r3, [pc, #220]	@ (8001eec <HAL_GPIO_EXTI_Callback+0x118>)
 8001e10:	2201      	movs	r2, #1
 8001e12:	701a      	strb	r2, [r3, #0]
 8001e14:	4b36      	ldr	r3, [pc, #216]	@ (8001ef0 <HAL_GPIO_EXTI_Callback+0x11c>)
 8001e16:	681b      	ldr	r3, [r3, #0]
 8001e18:	6a5a      	ldr	r2, [r3, #36]	@ 0x24
 8001e1a:	4b36      	ldr	r3, [pc, #216]	@ (8001ef4 <HAL_GPIO_EXTI_Callback+0x120>)
 8001e1c:	601a      	str	r2, [r3, #0]
 8001e1e:	6818      	ldr	r0, [r3, #0]
 8001e20:	f000 fd44 	bl	80028ac <get_rpm>
 8001e24:	4b34      	ldr	r3, [pc, #208]	@ (8001ef8 <HAL_GPIO_EXTI_Callback+0x124>)
 8001e26:	6018      	str	r0, [r3, #0]
 8001e28:	2300      	movs	r3, #0
 8001e2a:	e000      	b.n	8001e2e <HAL_GPIO_EXTI_Callback+0x5a>
 8001e2c:	3301      	adds	r3, #1
 8001e2e:	2b1d      	cmp	r3, #29
 8001e30:	dc13      	bgt.n	8001e5a <HAL_GPIO_EXTI_Callback+0x86>
 8001e32:	2264      	movs	r2, #100	@ 0x64
 8001e34:	fb03 f202 	mul.w	r2, r3, r2
 8001e38:	492f      	ldr	r1, [pc, #188]	@ (8001ef8 <HAL_GPIO_EXTI_Callback+0x124>)
 8001e3a:	6809      	ldr	r1, [r1, #0]
 8001e3c:	428a      	cmp	r2, r1
 8001e3e:	d2f5      	bcs.n	8001e2c <HAL_GPIO_EXTI_Callback+0x58>
 8001e40:	2264      	movs	r2, #100	@ 0x64
 8001e42:	fb03 2202 	mla	r2, r3, r2, r2
 8001e46:	492c      	ldr	r1, [pc, #176]	@ (8001ef8 <HAL_GPIO_EXTI_Callback+0x124>)
 8001e48:	6809      	ldr	r1, [r1, #0]
 8001e4a:	428a      	cmp	r2, r1
 8001e4c:	d3ee      	bcc.n	8001e2c <HAL_GPIO_EXTI_Callback+0x58>
 8001e4e:	4a2b      	ldr	r2, [pc, #172]	@ (8001efc <HAL_GPIO_EXTI_Callback+0x128>)
 8001e50:	6812      	ldr	r2, [r2, #0]
 8001e52:	b292      	uxth	r2, r2
 8001e54:	492a      	ldr	r1, [pc, #168]	@ (8001f00 <HAL_GPIO_EXTI_Callback+0x12c>)
 8001e56:	f821 2013 	strh.w	r2, [r1, r3, lsl #1]
 8001e5a:	4b25      	ldr	r3, [pc, #148]	@ (8001ef0 <HAL_GPIO_EXTI_Callback+0x11c>)
 8001e5c:	681b      	ldr	r3, [r3, #0]
 8001e5e:	2200      	movs	r2, #0
 8001e60:	625a      	str	r2, [r3, #36]	@ 0x24
 8001e62:	4b28      	ldr	r3, [pc, #160]	@ (8001f04 <HAL_GPIO_EXTI_Callback+0x130>)
 8001e64:	781b      	ldrb	r3, [r3, #0]
 8001e66:	b1a3      	cbz	r3, 8001e92 <HAL_GPIO_EXTI_Callback+0xbe>
 8001e68:	4b1d      	ldr	r3, [pc, #116]	@ (8001ee0 <HAL_GPIO_EXTI_Callback+0x10c>)
 8001e6a:	781a      	ldrb	r2, [r3, #0]
 8001e6c:	b2d2      	uxtb	r2, r2
 8001e6e:	4b1e      	ldr	r3, [pc, #120]	@ (8001ee8 <HAL_GPIO_EXTI_Callback+0x114>)
 8001e70:	781b      	ldrb	r3, [r3, #0]
 8001e72:	b2db      	uxtb	r3, r3
 8001e74:	429a      	cmp	r2, r3
 8001e76:	d014      	beq.n	8001ea2 <HAL_GPIO_EXTI_Callback+0xce>
 8001e78:	4b19      	ldr	r3, [pc, #100]	@ (8001ee0 <HAL_GPIO_EXTI_Callback+0x10c>)
 8001e7a:	781a      	ldrb	r2, [r3, #0]
 8001e7c:	b2d2      	uxtb	r2, r2
 8001e7e:	4b22      	ldr	r3, [pc, #136]	@ (8001f08 <HAL_GPIO_EXTI_Callback+0x134>)
 8001e80:	701a      	strb	r2, [r3, #0]
 8001e82:	4a18      	ldr	r2, [pc, #96]	@ (8001ee4 <HAL_GPIO_EXTI_Callback+0x110>)
 8001e84:	7812      	ldrb	r2, [r2, #0]
 8001e86:	b2d2      	uxtb	r2, r2
 8001e88:	705a      	strb	r2, [r3, #1]
 8001e8a:	4a17      	ldr	r2, [pc, #92]	@ (8001ee8 <HAL_GPIO_EXTI_Callback+0x114>)
 8001e8c:	7812      	ldrb	r2, [r2, #0]
 8001e8e:	b2d2      	uxtb	r2, r2
 8001e90:	709a      	strb	r2, [r3, #2]
 8001e92:	f000 fb5f 	bl	8002554 <set_old_value>
 8001e96:	4b1d      	ldr	r3, [pc, #116]	@ (8001f0c <HAL_GPIO_EXTI_Callback+0x138>)
 8001e98:	6818      	ldr	r0, [r3, #0]
 8001e9a:	b2c0      	uxtb	r0, r0
 8001e9c:	f000 fd9c 	bl	80029d8 <execute_step>
 8001ea0:	bd10      	pop	{r4, pc}
 8001ea2:	4b0f      	ldr	r3, [pc, #60]	@ (8001ee0 <HAL_GPIO_EXTI_Callback+0x10c>)
 8001ea4:	781a      	ldrb	r2, [r3, #0]
 8001ea6:	b2d2      	uxtb	r2, r2
 8001ea8:	4b0e      	ldr	r3, [pc, #56]	@ (8001ee4 <HAL_GPIO_EXTI_Callback+0x110>)
 8001eaa:	781b      	ldrb	r3, [r3, #0]
 8001eac:	b2db      	uxtb	r3, r3
 8001eae:	429a      	cmp	r2, r3
 8001eb0:	d1e2      	bne.n	8001e78 <HAL_GPIO_EXTI_Callback+0xa4>
 8001eb2:	4b15      	ldr	r3, [pc, #84]	@ (8001f08 <HAL_GPIO_EXTI_Callback+0x134>)
 8001eb4:	781a      	ldrb	r2, [r3, #0]
 8001eb6:	3a00      	subs	r2, #0
 8001eb8:	bf18      	it	ne
 8001eba:	2201      	movne	r2, #1
 8001ebc:	4908      	ldr	r1, [pc, #32]	@ (8001ee0 <HAL_GPIO_EXTI_Callback+0x10c>)
 8001ebe:	700a      	strb	r2, [r1, #0]
 8001ec0:	785a      	ldrb	r2, [r3, #1]
 8001ec2:	3a00      	subs	r2, #0
 8001ec4:	bf18      	it	ne
 8001ec6:	2201      	movne	r2, #1
 8001ec8:	4906      	ldr	r1, [pc, #24]	@ (8001ee4 <HAL_GPIO_EXTI_Callback+0x110>)
 8001eca:	700a      	strb	r2, [r1, #0]
 8001ecc:	789b      	ldrb	r3, [r3, #2]
 8001ece:	3b00      	subs	r3, #0
 8001ed0:	bf18      	it	ne
 8001ed2:	2301      	movne	r3, #1
 8001ed4:	4a04      	ldr	r2, [pc, #16]	@ (8001ee8 <HAL_GPIO_EXTI_Callback+0x114>)
 8001ed6:	7013      	strb	r3, [r2, #0]
 8001ed8:	e7db      	b.n	8001e92 <HAL_GPIO_EXTI_Callback+0xbe>
 8001eda:	bf00      	nop
 8001edc:	40010800 	.word	0x40010800
 8001ee0:	2000063e 	.word	0x2000063e
 8001ee4:	2000063d 	.word	0x2000063d
 8001ee8:	2000063c 	.word	0x2000063c
 8001eec:	20000060 	.word	0x20000060
 8001ef0:	2000071c 	.word	0x2000071c
 8001ef4:	20000058 	.word	0x20000058
 8001ef8:	20000620 	.word	0x20000620
 8001efc:	20000634 	.word	0x20000634
 8001f00:	200005d8 	.word	0x200005d8
 8001f04:	2000063f 	.word	0x2000063f
 8001f08:	2000062c 	.word	0x2000062c
 8001f0c:	20000638 	.word	0x20000638

08001f10 <map>:
 8001f10:	eba0 0c01 	sub.w	ip, r0, r1
 8001f14:	9800      	ldr	r0, [sp, #0]
 8001f16:	1ac0      	subs	r0, r0, r3
 8001f18:	fb00 fc0c 	mul.w	ip, r0, ip
 8001f1c:	1a52      	subs	r2, r2, r1
 8001f1e:	fb9c fcf2 	sdiv	ip, ip, r2
 8001f22:	eb0c 0003 	add.w	r0, ip, r3
 8001f26:	4770      	bx	lr

08001f28 <HAL_ADC_ConvCpltCallback>:
 8001f28:	6802      	ldr	r2, [r0, #0]
 8001f2a:	4b6f      	ldr	r3, [pc, #444]	@ (80020e8 <HAL_ADC_ConvCpltCallback+0x1c0>)
 8001f2c:	429a      	cmp	r2, r3
 8001f2e:	d000      	beq.n	8001f32 <HAL_ADC_ConvCpltCallback+0xa>
 8001f30:	4770      	bx	lr
 8001f32:	b500      	push	{lr}
 8001f34:	b083      	sub	sp, #12
 8001f36:	4b6d      	ldr	r3, [pc, #436]	@ (80020ec <HAL_ADC_ConvCpltCallback+0x1c4>)
 8001f38:	6958      	ldr	r0, [r3, #20]
 8001f3a:	f7ff f9db 	bl	80012f4 <__aeabi_ui2d>
 8001f3e:	a366      	add	r3, pc, #408	@ (adr r3, 80020d8 <HAL_ADC_ConvCpltCallback+0x1b0>)
 8001f40:	e9d3 2300 	ldrd	r2, r3, [r3]
 8001f44:	f7ff fa50 	bl	80013e8 <__aeabi_dmul>
 8001f48:	f7ff fc60 	bl	800180c <__aeabi_d2uiz>
 8001f4c:	4b68      	ldr	r3, [pc, #416]	@ (80020f0 <HAL_ADC_ConvCpltCallback+0x1c8>)
 8001f4e:	8018      	strh	r0, [r3, #0]
 8001f50:	4a68      	ldr	r2, [pc, #416]	@ (80020f4 <HAL_ADC_ConvCpltCallback+0x1cc>)
 8001f52:	6893      	ldr	r3, [r2, #8]
 8001f54:	f403 7380 	and.w	r3, r3, #256	@ 0x100
 8001f58:	6891      	ldr	r1, [r2, #8]
 8001f5a:	f401 7100 	and.w	r1, r1, #512	@ 0x200
 8001f5e:	430b      	orrs	r3, r1
 8001f60:	6892      	ldr	r2, [r2, #8]
 8001f62:	f402 6280 	and.w	r2, r2, #1024	@ 0x400
 8001f66:	42d3      	cmn	r3, r2
 8001f68:	d150      	bne.n	800200c <HAL_ADC_ConvCpltCallback+0xe4>
 8001f6a:	4b63      	ldr	r3, [pc, #396]	@ (80020f8 <HAL_ADC_ConvCpltCallback+0x1d0>)
 8001f6c:	689b      	ldr	r3, [r3, #8]
 8001f6e:	f413 5f00 	tst.w	r3, #8192	@ 0x2000
 8001f72:	d110      	bne.n	8001f96 <HAL_ADC_ConvCpltCallback+0x6e>
 8001f74:	4b5d      	ldr	r3, [pc, #372]	@ (80020ec <HAL_ADC_ConvCpltCallback+0x1c4>)
 8001f76:	689a      	ldr	r2, [r3, #8]
 8001f78:	4b60      	ldr	r3, [pc, #384]	@ (80020fc <HAL_ADC_ConvCpltCallback+0x1d4>)
 8001f7a:	601a      	str	r2, [r3, #0]
 8001f7c:	6818      	ldr	r0, [r3, #0]
 8001f7e:	f7ff f9b9 	bl	80012f4 <__aeabi_ui2d>
 8001f82:	a357      	add	r3, pc, #348	@ (adr r3, 80020e0 <HAL_ADC_ConvCpltCallback+0x1b8>)
 8001f84:	e9d3 2300 	ldrd	r2, r3, [r3]
 8001f88:	f7ff fa2e 	bl	80013e8 <__aeabi_dmul>
 8001f8c:	f7ff fc3e 	bl	800180c <__aeabi_d2uiz>
 8001f90:	b280      	uxth	r0, r0
 8001f92:	4b5b      	ldr	r3, [pc, #364]	@ (8002100 <HAL_ADC_ConvCpltCallback+0x1d8>)
 8001f94:	8018      	strh	r0, [r3, #0]
 8001f96:	4b58      	ldr	r3, [pc, #352]	@ (80020f8 <HAL_ADC_ConvCpltCallback+0x1d0>)
 8001f98:	689b      	ldr	r3, [r3, #8]
 8001f9a:	f413 4f80 	tst.w	r3, #16384	@ 0x4000
 8001f9e:	d110      	bne.n	8001fc2 <HAL_ADC_ConvCpltCallback+0x9a>
 8001fa0:	4b52      	ldr	r3, [pc, #328]	@ (80020ec <HAL_ADC_ConvCpltCallback+0x1c4>)
 8001fa2:	68da      	ldr	r2, [r3, #12]
 8001fa4:	4b57      	ldr	r3, [pc, #348]	@ (8002104 <HAL_ADC_ConvCpltCallback+0x1dc>)
 8001fa6:	601a      	str	r2, [r3, #0]
 8001fa8:	6818      	ldr	r0, [r3, #0]
 8001faa:	f7ff f9a3 	bl	80012f4 <__aeabi_ui2d>
 8001fae:	a34c      	add	r3, pc, #304	@ (adr r3, 80020e0 <HAL_ADC_ConvCpltCallback+0x1b8>)
 8001fb0:	e9d3 2300 	ldrd	r2, r3, [r3]
 8001fb4:	f7ff fa18 	bl	80013e8 <__aeabi_dmul>
 8001fb8:	f7ff fc28 	bl	800180c <__aeabi_d2uiz>
 8001fbc:	b280      	uxth	r0, r0
 8001fbe:	4b50      	ldr	r3, [pc, #320]	@ (8002100 <HAL_ADC_ConvCpltCallback+0x1d8>)
 8001fc0:	8018      	strh	r0, [r3, #0]
 8001fc2:	4b4d      	ldr	r3, [pc, #308]	@ (80020f8 <HAL_ADC_ConvCpltCallback+0x1d0>)
 8001fc4:	689b      	ldr	r3, [r3, #8]
 8001fc6:	f413 4f00 	tst.w	r3, #32768	@ 0x8000
 8001fca:	d110      	bne.n	8001fee <HAL_ADC_ConvCpltCallback+0xc6>
 8001fcc:	4b47      	ldr	r3, [pc, #284]	@ (80020ec <HAL_ADC_ConvCpltCallback+0x1c4>)
 8001fce:	691a      	ldr	r2, [r3, #16]
 8001fd0:	4b4d      	ldr	r3, [pc, #308]	@ (8002108 <HAL_ADC_ConvCpltCallback+0x1e0>)
 8001fd2:	601a      	str	r2, [r3, #0]
 8001fd4:	6818      	ldr	r0, [r3, #0]
 8001fd6:	f7ff f98d 	bl	80012f4 <__aeabi_ui2d>
 8001fda:	a341      	add	r3, pc, #260	@ (adr r3, 80020e0 <HAL_ADC_ConvCpltCallback+0x1b8>)
 8001fdc:	e9d3 2300 	ldrd	r2, r3, [r3]
 8001fe0:	f7ff fa02 	bl	80013e8 <__aeabi_dmul>
 8001fe4:	f7ff fc12 	bl	800180c <__aeabi_d2uiz>
 8001fe8:	b280      	uxth	r0, r0
 8001fea:	4b45      	ldr	r3, [pc, #276]	@ (8002100 <HAL_ADC_ConvCpltCallback+0x1d8>)
 8001fec:	8018      	strh	r0, [r3, #0]
 8001fee:	4b43      	ldr	r3, [pc, #268]	@ (80020fc <HAL_ADC_ConvCpltCallback+0x1d4>)
 8001ff0:	681b      	ldr	r3, [r3, #0]
 8001ff2:	4a44      	ldr	r2, [pc, #272]	@ (8002104 <HAL_ADC_ConvCpltCallback+0x1dc>)
 8001ff4:	6812      	ldr	r2, [r2, #0]
 8001ff6:	4413      	add	r3, r2
 8001ff8:	4a43      	ldr	r2, [pc, #268]	@ (8002108 <HAL_ADC_ConvCpltCallback+0x1e0>)
 8001ffa:	6812      	ldr	r2, [r2, #0]
 8001ffc:	4413      	add	r3, r2
 8001ffe:	4a43      	ldr	r2, [pc, #268]	@ (800210c <HAL_ADC_ConvCpltCallback+0x1e4>)
 8002000:	fba2 2303 	umull	r2, r3, r2, r3
 8002004:	f3c3 034f 	ubfx	r3, r3, #1, #16
 8002008:	4a3d      	ldr	r2, [pc, #244]	@ (8002100 <HAL_ADC_ConvCpltCallback+0x1d8>)
 800200a:	8013      	strh	r3, [r2, #0]
 800200c:	4b37      	ldr	r3, [pc, #220]	@ (80020ec <HAL_ADC_ConvCpltCallback+0x1c4>)
 800200e:	889a      	ldrh	r2, [r3, #4]
 8002010:	4b3f      	ldr	r3, [pc, #252]	@ (8002110 <HAL_ADC_ConvCpltCallback+0x1e8>)
 8002012:	801a      	strh	r2, [r3, #0]
 8002014:	881b      	ldrh	r3, [r3, #0]
 8002016:	b29b      	uxth	r3, r3
 8002018:	f5c3 538c 	rsb	r3, r3, #4480	@ 0x1180
 800201c:	3314      	adds	r3, #20
 800201e:	b29b      	uxth	r3, r3
 8002020:	4a3c      	ldr	r2, [pc, #240]	@ (8002114 <HAL_ADC_ConvCpltCallback+0x1ec>)
 8002022:	8013      	strh	r3, [r2, #0]
 8002024:	8813      	ldrh	r3, [r2, #0]
 8002026:	b29b      	uxth	r3, r3
 8002028:	f5b3 6fc8 	cmp.w	r3, #1600	@ 0x640
 800202c:	d815      	bhi.n	800205a <HAL_ADC_ConvCpltCallback+0x132>
 800202e:	8813      	ldrh	r3, [r2, #0]
 8002030:	b29b      	uxth	r3, r3
 8002032:	f240 5213 	movw	r2, #1299	@ 0x513
 8002036:	4293      	cmp	r3, r2
 8002038:	d90f      	bls.n	800205a <HAL_ADC_ConvCpltCallback+0x132>
 800203a:	4b36      	ldr	r3, [pc, #216]	@ (8002114 <HAL_ADC_ConvCpltCallback+0x1ec>)
 800203c:	8818      	ldrh	r0, [r3, #0]
 800203e:	f241 134e 	movw	r3, #4430	@ 0x114e
 8002042:	9300      	str	r3, [sp, #0]
 8002044:	2300      	movs	r3, #0
 8002046:	f44f 62c8 	mov.w	r2, #1600	@ 0x640
 800204a:	f240 5114 	movw	r1, #1300	@ 0x514
 800204e:	b280      	uxth	r0, r0
 8002050:	f7ff ff5e 	bl	8001f10 <map>
 8002054:	4b30      	ldr	r3, [pc, #192]	@ (8002118 <HAL_ADC_ConvCpltCallback+0x1f0>)
 8002056:	8018      	strh	r0, [r3, #0]
 8002058:	e009      	b.n	800206e <HAL_ADC_ConvCpltCallback+0x146>
 800205a:	4b2e      	ldr	r3, [pc, #184]	@ (8002114 <HAL_ADC_ConvCpltCallback+0x1ec>)
 800205c:	881b      	ldrh	r3, [r3, #0]
 800205e:	b29b      	uxth	r3, r3
 8002060:	f5b3 6fc8 	cmp.w	r3, #1600	@ 0x640
 8002064:	d931      	bls.n	80020ca <HAL_ADC_ConvCpltCallback+0x1a2>
 8002066:	4b2c      	ldr	r3, [pc, #176]	@ (8002118 <HAL_ADC_ConvCpltCallback+0x1f0>)
 8002068:	f241 124e 	movw	r2, #4430	@ 0x114e
 800206c:	801a      	strh	r2, [r3, #0]
 800206e:	4b1f      	ldr	r3, [pc, #124]	@ (80020ec <HAL_ADC_ConvCpltCallback+0x1c4>)
 8002070:	881a      	ldrh	r2, [r3, #0]
 8002072:	4b2a      	ldr	r3, [pc, #168]	@ (800211c <HAL_ADC_ConvCpltCallback+0x1f4>)
 8002074:	801a      	strh	r2, [r3, #0]
 8002076:	4b26      	ldr	r3, [pc, #152]	@ (8002110 <HAL_ADC_ConvCpltCallback+0x1e8>)
 8002078:	881b      	ldrh	r3, [r3, #0]
 800207a:	b29b      	uxth	r3, r3
 800207c:	f240 52dc 	movw	r2, #1500	@ 0x5dc
 8002080:	4293      	cmp	r3, r2
 8002082:	d807      	bhi.n	8002094 <HAL_ADC_ConvCpltCallback+0x16c>
 8002084:	4b26      	ldr	r3, [pc, #152]	@ (8002120 <HAL_ADC_ConvCpltCallback+0x1f8>)
 8002086:	681b      	ldr	r3, [r3, #0]
 8002088:	2b64      	cmp	r3, #100	@ 0x64
 800208a:	d903      	bls.n	8002094 <HAL_ADC_ConvCpltCallback+0x16c>
 800208c:	4a24      	ldr	r2, [pc, #144]	@ (8002120 <HAL_ADC_ConvCpltCallback+0x1f8>)
 800208e:	6813      	ldr	r3, [r2, #0]
 8002090:	3b01      	subs	r3, #1
 8002092:	6013      	str	r3, [r2, #0]
 8002094:	4b23      	ldr	r3, [pc, #140]	@ (8002124 <HAL_ADC_ConvCpltCallback+0x1fc>)
 8002096:	881a      	ldrh	r2, [r3, #0]
 8002098:	4b1e      	ldr	r3, [pc, #120]	@ (8002114 <HAL_ADC_ConvCpltCallback+0x1ec>)
 800209a:	881b      	ldrh	r3, [r3, #0]
 800209c:	b29b      	uxth	r3, r3
 800209e:	429a      	cmp	r2, r3
 80020a0:	d903      	bls.n	80020aa <HAL_ADC_ConvCpltCallback+0x182>
 80020a2:	4b1c      	ldr	r3, [pc, #112]	@ (8002114 <HAL_ADC_ConvCpltCallback+0x1ec>)
 80020a4:	881a      	ldrh	r2, [r3, #0]
 80020a6:	4b1f      	ldr	r3, [pc, #124]	@ (8002124 <HAL_ADC_ConvCpltCallback+0x1fc>)
 80020a8:	801a      	strh	r2, [r3, #0]
 80020aa:	4b1f      	ldr	r3, [pc, #124]	@ (8002128 <HAL_ADC_ConvCpltCallback+0x200>)
 80020ac:	881a      	ldrh	r2, [r3, #0]
 80020ae:	4b19      	ldr	r3, [pc, #100]	@ (8002114 <HAL_ADC_ConvCpltCallback+0x1ec>)
 80020b0:	881b      	ldrh	r3, [r3, #0]
 80020b2:	b29b      	uxth	r3, r3
 80020b4:	429a      	cmp	r2, r3
 80020b6:	d203      	bcs.n	80020c0 <HAL_ADC_ConvCpltCallback+0x198>
 80020b8:	4b16      	ldr	r3, [pc, #88]	@ (8002114 <HAL_ADC_ConvCpltCallback+0x1ec>)
 80020ba:	881a      	ldrh	r2, [r3, #0]
 80020bc:	4b1a      	ldr	r3, [pc, #104]	@ (8002128 <HAL_ADC_ConvCpltCallback+0x200>)
 80020be:	801a      	strh	r2, [r3, #0]
 80020c0:	f7ff fcec 	bl	8001a9c <phaseControlBemf>
 80020c4:	b003      	add	sp, #12
 80020c6:	f85d fb04 	ldr.w	pc, [sp], #4
 80020ca:	4b13      	ldr	r3, [pc, #76]	@ (8002118 <HAL_ADC_ConvCpltCallback+0x1f0>)
 80020cc:	f240 5214 	movw	r2, #1300	@ 0x514
 80020d0:	801a      	strh	r2, [r3, #0]
 80020d2:	e7cc      	b.n	800206e <HAL_ADC_ConvCpltCallback+0x146>
 80020d4:	f3af 8000 	nop.w
 80020d8:	7b94a0e1 	.word	0x7b94a0e1
 80020dc:	3fa3ae47 	.word	0x3fa3ae47
 80020e0:	35ac8a37 	.word	0x35ac8a37
 80020e4:	4009ca94 	.word	0x4009ca94
 80020e8:	40012400 	.word	0x40012400
 80020ec:	20000648 	.word	0x20000648
 80020f0:	200005c8 	.word	0x200005c8
 80020f4:	40010800 	.word	0x40010800
 80020f8:	40010c00 	.word	0x40010c00
 80020fc:	200005d4 	.word	0x200005d4
 8002100:	200005c6 	.word	0x200005c6
 8002104:	200005d0 	.word	0x200005d0
 8002108:	200005cc 	.word	0x200005cc
 800210c:	aaaaaaab 	.word	0xaaaaaaab
 8002110:	20000642 	.word	0x20000642
 8002114:	20000640 	.word	0x20000640
 8002118:	20000616 	.word	0x20000616
 800211c:	20000644 	.word	0x20000644
 8002120:	20000634 	.word	0x20000634
 8002124:	20000054 	.word	0x20000054
 8002128:	20000618 	.word	0x20000618

0800212c <Error_Handler>:
 800212c:	b672      	cpsid	i
 800212e:	e7fe      	b.n	800212e <Error_Handler+0x2>

08002130 <SystemClock_Config>:
 8002130:	b500      	push	{lr}
 8002132:	b095      	sub	sp, #84	@ 0x54
 8002134:	2228      	movs	r2, #40	@ 0x28
 8002136:	2100      	movs	r1, #0
 8002138:	eb0d 0002 	add.w	r0, sp, r2
 800213c:	f7fe f85a 	bl	80001f4 <memset>
 8002140:	2300      	movs	r3, #0
 8002142:	9305      	str	r3, [sp, #20]
 8002144:	9306      	str	r3, [sp, #24]
 8002146:	9307      	str	r3, [sp, #28]
 8002148:	9308      	str	r3, [sp, #32]
 800214a:	9309      	str	r3, [sp, #36]	@ 0x24
 800214c:	9301      	str	r3, [sp, #4]
 800214e:	9302      	str	r3, [sp, #8]
 8002150:	9303      	str	r3, [sp, #12]
 8002152:	9304      	str	r3, [sp, #16]
 8002154:	2201      	movs	r2, #1
 8002156:	920a      	str	r2, [sp, #40]	@ 0x28
 8002158:	f44f 3380 	mov.w	r3, #65536	@ 0x10000
 800215c:	930b      	str	r3, [sp, #44]	@ 0x2c
 800215e:	920e      	str	r2, [sp, #56]	@ 0x38
 8002160:	2202      	movs	r2, #2
 8002162:	9211      	str	r2, [sp, #68]	@ 0x44
 8002164:	9312      	str	r3, [sp, #72]	@ 0x48
 8002166:	f44f 13e0 	mov.w	r3, #1835008	@ 0x1c0000
 800216a:	9313      	str	r3, [sp, #76]	@ 0x4c
 800216c:	a80a      	add	r0, sp, #40	@ 0x28
 800216e:	f002 fa99 	bl	80046a4 <HAL_RCC_OscConfig>
 8002172:	b9d8      	cbnz	r0, 80021ac <SystemClock_Config+0x7c>
 8002174:	230f      	movs	r3, #15
 8002176:	9305      	str	r3, [sp, #20]
 8002178:	2102      	movs	r1, #2
 800217a:	9106      	str	r1, [sp, #24]
 800217c:	2300      	movs	r3, #0
 800217e:	9307      	str	r3, [sp, #28]
 8002180:	f44f 6280 	mov.w	r2, #1024	@ 0x400
 8002184:	9208      	str	r2, [sp, #32]
 8002186:	9309      	str	r3, [sp, #36]	@ 0x24
 8002188:	a805      	add	r0, sp, #20
 800218a:	f002 fcbd 	bl	8004b08 <HAL_RCC_ClockConfig>
 800218e:	b978      	cbnz	r0, 80021b0 <SystemClock_Config+0x80>
 8002190:	2312      	movs	r3, #18
 8002192:	9301      	str	r3, [sp, #4]
 8002194:	f44f 4300 	mov.w	r3, #32768	@ 0x8000
 8002198:	9303      	str	r3, [sp, #12]
 800219a:	2300      	movs	r3, #0
 800219c:	9304      	str	r3, [sp, #16]
 800219e:	a801      	add	r0, sp, #4
 80021a0:	f002 fd68 	bl	8004c74 <HAL_RCCEx_PeriphCLKConfig>
 80021a4:	b930      	cbnz	r0, 80021b4 <SystemClock_Config+0x84>
 80021a6:	b015      	add	sp, #84	@ 0x54
 80021a8:	f85d fb04 	ldr.w	pc, [sp], #4
 80021ac:	f7ff ffbe 	bl	800212c <Error_Handler>
 80021b0:	f7ff ffbc 	bl	800212c <Error_Handler>
 80021b4:	f7ff ffba 	bl	800212c <Error_Handler>

080021b8 <main>:
 80021b8:	b500      	push	{lr}
 80021ba:	b083      	sub	sp, #12
 80021bc:	f000 fcac 	bl	8002b18 <HAL_Init>
 80021c0:	f7ff ffb6 	bl	8002130 <SystemClock_Config>
 80021c4:	f7ff fd88 	bl	8001cd8 <MX_GPIO_Init>
 80021c8:	f7ff fd6c 	bl	8001ca4 <MX_DMA_Init>
 80021cc:	f7ff fb3e 	bl	800184c <MX_ADC1_Init>
 80021d0:	f004 fc28 	bl	8006a24 <MX_TIM1_Init>
 80021d4:	f004 fcb0 	bl	8006b38 <MX_USB_DEVICE_Init>
 80021d8:	f004 faca 	bl	8006770 <MX_TIM2_Init>
 80021dc:	f004 fb00 	bl	80067e0 <MX_TIM3_Init>
 80021e0:	f004 fb36 	bl	8006850 <MX_TIM4_Init>
 80021e4:	2206      	movs	r2, #6
 80021e6:	493c      	ldr	r1, [pc, #240]	@ (80022d8 <main+0x120>)
 80021e8:	483c      	ldr	r0, [pc, #240]	@ (80022dc <main+0x124>)
 80021ea:	f000 fdef 	bl	8002dcc <HAL_ADC_Start_DMA>
 80021ee:	4c3c      	ldr	r4, [pc, #240]	@ (80022e0 <main+0x128>)
 80021f0:	2100      	movs	r1, #0
 80021f2:	4620      	mov	r0, r4
 80021f4:	f003 f974 	bl	80054e0 <HAL_TIM_PWM_Start>
 80021f8:	2100      	movs	r1, #0
 80021fa:	4620      	mov	r0, r4
 80021fc:	f003 f9ee 	bl	80055dc <HAL_TIMEx_PWMN_Start>
 8002200:	2104      	movs	r1, #4
 8002202:	4620      	mov	r0, r4
 8002204:	f003 f96c 	bl	80054e0 <HAL_TIM_PWM_Start>
 8002208:	2104      	movs	r1, #4
 800220a:	4620      	mov	r0, r4
 800220c:	f003 f9e6 	bl	80055dc <HAL_TIMEx_PWMN_Start>
 8002210:	2108      	movs	r1, #8
 8002212:	4620      	mov	r0, r4
 8002214:	f003 f964 	bl	80054e0 <HAL_TIM_PWM_Start>
 8002218:	2108      	movs	r1, #8
 800221a:	4620      	mov	r0, r4
 800221c:	f003 f9de 	bl	80055dc <HAL_TIMEx_PWMN_Start>
 8002220:	4830      	ldr	r0, [pc, #192]	@ (80022e4 <main+0x12c>)
 8002222:	f002 fe5d 	bl	8004ee0 <HAL_TIM_Base_Start>
 8002226:	f44f 707a 	mov.w	r0, #1000	@ 0x3e8
 800222a:	f000 fc99 	bl	8002b60 <HAL_Delay>
 800222e:	2400      	movs	r4, #0
 8002230:	4b2d      	ldr	r3, [pc, #180]	@ (80022e8 <main+0x130>)
 8002232:	621c      	str	r4, [r3, #32]
 8002234:	f000 fc8e 	bl	8002b54 <HAL_GetTick>
 8002238:	4b2c      	ldr	r3, [pc, #176]	@ (80022ec <main+0x134>)
 800223a:	6018      	str	r0, [r3, #0]
 800223c:	f000 fc8a 	bl	8002b54 <HAL_GetTick>
 8002240:	4b2b      	ldr	r3, [pc, #172]	@ (80022f0 <main+0x138>)
 8002242:	6018      	str	r0, [r3, #0]
 8002244:	4d2b      	ldr	r5, [pc, #172]	@ (80022f4 <main+0x13c>)
 8002246:	4628      	mov	r0, r5
 8002248:	f002 fe78 	bl	8004f3c <HAL_TIM_Base_Start_IT>
 800224c:	682b      	ldr	r3, [r5, #0]
 800224e:	625c      	str	r4, [r3, #36]	@ 0x24
 8002250:	4d29      	ldr	r5, [pc, #164]	@ (80022f8 <main+0x140>)
 8002252:	4628      	mov	r0, r5
 8002254:	f002 fe72 	bl	8004f3c <HAL_TIM_Base_Start_IT>
 8002258:	682b      	ldr	r3, [r5, #0]
 800225a:	625c      	str	r4, [r3, #36]	@ 0x24
 800225c:	e078      	b.n	8002350 <main+0x198>
 800225e:	4b27      	ldr	r3, [pc, #156]	@ (80022fc <main+0x144>)
 8002260:	2200      	movs	r2, #0
 8002262:	701a      	strb	r2, [r3, #0]
 8002264:	f000 fc76 	bl	8002b54 <HAL_GetTick>
 8002268:	4b21      	ldr	r3, [pc, #132]	@ (80022f0 <main+0x138>)
 800226a:	6018      	str	r0, [r3, #0]
 800226c:	e0b3      	b.n	80023d6 <main+0x21e>
 800226e:	4b1c      	ldr	r3, [pc, #112]	@ (80022e0 <main+0x128>)
 8002270:	681a      	ldr	r2, [r3, #0]
 8002272:	2300      	movs	r3, #0
 8002274:	63d3      	str	r3, [r2, #60]	@ 0x3c
 8002276:	6393      	str	r3, [r2, #56]	@ 0x38
 8002278:	6353      	str	r3, [r2, #52]	@ 0x34
 800227a:	4a1b      	ldr	r2, [pc, #108]	@ (80022e8 <main+0x130>)
 800227c:	6213      	str	r3, [r2, #32]
 800227e:	f000 fc69 	bl	8002b54 <HAL_GetTick>
 8002282:	4b1a      	ldr	r3, [pc, #104]	@ (80022ec <main+0x134>)
 8002284:	6018      	str	r0, [r3, #0]
 8002286:	e0b4      	b.n	80023f2 <main+0x23a>
 8002288:	4b1d      	ldr	r3, [pc, #116]	@ (8002300 <main+0x148>)
 800228a:	8818      	ldrh	r0, [r3, #0]
 800228c:	4b1d      	ldr	r3, [pc, #116]	@ (8002304 <main+0x14c>)
 800228e:	881b      	ldrh	r3, [r3, #0]
 8002290:	9300      	str	r3, [sp, #0]
 8002292:	2300      	movs	r3, #0
 8002294:	f44f 6261 	mov.w	r2, #3600	@ 0xe10
 8002298:	f44f 712f 	mov.w	r1, #700	@ 0x2bc
 800229c:	b280      	uxth	r0, r0
 800229e:	f7ff fe37 	bl	8001f10 <map>
 80022a2:	4b19      	ldr	r3, [pc, #100]	@ (8002308 <main+0x150>)
 80022a4:	8018      	strh	r0, [r3, #0]
 80022a6:	e0c8      	b.n	800243a <main+0x282>
 80022a8:	4a18      	ldr	r2, [pc, #96]	@ (800230c <main+0x154>)
 80022aa:	6013      	str	r3, [r2, #0]
 80022ac:	e0da      	b.n	8002464 <main+0x2ac>
 80022ae:	4b18      	ldr	r3, [pc, #96]	@ (8002310 <main+0x158>)
 80022b0:	881b      	ldrh	r3, [r3, #0]
 80022b2:	4a16      	ldr	r2, [pc, #88]	@ (800230c <main+0x154>)
 80022b4:	6812      	ldr	r2, [r2, #0]
 80022b6:	4293      	cmp	r3, r2
 80022b8:	d902      	bls.n	80022c0 <main+0x108>
 80022ba:	4a14      	ldr	r2, [pc, #80]	@ (800230c <main+0x154>)
 80022bc:	6013      	str	r3, [r2, #0]
 80022be:	e0d1      	b.n	8002464 <main+0x2ac>
 80022c0:	4b12      	ldr	r3, [pc, #72]	@ (800230c <main+0x154>)
 80022c2:	681b      	ldr	r3, [r3, #0]
 80022c4:	f5b3 7ffa 	cmp.w	r3, #500	@ 0x1f4
 80022c8:	f080 80cc 	bcs.w	8002464 <main+0x2ac>
 80022cc:	4a0f      	ldr	r2, [pc, #60]	@ (800230c <main+0x154>)
 80022ce:	6813      	ldr	r3, [r2, #0]
 80022d0:	3301      	adds	r3, #1
 80022d2:	6013      	str	r3, [r2, #0]
 80022d4:	e0c6      	b.n	8002464 <main+0x2ac>
 80022d6:	bf00      	nop
 80022d8:	20000648 	.word	0x20000648
 80022dc:	20000384 	.word	0x20000384
 80022e0:	20000764 	.word	0x20000764
 80022e4:	2000071c 	.word	0x2000071c
 80022e8:	40012c00 	.word	0x40012c00
 80022ec:	20000630 	.word	0x20000630
 80022f0:	2000061c 	.word	0x2000061c
 80022f4:	200006d4 	.word	0x200006d4
 80022f8:	2000068c 	.word	0x2000068c
 80022fc:	200005c4 	.word	0x200005c4
 8002300:	20000644 	.word	0x20000644
 8002304:	20000052 	.word	0x20000052
 8002308:	200005ca 	.word	0x200005ca
 800230c:	20000634 	.word	0x20000634
 8002310:	2000005c 	.word	0x2000005c
 8002314:	4b75      	ldr	r3, [pc, #468]	@ (80024ec <main+0x334>)
 8002316:	781b      	ldrb	r3, [r3, #0]
 8002318:	b1d3      	cbz	r3, 8002350 <main+0x198>
 800231a:	4b75      	ldr	r3, [pc, #468]	@ (80024f0 <main+0x338>)
 800231c:	881b      	ldrh	r3, [r3, #0]
 800231e:	b29b      	uxth	r3, r3
 8002320:	f5b3 7f48 	cmp.w	r3, #800	@ 0x320
 8002324:	d214      	bcs.n	8002350 <main+0x198>
 8002326:	4b73      	ldr	r3, [pc, #460]	@ (80024f4 <main+0x33c>)
 8002328:	681a      	ldr	r2, [r3, #0]
 800232a:	2300      	movs	r3, #0
 800232c:	6353      	str	r3, [r2, #52]	@ 0x34
 800232e:	6393      	str	r3, [r2, #56]	@ 0x38
 8002330:	63d3      	str	r3, [r2, #60]	@ 0x3c
 8002332:	4a71      	ldr	r2, [pc, #452]	@ (80024f8 <main+0x340>)
 8002334:	6213      	str	r3, [r2, #32]
 8002336:	2301      	movs	r3, #1
 8002338:	4a70      	ldr	r2, [pc, #448]	@ (80024fc <main+0x344>)
 800233a:	7013      	strb	r3, [r2, #0]
 800233c:	4a70      	ldr	r2, [pc, #448]	@ (8002500 <main+0x348>)
 800233e:	7013      	strb	r3, [r2, #0]
 8002340:	4b70      	ldr	r3, [pc, #448]	@ (8002504 <main+0x34c>)
 8002342:	681b      	ldr	r3, [r3, #0]
 8002344:	2b00      	cmp	r3, #0
 8002346:	f040 80c8 	bne.w	80024da <main+0x322>
 800234a:	4b68      	ldr	r3, [pc, #416]	@ (80024ec <main+0x334>)
 800234c:	2200      	movs	r2, #0
 800234e:	701a      	strb	r2, [r3, #0]
 8002350:	4c6d      	ldr	r4, [pc, #436]	@ (8002508 <main+0x350>)
 8002352:	2101      	movs	r1, #1
 8002354:	4620      	mov	r0, r4
 8002356:	f001 f92f 	bl	80035b8 <HAL_GPIO_ReadPin>
 800235a:	3800      	subs	r0, #0
 800235c:	bf18      	it	ne
 800235e:	2001      	movne	r0, #1
 8002360:	4b6a      	ldr	r3, [pc, #424]	@ (800250c <main+0x354>)
 8002362:	7018      	strb	r0, [r3, #0]
 8002364:	2102      	movs	r1, #2
 8002366:	4620      	mov	r0, r4
 8002368:	f001 f926 	bl	80035b8 <HAL_GPIO_ReadPin>
 800236c:	3800      	subs	r0, #0
 800236e:	bf18      	it	ne
 8002370:	2001      	movne	r0, #1
 8002372:	4b67      	ldr	r3, [pc, #412]	@ (8002510 <main+0x358>)
 8002374:	7018      	strb	r0, [r3, #0]
 8002376:	2104      	movs	r1, #4
 8002378:	4620      	mov	r0, r4
 800237a:	f001 f91d 	bl	80035b8 <HAL_GPIO_ReadPin>
 800237e:	3800      	subs	r0, #0
 8002380:	bf18      	it	ne
 8002382:	2001      	movne	r0, #1
 8002384:	4b63      	ldr	r3, [pc, #396]	@ (8002514 <main+0x35c>)
 8002386:	7018      	strb	r0, [r3, #0]
 8002388:	4b58      	ldr	r3, [pc, #352]	@ (80024ec <main+0x334>)
 800238a:	781b      	ldrb	r3, [r3, #0]
 800238c:	b9c3      	cbnz	r3, 80023c0 <main+0x208>
 800238e:	4b62      	ldr	r3, [pc, #392]	@ (8002518 <main+0x360>)
 8002390:	8818      	ldrh	r0, [r3, #0]
 8002392:	b280      	uxth	r0, r0
 8002394:	f7fe ffbe 	bl	8001314 <__aeabi_i2d>
 8002398:	2200      	movs	r2, #0
 800239a:	4b60      	ldr	r3, [pc, #384]	@ (800251c <main+0x364>)
 800239c:	f7ff f824 	bl	80013e8 <__aeabi_dmul>
 80023a0:	4604      	mov	r4, r0
 80023a2:	460d      	mov	r5, r1
 80023a4:	4b5e      	ldr	r3, [pc, #376]	@ (8002520 <main+0x368>)
 80023a6:	8818      	ldrh	r0, [r3, #0]
 80023a8:	f7fe ffb4 	bl	8001314 <__aeabi_i2d>
 80023ac:	4602      	mov	r2, r0
 80023ae:	460b      	mov	r3, r1
 80023b0:	4620      	mov	r0, r4
 80023b2:	4629      	mov	r1, r5
 80023b4:	f7ff f942 	bl	800163c <__aeabi_ddiv>
 80023b8:	f7ff fa28 	bl	800180c <__aeabi_d2uiz>
 80023bc:	4b59      	ldr	r3, [pc, #356]	@ (8002524 <main+0x36c>)
 80023be:	6018      	str	r0, [r3, #0]
 80023c0:	4b59      	ldr	r3, [pc, #356]	@ (8002528 <main+0x370>)
 80023c2:	2200      	movs	r2, #0
 80023c4:	801a      	strh	r2, [r3, #0]
 80023c6:	f000 fbc5 	bl	8002b54 <HAL_GetTick>
 80023ca:	4b58      	ldr	r3, [pc, #352]	@ (800252c <main+0x374>)
 80023cc:	681b      	ldr	r3, [r3, #0]
 80023ce:	1ac0      	subs	r0, r0, r3
 80023d0:	280a      	cmp	r0, #10
 80023d2:	f63f af44 	bhi.w	800225e <main+0xa6>
 80023d6:	f000 fbbd 	bl	8002b54 <HAL_GetTick>
 80023da:	4b55      	ldr	r3, [pc, #340]	@ (8002530 <main+0x378>)
 80023dc:	681b      	ldr	r3, [r3, #0]
 80023de:	1ac0      	subs	r0, r0, r3
 80023e0:	f240 53dc 	movw	r3, #1500	@ 0x5dc
 80023e4:	4298      	cmp	r0, r3
 80023e6:	d904      	bls.n	80023f2 <main+0x23a>
 80023e8:	4b40      	ldr	r3, [pc, #256]	@ (80024ec <main+0x334>)
 80023ea:	781b      	ldrb	r3, [r3, #0]
 80023ec:	2b00      	cmp	r3, #0
 80023ee:	f47f af3e 	bne.w	800226e <main+0xb6>
 80023f2:	4b3f      	ldr	r3, [pc, #252]	@ (80024f0 <main+0x338>)
 80023f4:	881b      	ldrh	r3, [r3, #0]
 80023f6:	b29b      	uxth	r3, r3
 80023f8:	f5b3 7f61 	cmp.w	r3, #900	@ 0x384
 80023fc:	d38a      	bcc.n	8002314 <main+0x15c>
 80023fe:	4b41      	ldr	r3, [pc, #260]	@ (8002504 <main+0x34c>)
 8002400:	2201      	movs	r2, #1
 8002402:	601a      	str	r2, [r3, #0]
 8002404:	2120      	movs	r1, #32
 8002406:	484b      	ldr	r0, [pc, #300]	@ (8002534 <main+0x37c>)
 8002408:	f001 f8d6 	bl	80035b8 <HAL_GPIO_ReadPin>
 800240c:	2800      	cmp	r0, #0
 800240e:	bf14      	ite	ne
 8002410:	2201      	movne	r2, #1
 8002412:	2200      	moveq	r2, #0
 8002414:	4b48      	ldr	r3, [pc, #288]	@ (8002538 <main+0x380>)
 8002416:	701a      	strb	r2, [r3, #0]
 8002418:	f47f af36 	bne.w	8002288 <main+0xd0>
 800241c:	4b34      	ldr	r3, [pc, #208]	@ (80024f0 <main+0x338>)
 800241e:	8818      	ldrh	r0, [r3, #0]
 8002420:	4b46      	ldr	r3, [pc, #280]	@ (800253c <main+0x384>)
 8002422:	881b      	ldrh	r3, [r3, #0]
 8002424:	9300      	str	r3, [sp, #0]
 8002426:	2300      	movs	r3, #0
 8002428:	f44f 6261 	mov.w	r2, #3600	@ 0xe10
 800242c:	f44f 712f 	mov.w	r1, #700	@ 0x2bc
 8002430:	b280      	uxth	r0, r0
 8002432:	f7ff fd6d 	bl	8001f10 <map>
 8002436:	4b42      	ldr	r3, [pc, #264]	@ (8002540 <main+0x388>)
 8002438:	8018      	strh	r0, [r3, #0]
 800243a:	2001      	movs	r0, #1
 800243c:	f000 fb90 	bl	8002b60 <HAL_Delay>
 8002440:	4b3f      	ldr	r3, [pc, #252]	@ (8002540 <main+0x388>)
 8002442:	881a      	ldrh	r2, [r3, #0]
 8002444:	4b3f      	ldr	r3, [pc, #252]	@ (8002544 <main+0x38c>)
 8002446:	681b      	ldr	r3, [r3, #0]
 8002448:	429a      	cmp	r2, r3
 800244a:	f4bf af30 	bcs.w	80022ae <main+0xf6>
 800244e:	4b3e      	ldr	r3, [pc, #248]	@ (8002548 <main+0x390>)
 8002450:	881b      	ldrh	r3, [r3, #0]
 8002452:	4a34      	ldr	r2, [pc, #208]	@ (8002524 <main+0x36c>)
 8002454:	6812      	ldr	r2, [r2, #0]
 8002456:	4293      	cmp	r3, r2
 8002458:	f4bf af26 	bcs.w	80022a8 <main+0xf0>
 800245c:	4a31      	ldr	r2, [pc, #196]	@ (8002524 <main+0x36c>)
 800245e:	6813      	ldr	r3, [r2, #0]
 8002460:	3b01      	subs	r3, #1
 8002462:	6013      	str	r3, [r2, #0]
 8002464:	4b21      	ldr	r3, [pc, #132]	@ (80024ec <main+0x334>)
 8002466:	781b      	ldrb	r3, [r3, #0]
 8002468:	2b00      	cmp	r3, #0
 800246a:	f47f af71 	bne.w	8002350 <main+0x198>
 800246e:	2501      	movs	r5, #1
 8002470:	4b1e      	ldr	r3, [pc, #120]	@ (80024ec <main+0x334>)
 8002472:	701d      	strb	r5, [r3, #0]
 8002474:	4c24      	ldr	r4, [pc, #144]	@ (8002508 <main+0x350>)
 8002476:	2108      	movs	r1, #8
 8002478:	4620      	mov	r0, r4
 800247a:	f001 f89d 	bl	80035b8 <HAL_GPIO_ReadPin>
 800247e:	3800      	subs	r0, #0
 8002480:	bf18      	it	ne
 8002482:	2001      	movne	r0, #1
 8002484:	4b31      	ldr	r3, [pc, #196]	@ (800254c <main+0x394>)
 8002486:	7018      	strb	r0, [r3, #0]
 8002488:	4629      	mov	r1, r5
 800248a:	4620      	mov	r0, r4
 800248c:	f001 f894 	bl	80035b8 <HAL_GPIO_ReadPin>
 8002490:	3800      	subs	r0, #0
 8002492:	bf18      	it	ne
 8002494:	2001      	movne	r0, #1
 8002496:	4b1d      	ldr	r3, [pc, #116]	@ (800250c <main+0x354>)
 8002498:	7018      	strb	r0, [r3, #0]
 800249a:	2102      	movs	r1, #2
 800249c:	4620      	mov	r0, r4
 800249e:	f001 f88b 	bl	80035b8 <HAL_GPIO_ReadPin>
 80024a2:	3800      	subs	r0, #0
 80024a4:	bf18      	it	ne
 80024a6:	2001      	movne	r0, #1
 80024a8:	4b19      	ldr	r3, [pc, #100]	@ (8002510 <main+0x358>)
 80024aa:	7018      	strb	r0, [r3, #0]
 80024ac:	2104      	movs	r1, #4
 80024ae:	4620      	mov	r0, r4
 80024b0:	f001 f882 	bl	80035b8 <HAL_GPIO_ReadPin>
 80024b4:	3800      	subs	r0, #0
 80024b6:	bf18      	it	ne
 80024b8:	2001      	movne	r0, #1
 80024ba:	4b16      	ldr	r3, [pc, #88]	@ (8002514 <main+0x35c>)
 80024bc:	7018      	strb	r0, [r3, #0]
 80024be:	4b16      	ldr	r3, [pc, #88]	@ (8002518 <main+0x360>)
 80024c0:	881b      	ldrh	r3, [r3, #0]
 80024c2:	b29b      	uxth	r3, r3
 80024c4:	2b95      	cmp	r3, #149	@ 0x95
 80024c6:	f63f af43 	bhi.w	8002350 <main+0x198>
 80024ca:	4b1f      	ldr	r3, [pc, #124]	@ (8002548 <main+0x390>)
 80024cc:	881a      	ldrh	r2, [r3, #0]
 80024ce:	4b15      	ldr	r3, [pc, #84]	@ (8002524 <main+0x36c>)
 80024d0:	601a      	str	r2, [r3, #0]
 80024d2:	2004      	movs	r0, #4
 80024d4:	f7ff fc7e 	bl	8001dd4 <HAL_GPIO_EXTI_Callback>
 80024d8:	e73a      	b.n	8002350 <main+0x198>
 80024da:	f000 fb3b 	bl	8002b54 <HAL_GetTick>
 80024de:	4b1c      	ldr	r3, [pc, #112]	@ (8002550 <main+0x398>)
 80024e0:	6018      	str	r0, [r3, #0]
 80024e2:	4b08      	ldr	r3, [pc, #32]	@ (8002504 <main+0x34c>)
 80024e4:	2200      	movs	r2, #0
 80024e6:	601a      	str	r2, [r3, #0]
 80024e8:	e72f      	b.n	800234a <main+0x192>
 80024ea:	bf00      	nop
 80024ec:	2000063f 	.word	0x2000063f
 80024f0:	20000644 	.word	0x20000644
 80024f4:	20000764 	.word	0x20000764
 80024f8:	40012c00 	.word	0x40012c00
 80024fc:	2000005f 	.word	0x2000005f
 8002500:	20000060 	.word	0x20000060
 8002504:	20000624 	.word	0x20000624
 8002508:	40010800 	.word	0x40010800
 800250c:	2000063e 	.word	0x2000063e
 8002510:	2000063d 	.word	0x2000063d
 8002514:	2000063c 	.word	0x2000063c
 8002518:	200005c6 	.word	0x200005c6
 800251c:	40250000 	.word	0x40250000
 8002520:	200005c8 	.word	0x200005c8
 8002524:	20000634 	.word	0x20000634
 8002528:	20000614 	.word	0x20000614
 800252c:	2000061c 	.word	0x2000061c
 8002530:	20000630 	.word	0x20000630
 8002534:	40010c00 	.word	0x40010c00
 8002538:	20000061 	.word	0x20000061
 800253c:	20000052 	.word	0x20000052
 8002540:	200005ca 	.word	0x200005ca
 8002544:	20000620 	.word	0x20000620
 8002548:	2000005c 	.word	0x2000005c
 800254c:	2000005e 	.word	0x2000005e
 8002550:	20000628 	.word	0x20000628

08002554 <set_old_value>:
 8002554:	4b68      	ldr	r3, [pc, #416]	@ (80026f8 <set_old_value+0x1a4>)
 8002556:	781b      	ldrb	r3, [r3, #0]
 8002558:	2b00      	cmp	r3, #0
 800255a:	f040 80db 	bne.w	8002714 <set_old_value+0x1c0>
 800255e:	4b67      	ldr	r3, [pc, #412]	@ (80026fc <set_old_value+0x1a8>)
 8002560:	781b      	ldrb	r3, [r3, #0]
 8002562:	b1eb      	cbz	r3, 80025a0 <set_old_value+0x4c>
 8002564:	4b66      	ldr	r3, [pc, #408]	@ (8002700 <set_old_value+0x1ac>)
 8002566:	781b      	ldrb	r3, [r3, #0]
 8002568:	b9d3      	cbnz	r3, 80025a0 <set_old_value+0x4c>
 800256a:	4b66      	ldr	r3, [pc, #408]	@ (8002704 <set_old_value+0x1b0>)
 800256c:	781b      	ldrb	r3, [r3, #0]
 800256e:	b1bb      	cbz	r3, 80025a0 <set_old_value+0x4c>
 8002570:	4b65      	ldr	r3, [pc, #404]	@ (8002708 <set_old_value+0x1b4>)
 8002572:	781b      	ldrb	r3, [r3, #0]
 8002574:	b12b      	cbz	r3, 8002582 <set_old_value+0x2e>
 8002576:	4b64      	ldr	r3, [pc, #400]	@ (8002708 <set_old_value+0x1b4>)
 8002578:	785b      	ldrb	r3, [r3, #1]
 800257a:	b913      	cbnz	r3, 8002582 <set_old_value+0x2e>
 800257c:	4b62      	ldr	r3, [pc, #392]	@ (8002708 <set_old_value+0x1b4>)
 800257e:	789b      	ldrb	r3, [r3, #2]
 8002580:	b113      	cbz	r3, 8002588 <set_old_value+0x34>
 8002582:	4b62      	ldr	r3, [pc, #392]	@ (800270c <set_old_value+0x1b8>)
 8002584:	781b      	ldrb	r3, [r3, #0]
 8002586:	b15b      	cbz	r3, 80025a0 <set_old_value+0x4c>
 8002588:	4b61      	ldr	r3, [pc, #388]	@ (8002710 <set_old_value+0x1bc>)
 800258a:	2204      	movs	r2, #4
 800258c:	601a      	str	r2, [r3, #0]
 800258e:	4a5e      	ldr	r2, [pc, #376]	@ (8002708 <set_old_value+0x1b4>)
 8002590:	2301      	movs	r3, #1
 8002592:	7013      	strb	r3, [r2, #0]
 8002594:	2100      	movs	r1, #0
 8002596:	7051      	strb	r1, [r2, #1]
 8002598:	7093      	strb	r3, [r2, #2]
 800259a:	4a5c      	ldr	r2, [pc, #368]	@ (800270c <set_old_value+0x1b8>)
 800259c:	7013      	strb	r3, [r2, #0]
 800259e:	4770      	bx	lr
 80025a0:	4b56      	ldr	r3, [pc, #344]	@ (80026fc <set_old_value+0x1a8>)
 80025a2:	781b      	ldrb	r3, [r3, #0]
 80025a4:	b1eb      	cbz	r3, 80025e2 <set_old_value+0x8e>
 80025a6:	4b56      	ldr	r3, [pc, #344]	@ (8002700 <set_old_value+0x1ac>)
 80025a8:	781b      	ldrb	r3, [r3, #0]
 80025aa:	b9d3      	cbnz	r3, 80025e2 <set_old_value+0x8e>
 80025ac:	4b55      	ldr	r3, [pc, #340]	@ (8002704 <set_old_value+0x1b0>)
 80025ae:	781b      	ldrb	r3, [r3, #0]
 80025b0:	b9bb      	cbnz	r3, 80025e2 <set_old_value+0x8e>
 80025b2:	4b55      	ldr	r3, [pc, #340]	@ (8002708 <set_old_value+0x1b4>)
 80025b4:	781b      	ldrb	r3, [r3, #0]
 80025b6:	b12b      	cbz	r3, 80025c4 <set_old_value+0x70>
 80025b8:	4b53      	ldr	r3, [pc, #332]	@ (8002708 <set_old_value+0x1b4>)
 80025ba:	785b      	ldrb	r3, [r3, #1]
 80025bc:	b113      	cbz	r3, 80025c4 <set_old_value+0x70>
 80025be:	4b52      	ldr	r3, [pc, #328]	@ (8002708 <set_old_value+0x1b4>)
 80025c0:	789b      	ldrb	r3, [r3, #2]
 80025c2:	b113      	cbz	r3, 80025ca <set_old_value+0x76>
 80025c4:	4b51      	ldr	r3, [pc, #324]	@ (800270c <set_old_value+0x1b8>)
 80025c6:	781b      	ldrb	r3, [r3, #0]
 80025c8:	b15b      	cbz	r3, 80025e2 <set_old_value+0x8e>
 80025ca:	4b51      	ldr	r3, [pc, #324]	@ (8002710 <set_old_value+0x1bc>)
 80025cc:	2205      	movs	r2, #5
 80025ce:	601a      	str	r2, [r3, #0]
 80025d0:	4b4d      	ldr	r3, [pc, #308]	@ (8002708 <set_old_value+0x1b4>)
 80025d2:	2201      	movs	r2, #1
 80025d4:	701a      	strb	r2, [r3, #0]
 80025d6:	2100      	movs	r1, #0
 80025d8:	7059      	strb	r1, [r3, #1]
 80025da:	7099      	strb	r1, [r3, #2]
 80025dc:	4b4b      	ldr	r3, [pc, #300]	@ (800270c <set_old_value+0x1b8>)
 80025de:	701a      	strb	r2, [r3, #0]
 80025e0:	4770      	bx	lr
 80025e2:	4b46      	ldr	r3, [pc, #280]	@ (80026fc <set_old_value+0x1a8>)
 80025e4:	781b      	ldrb	r3, [r3, #0]
 80025e6:	b1eb      	cbz	r3, 8002624 <set_old_value+0xd0>
 80025e8:	4b45      	ldr	r3, [pc, #276]	@ (8002700 <set_old_value+0x1ac>)
 80025ea:	781b      	ldrb	r3, [r3, #0]
 80025ec:	b1d3      	cbz	r3, 8002624 <set_old_value+0xd0>
 80025ee:	4b45      	ldr	r3, [pc, #276]	@ (8002704 <set_old_value+0x1b0>)
 80025f0:	781b      	ldrb	r3, [r3, #0]
 80025f2:	b9bb      	cbnz	r3, 8002624 <set_old_value+0xd0>
 80025f4:	4b44      	ldr	r3, [pc, #272]	@ (8002708 <set_old_value+0x1b4>)
 80025f6:	781b      	ldrb	r3, [r3, #0]
 80025f8:	b92b      	cbnz	r3, 8002606 <set_old_value+0xb2>
 80025fa:	4b43      	ldr	r3, [pc, #268]	@ (8002708 <set_old_value+0x1b4>)
 80025fc:	785b      	ldrb	r3, [r3, #1]
 80025fe:	b113      	cbz	r3, 8002606 <set_old_value+0xb2>
 8002600:	4b41      	ldr	r3, [pc, #260]	@ (8002708 <set_old_value+0x1b4>)
 8002602:	789b      	ldrb	r3, [r3, #2]
 8002604:	b113      	cbz	r3, 800260c <set_old_value+0xb8>
 8002606:	4b41      	ldr	r3, [pc, #260]	@ (800270c <set_old_value+0x1b8>)
 8002608:	781b      	ldrb	r3, [r3, #0]
 800260a:	b15b      	cbz	r3, 8002624 <set_old_value+0xd0>
 800260c:	4b40      	ldr	r3, [pc, #256]	@ (8002710 <set_old_value+0x1bc>)
 800260e:	2206      	movs	r2, #6
 8002610:	601a      	str	r2, [r3, #0]
 8002612:	4a3d      	ldr	r2, [pc, #244]	@ (8002708 <set_old_value+0x1b4>)
 8002614:	2301      	movs	r3, #1
 8002616:	7013      	strb	r3, [r2, #0]
 8002618:	7053      	strb	r3, [r2, #1]
 800261a:	2100      	movs	r1, #0
 800261c:	7091      	strb	r1, [r2, #2]
 800261e:	4a3b      	ldr	r2, [pc, #236]	@ (800270c <set_old_value+0x1b8>)
 8002620:	7013      	strb	r3, [r2, #0]
 8002622:	4770      	bx	lr
 8002624:	4b35      	ldr	r3, [pc, #212]	@ (80026fc <set_old_value+0x1a8>)
 8002626:	781b      	ldrb	r3, [r3, #0]
 8002628:	b9e3      	cbnz	r3, 8002664 <set_old_value+0x110>
 800262a:	4b35      	ldr	r3, [pc, #212]	@ (8002700 <set_old_value+0x1ac>)
 800262c:	781b      	ldrb	r3, [r3, #0]
 800262e:	b1cb      	cbz	r3, 8002664 <set_old_value+0x110>
 8002630:	4b34      	ldr	r3, [pc, #208]	@ (8002704 <set_old_value+0x1b0>)
 8002632:	781b      	ldrb	r3, [r3, #0]
 8002634:	b9b3      	cbnz	r3, 8002664 <set_old_value+0x110>
 8002636:	4b34      	ldr	r3, [pc, #208]	@ (8002708 <set_old_value+0x1b4>)
 8002638:	781b      	ldrb	r3, [r3, #0]
 800263a:	b92b      	cbnz	r3, 8002648 <set_old_value+0xf4>
 800263c:	4b32      	ldr	r3, [pc, #200]	@ (8002708 <set_old_value+0x1b4>)
 800263e:	785b      	ldrb	r3, [r3, #1]
 8002640:	b113      	cbz	r3, 8002648 <set_old_value+0xf4>
 8002642:	4b31      	ldr	r3, [pc, #196]	@ (8002708 <set_old_value+0x1b4>)
 8002644:	789b      	ldrb	r3, [r3, #2]
 8002646:	b913      	cbnz	r3, 800264e <set_old_value+0xfa>
 8002648:	4b30      	ldr	r3, [pc, #192]	@ (800270c <set_old_value+0x1b8>)
 800264a:	781b      	ldrb	r3, [r3, #0]
 800264c:	b153      	cbz	r3, 8002664 <set_old_value+0x110>
 800264e:	2301      	movs	r3, #1
 8002650:	4a2f      	ldr	r2, [pc, #188]	@ (8002710 <set_old_value+0x1bc>)
 8002652:	6013      	str	r3, [r2, #0]
 8002654:	4a2c      	ldr	r2, [pc, #176]	@ (8002708 <set_old_value+0x1b4>)
 8002656:	2100      	movs	r1, #0
 8002658:	7011      	strb	r1, [r2, #0]
 800265a:	7053      	strb	r3, [r2, #1]
 800265c:	7091      	strb	r1, [r2, #2]
 800265e:	4a2b      	ldr	r2, [pc, #172]	@ (800270c <set_old_value+0x1b8>)
 8002660:	7013      	strb	r3, [r2, #0]
 8002662:	4770      	bx	lr
 8002664:	4b25      	ldr	r3, [pc, #148]	@ (80026fc <set_old_value+0x1a8>)
 8002666:	781b      	ldrb	r3, [r3, #0]
 8002668:	b9eb      	cbnz	r3, 80026a6 <set_old_value+0x152>
 800266a:	4b25      	ldr	r3, [pc, #148]	@ (8002700 <set_old_value+0x1ac>)
 800266c:	781b      	ldrb	r3, [r3, #0]
 800266e:	b1d3      	cbz	r3, 80026a6 <set_old_value+0x152>
 8002670:	4b24      	ldr	r3, [pc, #144]	@ (8002704 <set_old_value+0x1b0>)
 8002672:	781b      	ldrb	r3, [r3, #0]
 8002674:	b1bb      	cbz	r3, 80026a6 <set_old_value+0x152>
 8002676:	4b24      	ldr	r3, [pc, #144]	@ (8002708 <set_old_value+0x1b4>)
 8002678:	781b      	ldrb	r3, [r3, #0]
 800267a:	b92b      	cbnz	r3, 8002688 <set_old_value+0x134>
 800267c:	4b22      	ldr	r3, [pc, #136]	@ (8002708 <set_old_value+0x1b4>)
 800267e:	785b      	ldrb	r3, [r3, #1]
 8002680:	b913      	cbnz	r3, 8002688 <set_old_value+0x134>
 8002682:	4b21      	ldr	r3, [pc, #132]	@ (8002708 <set_old_value+0x1b4>)
 8002684:	789b      	ldrb	r3, [r3, #2]
 8002686:	b913      	cbnz	r3, 800268e <set_old_value+0x13a>
 8002688:	4b20      	ldr	r3, [pc, #128]	@ (800270c <set_old_value+0x1b8>)
 800268a:	781b      	ldrb	r3, [r3, #0]
 800268c:	b15b      	cbz	r3, 80026a6 <set_old_value+0x152>
 800268e:	4b20      	ldr	r3, [pc, #128]	@ (8002710 <set_old_value+0x1bc>)
 8002690:	2202      	movs	r2, #2
 8002692:	601a      	str	r2, [r3, #0]
 8002694:	4a1c      	ldr	r2, [pc, #112]	@ (8002708 <set_old_value+0x1b4>)
 8002696:	2300      	movs	r3, #0
 8002698:	7013      	strb	r3, [r2, #0]
 800269a:	2301      	movs	r3, #1
 800269c:	7053      	strb	r3, [r2, #1]
 800269e:	7093      	strb	r3, [r2, #2]
 80026a0:	4a1a      	ldr	r2, [pc, #104]	@ (800270c <set_old_value+0x1b8>)
 80026a2:	7013      	strb	r3, [r2, #0]
 80026a4:	4770      	bx	lr
 80026a6:	4b15      	ldr	r3, [pc, #84]	@ (80026fc <set_old_value+0x1a8>)
 80026a8:	781b      	ldrb	r3, [r3, #0]
 80026aa:	2b00      	cmp	r3, #0
 80026ac:	f040 80f1 	bne.w	8002892 <set_old_value+0x33e>
 80026b0:	4b13      	ldr	r3, [pc, #76]	@ (8002700 <set_old_value+0x1ac>)
 80026b2:	781b      	ldrb	r3, [r3, #0]
 80026b4:	2b00      	cmp	r3, #0
 80026b6:	f040 80ec 	bne.w	8002892 <set_old_value+0x33e>
 80026ba:	4b12      	ldr	r3, [pc, #72]	@ (8002704 <set_old_value+0x1b0>)
 80026bc:	781b      	ldrb	r3, [r3, #0]
 80026be:	2b00      	cmp	r3, #0
 80026c0:	f000 80e7 	beq.w	8002892 <set_old_value+0x33e>
 80026c4:	4b10      	ldr	r3, [pc, #64]	@ (8002708 <set_old_value+0x1b4>)
 80026c6:	781b      	ldrb	r3, [r3, #0]
 80026c8:	b12b      	cbz	r3, 80026d6 <set_old_value+0x182>
 80026ca:	4b0f      	ldr	r3, [pc, #60]	@ (8002708 <set_old_value+0x1b4>)
 80026cc:	785b      	ldrb	r3, [r3, #1]
 80026ce:	b913      	cbnz	r3, 80026d6 <set_old_value+0x182>
 80026d0:	4b0d      	ldr	r3, [pc, #52]	@ (8002708 <set_old_value+0x1b4>)
 80026d2:	789b      	ldrb	r3, [r3, #2]
 80026d4:	b923      	cbnz	r3, 80026e0 <set_old_value+0x18c>
 80026d6:	4b0d      	ldr	r3, [pc, #52]	@ (800270c <set_old_value+0x1b8>)
 80026d8:	781b      	ldrb	r3, [r3, #0]
 80026da:	2b00      	cmp	r3, #0
 80026dc:	f000 80d9 	beq.w	8002892 <set_old_value+0x33e>
 80026e0:	4b0b      	ldr	r3, [pc, #44]	@ (8002710 <set_old_value+0x1bc>)
 80026e2:	2203      	movs	r2, #3
 80026e4:	601a      	str	r2, [r3, #0]
 80026e6:	4b08      	ldr	r3, [pc, #32]	@ (8002708 <set_old_value+0x1b4>)
 80026e8:	2200      	movs	r2, #0
 80026ea:	701a      	strb	r2, [r3, #0]
 80026ec:	705a      	strb	r2, [r3, #1]
 80026ee:	2201      	movs	r2, #1
 80026f0:	709a      	strb	r2, [r3, #2]
 80026f2:	4b06      	ldr	r3, [pc, #24]	@ (800270c <set_old_value+0x1b8>)
 80026f4:	701a      	strb	r2, [r3, #0]
 80026f6:	4770      	bx	lr
 80026f8:	2000005e 	.word	0x2000005e
 80026fc:	2000063e 	.word	0x2000063e
 8002700:	2000063d 	.word	0x2000063d
 8002704:	2000063c 	.word	0x2000063c
 8002708:	20000660 	.word	0x20000660
 800270c:	2000005f 	.word	0x2000005f
 8002710:	20000638 	.word	0x20000638
 8002714:	4b5f      	ldr	r3, [pc, #380]	@ (8002894 <set_old_value+0x340>)
 8002716:	781b      	ldrb	r3, [r3, #0]
 8002718:	b1db      	cbz	r3, 8002752 <set_old_value+0x1fe>
 800271a:	4b5f      	ldr	r3, [pc, #380]	@ (8002898 <set_old_value+0x344>)
 800271c:	781b      	ldrb	r3, [r3, #0]
 800271e:	b9c3      	cbnz	r3, 8002752 <set_old_value+0x1fe>
 8002720:	4b5e      	ldr	r3, [pc, #376]	@ (800289c <set_old_value+0x348>)
 8002722:	781b      	ldrb	r3, [r3, #0]
 8002724:	b1ab      	cbz	r3, 8002752 <set_old_value+0x1fe>
 8002726:	4b5e      	ldr	r3, [pc, #376]	@ (80028a0 <set_old_value+0x34c>)
 8002728:	781b      	ldrb	r3, [r3, #0]
 800272a:	b92b      	cbnz	r3, 8002738 <set_old_value+0x1e4>
 800272c:	4b5c      	ldr	r3, [pc, #368]	@ (80028a0 <set_old_value+0x34c>)
 800272e:	785b      	ldrb	r3, [r3, #1]
 8002730:	b913      	cbnz	r3, 8002738 <set_old_value+0x1e4>
 8002732:	4b5b      	ldr	r3, [pc, #364]	@ (80028a0 <set_old_value+0x34c>)
 8002734:	789b      	ldrb	r3, [r3, #2]
 8002736:	b913      	cbnz	r3, 800273e <set_old_value+0x1ea>
 8002738:	4b5a      	ldr	r3, [pc, #360]	@ (80028a4 <set_old_value+0x350>)
 800273a:	781b      	ldrb	r3, [r3, #0]
 800273c:	b14b      	cbz	r3, 8002752 <set_old_value+0x1fe>
 800273e:	2301      	movs	r3, #1
 8002740:	4a59      	ldr	r2, [pc, #356]	@ (80028a8 <set_old_value+0x354>)
 8002742:	6013      	str	r3, [r2, #0]
 8002744:	4a56      	ldr	r2, [pc, #344]	@ (80028a0 <set_old_value+0x34c>)
 8002746:	7013      	strb	r3, [r2, #0]
 8002748:	2100      	movs	r1, #0
 800274a:	7051      	strb	r1, [r2, #1]
 800274c:	7093      	strb	r3, [r2, #2]
 800274e:	4a55      	ldr	r2, [pc, #340]	@ (80028a4 <set_old_value+0x350>)
 8002750:	7013      	strb	r3, [r2, #0]
 8002752:	4b50      	ldr	r3, [pc, #320]	@ (8002894 <set_old_value+0x340>)
 8002754:	781b      	ldrb	r3, [r3, #0]
 8002756:	b1e3      	cbz	r3, 8002792 <set_old_value+0x23e>
 8002758:	4b4f      	ldr	r3, [pc, #316]	@ (8002898 <set_old_value+0x344>)
 800275a:	781b      	ldrb	r3, [r3, #0]
 800275c:	b9cb      	cbnz	r3, 8002792 <set_old_value+0x23e>
 800275e:	4b4f      	ldr	r3, [pc, #316]	@ (800289c <set_old_value+0x348>)
 8002760:	781b      	ldrb	r3, [r3, #0]
 8002762:	b9b3      	cbnz	r3, 8002792 <set_old_value+0x23e>
 8002764:	4b4e      	ldr	r3, [pc, #312]	@ (80028a0 <set_old_value+0x34c>)
 8002766:	781b      	ldrb	r3, [r3, #0]
 8002768:	b12b      	cbz	r3, 8002776 <set_old_value+0x222>
 800276a:	4b4d      	ldr	r3, [pc, #308]	@ (80028a0 <set_old_value+0x34c>)
 800276c:	785b      	ldrb	r3, [r3, #1]
 800276e:	b913      	cbnz	r3, 8002776 <set_old_value+0x222>
 8002770:	4b4b      	ldr	r3, [pc, #300]	@ (80028a0 <set_old_value+0x34c>)
 8002772:	789b      	ldrb	r3, [r3, #2]
 8002774:	b913      	cbnz	r3, 800277c <set_old_value+0x228>
 8002776:	4b4b      	ldr	r3, [pc, #300]	@ (80028a4 <set_old_value+0x350>)
 8002778:	781b      	ldrb	r3, [r3, #0]
 800277a:	b153      	cbz	r3, 8002792 <set_old_value+0x23e>
 800277c:	4b4a      	ldr	r3, [pc, #296]	@ (80028a8 <set_old_value+0x354>)
 800277e:	2202      	movs	r2, #2
 8002780:	601a      	str	r2, [r3, #0]
 8002782:	4b47      	ldr	r3, [pc, #284]	@ (80028a0 <set_old_value+0x34c>)
 8002784:	2201      	movs	r2, #1
 8002786:	701a      	strb	r2, [r3, #0]
 8002788:	2100      	movs	r1, #0
 800278a:	7059      	strb	r1, [r3, #1]
 800278c:	7099      	strb	r1, [r3, #2]
 800278e:	4b45      	ldr	r3, [pc, #276]	@ (80028a4 <set_old_value+0x350>)
 8002790:	701a      	strb	r2, [r3, #0]
 8002792:	4b40      	ldr	r3, [pc, #256]	@ (8002894 <set_old_value+0x340>)
 8002794:	781b      	ldrb	r3, [r3, #0]
 8002796:	b1e3      	cbz	r3, 80027d2 <set_old_value+0x27e>
 8002798:	4b3f      	ldr	r3, [pc, #252]	@ (8002898 <set_old_value+0x344>)
 800279a:	781b      	ldrb	r3, [r3, #0]
 800279c:	b1cb      	cbz	r3, 80027d2 <set_old_value+0x27e>
 800279e:	4b3f      	ldr	r3, [pc, #252]	@ (800289c <set_old_value+0x348>)
 80027a0:	781b      	ldrb	r3, [r3, #0]
 80027a2:	b9b3      	cbnz	r3, 80027d2 <set_old_value+0x27e>
 80027a4:	4b3e      	ldr	r3, [pc, #248]	@ (80028a0 <set_old_value+0x34c>)
 80027a6:	781b      	ldrb	r3, [r3, #0]
 80027a8:	b12b      	cbz	r3, 80027b6 <set_old_value+0x262>
 80027aa:	4b3d      	ldr	r3, [pc, #244]	@ (80028a0 <set_old_value+0x34c>)
 80027ac:	785b      	ldrb	r3, [r3, #1]
 80027ae:	b913      	cbnz	r3, 80027b6 <set_old_value+0x262>
 80027b0:	4b3b      	ldr	r3, [pc, #236]	@ (80028a0 <set_old_value+0x34c>)
 80027b2:	789b      	ldrb	r3, [r3, #2]
 80027b4:	b113      	cbz	r3, 80027bc <set_old_value+0x268>
 80027b6:	4b3b      	ldr	r3, [pc, #236]	@ (80028a4 <set_old_value+0x350>)
 80027b8:	781b      	ldrb	r3, [r3, #0]
 80027ba:	b153      	cbz	r3, 80027d2 <set_old_value+0x27e>
 80027bc:	4b3a      	ldr	r3, [pc, #232]	@ (80028a8 <set_old_value+0x354>)
 80027be:	2203      	movs	r2, #3
 80027c0:	601a      	str	r2, [r3, #0]
 80027c2:	4a37      	ldr	r2, [pc, #220]	@ (80028a0 <set_old_value+0x34c>)
 80027c4:	2301      	movs	r3, #1
 80027c6:	7013      	strb	r3, [r2, #0]
 80027c8:	7053      	strb	r3, [r2, #1]
 80027ca:	2100      	movs	r1, #0
 80027cc:	7091      	strb	r1, [r2, #2]
 80027ce:	4a35      	ldr	r2, [pc, #212]	@ (80028a4 <set_old_value+0x350>)
 80027d0:	7013      	strb	r3, [r2, #0]
 80027d2:	4b30      	ldr	r3, [pc, #192]	@ (8002894 <set_old_value+0x340>)
 80027d4:	781b      	ldrb	r3, [r3, #0]
 80027d6:	b9e3      	cbnz	r3, 8002812 <set_old_value+0x2be>
 80027d8:	4b2f      	ldr	r3, [pc, #188]	@ (8002898 <set_old_value+0x344>)
 80027da:	781b      	ldrb	r3, [r3, #0]
 80027dc:	b1cb      	cbz	r3, 8002812 <set_old_value+0x2be>
 80027de:	4b2f      	ldr	r3, [pc, #188]	@ (800289c <set_old_value+0x348>)
 80027e0:	781b      	ldrb	r3, [r3, #0]
 80027e2:	b9b3      	cbnz	r3, 8002812 <set_old_value+0x2be>
 80027e4:	4b2e      	ldr	r3, [pc, #184]	@ (80028a0 <set_old_value+0x34c>)
 80027e6:	781b      	ldrb	r3, [r3, #0]
 80027e8:	b12b      	cbz	r3, 80027f6 <set_old_value+0x2a2>
 80027ea:	4b2d      	ldr	r3, [pc, #180]	@ (80028a0 <set_old_value+0x34c>)
 80027ec:	785b      	ldrb	r3, [r3, #1]
 80027ee:	b113      	cbz	r3, 80027f6 <set_old_value+0x2a2>
 80027f0:	4b2b      	ldr	r3, [pc, #172]	@ (80028a0 <set_old_value+0x34c>)
 80027f2:	789b      	ldrb	r3, [r3, #2]
 80027f4:	b113      	cbz	r3, 80027fc <set_old_value+0x2a8>
 80027f6:	4b2b      	ldr	r3, [pc, #172]	@ (80028a4 <set_old_value+0x350>)
 80027f8:	781b      	ldrb	r3, [r3, #0]
 80027fa:	b153      	cbz	r3, 8002812 <set_old_value+0x2be>
 80027fc:	4b2a      	ldr	r3, [pc, #168]	@ (80028a8 <set_old_value+0x354>)
 80027fe:	2204      	movs	r2, #4
 8002800:	601a      	str	r2, [r3, #0]
 8002802:	4b27      	ldr	r3, [pc, #156]	@ (80028a0 <set_old_value+0x34c>)
 8002804:	2100      	movs	r1, #0
 8002806:	7019      	strb	r1, [r3, #0]
 8002808:	2201      	movs	r2, #1
 800280a:	705a      	strb	r2, [r3, #1]
 800280c:	7099      	strb	r1, [r3, #2]
 800280e:	4b25      	ldr	r3, [pc, #148]	@ (80028a4 <set_old_value+0x350>)
 8002810:	701a      	strb	r2, [r3, #0]
 8002812:	4b20      	ldr	r3, [pc, #128]	@ (8002894 <set_old_value+0x340>)
 8002814:	781b      	ldrb	r3, [r3, #0]
 8002816:	b9e3      	cbnz	r3, 8002852 <set_old_value+0x2fe>
 8002818:	4b1f      	ldr	r3, [pc, #124]	@ (8002898 <set_old_value+0x344>)
 800281a:	781b      	ldrb	r3, [r3, #0]
 800281c:	b1cb      	cbz	r3, 8002852 <set_old_value+0x2fe>
 800281e:	4b1f      	ldr	r3, [pc, #124]	@ (800289c <set_old_value+0x348>)
 8002820:	781b      	ldrb	r3, [r3, #0]
 8002822:	b1b3      	cbz	r3, 8002852 <set_old_value+0x2fe>
 8002824:	4b1e      	ldr	r3, [pc, #120]	@ (80028a0 <set_old_value+0x34c>)
 8002826:	781b      	ldrb	r3, [r3, #0]
 8002828:	b92b      	cbnz	r3, 8002836 <set_old_value+0x2e2>
 800282a:	4b1d      	ldr	r3, [pc, #116]	@ (80028a0 <set_old_value+0x34c>)
 800282c:	785b      	ldrb	r3, [r3, #1]
 800282e:	b113      	cbz	r3, 8002836 <set_old_value+0x2e2>
 8002830:	4b1b      	ldr	r3, [pc, #108]	@ (80028a0 <set_old_value+0x34c>)
 8002832:	789b      	ldrb	r3, [r3, #2]
 8002834:	b113      	cbz	r3, 800283c <set_old_value+0x2e8>
 8002836:	4b1b      	ldr	r3, [pc, #108]	@ (80028a4 <set_old_value+0x350>)
 8002838:	781b      	ldrb	r3, [r3, #0]
 800283a:	b153      	cbz	r3, 8002852 <set_old_value+0x2fe>
 800283c:	4b1a      	ldr	r3, [pc, #104]	@ (80028a8 <set_old_value+0x354>)
 800283e:	2205      	movs	r2, #5
 8002840:	601a      	str	r2, [r3, #0]
 8002842:	4a17      	ldr	r2, [pc, #92]	@ (80028a0 <set_old_value+0x34c>)
 8002844:	2300      	movs	r3, #0
 8002846:	7013      	strb	r3, [r2, #0]
 8002848:	2301      	movs	r3, #1
 800284a:	7053      	strb	r3, [r2, #1]
 800284c:	7093      	strb	r3, [r2, #2]
 800284e:	4a15      	ldr	r2, [pc, #84]	@ (80028a4 <set_old_value+0x350>)
 8002850:	7013      	strb	r3, [r2, #0]
 8002852:	4b10      	ldr	r3, [pc, #64]	@ (8002894 <set_old_value+0x340>)
 8002854:	781b      	ldrb	r3, [r3, #0]
 8002856:	b9e3      	cbnz	r3, 8002892 <set_old_value+0x33e>
 8002858:	4b0f      	ldr	r3, [pc, #60]	@ (8002898 <set_old_value+0x344>)
 800285a:	781b      	ldrb	r3, [r3, #0]
 800285c:	b9cb      	cbnz	r3, 8002892 <set_old_value+0x33e>
 800285e:	4b0f      	ldr	r3, [pc, #60]	@ (800289c <set_old_value+0x348>)
 8002860:	781b      	ldrb	r3, [r3, #0]
 8002862:	b1b3      	cbz	r3, 8002892 <set_old_value+0x33e>
 8002864:	4b0e      	ldr	r3, [pc, #56]	@ (80028a0 <set_old_value+0x34c>)
 8002866:	781b      	ldrb	r3, [r3, #0]
 8002868:	b92b      	cbnz	r3, 8002876 <set_old_value+0x322>
 800286a:	4b0d      	ldr	r3, [pc, #52]	@ (80028a0 <set_old_value+0x34c>)
 800286c:	785b      	ldrb	r3, [r3, #1]
 800286e:	b113      	cbz	r3, 8002876 <set_old_value+0x322>
 8002870:	4b0b      	ldr	r3, [pc, #44]	@ (80028a0 <set_old_value+0x34c>)
 8002872:	789b      	ldrb	r3, [r3, #2]
 8002874:	b913      	cbnz	r3, 800287c <set_old_value+0x328>
 8002876:	4b0b      	ldr	r3, [pc, #44]	@ (80028a4 <set_old_value+0x350>)
 8002878:	781b      	ldrb	r3, [r3, #0]
 800287a:	b153      	cbz	r3, 8002892 <set_old_value+0x33e>
 800287c:	4b0a      	ldr	r3, [pc, #40]	@ (80028a8 <set_old_value+0x354>)
 800287e:	2206      	movs	r2, #6
 8002880:	601a      	str	r2, [r3, #0]
 8002882:	4b07      	ldr	r3, [pc, #28]	@ (80028a0 <set_old_value+0x34c>)
 8002884:	2200      	movs	r2, #0
 8002886:	701a      	strb	r2, [r3, #0]
 8002888:	705a      	strb	r2, [r3, #1]
 800288a:	2201      	movs	r2, #1
 800288c:	709a      	strb	r2, [r3, #2]
 800288e:	4b05      	ldr	r3, [pc, #20]	@ (80028a4 <set_old_value+0x350>)
 8002890:	701a      	strb	r2, [r3, #0]
 8002892:	4770      	bx	lr
 8002894:	2000063e 	.word	0x2000063e
 8002898:	2000063d 	.word	0x2000063d
 800289c:	2000063c 	.word	0x2000063c
 80028a0:	20000660 	.word	0x20000660
 80028a4:	2000005f 	.word	0x2000005f
 80028a8:	20000638 	.word	0x20000638

080028ac <get_rpm>:
 80028ac:	f1b0 3fff 	cmp.w	r0, #4294967295	@ 0xffffffff
 80028b0:	d053      	beq.n	800295a <get_rpm+0xae>
 80028b2:	492b      	ldr	r1, [pc, #172]	@ (8002960 <get_rpm+0xb4>)
 80028b4:	780a      	ldrb	r2, [r1, #0]
 80028b6:	1c53      	adds	r3, r2, #1
 80028b8:	b2db      	uxtb	r3, r3
 80028ba:	700b      	strb	r3, [r1, #0]
 80028bc:	4929      	ldr	r1, [pc, #164]	@ (8002964 <get_rpm+0xb8>)
 80028be:	f841 0022 	str.w	r0, [r1, r2, lsl #2]
 80028c2:	2b06      	cmp	r3, #6
 80028c4:	d001      	beq.n	80028ca <get_rpm+0x1e>
 80028c6:	2300      	movs	r3, #0
 80028c8:	e005      	b.n	80028d6 <get_rpm+0x2a>
 80028ca:	4b25      	ldr	r3, [pc, #148]	@ (8002960 <get_rpm+0xb4>)
 80028cc:	2200      	movs	r2, #0
 80028ce:	701a      	strb	r2, [r3, #0]
 80028d0:	e7f9      	b.n	80028c6 <get_rpm+0x1a>
 80028d2:	3301      	adds	r3, #1
 80028d4:	b2db      	uxtb	r3, r3
 80028d6:	4a24      	ldr	r2, [pc, #144]	@ (8002968 <get_rpm+0xbc>)
 80028d8:	7812      	ldrb	r2, [r2, #0]
 80028da:	429a      	cmp	r2, r3
 80028dc:	d8f9      	bhi.n	80028d2 <get_rpm+0x26>
 80028de:	2a05      	cmp	r2, #5
 80028e0:	d828      	bhi.n	8002934 <get_rpm+0x88>
 80028e2:	1c51      	adds	r1, r2, #1
 80028e4:	4b20      	ldr	r3, [pc, #128]	@ (8002968 <get_rpm+0xbc>)
 80028e6:	7019      	strb	r1, [r3, #0]
 80028e8:	4b1e      	ldr	r3, [pc, #120]	@ (8002964 <get_rpm+0xb8>)
 80028ea:	f853 2022 	ldr.w	r2, [r3, r2, lsl #2]
 80028ee:	4b1f      	ldr	r3, [pc, #124]	@ (800296c <get_rpm+0xc0>)
 80028f0:	801a      	strh	r2, [r3, #0]
 80028f2:	4b1e      	ldr	r3, [pc, #120]	@ (800296c <get_rpm+0xc0>)
 80028f4:	8818      	ldrh	r0, [r3, #0]
 80028f6:	2800      	cmp	r0, #0
 80028f8:	d030      	beq.n	800295c <get_rpm+0xb0>
 80028fa:	eb00 0040 	add.w	r0, r0, r0, lsl #1
 80028fe:	00c0      	lsls	r0, r0, #3
 8002900:	4b1b      	ldr	r3, [pc, #108]	@ (8002970 <get_rpm+0xc4>)
 8002902:	fb93 f3f0 	sdiv	r3, r3, r0
 8002906:	b298      	uxth	r0, r3
 8002908:	4b18      	ldr	r3, [pc, #96]	@ (800296c <get_rpm+0xc0>)
 800290a:	8018      	strh	r0, [r3, #0]
 800290c:	f240 53aa 	movw	r3, #1450	@ 0x5aa
 8002910:	4298      	cmp	r0, r3
 8002912:	d902      	bls.n	800291a <get_rpm+0x6e>
 8002914:	4b17      	ldr	r3, [pc, #92]	@ (8002974 <get_rpm+0xc8>)
 8002916:	2200      	movs	r2, #0
 8002918:	801a      	strh	r2, [r3, #0]
 800291a:	f5b0 7ffa 	cmp.w	r0, #500	@ 0x1f4
 800291e:	d902      	bls.n	8002926 <get_rpm+0x7a>
 8002920:	4b15      	ldr	r3, [pc, #84]	@ (8002978 <get_rpm+0xcc>)
 8002922:	2200      	movs	r2, #0
 8002924:	701a      	strb	r2, [r3, #0]
 8002926:	f5b0 7fe1 	cmp.w	r0, #450	@ 0x1c2
 800292a:	d217      	bcs.n	800295c <get_rpm+0xb0>
 800292c:	4b12      	ldr	r3, [pc, #72]	@ (8002978 <get_rpm+0xcc>)
 800292e:	2200      	movs	r2, #0
 8002930:	701a      	strb	r2, [r3, #0]
 8002932:	4770      	bx	lr
 8002934:	4a0b      	ldr	r2, [pc, #44]	@ (8002964 <get_rpm+0xb8>)
 8002936:	6813      	ldr	r3, [r2, #0]
 8002938:	6851      	ldr	r1, [r2, #4]
 800293a:	440b      	add	r3, r1
 800293c:	6891      	ldr	r1, [r2, #8]
 800293e:	440b      	add	r3, r1
 8002940:	68d1      	ldr	r1, [r2, #12]
 8002942:	440b      	add	r3, r1
 8002944:	6911      	ldr	r1, [r2, #16]
 8002946:	440b      	add	r3, r1
 8002948:	6952      	ldr	r2, [r2, #20]
 800294a:	4413      	add	r3, r2
 800294c:	4a0b      	ldr	r2, [pc, #44]	@ (800297c <get_rpm+0xd0>)
 800294e:	fba2 2303 	umull	r2, r3, r2, r3
 8002952:	089b      	lsrs	r3, r3, #2
 8002954:	4a05      	ldr	r2, [pc, #20]	@ (800296c <get_rpm+0xc0>)
 8002956:	8013      	strh	r3, [r2, #0]
 8002958:	e7cb      	b.n	80028f2 <get_rpm+0x46>
 800295a:	2000      	movs	r0, #0
 800295c:	4770      	bx	lr
 800295e:	bf00      	nop
 8002960:	2000066b 	.word	0x2000066b
 8002964:	2000066c 	.word	0x2000066c
 8002968:	2000066a 	.word	0x2000066a
 800296c:	20000668 	.word	0x20000668
 8002970:	005b8d80 	.word	0x005b8d80
 8002974:	20000050 	.word	0x20000050
 8002978:	200005c3 	.word	0x200005c3
 800297c:	aaaaaaab 	.word	0xaaaaaaab

08002980 <HAL_TIM_PeriodElapsedCallback>:
 8002980:	b510      	push	{r4, lr}
 8002982:	4604      	mov	r4, r0
 8002984:	6802      	ldr	r2, [r0, #0]
 8002986:	4b0e      	ldr	r3, [pc, #56]	@ (80029c0 <HAL_TIM_PeriodElapsedCallback+0x40>)
 8002988:	429a      	cmp	r2, r3
 800298a:	d008      	beq.n	800299e <HAL_TIM_PeriodElapsedCallback+0x1e>
 800298c:	6822      	ldr	r2, [r4, #0]
 800298e:	4b0d      	ldr	r3, [pc, #52]	@ (80029c4 <HAL_TIM_PeriodElapsedCallback+0x44>)
 8002990:	429a      	cmp	r2, r3
 8002992:	d008      	beq.n	80029a6 <HAL_TIM_PeriodElapsedCallback+0x26>
 8002994:	6822      	ldr	r2, [r4, #0]
 8002996:	4b0a      	ldr	r3, [pc, #40]	@ (80029c0 <HAL_TIM_PeriodElapsedCallback+0x40>)
 8002998:	429a      	cmp	r2, r3
 800299a:	d00c      	beq.n	80029b6 <HAL_TIM_PeriodElapsedCallback+0x36>
 800299c:	bd10      	pop	{r4, pc}
 800299e:	4b0a      	ldr	r3, [pc, #40]	@ (80029c8 <HAL_TIM_PeriodElapsedCallback+0x48>)
 80029a0:	2200      	movs	r2, #0
 80029a2:	601a      	str	r2, [r3, #0]
 80029a4:	e7f2      	b.n	800298c <HAL_TIM_PeriodElapsedCallback+0xc>
 80029a6:	4b09      	ldr	r3, [pc, #36]	@ (80029cc <HAL_TIM_PeriodElapsedCallback+0x4c>)
 80029a8:	781b      	ldrb	r3, [r3, #0]
 80029aa:	2b00      	cmp	r3, #0
 80029ac:	d0f2      	beq.n	8002994 <HAL_TIM_PeriodElapsedCallback+0x14>
 80029ae:	4808      	ldr	r0, [pc, #32]	@ (80029d0 <HAL_TIM_PeriodElapsedCallback+0x50>)
 80029b0:	f002 faf8 	bl	8004fa4 <HAL_TIM_Base_Stop_IT>
 80029b4:	e7ee      	b.n	8002994 <HAL_TIM_PeriodElapsedCallback+0x14>
 80029b6:	4a07      	ldr	r2, [pc, #28]	@ (80029d4 <HAL_TIM_PeriodElapsedCallback+0x54>)
 80029b8:	6813      	ldr	r3, [r2, #0]
 80029ba:	3301      	adds	r3, #1
 80029bc:	6013      	str	r3, [r2, #0]
 80029be:	e7ed      	b.n	800299c <HAL_TIM_PeriodElapsedCallback+0x1c>
 80029c0:	40000800 	.word	0x40000800
 80029c4:	40000400 	.word	0x40000400
 80029c8:	20000620 	.word	0x20000620
 80029cc:	200005c3 	.word	0x200005c3
 80029d0:	200006d4 	.word	0x200006d4
 80029d4:	20000664 	.word	0x20000664

080029d8 <execute_step>:
 80029d8:	b508      	push	{r3, lr}
 80029da:	4b37      	ldr	r3, [pc, #220]	@ (8002ab8 <execute_step+0xe0>)
 80029dc:	781b      	ldrb	r3, [r3, #0]
 80029de:	b1b3      	cbz	r3, 8002a0e <execute_step+0x36>
 80029e0:	3801      	subs	r0, #1
 80029e2:	2805      	cmp	r0, #5
 80029e4:	d813      	bhi.n	8002a0e <execute_step+0x36>
 80029e6:	e8df f000 	tbb	[pc, r0]
 80029ea:	1303      	.short	0x1303
 80029ec:	56453524 	.word	0x56453524
 80029f0:	4b32      	ldr	r3, [pc, #200]	@ (8002abc <execute_step+0xe4>)
 80029f2:	681b      	ldr	r3, [r3, #0]
 80029f4:	2200      	movs	r2, #0
 80029f6:	63da      	str	r2, [r3, #60]	@ 0x3c
 80029f8:	639a      	str	r2, [r3, #56]	@ 0x38
 80029fa:	4a31      	ldr	r2, [pc, #196]	@ (8002ac0 <execute_step+0xe8>)
 80029fc:	21c5      	movs	r1, #197	@ 0xc5
 80029fe:	6211      	str	r1, [r2, #32]
 8002a00:	4a30      	ldr	r2, [pc, #192]	@ (8002ac4 <execute_step+0xec>)
 8002a02:	6812      	ldr	r2, [r2, #0]
 8002a04:	635a      	str	r2, [r3, #52]	@ 0x34
 8002a06:	f000 f8a5 	bl	8002b54 <HAL_GetTick>
 8002a0a:	4b2f      	ldr	r3, [pc, #188]	@ (8002ac8 <execute_step+0xf0>)
 8002a0c:	6018      	str	r0, [r3, #0]
 8002a0e:	bd08      	pop	{r3, pc}
 8002a10:	4b2a      	ldr	r3, [pc, #168]	@ (8002abc <execute_step+0xe4>)
 8002a12:	681b      	ldr	r3, [r3, #0]
 8002a14:	2200      	movs	r2, #0
 8002a16:	63da      	str	r2, [r3, #60]	@ 0x3c
 8002a18:	639a      	str	r2, [r3, #56]	@ 0x38
 8002a1a:	4a29      	ldr	r2, [pc, #164]	@ (8002ac0 <execute_step+0xe8>)
 8002a1c:	f640 4105 	movw	r1, #3077	@ 0xc05
 8002a20:	6211      	str	r1, [r2, #32]
 8002a22:	4a28      	ldr	r2, [pc, #160]	@ (8002ac4 <execute_step+0xec>)
 8002a24:	6812      	ldr	r2, [r2, #0]
 8002a26:	635a      	str	r2, [r3, #52]	@ 0x34
 8002a28:	f000 f894 	bl	8002b54 <HAL_GetTick>
 8002a2c:	4b26      	ldr	r3, [pc, #152]	@ (8002ac8 <execute_step+0xf0>)
 8002a2e:	6018      	str	r0, [r3, #0]
 8002a30:	e7ed      	b.n	8002a0e <execute_step+0x36>
 8002a32:	4b22      	ldr	r3, [pc, #136]	@ (8002abc <execute_step+0xe4>)
 8002a34:	681b      	ldr	r3, [r3, #0]
 8002a36:	2200      	movs	r2, #0
 8002a38:	635a      	str	r2, [r3, #52]	@ 0x34
 8002a3a:	63da      	str	r2, [r3, #60]	@ 0x3c
 8002a3c:	4a20      	ldr	r2, [pc, #128]	@ (8002ac0 <execute_step+0xe8>)
 8002a3e:	f44f 6145 	mov.w	r1, #3152	@ 0xc50
 8002a42:	6211      	str	r1, [r2, #32]
 8002a44:	4a1f      	ldr	r2, [pc, #124]	@ (8002ac4 <execute_step+0xec>)
 8002a46:	6812      	ldr	r2, [r2, #0]
 8002a48:	639a      	str	r2, [r3, #56]	@ 0x38
 8002a4a:	f000 f883 	bl	8002b54 <HAL_GetTick>
 8002a4e:	4b1e      	ldr	r3, [pc, #120]	@ (8002ac8 <execute_step+0xf0>)
 8002a50:	6018      	str	r0, [r3, #0]
 8002a52:	e7dc      	b.n	8002a0e <execute_step+0x36>
 8002a54:	4b19      	ldr	r3, [pc, #100]	@ (8002abc <execute_step+0xe4>)
 8002a56:	681b      	ldr	r3, [r3, #0]
 8002a58:	2200      	movs	r2, #0
 8002a5a:	635a      	str	r2, [r3, #52]	@ 0x34
 8002a5c:	63da      	str	r2, [r3, #60]	@ 0x3c
 8002a5e:	4a18      	ldr	r2, [pc, #96]	@ (8002ac0 <execute_step+0xe8>)
 8002a60:	215c      	movs	r1, #92	@ 0x5c
 8002a62:	6211      	str	r1, [r2, #32]
 8002a64:	4a17      	ldr	r2, [pc, #92]	@ (8002ac4 <execute_step+0xec>)
 8002a66:	6812      	ldr	r2, [r2, #0]
 8002a68:	639a      	str	r2, [r3, #56]	@ 0x38
 8002a6a:	f000 f873 	bl	8002b54 <HAL_GetTick>
 8002a6e:	4b16      	ldr	r3, [pc, #88]	@ (8002ac8 <execute_step+0xf0>)
 8002a70:	6018      	str	r0, [r3, #0]
 8002a72:	e7cc      	b.n	8002a0e <execute_step+0x36>
 8002a74:	4b11      	ldr	r3, [pc, #68]	@ (8002abc <execute_step+0xe4>)
 8002a76:	681b      	ldr	r3, [r3, #0]
 8002a78:	2200      	movs	r2, #0
 8002a7a:	635a      	str	r2, [r3, #52]	@ 0x34
 8002a7c:	639a      	str	r2, [r3, #56]	@ 0x38
 8002a7e:	4a10      	ldr	r2, [pc, #64]	@ (8002ac0 <execute_step+0xe8>)
 8002a80:	f240 510c 	movw	r1, #1292	@ 0x50c
 8002a84:	6211      	str	r1, [r2, #32]
 8002a86:	4a0f      	ldr	r2, [pc, #60]	@ (8002ac4 <execute_step+0xec>)
 8002a88:	6812      	ldr	r2, [r2, #0]
 8002a8a:	63da      	str	r2, [r3, #60]	@ 0x3c
 8002a8c:	f000 f862 	bl	8002b54 <HAL_GetTick>
 8002a90:	4b0d      	ldr	r3, [pc, #52]	@ (8002ac8 <execute_step+0xf0>)
 8002a92:	6018      	str	r0, [r3, #0]
 8002a94:	e7bb      	b.n	8002a0e <execute_step+0x36>
 8002a96:	4b09      	ldr	r3, [pc, #36]	@ (8002abc <execute_step+0xe4>)
 8002a98:	681b      	ldr	r3, [r3, #0]
 8002a9a:	2200      	movs	r2, #0
 8002a9c:	635a      	str	r2, [r3, #52]	@ 0x34
 8002a9e:	639a      	str	r2, [r3, #56]	@ 0x38
 8002aa0:	4a07      	ldr	r2, [pc, #28]	@ (8002ac0 <execute_step+0xe8>)
 8002aa2:	f44f 61b8 	mov.w	r1, #1472	@ 0x5c0
 8002aa6:	6211      	str	r1, [r2, #32]
 8002aa8:	4a06      	ldr	r2, [pc, #24]	@ (8002ac4 <execute_step+0xec>)
 8002aaa:	6812      	ldr	r2, [r2, #0]
 8002aac:	63da      	str	r2, [r3, #60]	@ 0x3c
 8002aae:	f000 f851 	bl	8002b54 <HAL_GetTick>
 8002ab2:	4b05      	ldr	r3, [pc, #20]	@ (8002ac8 <execute_step+0xf0>)
 8002ab4:	6018      	str	r0, [r3, #0]
 8002ab6:	e7aa      	b.n	8002a0e <execute_step+0x36>
 8002ab8:	2000063f 	.word	0x2000063f
 8002abc:	20000764 	.word	0x20000764
 8002ac0:	40012c00 	.word	0x40012c00
 8002ac4:	20000634 	.word	0x20000634
 8002ac8:	20000630 	.word	0x20000630

08002acc <HAL_InitTick>:
 8002acc:	b510      	push	{r4, lr}
 8002ace:	4604      	mov	r4, r0
 8002ad0:	4b0e      	ldr	r3, [pc, #56]	@ (8002b0c <HAL_InitTick+0x40>)
 8002ad2:	781a      	ldrb	r2, [r3, #0]
 8002ad4:	f44f 737a 	mov.w	r3, #1000	@ 0x3e8
 8002ad8:	fbb3 f3f2 	udiv	r3, r3, r2
 8002adc:	4a0c      	ldr	r2, [pc, #48]	@ (8002b10 <HAL_InitTick+0x44>)
 8002ade:	6810      	ldr	r0, [r2, #0]
 8002ae0:	fbb0 f0f3 	udiv	r0, r0, r3
 8002ae4:	f000 fb1e 	bl	8003124 <HAL_SYSTICK_Config>
 8002ae8:	b968      	cbnz	r0, 8002b06 <HAL_InitTick+0x3a>
 8002aea:	2c0f      	cmp	r4, #15
 8002aec:	d901      	bls.n	8002af2 <HAL_InitTick+0x26>
 8002aee:	2001      	movs	r0, #1
 8002af0:	e00a      	b.n	8002b08 <HAL_InitTick+0x3c>
 8002af2:	2200      	movs	r2, #0
 8002af4:	4621      	mov	r1, r4
 8002af6:	f04f 30ff 	mov.w	r0, #4294967295	@ 0xffffffff
 8002afa:	f000 faf5 	bl	80030e8 <HAL_NVIC_SetPriority>
 8002afe:	4b05      	ldr	r3, [pc, #20]	@ (8002b14 <HAL_InitTick+0x48>)
 8002b00:	601c      	str	r4, [r3, #0]
 8002b02:	2000      	movs	r0, #0
 8002b04:	e000      	b.n	8002b08 <HAL_InitTick+0x3c>
 8002b06:	2001      	movs	r0, #1
 8002b08:	bd10      	pop	{r4, pc}
 8002b0a:	bf00      	nop
 8002b0c:	20000062 	.word	0x20000062
 8002b10:	20000068 	.word	0x20000068
 8002b14:	20000064 	.word	0x20000064

08002b18 <HAL_Init>:
 8002b18:	b508      	push	{r3, lr}
 8002b1a:	4a07      	ldr	r2, [pc, #28]	@ (8002b38 <HAL_Init+0x20>)
 8002b1c:	6813      	ldr	r3, [r2, #0]
 8002b1e:	f043 0310 	orr.w	r3, r3, #16
 8002b22:	6013      	str	r3, [r2, #0]
 8002b24:	2003      	movs	r0, #3
 8002b26:	f000 facd 	bl	80030c4 <HAL_NVIC_SetPriorityGrouping>
 8002b2a:	200f      	movs	r0, #15
 8002b2c:	f7ff ffce 	bl	8002acc <HAL_InitTick>
 8002b30:	f000 fd5e 	bl	80035f0 <HAL_MspInit>
 8002b34:	2000      	movs	r0, #0
 8002b36:	bd08      	pop	{r3, pc}
 8002b38:	40022000 	.word	0x40022000

08002b3c <HAL_IncTick>:
 8002b3c:	4a03      	ldr	r2, [pc, #12]	@ (8002b4c <HAL_IncTick+0x10>)
 8002b3e:	6811      	ldr	r1, [r2, #0]
 8002b40:	4b03      	ldr	r3, [pc, #12]	@ (8002b50 <HAL_IncTick+0x14>)
 8002b42:	781b      	ldrb	r3, [r3, #0]
 8002b44:	440b      	add	r3, r1
 8002b46:	6013      	str	r3, [r2, #0]
 8002b48:	4770      	bx	lr
 8002b4a:	bf00      	nop
 8002b4c:	20000684 	.word	0x20000684
 8002b50:	20000062 	.word	0x20000062

08002b54 <HAL_GetTick>:
 8002b54:	4b01      	ldr	r3, [pc, #4]	@ (8002b5c <HAL_GetTick+0x8>)
 8002b56:	6818      	ldr	r0, [r3, #0]
 8002b58:	4770      	bx	lr
 8002b5a:	bf00      	nop
 8002b5c:	20000684 	.word	0x20000684

08002b60 <HAL_Delay>:
 8002b60:	b538      	push	{r3, r4, r5, lr}
 8002b62:	4604      	mov	r4, r0
 8002b64:	f7ff fff6 	bl	8002b54 <HAL_GetTick>
 8002b68:	4605      	mov	r5, r0
 8002b6a:	f1b4 3fff 	cmp.w	r4, #4294967295	@ 0xffffffff
 8002b6e:	d002      	beq.n	8002b76 <HAL_Delay+0x16>
 8002b70:	4b04      	ldr	r3, [pc, #16]	@ (8002b84 <HAL_Delay+0x24>)
 8002b72:	781b      	ldrb	r3, [r3, #0]
 8002b74:	441c      	add	r4, r3
 8002b76:	f7ff ffed 	bl	8002b54 <HAL_GetTick>
 8002b7a:	1b40      	subs	r0, r0, r5
 8002b7c:	42a0      	cmp	r0, r4
 8002b7e:	d3fa      	bcc.n	8002b76 <HAL_Delay+0x16>
 8002b80:	bd38      	pop	{r3, r4, r5, pc}
 8002b82:	bf00      	nop
 8002b84:	20000062 	.word	0x20000062

08002b88 <ADC_DMAConvCplt>:
 8002b88:	b508      	push	{r3, lr}
 8002b8a:	6a43      	ldr	r3, [r0, #36]	@ 0x24
 8002b8c:	6a9a      	ldr	r2, [r3, #40]	@ 0x28
 8002b8e:	f012 0f50 	tst.w	r2, #80	@ 0x50
 8002b92:	d11e      	bne.n	8002bd2 <ADC_DMAConvCplt+0x4a>
 8002b94:	6a9a      	ldr	r2, [r3, #40]	@ 0x28
 8002b96:	f442 7200 	orr.w	r2, r2, #512	@ 0x200
 8002b9a:	629a      	str	r2, [r3, #40]	@ 0x28
 8002b9c:	681a      	ldr	r2, [r3, #0]
 8002b9e:	6892      	ldr	r2, [r2, #8]
 8002ba0:	f402 2260 	and.w	r2, r2, #917504	@ 0xe0000
 8002ba4:	f5b2 2f60 	cmp.w	r2, #917504	@ 0xe0000
 8002ba8:	d003      	beq.n	8002bb2 <ADC_DMAConvCplt+0x2a>
 8002baa:	4618      	mov	r0, r3
 8002bac:	f7ff f9bc 	bl	8001f28 <HAL_ADC_ConvCpltCallback>
 8002bb0:	bd08      	pop	{r3, pc}
 8002bb2:	7b1a      	ldrb	r2, [r3, #12]
 8002bb4:	2a00      	cmp	r2, #0
 8002bb6:	d1f8      	bne.n	8002baa <ADC_DMAConvCplt+0x22>
 8002bb8:	6a9a      	ldr	r2, [r3, #40]	@ 0x28
 8002bba:	f422 7280 	bic.w	r2, r2, #256	@ 0x100
 8002bbe:	629a      	str	r2, [r3, #40]	@ 0x28
 8002bc0:	6a9a      	ldr	r2, [r3, #40]	@ 0x28
 8002bc2:	f412 5f80 	tst.w	r2, #4096	@ 0x1000
 8002bc6:	d1f0      	bne.n	8002baa <ADC_DMAConvCplt+0x22>
 8002bc8:	6a9a      	ldr	r2, [r3, #40]	@ 0x28
 8002bca:	f042 0201 	orr.w	r2, r2, #1
 8002bce:	629a      	str	r2, [r3, #40]	@ 0x28
 8002bd0:	e7eb      	b.n	8002baa <ADC_DMAConvCplt+0x22>
 8002bd2:	6a1b      	ldr	r3, [r3, #32]
 8002bd4:	6b1b      	ldr	r3, [r3, #48]	@ 0x30
 8002bd6:	4798      	blx	r3
 8002bd8:	e7ea      	b.n	8002bb0 <ADC_DMAConvCplt+0x28>

08002bda <HAL_ADC_ConvHalfCpltCallback>:
 8002bda:	4770      	bx	lr

08002bdc <ADC_DMAHalfConvCplt>:
 8002bdc:	b508      	push	{r3, lr}
 8002bde:	6a40      	ldr	r0, [r0, #36]	@ 0x24
 8002be0:	f7ff fffb 	bl	8002bda <HAL_ADC_ConvHalfCpltCallback>
 8002be4:	bd08      	pop	{r3, pc}

08002be6 <HAL_ADC_ErrorCallback>:
 8002be6:	4770      	bx	lr

08002be8 <ADC_DMAError>:
 8002be8:	b508      	push	{r3, lr}
 8002bea:	6a40      	ldr	r0, [r0, #36]	@ 0x24
 8002bec:	6a83      	ldr	r3, [r0, #40]	@ 0x28
 8002bee:	f043 0340 	orr.w	r3, r3, #64	@ 0x40
 8002bf2:	6283      	str	r3, [r0, #40]	@ 0x28
 8002bf4:	6ac3      	ldr	r3, [r0, #44]	@ 0x2c
 8002bf6:	f043 0304 	orr.w	r3, r3, #4
 8002bfa:	62c3      	str	r3, [r0, #44]	@ 0x2c
 8002bfc:	f7ff fff3 	bl	8002be6 <HAL_ADC_ErrorCallback>
 8002c00:	bd08      	pop	{r3, pc}
	...

08002c04 <HAL_ADC_ConfigChannel>:
 8002c04:	b430      	push	{r4, r5}
 8002c06:	b082      	sub	sp, #8
 8002c08:	2200      	movs	r2, #0
 8002c0a:	9201      	str	r2, [sp, #4]
 8002c0c:	f890 2024 	ldrb.w	r2, [r0, #36]	@ 0x24
 8002c10:	2a01      	cmp	r2, #1
 8002c12:	f000 808f 	beq.w	8002d34 <HAL_ADC_ConfigChannel+0x130>
 8002c16:	4603      	mov	r3, r0
 8002c18:	2201      	movs	r2, #1
 8002c1a:	f880 2024 	strb.w	r2, [r0, #36]	@ 0x24
 8002c1e:	684a      	ldr	r2, [r1, #4]
 8002c20:	2a06      	cmp	r2, #6
 8002c22:	d82d      	bhi.n	8002c80 <HAL_ADC_ConfigChannel+0x7c>
 8002c24:	6804      	ldr	r4, [r0, #0]
 8002c26:	6b60      	ldr	r0, [r4, #52]	@ 0x34
 8002c28:	eb02 0282 	add.w	r2, r2, r2, lsl #2
 8002c2c:	3a05      	subs	r2, #5
 8002c2e:	f04f 0c1f 	mov.w	ip, #31
 8002c32:	fa0c fc02 	lsl.w	ip, ip, r2
 8002c36:	ea20 000c 	bic.w	r0, r0, ip
 8002c3a:	680d      	ldr	r5, [r1, #0]
 8002c3c:	fa05 f202 	lsl.w	r2, r5, r2
 8002c40:	4302      	orrs	r2, r0
 8002c42:	6362      	str	r2, [r4, #52]	@ 0x34
 8002c44:	680a      	ldr	r2, [r1, #0]
 8002c46:	2a09      	cmp	r2, #9
 8002c48:	d938      	bls.n	8002cbc <HAL_ADC_ConfigChannel+0xb8>
 8002c4a:	681c      	ldr	r4, [r3, #0]
 8002c4c:	68e0      	ldr	r0, [r4, #12]
 8002c4e:	eb02 0242 	add.w	r2, r2, r2, lsl #1
 8002c52:	3a1e      	subs	r2, #30
 8002c54:	f04f 0c07 	mov.w	ip, #7
 8002c58:	fa0c fc02 	lsl.w	ip, ip, r2
 8002c5c:	ea20 000c 	bic.w	r0, r0, ip
 8002c60:	688d      	ldr	r5, [r1, #8]
 8002c62:	fa05 f202 	lsl.w	r2, r5, r2
 8002c66:	4302      	orrs	r2, r0
 8002c68:	60e2      	str	r2, [r4, #12]
 8002c6a:	680a      	ldr	r2, [r1, #0]
 8002c6c:	3a10      	subs	r2, #16
 8002c6e:	2a01      	cmp	r2, #1
 8002c70:	d934      	bls.n	8002cdc <HAL_ADC_ConfigChannel+0xd8>
 8002c72:	2000      	movs	r0, #0
 8002c74:	2200      	movs	r2, #0
 8002c76:	f883 2024 	strb.w	r2, [r3, #36]	@ 0x24
 8002c7a:	b002      	add	sp, #8
 8002c7c:	bc30      	pop	{r4, r5}
 8002c7e:	4770      	bx	lr
 8002c80:	2a0c      	cmp	r2, #12
 8002c82:	d80d      	bhi.n	8002ca0 <HAL_ADC_ConfigChannel+0x9c>
 8002c84:	6805      	ldr	r5, [r0, #0]
 8002c86:	6b28      	ldr	r0, [r5, #48]	@ 0x30
 8002c88:	eb02 0282 	add.w	r2, r2, r2, lsl #2
 8002c8c:	3a23      	subs	r2, #35	@ 0x23
 8002c8e:	241f      	movs	r4, #31
 8002c90:	4094      	lsls	r4, r2
 8002c92:	ea20 0004 	bic.w	r0, r0, r4
 8002c96:	680c      	ldr	r4, [r1, #0]
 8002c98:	4094      	lsls	r4, r2
 8002c9a:	4320      	orrs	r0, r4
 8002c9c:	6328      	str	r0, [r5, #48]	@ 0x30
 8002c9e:	e7d1      	b.n	8002c44 <HAL_ADC_ConfigChannel+0x40>
 8002ca0:	6805      	ldr	r5, [r0, #0]
 8002ca2:	6ae8      	ldr	r0, [r5, #44]	@ 0x2c
 8002ca4:	eb02 0282 	add.w	r2, r2, r2, lsl #2
 8002ca8:	3a41      	subs	r2, #65	@ 0x41
 8002caa:	241f      	movs	r4, #31
 8002cac:	4094      	lsls	r4, r2
 8002cae:	ea20 0004 	bic.w	r0, r0, r4
 8002cb2:	680c      	ldr	r4, [r1, #0]
 8002cb4:	4094      	lsls	r4, r2
 8002cb6:	4320      	orrs	r0, r4
 8002cb8:	62e8      	str	r0, [r5, #44]	@ 0x2c
 8002cba:	e7c3      	b.n	8002c44 <HAL_ADC_ConfigChannel+0x40>
 8002cbc:	681c      	ldr	r4, [r3, #0]
 8002cbe:	6920      	ldr	r0, [r4, #16]
 8002cc0:	eb02 0242 	add.w	r2, r2, r2, lsl #1
 8002cc4:	f04f 0c07 	mov.w	ip, #7
 8002cc8:	fa0c fc02 	lsl.w	ip, ip, r2
 8002ccc:	ea20 000c 	bic.w	r0, r0, ip
 8002cd0:	688d      	ldr	r5, [r1, #8]
 8002cd2:	fa05 f202 	lsl.w	r2, r5, r2
 8002cd6:	4302      	orrs	r2, r0
 8002cd8:	6122      	str	r2, [r4, #16]
 8002cda:	e7c6      	b.n	8002c6a <HAL_ADC_ConfigChannel+0x66>
 8002cdc:	681a      	ldr	r2, [r3, #0]
 8002cde:	4816      	ldr	r0, [pc, #88]	@ (8002d38 <HAL_ADC_ConfigChannel+0x134>)
 8002ce0:	4282      	cmp	r2, r0
 8002ce2:	d005      	beq.n	8002cf0 <HAL_ADC_ConfigChannel+0xec>
 8002ce4:	6a9a      	ldr	r2, [r3, #40]	@ 0x28
 8002ce6:	f042 0220 	orr.w	r2, r2, #32
 8002cea:	629a      	str	r2, [r3, #40]	@ 0x28
 8002cec:	2001      	movs	r0, #1
 8002cee:	e7c1      	b.n	8002c74 <HAL_ADC_ConfigChannel+0x70>
 8002cf0:	6890      	ldr	r0, [r2, #8]
 8002cf2:	f410 0f00 	tst.w	r0, #8388608	@ 0x800000
 8002cf6:	d11b      	bne.n	8002d30 <HAL_ADC_ConfigChannel+0x12c>
 8002cf8:	6890      	ldr	r0, [r2, #8]
 8002cfa:	f440 0000 	orr.w	r0, r0, #8388608	@ 0x800000
 8002cfe:	6090      	str	r0, [r2, #8]
 8002d00:	680a      	ldr	r2, [r1, #0]
 8002d02:	2a10      	cmp	r2, #16
 8002d04:	d001      	beq.n	8002d0a <HAL_ADC_ConfigChannel+0x106>
 8002d06:	2000      	movs	r0, #0
 8002d08:	e7b4      	b.n	8002c74 <HAL_ADC_ConfigChannel+0x70>
 8002d0a:	4a0c      	ldr	r2, [pc, #48]	@ (8002d3c <HAL_ADC_ConfigChannel+0x138>)
 8002d0c:	6812      	ldr	r2, [r2, #0]
 8002d0e:	490c      	ldr	r1, [pc, #48]	@ (8002d40 <HAL_ADC_ConfigChannel+0x13c>)
 8002d10:	fba1 1202 	umull	r1, r2, r1, r2
 8002d14:	0c92      	lsrs	r2, r2, #18
 8002d16:	eb02 0282 	add.w	r2, r2, r2, lsl #2
 8002d1a:	0052      	lsls	r2, r2, #1
 8002d1c:	9201      	str	r2, [sp, #4]
 8002d1e:	e002      	b.n	8002d26 <HAL_ADC_ConfigChannel+0x122>
 8002d20:	9a01      	ldr	r2, [sp, #4]
 8002d22:	3a01      	subs	r2, #1
 8002d24:	9201      	str	r2, [sp, #4]
 8002d26:	9a01      	ldr	r2, [sp, #4]
 8002d28:	2a00      	cmp	r2, #0
 8002d2a:	d1f9      	bne.n	8002d20 <HAL_ADC_ConfigChannel+0x11c>
 8002d2c:	2000      	movs	r0, #0
 8002d2e:	e7a1      	b.n	8002c74 <HAL_ADC_ConfigChannel+0x70>
 8002d30:	2000      	movs	r0, #0
 8002d32:	e79f      	b.n	8002c74 <HAL_ADC_ConfigChannel+0x70>
 8002d34:	2002      	movs	r0, #2
 8002d36:	e7a0      	b.n	8002c7a <HAL_ADC_ConfigChannel+0x76>
 8002d38:	40012400 	.word	0x40012400
 8002d3c:	20000068 	.word	0x20000068
 8002d40:	431bde83 	.word	0x431bde83

08002d44 <ADC_Enable>:
 8002d44:	b530      	push	{r4, r5, lr}
 8002d46:	b083      	sub	sp, #12
 8002d48:	2300      	movs	r3, #0
 8002d4a:	9301      	str	r3, [sp, #4]
 8002d4c:	6803      	ldr	r3, [r0, #0]
 8002d4e:	689a      	ldr	r2, [r3, #8]
 8002d50:	f012 0f01 	tst.w	r2, #1
 8002d54:	d133      	bne.n	8002dbe <ADC_Enable+0x7a>
 8002d56:	4604      	mov	r4, r0
 8002d58:	689a      	ldr	r2, [r3, #8]
 8002d5a:	f042 0201 	orr.w	r2, r2, #1
 8002d5e:	609a      	str	r2, [r3, #8]
 8002d60:	4b18      	ldr	r3, [pc, #96]	@ (8002dc4 <ADC_Enable+0x80>)
 8002d62:	681b      	ldr	r3, [r3, #0]
 8002d64:	4a18      	ldr	r2, [pc, #96]	@ (8002dc8 <ADC_Enable+0x84>)
 8002d66:	fba2 2303 	umull	r2, r3, r2, r3
 8002d6a:	0c9b      	lsrs	r3, r3, #18
 8002d6c:	9301      	str	r3, [sp, #4]
 8002d6e:	e002      	b.n	8002d76 <ADC_Enable+0x32>
 8002d70:	9b01      	ldr	r3, [sp, #4]
 8002d72:	3b01      	subs	r3, #1
 8002d74:	9301      	str	r3, [sp, #4]
 8002d76:	9b01      	ldr	r3, [sp, #4]
 8002d78:	2b00      	cmp	r3, #0
 8002d7a:	d1f9      	bne.n	8002d70 <ADC_Enable+0x2c>
 8002d7c:	f7ff feea 	bl	8002b54 <HAL_GetTick>
 8002d80:	4605      	mov	r5, r0
 8002d82:	6823      	ldr	r3, [r4, #0]
 8002d84:	689b      	ldr	r3, [r3, #8]
 8002d86:	f013 0f01 	tst.w	r3, #1
 8002d8a:	d116      	bne.n	8002dba <ADC_Enable+0x76>
 8002d8c:	f7ff fee2 	bl	8002b54 <HAL_GetTick>
 8002d90:	1b43      	subs	r3, r0, r5
 8002d92:	2b02      	cmp	r3, #2
 8002d94:	d9f5      	bls.n	8002d82 <ADC_Enable+0x3e>
 8002d96:	6823      	ldr	r3, [r4, #0]
 8002d98:	689b      	ldr	r3, [r3, #8]
 8002d9a:	f013 0f01 	tst.w	r3, #1
 8002d9e:	d1f0      	bne.n	8002d82 <ADC_Enable+0x3e>
 8002da0:	6aa3      	ldr	r3, [r4, #40]	@ 0x28
 8002da2:	f043 0310 	orr.w	r3, r3, #16
 8002da6:	62a3      	str	r3, [r4, #40]	@ 0x28
 8002da8:	6ae3      	ldr	r3, [r4, #44]	@ 0x2c
 8002daa:	f043 0301 	orr.w	r3, r3, #1
 8002dae:	62e3      	str	r3, [r4, #44]	@ 0x2c
 8002db0:	2300      	movs	r3, #0
 8002db2:	f884 3024 	strb.w	r3, [r4, #36]	@ 0x24
 8002db6:	2001      	movs	r0, #1
 8002db8:	e002      	b.n	8002dc0 <ADC_Enable+0x7c>
 8002dba:	2000      	movs	r0, #0
 8002dbc:	e000      	b.n	8002dc0 <ADC_Enable+0x7c>
 8002dbe:	2000      	movs	r0, #0
 8002dc0:	b003      	add	sp, #12
 8002dc2:	bd30      	pop	{r4, r5, pc}
 8002dc4:	20000068 	.word	0x20000068
 8002dc8:	431bde83 	.word	0x431bde83

08002dcc <HAL_ADC_Start_DMA>:
 8002dcc:	b5f8      	push	{r3, r4, r5, r6, r7, lr}
 8002dce:	4604      	mov	r4, r0
 8002dd0:	460d      	mov	r5, r1
 8002dd2:	4616      	mov	r6, r2
 8002dd4:	6801      	ldr	r1, [r0, #0]
 8002dd6:	4844      	ldr	r0, [pc, #272]	@ (8002ee8 <HAL_ADC_Start_DMA+0x11c>)
 8002dd8:	4281      	cmp	r1, r0
 8002dda:	d059      	beq.n	8002e90 <HAL_ADC_Start_DMA+0xc4>
 8002ddc:	4b43      	ldr	r3, [pc, #268]	@ (8002eec <HAL_ADC_Start_DMA+0x120>)
 8002dde:	4299      	cmp	r1, r3
 8002de0:	d056      	beq.n	8002e90 <HAL_ADC_Start_DMA+0xc4>
 8002de2:	f894 3024 	ldrb.w	r3, [r4, #36]	@ 0x24
 8002de6:	2b01      	cmp	r3, #1
 8002de8:	d07c      	beq.n	8002ee4 <HAL_ADC_Start_DMA+0x118>
 8002dea:	2301      	movs	r3, #1
 8002dec:	f884 3024 	strb.w	r3, [r4, #36]	@ 0x24
 8002df0:	4620      	mov	r0, r4
 8002df2:	f7ff ffa7 	bl	8002d44 <ADC_Enable>
 8002df6:	4607      	mov	r7, r0
 8002df8:	2800      	cmp	r0, #0
 8002dfa:	d16e      	bne.n	8002eda <HAL_ADC_Start_DMA+0x10e>
 8002dfc:	6aa1      	ldr	r1, [r4, #40]	@ 0x28
 8002dfe:	f421 6170 	bic.w	r1, r1, #3840	@ 0xf00
 8002e02:	f021 0101 	bic.w	r1, r1, #1
 8002e06:	f441 7180 	orr.w	r1, r1, #256	@ 0x100
 8002e0a:	62a1      	str	r1, [r4, #40]	@ 0x28
 8002e0c:	6822      	ldr	r2, [r4, #0]
 8002e0e:	4b37      	ldr	r3, [pc, #220]	@ (8002eec <HAL_ADC_Start_DMA+0x120>)
 8002e10:	429a      	cmp	r2, r3
 8002e12:	d044      	beq.n	8002e9e <HAL_ADC_Start_DMA+0xd2>
 8002e14:	6aa3      	ldr	r3, [r4, #40]	@ 0x28
 8002e16:	f423 1380 	bic.w	r3, r3, #1048576	@ 0x100000
 8002e1a:	62a3      	str	r3, [r4, #40]	@ 0x28
 8002e1c:	6853      	ldr	r3, [r2, #4]
 8002e1e:	f413 6f80 	tst.w	r3, #1024	@ 0x400
 8002e22:	d005      	beq.n	8002e30 <HAL_ADC_Start_DMA+0x64>
 8002e24:	6aa3      	ldr	r3, [r4, #40]	@ 0x28
 8002e26:	f423 5340 	bic.w	r3, r3, #12288	@ 0x3000
 8002e2a:	f443 5380 	orr.w	r3, r3, #4096	@ 0x1000
 8002e2e:	62a3      	str	r3, [r4, #40]	@ 0x28
 8002e30:	6aa3      	ldr	r3, [r4, #40]	@ 0x28
 8002e32:	f413 5f80 	tst.w	r3, #4096	@ 0x1000
 8002e36:	d048      	beq.n	8002eca <HAL_ADC_Start_DMA+0xfe>
 8002e38:	6ae3      	ldr	r3, [r4, #44]	@ 0x2c
 8002e3a:	f023 0306 	bic.w	r3, r3, #6
 8002e3e:	62e3      	str	r3, [r4, #44]	@ 0x2c
 8002e40:	2300      	movs	r3, #0
 8002e42:	f884 3024 	strb.w	r3, [r4, #36]	@ 0x24
 8002e46:	6a23      	ldr	r3, [r4, #32]
 8002e48:	4a29      	ldr	r2, [pc, #164]	@ (8002ef0 <HAL_ADC_Start_DMA+0x124>)
 8002e4a:	629a      	str	r2, [r3, #40]	@ 0x28
 8002e4c:	6a23      	ldr	r3, [r4, #32]
 8002e4e:	4a29      	ldr	r2, [pc, #164]	@ (8002ef4 <HAL_ADC_Start_DMA+0x128>)
 8002e50:	62da      	str	r2, [r3, #44]	@ 0x2c
 8002e52:	6a23      	ldr	r3, [r4, #32]
 8002e54:	4a28      	ldr	r2, [pc, #160]	@ (8002ef8 <HAL_ADC_Start_DMA+0x12c>)
 8002e56:	631a      	str	r2, [r3, #48]	@ 0x30
 8002e58:	6823      	ldr	r3, [r4, #0]
 8002e5a:	f06f 0202 	mvn.w	r2, #2
 8002e5e:	601a      	str	r2, [r3, #0]
 8002e60:	6822      	ldr	r2, [r4, #0]
 8002e62:	6893      	ldr	r3, [r2, #8]
 8002e64:	f443 7380 	orr.w	r3, r3, #256	@ 0x100
 8002e68:	6093      	str	r3, [r2, #8]
 8002e6a:	6821      	ldr	r1, [r4, #0]
 8002e6c:	4633      	mov	r3, r6
 8002e6e:	462a      	mov	r2, r5
 8002e70:	314c      	adds	r1, #76	@ 0x4c
 8002e72:	6a20      	ldr	r0, [r4, #32]
 8002e74:	f000 f9b4 	bl	80031e0 <HAL_DMA_Start_IT>
 8002e78:	6823      	ldr	r3, [r4, #0]
 8002e7a:	689a      	ldr	r2, [r3, #8]
 8002e7c:	f402 2260 	and.w	r2, r2, #917504	@ 0xe0000
 8002e80:	f5b2 2f60 	cmp.w	r2, #917504	@ 0xe0000
 8002e84:	d024      	beq.n	8002ed0 <HAL_ADC_Start_DMA+0x104>
 8002e86:	689a      	ldr	r2, [r3, #8]
 8002e88:	f442 1280 	orr.w	r2, r2, #1048576	@ 0x100000
 8002e8c:	609a      	str	r2, [r3, #8]
 8002e8e:	e027      	b.n	8002ee0 <HAL_ADC_Start_DMA+0x114>
 8002e90:	4b15      	ldr	r3, [pc, #84]	@ (8002ee8 <HAL_ADC_Start_DMA+0x11c>)
 8002e92:	685b      	ldr	r3, [r3, #4]
 8002e94:	f413 2f70 	tst.w	r3, #983040	@ 0xf0000
 8002e98:	d0a3      	beq.n	8002de2 <HAL_ADC_Start_DMA+0x16>
 8002e9a:	2701      	movs	r7, #1
 8002e9c:	e020      	b.n	8002ee0 <HAL_ADC_Start_DMA+0x114>
 8002e9e:	f5a3 6380 	sub.w	r3, r3, #1024	@ 0x400
 8002ea2:	685b      	ldr	r3, [r3, #4]
 8002ea4:	f413 2f70 	tst.w	r3, #983040	@ 0xf0000
 8002ea8:	d0b4      	beq.n	8002e14 <HAL_ADC_Start_DMA+0x48>
 8002eaa:	6aa3      	ldr	r3, [r4, #40]	@ 0x28
 8002eac:	f443 1380 	orr.w	r3, r3, #1048576	@ 0x100000
 8002eb0:	62a3      	str	r3, [r4, #40]	@ 0x28
 8002eb2:	4b0d      	ldr	r3, [pc, #52]	@ (8002ee8 <HAL_ADC_Start_DMA+0x11c>)
 8002eb4:	685b      	ldr	r3, [r3, #4]
 8002eb6:	f413 6f80 	tst.w	r3, #1024	@ 0x400
 8002eba:	d0b9      	beq.n	8002e30 <HAL_ADC_Start_DMA+0x64>
 8002ebc:	6aa3      	ldr	r3, [r4, #40]	@ 0x28
 8002ebe:	f423 5340 	bic.w	r3, r3, #12288	@ 0x3000
 8002ec2:	f443 5380 	orr.w	r3, r3, #4096	@ 0x1000
 8002ec6:	62a3      	str	r3, [r4, #40]	@ 0x28
 8002ec8:	e7b2      	b.n	8002e30 <HAL_ADC_Start_DMA+0x64>
 8002eca:	2300      	movs	r3, #0
 8002ecc:	62e3      	str	r3, [r4, #44]	@ 0x2c
 8002ece:	e7b7      	b.n	8002e40 <HAL_ADC_Start_DMA+0x74>
 8002ed0:	689a      	ldr	r2, [r3, #8]
 8002ed2:	f442 02a0 	orr.w	r2, r2, #5242880	@ 0x500000
 8002ed6:	609a      	str	r2, [r3, #8]
 8002ed8:	e002      	b.n	8002ee0 <HAL_ADC_Start_DMA+0x114>
 8002eda:	2300      	movs	r3, #0
 8002edc:	f884 3024 	strb.w	r3, [r4, #36]	@ 0x24
 8002ee0:	4638      	mov	r0, r7
 8002ee2:	bdf8      	pop	{r3, r4, r5, r6, r7, pc}
 8002ee4:	2702      	movs	r7, #2
 8002ee6:	e7fb      	b.n	8002ee0 <HAL_ADC_Start_DMA+0x114>
 8002ee8:	40012400 	.word	0x40012400
 8002eec:	40012800 	.word	0x40012800
 8002ef0:	08002b89 	.word	0x08002b89
 8002ef4:	08002bdd 	.word	0x08002bdd
 8002ef8:	08002be9 	.word	0x08002be9

08002efc <ADC_ConversionStop_Disable>:
 8002efc:	b538      	push	{r3, r4, r5, lr}
 8002efe:	6803      	ldr	r3, [r0, #0]
 8002f00:	689a      	ldr	r2, [r3, #8]
 8002f02:	f012 0f01 	tst.w	r2, #1
 8002f06:	d101      	bne.n	8002f0c <ADC_ConversionStop_Disable+0x10>
 8002f08:	2000      	movs	r0, #0
 8002f0a:	bd38      	pop	{r3, r4, r5, pc}
 8002f0c:	4604      	mov	r4, r0
 8002f0e:	689a      	ldr	r2, [r3, #8]
 8002f10:	f022 0201 	bic.w	r2, r2, #1
 8002f14:	609a      	str	r2, [r3, #8]
 8002f16:	f7ff fe1d 	bl	8002b54 <HAL_GetTick>
 8002f1a:	4605      	mov	r5, r0
 8002f1c:	6823      	ldr	r3, [r4, #0]
 8002f1e:	689b      	ldr	r3, [r3, #8]
 8002f20:	f013 0f01 	tst.w	r3, #1
 8002f24:	d013      	beq.n	8002f4e <ADC_ConversionStop_Disable+0x52>
 8002f26:	f7ff fe15 	bl	8002b54 <HAL_GetTick>
 8002f2a:	1b43      	subs	r3, r0, r5
 8002f2c:	2b02      	cmp	r3, #2
 8002f2e:	d9f5      	bls.n	8002f1c <ADC_ConversionStop_Disable+0x20>
 8002f30:	6823      	ldr	r3, [r4, #0]
 8002f32:	689b      	ldr	r3, [r3, #8]
 8002f34:	f013 0f01 	tst.w	r3, #1
 8002f38:	d0f0      	beq.n	8002f1c <ADC_ConversionStop_Disable+0x20>
 8002f3a:	6aa3      	ldr	r3, [r4, #40]	@ 0x28
 8002f3c:	f043 0310 	orr.w	r3, r3, #16
 8002f40:	62a3      	str	r3, [r4, #40]	@ 0x28
 8002f42:	6ae3      	ldr	r3, [r4, #44]	@ 0x2c
 8002f44:	f043 0301 	orr.w	r3, r3, #1
 8002f48:	62e3      	str	r3, [r4, #44]	@ 0x2c
 8002f4a:	2001      	movs	r0, #1
 8002f4c:	e7dd      	b.n	8002f0a <ADC_ConversionStop_Disable+0xe>
 8002f4e:	2000      	movs	r0, #0
 8002f50:	e7db      	b.n	8002f0a <ADC_ConversionStop_Disable+0xe>
	...

08002f54 <HAL_ADC_Init>:
 8002f54:	2800      	cmp	r0, #0
 8002f56:	d07b      	beq.n	8003050 <HAL_ADC_Init+0xfc>
 8002f58:	b570      	push	{r4, r5, r6, lr}
 8002f5a:	4604      	mov	r4, r0
 8002f5c:	6a83      	ldr	r3, [r0, #40]	@ 0x28
 8002f5e:	2b00      	cmp	r3, #0
 8002f60:	d04d      	beq.n	8002ffe <HAL_ADC_Init+0xaa>
 8002f62:	4620      	mov	r0, r4
 8002f64:	f7ff ffca 	bl	8002efc <ADC_ConversionStop_Disable>
 8002f68:	6aa3      	ldr	r3, [r4, #40]	@ 0x28
 8002f6a:	f013 0310 	ands.w	r3, r3, #16
 8002f6e:	d169      	bne.n	8003044 <HAL_ADC_Init+0xf0>
 8002f70:	2800      	cmp	r0, #0
 8002f72:	d167      	bne.n	8003044 <HAL_ADC_Init+0xf0>
 8002f74:	6aa2      	ldr	r2, [r4, #40]	@ 0x28
 8002f76:	f422 5288 	bic.w	r2, r2, #4352	@ 0x1100
 8002f7a:	f022 0202 	bic.w	r2, r2, #2
 8002f7e:	f042 0202 	orr.w	r2, r2, #2
 8002f82:	62a2      	str	r2, [r4, #40]	@ 0x28
 8002f84:	6862      	ldr	r2, [r4, #4]
 8002f86:	69e1      	ldr	r1, [r4, #28]
 8002f88:	430a      	orrs	r2, r1
 8002f8a:	7b21      	ldrb	r1, [r4, #12]
 8002f8c:	ea42 0241 	orr.w	r2, r2, r1, lsl #1
 8002f90:	68a5      	ldr	r5, [r4, #8]
 8002f92:	f5b5 7f80 	cmp.w	r5, #256	@ 0x100
 8002f96:	d002      	beq.n	8002f9e <HAL_ADC_Init+0x4a>
 8002f98:	2d01      	cmp	r5, #1
 8002f9a:	d036      	beq.n	800300a <HAL_ADC_Init+0xb6>
 8002f9c:	461d      	mov	r5, r3
 8002f9e:	7d26      	ldrb	r6, [r4, #20]
 8002fa0:	2e01      	cmp	r6, #1
 8002fa2:	d035      	beq.n	8003010 <HAL_ADC_Init+0xbc>
 8002fa4:	6826      	ldr	r6, [r4, #0]
 8002fa6:	6871      	ldr	r1, [r6, #4]
 8002fa8:	f421 4169 	bic.w	r1, r1, #59648	@ 0xe900
 8002fac:	4329      	orrs	r1, r5
 8002fae:	6071      	str	r1, [r6, #4]
 8002fb0:	6825      	ldr	r5, [r4, #0]
 8002fb2:	68ae      	ldr	r6, [r5, #8]
 8002fb4:	4927      	ldr	r1, [pc, #156]	@ (8003054 <HAL_ADC_Init+0x100>)
 8002fb6:	4031      	ands	r1, r6
 8002fb8:	4311      	orrs	r1, r2
 8002fba:	60a9      	str	r1, [r5, #8]
 8002fbc:	68a1      	ldr	r1, [r4, #8]
 8002fbe:	f5b1 7f80 	cmp.w	r1, #256	@ 0x100
 8002fc2:	d001      	beq.n	8002fc8 <HAL_ADC_Init+0x74>
 8002fc4:	2901      	cmp	r1, #1
 8002fc6:	d102      	bne.n	8002fce <HAL_ADC_Init+0x7a>
 8002fc8:	6923      	ldr	r3, [r4, #16]
 8002fca:	3b01      	subs	r3, #1
 8002fcc:	051b      	lsls	r3, r3, #20
 8002fce:	6825      	ldr	r5, [r4, #0]
 8002fd0:	6ae9      	ldr	r1, [r5, #44]	@ 0x2c
 8002fd2:	f421 0170 	bic.w	r1, r1, #15728640	@ 0xf00000
 8002fd6:	430b      	orrs	r3, r1
 8002fd8:	62eb      	str	r3, [r5, #44]	@ 0x2c
 8002fda:	6823      	ldr	r3, [r4, #0]
 8002fdc:	6899      	ldr	r1, [r3, #8]
 8002fde:	4b1e      	ldr	r3, [pc, #120]	@ (8003058 <HAL_ADC_Init+0x104>)
 8002fe0:	400b      	ands	r3, r1
 8002fe2:	429a      	cmp	r2, r3
 8002fe4:	d025      	beq.n	8003032 <HAL_ADC_Init+0xde>
 8002fe6:	6aa3      	ldr	r3, [r4, #40]	@ 0x28
 8002fe8:	f023 0312 	bic.w	r3, r3, #18
 8002fec:	f043 0310 	orr.w	r3, r3, #16
 8002ff0:	62a3      	str	r3, [r4, #40]	@ 0x28
 8002ff2:	6ae3      	ldr	r3, [r4, #44]	@ 0x2c
 8002ff4:	f043 0301 	orr.w	r3, r3, #1
 8002ff8:	62e3      	str	r3, [r4, #44]	@ 0x2c
 8002ffa:	2001      	movs	r0, #1
 8002ffc:	e027      	b.n	800304e <HAL_ADC_Init+0xfa>
 8002ffe:	62c3      	str	r3, [r0, #44]	@ 0x2c
 8003000:	f880 3024 	strb.w	r3, [r0, #36]	@ 0x24
 8003004:	f7fe fc90 	bl	8001928 <HAL_ADC_MspInit>
 8003008:	e7ab      	b.n	8002f62 <HAL_ADC_Init+0xe>
 800300a:	f44f 7580 	mov.w	r5, #256	@ 0x100
 800300e:	e7c6      	b.n	8002f9e <HAL_ADC_Init+0x4a>
 8003010:	b931      	cbnz	r1, 8003020 <HAL_ADC_Init+0xcc>
 8003012:	69a1      	ldr	r1, [r4, #24]
 8003014:	3901      	subs	r1, #1
 8003016:	ea45 3141 	orr.w	r1, r5, r1, lsl #13
 800301a:	f441 6500 	orr.w	r5, r1, #2048	@ 0x800
 800301e:	e7c1      	b.n	8002fa4 <HAL_ADC_Init+0x50>
 8003020:	6aa1      	ldr	r1, [r4, #40]	@ 0x28
 8003022:	f041 0120 	orr.w	r1, r1, #32
 8003026:	62a1      	str	r1, [r4, #40]	@ 0x28
 8003028:	6ae1      	ldr	r1, [r4, #44]	@ 0x2c
 800302a:	f041 0101 	orr.w	r1, r1, #1
 800302e:	62e1      	str	r1, [r4, #44]	@ 0x2c
 8003030:	e7b8      	b.n	8002fa4 <HAL_ADC_Init+0x50>
 8003032:	2300      	movs	r3, #0
 8003034:	62e3      	str	r3, [r4, #44]	@ 0x2c
 8003036:	6aa3      	ldr	r3, [r4, #40]	@ 0x28
 8003038:	f023 0303 	bic.w	r3, r3, #3
 800303c:	f043 0301 	orr.w	r3, r3, #1
 8003040:	62a3      	str	r3, [r4, #40]	@ 0x28
 8003042:	e004      	b.n	800304e <HAL_ADC_Init+0xfa>
 8003044:	6aa3      	ldr	r3, [r4, #40]	@ 0x28
 8003046:	f043 0310 	orr.w	r3, r3, #16
 800304a:	62a3      	str	r3, [r4, #40]	@ 0x28
 800304c:	2001      	movs	r0, #1
 800304e:	bd70      	pop	{r4, r5, r6, pc}
 8003050:	2001      	movs	r0, #1
 8003052:	4770      	bx	lr
 8003054:	ffe1f7fd 	.word	0xffe1f7fd
 8003058:	ff1f0efe 	.word	0xff1f0efe

0800305c <__NVIC_SetPriority>:
 800305c:	2800      	cmp	r0, #0
 800305e:	db08      	blt.n	8003072 <__NVIC_SetPriority+0x16>
 8003060:	0109      	lsls	r1, r1, #4
 8003062:	b2c9      	uxtb	r1, r1
 8003064:	f100 4060 	add.w	r0, r0, #3758096384	@ 0xe0000000
 8003068:	f500 4061 	add.w	r0, r0, #57600	@ 0xe100
 800306c:	f880 1300 	strb.w	r1, [r0, #768]	@ 0x300
 8003070:	4770      	bx	lr
 8003072:	f000 000f 	and.w	r0, r0, #15
 8003076:	0109      	lsls	r1, r1, #4
 8003078:	b2c9      	uxtb	r1, r1
 800307a:	4b01      	ldr	r3, [pc, #4]	@ (8003080 <__NVIC_SetPriority+0x24>)
 800307c:	5419      	strb	r1, [r3, r0]
 800307e:	4770      	bx	lr
 8003080:	e000ed14 	.word	0xe000ed14

08003084 <NVIC_EncodePriority>:
 8003084:	b500      	push	{lr}
 8003086:	f000 0007 	and.w	r0, r0, #7
 800308a:	f1c0 0c07 	rsb	ip, r0, #7
 800308e:	f1bc 0f04 	cmp.w	ip, #4
 8003092:	bf28      	it	cs
 8003094:	f04f 0c04 	movcs.w	ip, #4
 8003098:	1d03      	adds	r3, r0, #4
 800309a:	2b06      	cmp	r3, #6
 800309c:	d90f      	bls.n	80030be <NVIC_EncodePriority+0x3a>
 800309e:	1ec3      	subs	r3, r0, #3
 80030a0:	f04f 3eff 	mov.w	lr, #4294967295	@ 0xffffffff
 80030a4:	fa0e f00c 	lsl.w	r0, lr, ip
 80030a8:	ea21 0100 	bic.w	r1, r1, r0
 80030ac:	4099      	lsls	r1, r3
 80030ae:	fa0e fe03 	lsl.w	lr, lr, r3
 80030b2:	ea22 020e 	bic.w	r2, r2, lr
 80030b6:	ea41 0002 	orr.w	r0, r1, r2
 80030ba:	f85d fb04 	ldr.w	pc, [sp], #4
 80030be:	2300      	movs	r3, #0
 80030c0:	e7ee      	b.n	80030a0 <NVIC_EncodePriority+0x1c>
	...

080030c4 <HAL_NVIC_SetPriorityGrouping>:
 80030c4:	4a07      	ldr	r2, [pc, #28]	@ (80030e4 <HAL_NVIC_SetPriorityGrouping+0x20>)
 80030c6:	68d3      	ldr	r3, [r2, #12]
 80030c8:	f423 63e0 	bic.w	r3, r3, #1792	@ 0x700
 80030cc:	041b      	lsls	r3, r3, #16
 80030ce:	0c1b      	lsrs	r3, r3, #16
 80030d0:	0200      	lsls	r0, r0, #8
 80030d2:	f400 60e0 	and.w	r0, r0, #1792	@ 0x700
 80030d6:	4303      	orrs	r3, r0
 80030d8:	f043 63bf 	orr.w	r3, r3, #100139008	@ 0x5f80000
 80030dc:	f443 3300 	orr.w	r3, r3, #131072	@ 0x20000
 80030e0:	60d3      	str	r3, [r2, #12]
 80030e2:	4770      	bx	lr
 80030e4:	e000ed00 	.word	0xe000ed00

080030e8 <HAL_NVIC_SetPriority>:
 80030e8:	b510      	push	{r4, lr}
 80030ea:	4604      	mov	r4, r0
 80030ec:	4b05      	ldr	r3, [pc, #20]	@ (8003104 <HAL_NVIC_SetPriority+0x1c>)
 80030ee:	68d8      	ldr	r0, [r3, #12]
 80030f0:	f3c0 2002 	ubfx	r0, r0, #8, #3
 80030f4:	f7ff ffc6 	bl	8003084 <NVIC_EncodePriority>
 80030f8:	4601      	mov	r1, r0
 80030fa:	4620      	mov	r0, r4
 80030fc:	f7ff ffae 	bl	800305c <__NVIC_SetPriority>
 8003100:	bd10      	pop	{r4, pc}
 8003102:	bf00      	nop
 8003104:	e000ed00 	.word	0xe000ed00

08003108 <HAL_NVIC_EnableIRQ>:
 8003108:	2800      	cmp	r0, #0
 800310a:	db07      	blt.n	800311c <HAL_NVIC_EnableIRQ+0x14>
 800310c:	f000 021f 	and.w	r2, r0, #31
 8003110:	0940      	lsrs	r0, r0, #5
 8003112:	2301      	movs	r3, #1
 8003114:	4093      	lsls	r3, r2
 8003116:	4a02      	ldr	r2, [pc, #8]	@ (8003120 <HAL_NVIC_EnableIRQ+0x18>)
 8003118:	f842 3020 	str.w	r3, [r2, r0, lsl #2]
 800311c:	4770      	bx	lr
 800311e:	bf00      	nop
 8003120:	e000e100 	.word	0xe000e100

08003124 <HAL_SYSTICK_Config>:
 8003124:	3801      	subs	r0, #1
 8003126:	f1b0 7f80 	cmp.w	r0, #16777216	@ 0x1000000
 800312a:	d20b      	bcs.n	8003144 <HAL_SYSTICK_Config+0x20>
 800312c:	f04f 23e0 	mov.w	r3, #3758153728	@ 0xe000e000
 8003130:	6158      	str	r0, [r3, #20]
 8003132:	4a05      	ldr	r2, [pc, #20]	@ (8003148 <HAL_SYSTICK_Config+0x24>)
 8003134:	21f0      	movs	r1, #240	@ 0xf0
 8003136:	f882 1023 	strb.w	r1, [r2, #35]	@ 0x23
 800313a:	2000      	movs	r0, #0
 800313c:	6198      	str	r0, [r3, #24]
 800313e:	2207      	movs	r2, #7
 8003140:	611a      	str	r2, [r3, #16]
 8003142:	4770      	bx	lr
 8003144:	2001      	movs	r0, #1
 8003146:	4770      	bx	lr
 8003148:	e000ed00 	.word	0xe000ed00

0800314c <DMA_SetConfig>:
 800314c:	b430      	push	{r4, r5}
 800314e:	2401      	movs	r4, #1
 8003150:	6c05      	ldr	r5, [r0, #64]	@ 0x40
 8003152:	40ac      	lsls	r4, r5
 8003154:	6bc5      	ldr	r5, [r0, #60]	@ 0x3c
 8003156:	606c      	str	r4, [r5, #4]
 8003158:	6804      	ldr	r4, [r0, #0]
 800315a:	6063      	str	r3, [r4, #4]
 800315c:	6843      	ldr	r3, [r0, #4]
 800315e:	2b10      	cmp	r3, #16
 8003160:	d005      	beq.n	800316e <DMA_SetConfig+0x22>
 8003162:	6803      	ldr	r3, [r0, #0]
 8003164:	6099      	str	r1, [r3, #8]
 8003166:	6803      	ldr	r3, [r0, #0]
 8003168:	60da      	str	r2, [r3, #12]
 800316a:	bc30      	pop	{r4, r5}
 800316c:	4770      	bx	lr
 800316e:	6803      	ldr	r3, [r0, #0]
 8003170:	609a      	str	r2, [r3, #8]
 8003172:	6803      	ldr	r3, [r0, #0]
 8003174:	60d9      	str	r1, [r3, #12]
 8003176:	e7f8      	b.n	800316a <DMA_SetConfig+0x1e>

08003178 <HAL_DMA_Init>:
 8003178:	b350      	cbz	r0, 80031d0 <HAL_DMA_Init+0x58>
 800317a:	b410      	push	{r4}
 800317c:	4602      	mov	r2, r0
 800317e:	6801      	ldr	r1, [r0, #0]
 8003180:	4b14      	ldr	r3, [pc, #80]	@ (80031d4 <HAL_DMA_Init+0x5c>)
 8003182:	440b      	add	r3, r1
 8003184:	4814      	ldr	r0, [pc, #80]	@ (80031d8 <HAL_DMA_Init+0x60>)
 8003186:	fba0 0303 	umull	r0, r3, r0, r3
 800318a:	091b      	lsrs	r3, r3, #4
 800318c:	009b      	lsls	r3, r3, #2
 800318e:	6413      	str	r3, [r2, #64]	@ 0x40
 8003190:	4b12      	ldr	r3, [pc, #72]	@ (80031dc <HAL_DMA_Init+0x64>)
 8003192:	63d3      	str	r3, [r2, #60]	@ 0x3c
 8003194:	2302      	movs	r3, #2
 8003196:	f882 3021 	strb.w	r3, [r2, #33]	@ 0x21
 800319a:	6808      	ldr	r0, [r1, #0]
 800319c:	f36f 100d 	bfc	r0, #4, #10
 80031a0:	6853      	ldr	r3, [r2, #4]
 80031a2:	6894      	ldr	r4, [r2, #8]
 80031a4:	4323      	orrs	r3, r4
 80031a6:	68d4      	ldr	r4, [r2, #12]
 80031a8:	4323      	orrs	r3, r4
 80031aa:	6914      	ldr	r4, [r2, #16]
 80031ac:	4323      	orrs	r3, r4
 80031ae:	6954      	ldr	r4, [r2, #20]
 80031b0:	4323      	orrs	r3, r4
 80031b2:	6994      	ldr	r4, [r2, #24]
 80031b4:	4323      	orrs	r3, r4
 80031b6:	69d4      	ldr	r4, [r2, #28]
 80031b8:	4323      	orrs	r3, r4
 80031ba:	4303      	orrs	r3, r0
 80031bc:	600b      	str	r3, [r1, #0]
 80031be:	2000      	movs	r0, #0
 80031c0:	6390      	str	r0, [r2, #56]	@ 0x38
 80031c2:	2301      	movs	r3, #1
 80031c4:	f882 3021 	strb.w	r3, [r2, #33]	@ 0x21
 80031c8:	f882 0020 	strb.w	r0, [r2, #32]
 80031cc:	bc10      	pop	{r4}
 80031ce:	4770      	bx	lr
 80031d0:	2001      	movs	r0, #1
 80031d2:	4770      	bx	lr
 80031d4:	bffdfff8 	.word	0xbffdfff8
 80031d8:	cccccccd 	.word	0xcccccccd
 80031dc:	40020000 	.word	0x40020000

080031e0 <HAL_DMA_Start_IT>:
 80031e0:	b538      	push	{r3, r4, r5, lr}
 80031e2:	4604      	mov	r4, r0
 80031e4:	f890 0020 	ldrb.w	r0, [r0, #32]
 80031e8:	2801      	cmp	r0, #1
 80031ea:	d032      	beq.n	8003252 <HAL_DMA_Start_IT+0x72>
 80031ec:	2001      	movs	r0, #1
 80031ee:	f884 0020 	strb.w	r0, [r4, #32]
 80031f2:	f894 0021 	ldrb.w	r0, [r4, #33]	@ 0x21
 80031f6:	b2c0      	uxtb	r0, r0
 80031f8:	2801      	cmp	r0, #1
 80031fa:	d004      	beq.n	8003206 <HAL_DMA_Start_IT+0x26>
 80031fc:	2300      	movs	r3, #0
 80031fe:	f884 3020 	strb.w	r3, [r4, #32]
 8003202:	2002      	movs	r0, #2
 8003204:	bd38      	pop	{r3, r4, r5, pc}
 8003206:	2002      	movs	r0, #2
 8003208:	f884 0021 	strb.w	r0, [r4, #33]	@ 0x21
 800320c:	2000      	movs	r0, #0
 800320e:	63a0      	str	r0, [r4, #56]	@ 0x38
 8003210:	6825      	ldr	r5, [r4, #0]
 8003212:	6828      	ldr	r0, [r5, #0]
 8003214:	f020 0001 	bic.w	r0, r0, #1
 8003218:	6028      	str	r0, [r5, #0]
 800321a:	4620      	mov	r0, r4
 800321c:	f7ff ff96 	bl	800314c <DMA_SetConfig>
 8003220:	6ae3      	ldr	r3, [r4, #44]	@ 0x2c
 8003222:	b15b      	cbz	r3, 800323c <HAL_DMA_Start_IT+0x5c>
 8003224:	6822      	ldr	r2, [r4, #0]
 8003226:	6813      	ldr	r3, [r2, #0]
 8003228:	f043 030e 	orr.w	r3, r3, #14
 800322c:	6013      	str	r3, [r2, #0]
 800322e:	6822      	ldr	r2, [r4, #0]
 8003230:	6813      	ldr	r3, [r2, #0]
 8003232:	f043 0301 	orr.w	r3, r3, #1
 8003236:	6013      	str	r3, [r2, #0]
 8003238:	2000      	movs	r0, #0
 800323a:	e7e3      	b.n	8003204 <HAL_DMA_Start_IT+0x24>
 800323c:	6822      	ldr	r2, [r4, #0]
 800323e:	6813      	ldr	r3, [r2, #0]
 8003240:	f023 0304 	bic.w	r3, r3, #4
 8003244:	6013      	str	r3, [r2, #0]
 8003246:	6822      	ldr	r2, [r4, #0]
 8003248:	6813      	ldr	r3, [r2, #0]
 800324a:	f043 030a 	orr.w	r3, r3, #10
 800324e:	6013      	str	r3, [r2, #0]
 8003250:	e7ed      	b.n	800322e <HAL_DMA_Start_IT+0x4e>
 8003252:	2002      	movs	r0, #2
 8003254:	e7d6      	b.n	8003204 <HAL_DMA_Start_IT+0x24>
	...

08003258 <HAL_DMA_IRQHandler>:
 8003258:	b538      	push	{r3, r4, r5, lr}
 800325a:	6bc3      	ldr	r3, [r0, #60]	@ 0x3c
 800325c:	681a      	ldr	r2, [r3, #0]
 800325e:	6804      	ldr	r4, [r0, #0]
 8003260:	6825      	ldr	r5, [r4, #0]
 8003262:	6c01      	ldr	r1, [r0, #64]	@ 0x40
 8003264:	2304      	movs	r3, #4
 8003266:	408b      	lsls	r3, r1
 8003268:	4213      	tst	r3, r2
 800326a:	d035      	beq.n	80032d8 <HAL_DMA_IRQHandler+0x80>
 800326c:	f015 0f04 	tst.w	r5, #4
 8003270:	d032      	beq.n	80032d8 <HAL_DMA_IRQHandler+0x80>
 8003272:	6823      	ldr	r3, [r4, #0]
 8003274:	f013 0f20 	tst.w	r3, #32
 8003278:	d103      	bne.n	8003282 <HAL_DMA_IRQHandler+0x2a>
 800327a:	6823      	ldr	r3, [r4, #0]
 800327c:	f023 0304 	bic.w	r3, r3, #4
 8003280:	6023      	str	r3, [r4, #0]
 8003282:	6803      	ldr	r3, [r0, #0]
 8003284:	4a43      	ldr	r2, [pc, #268]	@ (8003394 <HAL_DMA_IRQHandler+0x13c>)
 8003286:	4293      	cmp	r3, r2
 8003288:	d014      	beq.n	80032b4 <HAL_DMA_IRQHandler+0x5c>
 800328a:	3214      	adds	r2, #20
 800328c:	4293      	cmp	r3, r2
 800328e:	d018      	beq.n	80032c2 <HAL_DMA_IRQHandler+0x6a>
 8003290:	3214      	adds	r2, #20
 8003292:	4293      	cmp	r3, r2
 8003294:	d017      	beq.n	80032c6 <HAL_DMA_IRQHandler+0x6e>
 8003296:	3214      	adds	r2, #20
 8003298:	4293      	cmp	r3, r2
 800329a:	d017      	beq.n	80032cc <HAL_DMA_IRQHandler+0x74>
 800329c:	3214      	adds	r2, #20
 800329e:	4293      	cmp	r3, r2
 80032a0:	d017      	beq.n	80032d2 <HAL_DMA_IRQHandler+0x7a>
 80032a2:	3214      	adds	r2, #20
 80032a4:	4293      	cmp	r3, r2
 80032a6:	d002      	beq.n	80032ae <HAL_DMA_IRQHandler+0x56>
 80032a8:	f04f 6280 	mov.w	r2, #67108864	@ 0x4000000
 80032ac:	e003      	b.n	80032b6 <HAL_DMA_IRQHandler+0x5e>
 80032ae:	f44f 0280 	mov.w	r2, #4194304	@ 0x400000
 80032b2:	e000      	b.n	80032b6 <HAL_DMA_IRQHandler+0x5e>
 80032b4:	2204      	movs	r2, #4
 80032b6:	4b38      	ldr	r3, [pc, #224]	@ (8003398 <HAL_DMA_IRQHandler+0x140>)
 80032b8:	605a      	str	r2, [r3, #4]
 80032ba:	6ac3      	ldr	r3, [r0, #44]	@ 0x2c
 80032bc:	b103      	cbz	r3, 80032c0 <HAL_DMA_IRQHandler+0x68>
 80032be:	4798      	blx	r3
 80032c0:	bd38      	pop	{r3, r4, r5, pc}
 80032c2:	2240      	movs	r2, #64	@ 0x40
 80032c4:	e7f7      	b.n	80032b6 <HAL_DMA_IRQHandler+0x5e>
 80032c6:	f44f 6280 	mov.w	r2, #1024	@ 0x400
 80032ca:	e7f4      	b.n	80032b6 <HAL_DMA_IRQHandler+0x5e>
 80032cc:	f44f 4280 	mov.w	r2, #16384	@ 0x4000
 80032d0:	e7f1      	b.n	80032b6 <HAL_DMA_IRQHandler+0x5e>
 80032d2:	f44f 2280 	mov.w	r2, #262144	@ 0x40000
 80032d6:	e7ee      	b.n	80032b6 <HAL_DMA_IRQHandler+0x5e>
 80032d8:	2302      	movs	r3, #2
 80032da:	408b      	lsls	r3, r1
 80032dc:	4213      	tst	r3, r2
 80032de:	d03c      	beq.n	800335a <HAL_DMA_IRQHandler+0x102>
 80032e0:	f015 0f02 	tst.w	r5, #2
 80032e4:	d039      	beq.n	800335a <HAL_DMA_IRQHandler+0x102>
 80032e6:	6823      	ldr	r3, [r4, #0]
 80032e8:	f013 0f20 	tst.w	r3, #32
 80032ec:	d106      	bne.n	80032fc <HAL_DMA_IRQHandler+0xa4>
 80032ee:	6823      	ldr	r3, [r4, #0]
 80032f0:	f023 030a 	bic.w	r3, r3, #10
 80032f4:	6023      	str	r3, [r4, #0]
 80032f6:	2301      	movs	r3, #1
 80032f8:	f880 3021 	strb.w	r3, [r0, #33]	@ 0x21
 80032fc:	6803      	ldr	r3, [r0, #0]
 80032fe:	4a25      	ldr	r2, [pc, #148]	@ (8003394 <HAL_DMA_IRQHandler+0x13c>)
 8003300:	4293      	cmp	r3, r2
 8003302:	d014      	beq.n	800332e <HAL_DMA_IRQHandler+0xd6>
 8003304:	3214      	adds	r2, #20
 8003306:	4293      	cmp	r3, r2
 8003308:	d01c      	beq.n	8003344 <HAL_DMA_IRQHandler+0xec>
 800330a:	3214      	adds	r2, #20
 800330c:	4293      	cmp	r3, r2
 800330e:	d01b      	beq.n	8003348 <HAL_DMA_IRQHandler+0xf0>
 8003310:	3214      	adds	r2, #20
 8003312:	4293      	cmp	r3, r2
 8003314:	d01b      	beq.n	800334e <HAL_DMA_IRQHandler+0xf6>
 8003316:	3214      	adds	r2, #20
 8003318:	4293      	cmp	r3, r2
 800331a:	d01b      	beq.n	8003354 <HAL_DMA_IRQHandler+0xfc>
 800331c:	3214      	adds	r2, #20
 800331e:	4293      	cmp	r3, r2
 8003320:	d002      	beq.n	8003328 <HAL_DMA_IRQHandler+0xd0>
 8003322:	f04f 7200 	mov.w	r2, #33554432	@ 0x2000000
 8003326:	e003      	b.n	8003330 <HAL_DMA_IRQHandler+0xd8>
 8003328:	f44f 1200 	mov.w	r2, #2097152	@ 0x200000
 800332c:	e000      	b.n	8003330 <HAL_DMA_IRQHandler+0xd8>
 800332e:	2202      	movs	r2, #2
 8003330:	4b19      	ldr	r3, [pc, #100]	@ (8003398 <HAL_DMA_IRQHandler+0x140>)
 8003332:	605a      	str	r2, [r3, #4]
 8003334:	2300      	movs	r3, #0
 8003336:	f880 3020 	strb.w	r3, [r0, #32]
 800333a:	6a83      	ldr	r3, [r0, #40]	@ 0x28
 800333c:	2b00      	cmp	r3, #0
 800333e:	d0bf      	beq.n	80032c0 <HAL_DMA_IRQHandler+0x68>
 8003340:	4798      	blx	r3
 8003342:	e7bd      	b.n	80032c0 <HAL_DMA_IRQHandler+0x68>
 8003344:	2220      	movs	r2, #32
 8003346:	e7f3      	b.n	8003330 <HAL_DMA_IRQHandler+0xd8>
 8003348:	f44f 7200 	mov.w	r2, #512	@ 0x200
 800334c:	e7f0      	b.n	8003330 <HAL_DMA_IRQHandler+0xd8>
 800334e:	f44f 5200 	mov.w	r2, #8192	@ 0x2000
 8003352:	e7ed      	b.n	8003330 <HAL_DMA_IRQHandler+0xd8>
 8003354:	f44f 3200 	mov.w	r2, #131072	@ 0x20000
 8003358:	e7ea      	b.n	8003330 <HAL_DMA_IRQHandler+0xd8>
 800335a:	2308      	movs	r3, #8
 800335c:	408b      	lsls	r3, r1
 800335e:	4213      	tst	r3, r2
 8003360:	d0ae      	beq.n	80032c0 <HAL_DMA_IRQHandler+0x68>
 8003362:	f015 0f08 	tst.w	r5, #8
 8003366:	d0ab      	beq.n	80032c0 <HAL_DMA_IRQHandler+0x68>
 8003368:	6823      	ldr	r3, [r4, #0]
 800336a:	f023 030e 	bic.w	r3, r3, #14
 800336e:	6023      	str	r3, [r4, #0]
 8003370:	6c02      	ldr	r2, [r0, #64]	@ 0x40
 8003372:	6bc1      	ldr	r1, [r0, #60]	@ 0x3c
 8003374:	2301      	movs	r3, #1
 8003376:	fa03 f202 	lsl.w	r2, r3, r2
 800337a:	604a      	str	r2, [r1, #4]
 800337c:	6383      	str	r3, [r0, #56]	@ 0x38
 800337e:	f880 3021 	strb.w	r3, [r0, #33]	@ 0x21
 8003382:	2300      	movs	r3, #0
 8003384:	f880 3020 	strb.w	r3, [r0, #32]
 8003388:	6b03      	ldr	r3, [r0, #48]	@ 0x30
 800338a:	2b00      	cmp	r3, #0
 800338c:	d098      	beq.n	80032c0 <HAL_DMA_IRQHandler+0x68>
 800338e:	4798      	blx	r3
 8003390:	e796      	b.n	80032c0 <HAL_DMA_IRQHandler+0x68>
 8003392:	bf00      	nop
 8003394:	40020008 	.word	0x40020008
 8003398:	40020000 	.word	0x40020000

0800339c <HAL_GPIO_Init>:
 800339c:	b570      	push	{r4, r5, r6, lr}
 800339e:	b082      	sub	sp, #8
 80033a0:	2400      	movs	r4, #0
 80033a2:	46a4      	mov	ip, r4
 80033a4:	e0a1      	b.n	80034ea <HAL_GPIO_Init+0x14e>
 80033a6:	4d7e      	ldr	r5, [pc, #504]	@ (80035a0 <HAL_GPIO_Init+0x204>)
 80033a8:	42ab      	cmp	r3, r5
 80033aa:	d014      	beq.n	80033d6 <HAL_GPIO_Init+0x3a>
 80033ac:	d80c      	bhi.n	80033c8 <HAL_GPIO_Init+0x2c>
 80033ae:	f5a5 1580 	sub.w	r5, r5, #1048576	@ 0x100000
 80033b2:	42ab      	cmp	r3, r5
 80033b4:	d00f      	beq.n	80033d6 <HAL_GPIO_Init+0x3a>
 80033b6:	f505 2570 	add.w	r5, r5, #983040	@ 0xf0000
 80033ba:	42ab      	cmp	r3, r5
 80033bc:	d00b      	beq.n	80033d6 <HAL_GPIO_Init+0x3a>
 80033be:	f5a5 1580 	sub.w	r5, r5, #1048576	@ 0x100000
 80033c2:	42ab      	cmp	r3, r5
 80033c4:	d110      	bne.n	80033e8 <HAL_GPIO_Init+0x4c>
 80033c6:	e006      	b.n	80033d6 <HAL_GPIO_Init+0x3a>
 80033c8:	4d76      	ldr	r5, [pc, #472]	@ (80035a4 <HAL_GPIO_Init+0x208>)
 80033ca:	42ab      	cmp	r3, r5
 80033cc:	d003      	beq.n	80033d6 <HAL_GPIO_Init+0x3a>
 80033ce:	f505 3580 	add.w	r5, r5, #65536	@ 0x10000
 80033d2:	42ab      	cmp	r3, r5
 80033d4:	d108      	bne.n	80033e8 <HAL_GPIO_Init+0x4c>
 80033d6:	688b      	ldr	r3, [r1, #8]
 80033d8:	2b00      	cmp	r3, #0
 80033da:	d050      	beq.n	800347e <HAL_GPIO_Init+0xe2>
 80033dc:	2b01      	cmp	r3, #1
 80033de:	d049      	beq.n	8003474 <HAL_GPIO_Init+0xd8>
 80033e0:	6142      	str	r2, [r0, #20]
 80033e2:	2408      	movs	r4, #8
 80033e4:	e000      	b.n	80033e8 <HAL_GPIO_Init+0x4c>
 80033e6:	68cc      	ldr	r4, [r1, #12]
 80033e8:	f1be 0fff 	cmp.w	lr, #255	@ 0xff
 80033ec:	d849      	bhi.n	8003482 <HAL_GPIO_Init+0xe6>
 80033ee:	4606      	mov	r6, r0
 80033f0:	ea4f 028c 	mov.w	r2, ip, lsl #2
 80033f4:	6833      	ldr	r3, [r6, #0]
 80033f6:	250f      	movs	r5, #15
 80033f8:	4095      	lsls	r5, r2
 80033fa:	ea23 0305 	bic.w	r3, r3, r5
 80033fe:	fa04 f202 	lsl.w	r2, r4, r2
 8003402:	4313      	orrs	r3, r2
 8003404:	6033      	str	r3, [r6, #0]
 8003406:	684b      	ldr	r3, [r1, #4]
 8003408:	f013 5f80 	tst.w	r3, #268435456	@ 0x10000000
 800340c:	d06b      	beq.n	80034e6 <HAL_GPIO_Init+0x14a>
 800340e:	4b66      	ldr	r3, [pc, #408]	@ (80035a8 <HAL_GPIO_Init+0x20c>)
 8003410:	699a      	ldr	r2, [r3, #24]
 8003412:	f042 0201 	orr.w	r2, r2, #1
 8003416:	619a      	str	r2, [r3, #24]
 8003418:	699b      	ldr	r3, [r3, #24]
 800341a:	f003 0301 	and.w	r3, r3, #1
 800341e:	9301      	str	r3, [sp, #4]
 8003420:	9b01      	ldr	r3, [sp, #4]
 8003422:	ea4f 029c 	mov.w	r2, ip, lsr #2
 8003426:	1c95      	adds	r5, r2, #2
 8003428:	4b60      	ldr	r3, [pc, #384]	@ (80035ac <HAL_GPIO_Init+0x210>)
 800342a:	f853 6025 	ldr.w	r6, [r3, r5, lsl #2]
 800342e:	f00c 0503 	and.w	r5, ip, #3
 8003432:	00ad      	lsls	r5, r5, #2
 8003434:	230f      	movs	r3, #15
 8003436:	40ab      	lsls	r3, r5
 8003438:	ea26 0603 	bic.w	r6, r6, r3
 800343c:	4b5c      	ldr	r3, [pc, #368]	@ (80035b0 <HAL_GPIO_Init+0x214>)
 800343e:	4298      	cmp	r0, r3
 8003440:	d026      	beq.n	8003490 <HAL_GPIO_Init+0xf4>
 8003442:	f503 6380 	add.w	r3, r3, #1024	@ 0x400
 8003446:	4298      	cmp	r0, r3
 8003448:	f000 808c 	beq.w	8003564 <HAL_GPIO_Init+0x1c8>
 800344c:	f503 6380 	add.w	r3, r3, #1024	@ 0x400
 8003450:	4298      	cmp	r0, r3
 8003452:	f000 8089 	beq.w	8003568 <HAL_GPIO_Init+0x1cc>
 8003456:	f503 6380 	add.w	r3, r3, #1024	@ 0x400
 800345a:	4298      	cmp	r0, r3
 800345c:	d016      	beq.n	800348c <HAL_GPIO_Init+0xf0>
 800345e:	2304      	movs	r3, #4
 8003460:	e017      	b.n	8003492 <HAL_GPIO_Init+0xf6>
 8003462:	68cc      	ldr	r4, [r1, #12]
 8003464:	3404      	adds	r4, #4
 8003466:	e7bf      	b.n	80033e8 <HAL_GPIO_Init+0x4c>
 8003468:	68cc      	ldr	r4, [r1, #12]
 800346a:	3408      	adds	r4, #8
 800346c:	e7bc      	b.n	80033e8 <HAL_GPIO_Init+0x4c>
 800346e:	68cc      	ldr	r4, [r1, #12]
 8003470:	340c      	adds	r4, #12
 8003472:	e7b9      	b.n	80033e8 <HAL_GPIO_Init+0x4c>
 8003474:	6102      	str	r2, [r0, #16]
 8003476:	2408      	movs	r4, #8
 8003478:	e7b6      	b.n	80033e8 <HAL_GPIO_Init+0x4c>
 800347a:	2400      	movs	r4, #0
 800347c:	e7b4      	b.n	80033e8 <HAL_GPIO_Init+0x4c>
 800347e:	2404      	movs	r4, #4
 8003480:	e7b2      	b.n	80033e8 <HAL_GPIO_Init+0x4c>
 8003482:	1d06      	adds	r6, r0, #4
 8003484:	f1ac 0208 	sub.w	r2, ip, #8
 8003488:	0092      	lsls	r2, r2, #2
 800348a:	e7b3      	b.n	80033f4 <HAL_GPIO_Init+0x58>
 800348c:	2303      	movs	r3, #3
 800348e:	e000      	b.n	8003492 <HAL_GPIO_Init+0xf6>
 8003490:	2300      	movs	r3, #0
 8003492:	40ab      	lsls	r3, r5
 8003494:	4333      	orrs	r3, r6
 8003496:	3202      	adds	r2, #2
 8003498:	4d44      	ldr	r5, [pc, #272]	@ (80035ac <HAL_GPIO_Init+0x210>)
 800349a:	f845 3022 	str.w	r3, [r5, r2, lsl #2]
 800349e:	684b      	ldr	r3, [r1, #4]
 80034a0:	f413 1f80 	tst.w	r3, #1048576	@ 0x100000
 80034a4:	d062      	beq.n	800356c <HAL_GPIO_Init+0x1d0>
 80034a6:	4a43      	ldr	r2, [pc, #268]	@ (80035b4 <HAL_GPIO_Init+0x218>)
 80034a8:	6893      	ldr	r3, [r2, #8]
 80034aa:	ea43 030e 	orr.w	r3, r3, lr
 80034ae:	6093      	str	r3, [r2, #8]
 80034b0:	684b      	ldr	r3, [r1, #4]
 80034b2:	f413 1f00 	tst.w	r3, #2097152	@ 0x200000
 80034b6:	d05f      	beq.n	8003578 <HAL_GPIO_Init+0x1dc>
 80034b8:	4a3e      	ldr	r2, [pc, #248]	@ (80035b4 <HAL_GPIO_Init+0x218>)
 80034ba:	68d3      	ldr	r3, [r2, #12]
 80034bc:	ea43 030e 	orr.w	r3, r3, lr
 80034c0:	60d3      	str	r3, [r2, #12]
 80034c2:	684b      	ldr	r3, [r1, #4]
 80034c4:	f413 3f00 	tst.w	r3, #131072	@ 0x20000
 80034c8:	d05c      	beq.n	8003584 <HAL_GPIO_Init+0x1e8>
 80034ca:	4a3a      	ldr	r2, [pc, #232]	@ (80035b4 <HAL_GPIO_Init+0x218>)
 80034cc:	6853      	ldr	r3, [r2, #4]
 80034ce:	ea43 030e 	orr.w	r3, r3, lr
 80034d2:	6053      	str	r3, [r2, #4]
 80034d4:	684b      	ldr	r3, [r1, #4]
 80034d6:	f413 3f80 	tst.w	r3, #65536	@ 0x10000
 80034da:	d059      	beq.n	8003590 <HAL_GPIO_Init+0x1f4>
 80034dc:	4a35      	ldr	r2, [pc, #212]	@ (80035b4 <HAL_GPIO_Init+0x218>)
 80034de:	6813      	ldr	r3, [r2, #0]
 80034e0:	ea43 030e 	orr.w	r3, r3, lr
 80034e4:	6013      	str	r3, [r2, #0]
 80034e6:	f10c 0c01 	add.w	ip, ip, #1
 80034ea:	680b      	ldr	r3, [r1, #0]
 80034ec:	fa33 f20c 	lsrs.w	r2, r3, ip
 80034f0:	d054      	beq.n	800359c <HAL_GPIO_Init+0x200>
 80034f2:	2201      	movs	r2, #1
 80034f4:	fa02 f20c 	lsl.w	r2, r2, ip
 80034f8:	ea03 0e02 	and.w	lr, r3, r2
 80034fc:	ea32 0303 	bics.w	r3, r2, r3
 8003500:	d1f1      	bne.n	80034e6 <HAL_GPIO_Init+0x14a>
 8003502:	684b      	ldr	r3, [r1, #4]
 8003504:	2b12      	cmp	r3, #18
 8003506:	f63f af4e 	bhi.w	80033a6 <HAL_GPIO_Init+0xa>
 800350a:	2b12      	cmp	r3, #18
 800350c:	f63f af6c 	bhi.w	80033e8 <HAL_GPIO_Init+0x4c>
 8003510:	a501      	add	r5, pc, #4	@ (adr r5, 8003518 <HAL_GPIO_Init+0x17c>)
 8003512:	f855 f023 	ldr.w	pc, [r5, r3, lsl #2]
 8003516:	bf00      	nop
 8003518:	080033d7 	.word	0x080033d7
 800351c:	080033e7 	.word	0x080033e7
 8003520:	08003469 	.word	0x08003469
 8003524:	0800347b 	.word	0x0800347b
 8003528:	080033e9 	.word	0x080033e9
 800352c:	080033e9 	.word	0x080033e9
 8003530:	080033e9 	.word	0x080033e9
 8003534:	080033e9 	.word	0x080033e9
 8003538:	080033e9 	.word	0x080033e9
 800353c:	080033e9 	.word	0x080033e9
 8003540:	080033e9 	.word	0x080033e9
 8003544:	080033e9 	.word	0x080033e9
 8003548:	080033e9 	.word	0x080033e9
 800354c:	080033e9 	.word	0x080033e9
 8003550:	080033e9 	.word	0x080033e9
 8003554:	080033e9 	.word	0x080033e9
 8003558:	080033e9 	.word	0x080033e9
 800355c:	08003463 	.word	0x08003463
 8003560:	0800346f 	.word	0x0800346f
 8003564:	2301      	movs	r3, #1
 8003566:	e794      	b.n	8003492 <HAL_GPIO_Init+0xf6>
 8003568:	2302      	movs	r3, #2
 800356a:	e792      	b.n	8003492 <HAL_GPIO_Init+0xf6>
 800356c:	4a11      	ldr	r2, [pc, #68]	@ (80035b4 <HAL_GPIO_Init+0x218>)
 800356e:	6893      	ldr	r3, [r2, #8]
 8003570:	ea23 030e 	bic.w	r3, r3, lr
 8003574:	6093      	str	r3, [r2, #8]
 8003576:	e79b      	b.n	80034b0 <HAL_GPIO_Init+0x114>
 8003578:	4a0e      	ldr	r2, [pc, #56]	@ (80035b4 <HAL_GPIO_Init+0x218>)
 800357a:	68d3      	ldr	r3, [r2, #12]
 800357c:	ea23 030e 	bic.w	r3, r3, lr
 8003580:	60d3      	str	r3, [r2, #12]
 8003582:	e79e      	b.n	80034c2 <HAL_GPIO_Init+0x126>
 8003584:	4a0b      	ldr	r2, [pc, #44]	@ (80035b4 <HAL_GPIO_Init+0x218>)
 8003586:	6853      	ldr	r3, [r2, #4]
 8003588:	ea23 030e 	bic.w	r3, r3, lr
 800358c:	6053      	str	r3, [r2, #4]
 800358e:	e7a1      	b.n	80034d4 <HAL_GPIO_Init+0x138>
 8003590:	4a08      	ldr	r2, [pc, #32]	@ (80035b4 <HAL_GPIO_Init+0x218>)
 8003592:	6813      	ldr	r3, [r2, #0]
 8003594:	ea23 030e 	bic.w	r3, r3, lr
 8003598:	6013      	str	r3, [r2, #0]
 800359a:	e7a4      	b.n	80034e6 <HAL_GPIO_Init+0x14a>
 800359c:	b002      	add	sp, #8
 800359e:	bd70      	pop	{r4, r5, r6, pc}
 80035a0:	10220000 	.word	0x10220000
 80035a4:	10310000 	.word	0x10310000
 80035a8:	40021000 	.word	0x40021000
 80035ac:	40010000 	.word	0x40010000
 80035b0:	40010800 	.word	0x40010800
 80035b4:	40010400 	.word	0x40010400

080035b8 <HAL_GPIO_ReadPin>:
 80035b8:	6883      	ldr	r3, [r0, #8]
 80035ba:	4219      	tst	r1, r3
 80035bc:	d001      	beq.n	80035c2 <HAL_GPIO_ReadPin+0xa>
 80035be:	2001      	movs	r0, #1
 80035c0:	4770      	bx	lr
 80035c2:	2000      	movs	r0, #0
 80035c4:	4770      	bx	lr

080035c6 <HAL_GPIO_WritePin>:
 80035c6:	b10a      	cbz	r2, 80035cc <HAL_GPIO_WritePin+0x6>
 80035c8:	6101      	str	r1, [r0, #16]
 80035ca:	4770      	bx	lr
 80035cc:	0409      	lsls	r1, r1, #16
 80035ce:	6101      	str	r1, [r0, #16]
 80035d0:	4770      	bx	lr
	...

080035d4 <HAL_GPIO_EXTI_IRQHandler>:
 80035d4:	b508      	push	{r3, lr}
 80035d6:	4b05      	ldr	r3, [pc, #20]	@ (80035ec <HAL_GPIO_EXTI_IRQHandler+0x18>)
 80035d8:	695b      	ldr	r3, [r3, #20]
 80035da:	4203      	tst	r3, r0
 80035dc:	d100      	bne.n	80035e0 <HAL_GPIO_EXTI_IRQHandler+0xc>
 80035de:	bd08      	pop	{r3, pc}
 80035e0:	4b02      	ldr	r3, [pc, #8]	@ (80035ec <HAL_GPIO_EXTI_IRQHandler+0x18>)
 80035e2:	6158      	str	r0, [r3, #20]
 80035e4:	f7fe fbf6 	bl	8001dd4 <HAL_GPIO_EXTI_Callback>
 80035e8:	e7f9      	b.n	80035de <HAL_GPIO_EXTI_IRQHandler+0xa>
 80035ea:	bf00      	nop
 80035ec:	40010400 	.word	0x40010400

080035f0 <HAL_MspInit>:
 80035f0:	b082      	sub	sp, #8
 80035f2:	4b0e      	ldr	r3, [pc, #56]	@ (800362c <HAL_MspInit+0x3c>)
 80035f4:	699a      	ldr	r2, [r3, #24]
 80035f6:	f042 0201 	orr.w	r2, r2, #1
 80035fa:	619a      	str	r2, [r3, #24]
 80035fc:	699a      	ldr	r2, [r3, #24]
 80035fe:	f002 0201 	and.w	r2, r2, #1
 8003602:	9200      	str	r2, [sp, #0]
 8003604:	9a00      	ldr	r2, [sp, #0]
 8003606:	69da      	ldr	r2, [r3, #28]
 8003608:	f042 5280 	orr.w	r2, r2, #268435456	@ 0x10000000
 800360c:	61da      	str	r2, [r3, #28]
 800360e:	69db      	ldr	r3, [r3, #28]
 8003610:	f003 5380 	and.w	r3, r3, #268435456	@ 0x10000000
 8003614:	9301      	str	r3, [sp, #4]
 8003616:	9b01      	ldr	r3, [sp, #4]
 8003618:	4a05      	ldr	r2, [pc, #20]	@ (8003630 <HAL_MspInit+0x40>)
 800361a:	6853      	ldr	r3, [r2, #4]
 800361c:	f023 63e0 	bic.w	r3, r3, #117440512	@ 0x7000000
 8003620:	f043 7300 	orr.w	r3, r3, #33554432	@ 0x2000000
 8003624:	6053      	str	r3, [r2, #4]
 8003626:	b002      	add	sp, #8
 8003628:	4770      	bx	lr
 800362a:	bf00      	nop
 800362c:	40021000 	.word	0x40021000
 8003630:	40010000 	.word	0x40010000

08003634 <HAL_PCD_EP_DB_Receive>:
 8003634:	b538      	push	{r3, r4, r5, lr}
 8003636:	f412 4f80 	tst.w	r2, #16384	@ 0x4000
 800363a:	d044      	beq.n	80036c6 <HAL_PCD_EP_DB_Receive+0x92>
 800363c:	6804      	ldr	r4, [r0, #0]
 800363e:	f8b4 3050 	ldrh.w	r3, [r4, #80]	@ 0x50
 8003642:	b29b      	uxth	r3, r3
 8003644:	f891 c000 	ldrb.w	ip, [r1]
 8003648:	eb03 03cc 	add.w	r3, r3, ip, lsl #3
 800364c:	3302      	adds	r3, #2
 800364e:	eb04 0443 	add.w	r4, r4, r3, lsl #1
 8003652:	f8b4 4400 	ldrh.w	r4, [r4, #1024]	@ 0x400
 8003656:	f3c4 0409 	ubfx	r4, r4, #0, #10
 800365a:	698b      	ldr	r3, [r1, #24]
 800365c:	42a3      	cmp	r3, r4
 800365e:	d328      	bcc.n	80036b2 <HAL_PCD_EP_DB_Receive+0x7e>
 8003660:	1b1b      	subs	r3, r3, r4
 8003662:	618b      	str	r3, [r1, #24]
 8003664:	698b      	ldr	r3, [r1, #24]
 8003666:	b97b      	cbnz	r3, 8003688 <HAL_PCD_EP_DB_Receive+0x54>
 8003668:	6805      	ldr	r5, [r0, #0]
 800366a:	f835 302c 	ldrh.w	r3, [r5, ip, lsl #2]
 800366e:	b29b      	uxth	r3, r3
 8003670:	f423 4380 	bic.w	r3, r3, #16384	@ 0x4000
 8003674:	f023 0370 	bic.w	r3, r3, #112	@ 0x70
 8003678:	f483 5300 	eor.w	r3, r3, #8192	@ 0x2000
 800367c:	f443 4300 	orr.w	r3, r3, #32768	@ 0x8000
 8003680:	f043 0380 	orr.w	r3, r3, #128	@ 0x80
 8003684:	f825 302c 	strh.w	r3, [r5, ip, lsl #2]
 8003688:	f012 0f40 	tst.w	r2, #64	@ 0x40
 800368c:	d00e      	beq.n	80036ac <HAL_PCD_EP_DB_Receive+0x78>
 800368e:	6802      	ldr	r2, [r0, #0]
 8003690:	780d      	ldrb	r5, [r1, #0]
 8003692:	f832 3025 	ldrh.w	r3, [r2, r5, lsl #2]
 8003696:	b29b      	uxth	r3, r3
 8003698:	f423 43e0 	bic.w	r3, r3, #28672	@ 0x7000
 800369c:	f023 0370 	bic.w	r3, r3, #112	@ 0x70
 80036a0:	f443 4300 	orr.w	r3, r3, #32768	@ 0x8000
 80036a4:	f043 03c0 	orr.w	r3, r3, #192	@ 0xc0
 80036a8:	f822 3025 	strh.w	r3, [r2, r5, lsl #2]
 80036ac:	b924      	cbnz	r4, 80036b8 <HAL_PCD_EP_DB_Receive+0x84>
 80036ae:	4620      	mov	r0, r4
 80036b0:	bd38      	pop	{r3, r4, r5, pc}
 80036b2:	2300      	movs	r3, #0
 80036b4:	618b      	str	r3, [r1, #24]
 80036b6:	e7d5      	b.n	8003664 <HAL_PCD_EP_DB_Receive+0x30>
 80036b8:	4623      	mov	r3, r4
 80036ba:	890a      	ldrh	r2, [r1, #8]
 80036bc:	6949      	ldr	r1, [r1, #20]
 80036be:	6800      	ldr	r0, [r0, #0]
 80036c0:	f003 f817 	bl	80066f2 <USB_ReadPMA>
 80036c4:	e7f3      	b.n	80036ae <HAL_PCD_EP_DB_Receive+0x7a>
 80036c6:	6804      	ldr	r4, [r0, #0]
 80036c8:	f8b4 3050 	ldrh.w	r3, [r4, #80]	@ 0x50
 80036cc:	b29b      	uxth	r3, r3
 80036ce:	f891 c000 	ldrb.w	ip, [r1]
 80036d2:	eb03 03cc 	add.w	r3, r3, ip, lsl #3
 80036d6:	3306      	adds	r3, #6
 80036d8:	eb04 0443 	add.w	r4, r4, r3, lsl #1
 80036dc:	f8b4 4400 	ldrh.w	r4, [r4, #1024]	@ 0x400
 80036e0:	f3c4 0409 	ubfx	r4, r4, #0, #10
 80036e4:	698b      	ldr	r3, [r1, #24]
 80036e6:	42a3      	cmp	r3, r4
 80036e8:	d32f      	bcc.n	800374a <HAL_PCD_EP_DB_Receive+0x116>
 80036ea:	1b1b      	subs	r3, r3, r4
 80036ec:	618b      	str	r3, [r1, #24]
 80036ee:	698b      	ldr	r3, [r1, #24]
 80036f0:	b97b      	cbnz	r3, 8003712 <HAL_PCD_EP_DB_Receive+0xde>
 80036f2:	6805      	ldr	r5, [r0, #0]
 80036f4:	f835 302c 	ldrh.w	r3, [r5, ip, lsl #2]
 80036f8:	b29b      	uxth	r3, r3
 80036fa:	f423 4380 	bic.w	r3, r3, #16384	@ 0x4000
 80036fe:	f023 0370 	bic.w	r3, r3, #112	@ 0x70
 8003702:	f483 5300 	eor.w	r3, r3, #8192	@ 0x2000
 8003706:	f443 4300 	orr.w	r3, r3, #32768	@ 0x8000
 800370a:	f043 0380 	orr.w	r3, r3, #128	@ 0x80
 800370e:	f825 302c 	strh.w	r3, [r5, ip, lsl #2]
 8003712:	f012 0f40 	tst.w	r2, #64	@ 0x40
 8003716:	d10f      	bne.n	8003738 <HAL_PCD_EP_DB_Receive+0x104>
 8003718:	6802      	ldr	r2, [r0, #0]
 800371a:	f891 c000 	ldrb.w	ip, [r1]
 800371e:	f832 302c 	ldrh.w	r3, [r2, ip, lsl #2]
 8003722:	b29b      	uxth	r3, r3
 8003724:	f423 43e0 	bic.w	r3, r3, #28672	@ 0x7000
 8003728:	f023 0370 	bic.w	r3, r3, #112	@ 0x70
 800372c:	f443 4300 	orr.w	r3, r3, #32768	@ 0x8000
 8003730:	f043 03c0 	orr.w	r3, r3, #192	@ 0xc0
 8003734:	f822 302c 	strh.w	r3, [r2, ip, lsl #2]
 8003738:	2c00      	cmp	r4, #0
 800373a:	d0b8      	beq.n	80036ae <HAL_PCD_EP_DB_Receive+0x7a>
 800373c:	4623      	mov	r3, r4
 800373e:	894a      	ldrh	r2, [r1, #10]
 8003740:	6949      	ldr	r1, [r1, #20]
 8003742:	6800      	ldr	r0, [r0, #0]
 8003744:	f002 ffd5 	bl	80066f2 <USB_ReadPMA>
 8003748:	e7b1      	b.n	80036ae <HAL_PCD_EP_DB_Receive+0x7a>
 800374a:	2300      	movs	r3, #0
 800374c:	618b      	str	r3, [r1, #24]
 800374e:	e7ce      	b.n	80036ee <HAL_PCD_EP_DB_Receive+0xba>

08003750 <HAL_PCD_Init>:
 8003750:	b538      	push	{r3, r4, r5, lr}
 8003752:	2800      	cmp	r0, #0
 8003754:	d06e      	beq.n	8003834 <HAL_PCD_Init+0xe4>
 8003756:	4604      	mov	r4, r0
 8003758:	f890 3291 	ldrb.w	r3, [r0, #657]	@ 0x291
 800375c:	b1a3      	cbz	r3, 8003788 <HAL_PCD_Init+0x38>
 800375e:	2303      	movs	r3, #3
 8003760:	f884 3291 	strb.w	r3, [r4, #657]	@ 0x291
 8003764:	2300      	movs	r3, #0
 8003766:	7163      	strb	r3, [r4, #5]
 8003768:	6820      	ldr	r0, [r4, #0]
 800376a:	f002 f855 	bl	8005818 <USB_DisableGlobalInt>
 800376e:	4623      	mov	r3, r4
 8003770:	f853 0b04 	ldr.w	r0, [r3], #4
 8003774:	cb0e      	ldmia	r3, {r1, r2, r3}
 8003776:	f002 f83f 	bl	80057f8 <USB_CoreInit>
 800377a:	b150      	cbz	r0, 8003792 <HAL_PCD_Init+0x42>
 800377c:	2302      	movs	r3, #2
 800377e:	f884 3291 	strb.w	r3, [r4, #657]	@ 0x291
 8003782:	2501      	movs	r5, #1
 8003784:	4628      	mov	r0, r5
 8003786:	bd38      	pop	{r3, r4, r5, pc}
 8003788:	f880 3290 	strb.w	r3, [r0, #656]	@ 0x290
 800378c:	f003 fbd6 	bl	8006f3c <HAL_PCD_MspInit>
 8003790:	e7e5      	b.n	800375e <HAL_PCD_Init+0xe>
 8003792:	2100      	movs	r1, #0
 8003794:	6820      	ldr	r0, [r4, #0]
 8003796:	f002 f849 	bl	800582c <USB_SetCurrentMode>
 800379a:	4603      	mov	r3, r0
 800379c:	b908      	cbnz	r0, 80037a2 <HAL_PCD_Init+0x52>
 800379e:	4602      	mov	r2, r0
 80037a0:	e015      	b.n	80037ce <HAL_PCD_Init+0x7e>
 80037a2:	2302      	movs	r3, #2
 80037a4:	f884 3291 	strb.w	r3, [r4, #657]	@ 0x291
 80037a8:	2501      	movs	r5, #1
 80037aa:	e7eb      	b.n	8003784 <HAL_PCD_Init+0x34>
 80037ac:	eb02 0182 	add.w	r1, r2, r2, lsl #2
 80037b0:	eb04 01c1 	add.w	r1, r4, r1, lsl #3
 80037b4:	2001      	movs	r0, #1
 80037b6:	7448      	strb	r0, [r1, #17]
 80037b8:	740a      	strb	r2, [r1, #16]
 80037ba:	2000      	movs	r0, #0
 80037bc:	74c8      	strb	r0, [r1, #19]
 80037be:	6208      	str	r0, [r1, #32]
 80037c0:	6248      	str	r0, [r1, #36]	@ 0x24
 80037c2:	3201      	adds	r2, #1
 80037c4:	eb02 0182 	add.w	r1, r2, r2, lsl #2
 80037c8:	00c9      	lsls	r1, r1, #3
 80037ca:	5060      	str	r0, [r4, r1]
 80037cc:	b2d2      	uxtb	r2, r2
 80037ce:	7920      	ldrb	r0, [r4, #4]
 80037d0:	4290      	cmp	r0, r2
 80037d2:	d8eb      	bhi.n	80037ac <HAL_PCD_Init+0x5c>
 80037d4:	e016      	b.n	8003804 <HAL_PCD_Init+0xb4>
 80037d6:	eb03 0283 	add.w	r2, r3, r3, lsl #2
 80037da:	eb04 02c2 	add.w	r2, r4, r2, lsl #3
 80037de:	2100      	movs	r1, #0
 80037e0:	f882 1151 	strb.w	r1, [r2, #337]	@ 0x151
 80037e4:	f882 3150 	strb.w	r3, [r2, #336]	@ 0x150
 80037e8:	f882 1153 	strb.w	r1, [r2, #339]	@ 0x153
 80037ec:	f8c2 1160 	str.w	r1, [r2, #352]	@ 0x160
 80037f0:	f8c2 1164 	str.w	r1, [r2, #356]	@ 0x164
 80037f4:	eb03 0283 	add.w	r2, r3, r3, lsl #2
 80037f8:	eb04 02c2 	add.w	r2, r4, r2, lsl #3
 80037fc:	f8c2 1168 	str.w	r1, [r2, #360]	@ 0x168
 8003800:	3301      	adds	r3, #1
 8003802:	b2db      	uxtb	r3, r3
 8003804:	4298      	cmp	r0, r3
 8003806:	d8e6      	bhi.n	80037d6 <HAL_PCD_Init+0x86>
 8003808:	4623      	mov	r3, r4
 800380a:	f853 0b04 	ldr.w	r0, [r3], #4
 800380e:	cb0e      	ldmia	r3, {r1, r2, r3}
 8003810:	f002 f80e 	bl	8005830 <USB_DevInit>
 8003814:	4605      	mov	r5, r0
 8003816:	b120      	cbz	r0, 8003822 <HAL_PCD_Init+0xd2>
 8003818:	2302      	movs	r3, #2
 800381a:	f884 3291 	strb.w	r3, [r4, #657]	@ 0x291
 800381e:	2501      	movs	r5, #1
 8003820:	e7b0      	b.n	8003784 <HAL_PCD_Init+0x34>
 8003822:	2300      	movs	r3, #0
 8003824:	7363      	strb	r3, [r4, #13]
 8003826:	2301      	movs	r3, #1
 8003828:	f884 3291 	strb.w	r3, [r4, #657]	@ 0x291
 800382c:	6820      	ldr	r0, [r4, #0]
 800382e:	f002 fb5e 	bl	8005eee <USB_DevDisconnect>
 8003832:	e7a7      	b.n	8003784 <HAL_PCD_Init+0x34>
 8003834:	2501      	movs	r5, #1
 8003836:	e7a5      	b.n	8003784 <HAL_PCD_Init+0x34>

08003838 <HAL_PCD_Start>:
 8003838:	b538      	push	{r3, r4, r5, lr}
 800383a:	f890 3290 	ldrb.w	r3, [r0, #656]	@ 0x290
 800383e:	2b01      	cmp	r3, #1
 8003840:	d011      	beq.n	8003866 <HAL_PCD_Start+0x2e>
 8003842:	4604      	mov	r4, r0
 8003844:	2501      	movs	r5, #1
 8003846:	f880 5290 	strb.w	r5, [r0, #656]	@ 0x290
 800384a:	6800      	ldr	r0, [r0, #0]
 800384c:	f001 ffdb 	bl	8005806 <USB_EnableGlobalInt>
 8003850:	4629      	mov	r1, r5
 8003852:	4620      	mov	r0, r4
 8003854:	f003 fc87 	bl	8007166 <HAL_PCDEx_SetConnectionState>
 8003858:	6820      	ldr	r0, [r4, #0]
 800385a:	f002 fb46 	bl	8005eea <USB_DevConnect>
 800385e:	2000      	movs	r0, #0
 8003860:	f884 0290 	strb.w	r0, [r4, #656]	@ 0x290
 8003864:	bd38      	pop	{r3, r4, r5, pc}
 8003866:	2002      	movs	r0, #2
 8003868:	e7fc      	b.n	8003864 <HAL_PCD_Start+0x2c>

0800386a <HAL_PCD_EP_DB_Transmit>:
 800386a:	b570      	push	{r4, r5, r6, lr}
 800386c:	4605      	mov	r5, r0
 800386e:	460c      	mov	r4, r1
 8003870:	4616      	mov	r6, r2
 8003872:	f012 0f40 	tst.w	r2, #64	@ 0x40
 8003876:	f000 810e 	beq.w	8003a96 <HAL_PCD_EP_DB_Transmit+0x22c>
 800387a:	6802      	ldr	r2, [r0, #0]
 800387c:	f8b2 3050 	ldrh.w	r3, [r2, #80]	@ 0x50
 8003880:	b29b      	uxth	r3, r3
 8003882:	7809      	ldrb	r1, [r1, #0]
 8003884:	eb03 03c1 	add.w	r3, r3, r1, lsl #3
 8003888:	3302      	adds	r3, #2
 800388a:	eb02 0243 	add.w	r2, r2, r3, lsl #1
 800388e:	f8b2 2400 	ldrh.w	r2, [r2, #1024]	@ 0x400
 8003892:	f3c2 0209 	ubfx	r2, r2, #0, #10
 8003896:	69a3      	ldr	r3, [r4, #24]
 8003898:	4293      	cmp	r3, r2
 800389a:	d94e      	bls.n	800393a <HAL_PCD_EP_DB_Transmit+0xd0>
 800389c:	1a9b      	subs	r3, r3, r2
 800389e:	61a3      	str	r3, [r4, #24]
 80038a0:	69a3      	ldr	r3, [r4, #24]
 80038a2:	2b00      	cmp	r3, #0
 80038a4:	d166      	bne.n	8003974 <HAL_PCD_EP_DB_Transmit+0x10a>
 80038a6:	7863      	ldrb	r3, [r4, #1]
 80038a8:	2b00      	cmp	r3, #0
 80038aa:	d149      	bne.n	8003940 <HAL_PCD_EP_DB_Transmit+0xd6>
 80038ac:	682b      	ldr	r3, [r5, #0]
 80038ae:	f8b3 2050 	ldrh.w	r2, [r3, #80]	@ 0x50
 80038b2:	b292      	uxth	r2, r2
 80038b4:	4413      	add	r3, r2
 80038b6:	eb03 1301 	add.w	r3, r3, r1, lsl #4
 80038ba:	f8b3 2404 	ldrh.w	r2, [r3, #1028]	@ 0x404
 80038be:	f3c2 0209 	ubfx	r2, r2, #0, #10
 80038c2:	f8a3 2404 	strh.w	r2, [r3, #1028]	@ 0x404
 80038c6:	f8b3 2404 	ldrh.w	r2, [r3, #1028]	@ 0x404
 80038ca:	ea6f 4242 	mvn.w	r2, r2, lsl #17
 80038ce:	ea6f 4252 	mvn.w	r2, r2, lsr #17
 80038d2:	b292      	uxth	r2, r2
 80038d4:	f8a3 2404 	strh.w	r2, [r3, #1028]	@ 0x404
 80038d8:	682b      	ldr	r3, [r5, #0]
 80038da:	7862      	ldrb	r2, [r4, #1]
 80038dc:	2a00      	cmp	r2, #0
 80038de:	d13c      	bne.n	800395a <HAL_PCD_EP_DB_Transmit+0xf0>
 80038e0:	f8b3 2050 	ldrh.w	r2, [r3, #80]	@ 0x50
 80038e4:	b292      	uxth	r2, r2
 80038e6:	4413      	add	r3, r2
 80038e8:	7822      	ldrb	r2, [r4, #0]
 80038ea:	eb03 1302 	add.w	r3, r3, r2, lsl #4
 80038ee:	f8b3 240c 	ldrh.w	r2, [r3, #1036]	@ 0x40c
 80038f2:	f3c2 0209 	ubfx	r2, r2, #0, #10
 80038f6:	f8a3 240c 	strh.w	r2, [r3, #1036]	@ 0x40c
 80038fa:	f8b3 240c 	ldrh.w	r2, [r3, #1036]	@ 0x40c
 80038fe:	ea6f 4242 	mvn.w	r2, r2, lsl #17
 8003902:	ea6f 4252 	mvn.w	r2, r2, lsr #17
 8003906:	b292      	uxth	r2, r2
 8003908:	f8a3 240c 	strh.w	r2, [r3, #1036]	@ 0x40c
 800390c:	7821      	ldrb	r1, [r4, #0]
 800390e:	4628      	mov	r0, r5
 8003910:	f003 fb48 	bl	8006fa4 <HAL_PCD_DataInStageCallback>
 8003914:	f416 4f80 	tst.w	r6, #16384	@ 0x4000
 8003918:	d041      	beq.n	800399e <HAL_PCD_EP_DB_Transmit+0x134>
 800391a:	682a      	ldr	r2, [r5, #0]
 800391c:	7821      	ldrb	r1, [r4, #0]
 800391e:	f832 3021 	ldrh.w	r3, [r2, r1, lsl #2]
 8003922:	b29b      	uxth	r3, r3
 8003924:	f423 43e0 	bic.w	r3, r3, #28672	@ 0x7000
 8003928:	f023 0370 	bic.w	r3, r3, #112	@ 0x70
 800392c:	f443 4340 	orr.w	r3, r3, #49152	@ 0xc000
 8003930:	f043 0380 	orr.w	r3, r3, #128	@ 0x80
 8003934:	f822 3021 	strh.w	r3, [r2, r1, lsl #2]
 8003938:	e031      	b.n	800399e <HAL_PCD_EP_DB_Transmit+0x134>
 800393a:	2300      	movs	r3, #0
 800393c:	61a3      	str	r3, [r4, #24]
 800393e:	e7af      	b.n	80038a0 <HAL_PCD_EP_DB_Transmit+0x36>
 8003940:	2b01      	cmp	r3, #1
 8003942:	d1c9      	bne.n	80038d8 <HAL_PCD_EP_DB_Transmit+0x6e>
 8003944:	682b      	ldr	r3, [r5, #0]
 8003946:	f8b3 2050 	ldrh.w	r2, [r3, #80]	@ 0x50
 800394a:	b292      	uxth	r2, r2
 800394c:	4413      	add	r3, r2
 800394e:	eb03 1301 	add.w	r3, r3, r1, lsl #4
 8003952:	2200      	movs	r2, #0
 8003954:	f8a3 2404 	strh.w	r2, [r3, #1028]	@ 0x404
 8003958:	e7be      	b.n	80038d8 <HAL_PCD_EP_DB_Transmit+0x6e>
 800395a:	2a01      	cmp	r2, #1
 800395c:	d1d6      	bne.n	800390c <HAL_PCD_EP_DB_Transmit+0xa2>
 800395e:	f8b3 2050 	ldrh.w	r2, [r3, #80]	@ 0x50
 8003962:	b292      	uxth	r2, r2
 8003964:	4413      	add	r3, r2
 8003966:	7822      	ldrb	r2, [r4, #0]
 8003968:	eb03 1302 	add.w	r3, r3, r2, lsl #4
 800396c:	2200      	movs	r2, #0
 800396e:	f8a3 240c 	strh.w	r2, [r3, #1036]	@ 0x40c
 8003972:	e7cb      	b.n	800390c <HAL_PCD_EP_DB_Transmit+0xa2>
 8003974:	f416 4f80 	tst.w	r6, #16384	@ 0x4000
 8003978:	d00d      	beq.n	8003996 <HAL_PCD_EP_DB_Transmit+0x12c>
 800397a:	6828      	ldr	r0, [r5, #0]
 800397c:	f830 3021 	ldrh.w	r3, [r0, r1, lsl #2]
 8003980:	b29b      	uxth	r3, r3
 8003982:	f423 43e0 	bic.w	r3, r3, #28672	@ 0x7000
 8003986:	f023 0370 	bic.w	r3, r3, #112	@ 0x70
 800398a:	f443 4340 	orr.w	r3, r3, #49152	@ 0xc000
 800398e:	f043 0380 	orr.w	r3, r3, #128	@ 0x80
 8003992:	f820 3021 	strh.w	r3, [r0, r1, lsl #2]
 8003996:	f894 3024 	ldrb.w	r3, [r4, #36]	@ 0x24
 800399a:	2b01      	cmp	r3, #1
 800399c:	d012      	beq.n	80039c4 <HAL_PCD_EP_DB_Transmit+0x15a>
 800399e:	682a      	ldr	r2, [r5, #0]
 80039a0:	7821      	ldrb	r1, [r4, #0]
 80039a2:	f832 3021 	ldrh.w	r3, [r2, r1, lsl #2]
 80039a6:	b29b      	uxth	r3, r3
 80039a8:	f423 43e0 	bic.w	r3, r3, #28672	@ 0x7000
 80039ac:	f023 0340 	bic.w	r3, r3, #64	@ 0x40
 80039b0:	f083 0330 	eor.w	r3, r3, #48	@ 0x30
 80039b4:	f443 4300 	orr.w	r3, r3, #32768	@ 0x8000
 80039b8:	f043 0380 	orr.w	r3, r3, #128	@ 0x80
 80039bc:	f822 3021 	strh.w	r3, [r2, r1, lsl #2]
 80039c0:	2000      	movs	r0, #0
 80039c2:	bd70      	pop	{r4, r5, r6, pc}
 80039c4:	6963      	ldr	r3, [r4, #20]
 80039c6:	4413      	add	r3, r2
 80039c8:	6163      	str	r3, [r4, #20]
 80039ca:	69e3      	ldr	r3, [r4, #28]
 80039cc:	4413      	add	r3, r2
 80039ce:	61e3      	str	r3, [r4, #28]
 80039d0:	6a21      	ldr	r1, [r4, #32]
 80039d2:	6923      	ldr	r3, [r4, #16]
 80039d4:	4299      	cmp	r1, r3
 80039d6:	d324      	bcc.n	8003a22 <HAL_PCD_EP_DB_Transmit+0x1b8>
 80039d8:	1ac9      	subs	r1, r1, r3
 80039da:	6221      	str	r1, [r4, #32]
 80039dc:	7862      	ldrb	r2, [r4, #1]
 80039de:	2a00      	cmp	r2, #0
 80039e0:	d144      	bne.n	8003a6c <HAL_PCD_EP_DB_Transmit+0x202>
 80039e2:	682a      	ldr	r2, [r5, #0]
 80039e4:	f8b2 1050 	ldrh.w	r1, [r2, #80]	@ 0x50
 80039e8:	b289      	uxth	r1, r1
 80039ea:	440a      	add	r2, r1
 80039ec:	7821      	ldrb	r1, [r4, #0]
 80039ee:	eb02 1201 	add.w	r2, r2, r1, lsl #4
 80039f2:	f8b2 1404 	ldrh.w	r1, [r2, #1028]	@ 0x404
 80039f6:	f3c1 0109 	ubfx	r1, r1, #0, #10
 80039fa:	f8a2 1404 	strh.w	r1, [r2, #1028]	@ 0x404
 80039fe:	2b3e      	cmp	r3, #62	@ 0x3e
 8003a00:	d91b      	bls.n	8003a3a <HAL_PCD_EP_DB_Transmit+0x1d0>
 8003a02:	0958      	lsrs	r0, r3, #5
 8003a04:	f013 0f1f 	tst.w	r3, #31
 8003a08:	d100      	bne.n	8003a0c <HAL_PCD_EP_DB_Transmit+0x1a2>
 8003a0a:	3801      	subs	r0, #1
 8003a0c:	f8b2 1404 	ldrh.w	r1, [r2, #1028]	@ 0x404
 8003a10:	b289      	uxth	r1, r1
 8003a12:	0280      	lsls	r0, r0, #10
 8003a14:	b280      	uxth	r0, r0
 8003a16:	4301      	orrs	r1, r0
 8003a18:	f441 4100 	orr.w	r1, r1, #32768	@ 0x8000
 8003a1c:	f8a2 1404 	strh.w	r1, [r2, #1028]	@ 0x404
 8003a20:	e026      	b.n	8003a70 <HAL_PCD_EP_DB_Transmit+0x206>
 8003a22:	b921      	cbnz	r1, 8003a2e <HAL_PCD_EP_DB_Transmit+0x1c4>
 8003a24:	2300      	movs	r3, #0
 8003a26:	f884 3024 	strb.w	r3, [r4, #36]	@ 0x24
 8003a2a:	4613      	mov	r3, r2
 8003a2c:	e7d6      	b.n	80039dc <HAL_PCD_EP_DB_Transmit+0x172>
 8003a2e:	2300      	movs	r3, #0
 8003a30:	f884 3024 	strb.w	r3, [r4, #36]	@ 0x24
 8003a34:	6223      	str	r3, [r4, #32]
 8003a36:	460b      	mov	r3, r1
 8003a38:	e7d0      	b.n	80039dc <HAL_PCD_EP_DB_Transmit+0x172>
 8003a3a:	b94b      	cbnz	r3, 8003a50 <HAL_PCD_EP_DB_Transmit+0x1e6>
 8003a3c:	f8b2 1404 	ldrh.w	r1, [r2, #1028]	@ 0x404
 8003a40:	ea6f 4141 	mvn.w	r1, r1, lsl #17
 8003a44:	ea6f 4151 	mvn.w	r1, r1, lsr #17
 8003a48:	b289      	uxth	r1, r1
 8003a4a:	f8a2 1404 	strh.w	r1, [r2, #1028]	@ 0x404
 8003a4e:	e00f      	b.n	8003a70 <HAL_PCD_EP_DB_Transmit+0x206>
 8003a50:	0859      	lsrs	r1, r3, #1
 8003a52:	f013 0f01 	tst.w	r3, #1
 8003a56:	d000      	beq.n	8003a5a <HAL_PCD_EP_DB_Transmit+0x1f0>
 8003a58:	3101      	adds	r1, #1
 8003a5a:	f8b2 0404 	ldrh.w	r0, [r2, #1028]	@ 0x404
 8003a5e:	b280      	uxth	r0, r0
 8003a60:	0289      	lsls	r1, r1, #10
 8003a62:	b289      	uxth	r1, r1
 8003a64:	4301      	orrs	r1, r0
 8003a66:	f8a2 1404 	strh.w	r1, [r2, #1028]	@ 0x404
 8003a6a:	e001      	b.n	8003a70 <HAL_PCD_EP_DB_Transmit+0x206>
 8003a6c:	2a01      	cmp	r2, #1
 8003a6e:	d006      	beq.n	8003a7e <HAL_PCD_EP_DB_Transmit+0x214>
 8003a70:	b29b      	uxth	r3, r3
 8003a72:	8922      	ldrh	r2, [r4, #8]
 8003a74:	6961      	ldr	r1, [r4, #20]
 8003a76:	6828      	ldr	r0, [r5, #0]
 8003a78:	f002 fa41 	bl	8005efe <USB_WritePMA>
 8003a7c:	e78f      	b.n	800399e <HAL_PCD_EP_DB_Transmit+0x134>
 8003a7e:	682a      	ldr	r2, [r5, #0]
 8003a80:	f8b2 1050 	ldrh.w	r1, [r2, #80]	@ 0x50
 8003a84:	b289      	uxth	r1, r1
 8003a86:	440a      	add	r2, r1
 8003a88:	7821      	ldrb	r1, [r4, #0]
 8003a8a:	eb02 1201 	add.w	r2, r2, r1, lsl #4
 8003a8e:	b299      	uxth	r1, r3
 8003a90:	f8a2 1404 	strh.w	r1, [r2, #1028]	@ 0x404
 8003a94:	e7ec      	b.n	8003a70 <HAL_PCD_EP_DB_Transmit+0x206>
 8003a96:	6802      	ldr	r2, [r0, #0]
 8003a98:	f8b2 3050 	ldrh.w	r3, [r2, #80]	@ 0x50
 8003a9c:	b29b      	uxth	r3, r3
 8003a9e:	7809      	ldrb	r1, [r1, #0]
 8003aa0:	eb03 03c1 	add.w	r3, r3, r1, lsl #3
 8003aa4:	3306      	adds	r3, #6
 8003aa6:	eb02 0243 	add.w	r2, r2, r3, lsl #1
 8003aaa:	f8b2 2400 	ldrh.w	r2, [r2, #1024]	@ 0x400
 8003aae:	f3c2 0209 	ubfx	r2, r2, #0, #10
 8003ab2:	69a3      	ldr	r3, [r4, #24]
 8003ab4:	4293      	cmp	r3, r2
 8003ab6:	d34f      	bcc.n	8003b58 <HAL_PCD_EP_DB_Transmit+0x2ee>
 8003ab8:	1a9b      	subs	r3, r3, r2
 8003aba:	61a3      	str	r3, [r4, #24]
 8003abc:	69a3      	ldr	r3, [r4, #24]
 8003abe:	2b00      	cmp	r3, #0
 8003ac0:	d167      	bne.n	8003b92 <HAL_PCD_EP_DB_Transmit+0x328>
 8003ac2:	7863      	ldrb	r3, [r4, #1]
 8003ac4:	2b00      	cmp	r3, #0
 8003ac6:	d14a      	bne.n	8003b5e <HAL_PCD_EP_DB_Transmit+0x2f4>
 8003ac8:	682b      	ldr	r3, [r5, #0]
 8003aca:	f8b3 2050 	ldrh.w	r2, [r3, #80]	@ 0x50
 8003ace:	b292      	uxth	r2, r2
 8003ad0:	4413      	add	r3, r2
 8003ad2:	eb03 1301 	add.w	r3, r3, r1, lsl #4
 8003ad6:	f8b3 2404 	ldrh.w	r2, [r3, #1028]	@ 0x404
 8003ada:	f3c2 0209 	ubfx	r2, r2, #0, #10
 8003ade:	f8a3 2404 	strh.w	r2, [r3, #1028]	@ 0x404
 8003ae2:	f8b3 2404 	ldrh.w	r2, [r3, #1028]	@ 0x404
 8003ae6:	ea6f 4242 	mvn.w	r2, r2, lsl #17
 8003aea:	ea6f 4252 	mvn.w	r2, r2, lsr #17
 8003aee:	b292      	uxth	r2, r2
 8003af0:	f8a3 2404 	strh.w	r2, [r3, #1028]	@ 0x404
 8003af4:	682b      	ldr	r3, [r5, #0]
 8003af6:	7862      	ldrb	r2, [r4, #1]
 8003af8:	2a00      	cmp	r2, #0
 8003afa:	d13d      	bne.n	8003b78 <HAL_PCD_EP_DB_Transmit+0x30e>
 8003afc:	f8b3 2050 	ldrh.w	r2, [r3, #80]	@ 0x50
 8003b00:	b292      	uxth	r2, r2
 8003b02:	4413      	add	r3, r2
 8003b04:	7822      	ldrb	r2, [r4, #0]
 8003b06:	eb03 1302 	add.w	r3, r3, r2, lsl #4
 8003b0a:	f8b3 240c 	ldrh.w	r2, [r3, #1036]	@ 0x40c
 8003b0e:	f3c2 0209 	ubfx	r2, r2, #0, #10
 8003b12:	f8a3 240c 	strh.w	r2, [r3, #1036]	@ 0x40c
 8003b16:	f8b3 240c 	ldrh.w	r2, [r3, #1036]	@ 0x40c
 8003b1a:	ea6f 4242 	mvn.w	r2, r2, lsl #17
 8003b1e:	ea6f 4252 	mvn.w	r2, r2, lsr #17
 8003b22:	b292      	uxth	r2, r2
 8003b24:	f8a3 240c 	strh.w	r2, [r3, #1036]	@ 0x40c
 8003b28:	7821      	ldrb	r1, [r4, #0]
 8003b2a:	4628      	mov	r0, r5
 8003b2c:	f003 fa3a 	bl	8006fa4 <HAL_PCD_DataInStageCallback>
 8003b30:	f416 4f80 	tst.w	r6, #16384	@ 0x4000
 8003b34:	f47f af33 	bne.w	800399e <HAL_PCD_EP_DB_Transmit+0x134>
 8003b38:	682a      	ldr	r2, [r5, #0]
 8003b3a:	7821      	ldrb	r1, [r4, #0]
 8003b3c:	f832 3021 	ldrh.w	r3, [r2, r1, lsl #2]
 8003b40:	b29b      	uxth	r3, r3
 8003b42:	f423 43e0 	bic.w	r3, r3, #28672	@ 0x7000
 8003b46:	f023 0370 	bic.w	r3, r3, #112	@ 0x70
 8003b4a:	f443 4340 	orr.w	r3, r3, #49152	@ 0xc000
 8003b4e:	f043 0380 	orr.w	r3, r3, #128	@ 0x80
 8003b52:	f822 3021 	strh.w	r3, [r2, r1, lsl #2]
 8003b56:	e722      	b.n	800399e <HAL_PCD_EP_DB_Transmit+0x134>
 8003b58:	2300      	movs	r3, #0
 8003b5a:	61a3      	str	r3, [r4, #24]
 8003b5c:	e7ae      	b.n	8003abc <HAL_PCD_EP_DB_Transmit+0x252>
 8003b5e:	2b01      	cmp	r3, #1
 8003b60:	d1c8      	bne.n	8003af4 <HAL_PCD_EP_DB_Transmit+0x28a>
 8003b62:	682b      	ldr	r3, [r5, #0]
 8003b64:	f8b3 2050 	ldrh.w	r2, [r3, #80]	@ 0x50
 8003b68:	b292      	uxth	r2, r2
 8003b6a:	4413      	add	r3, r2
 8003b6c:	eb03 1301 	add.w	r3, r3, r1, lsl #4
 8003b70:	2200      	movs	r2, #0
 8003b72:	f8a3 2404 	strh.w	r2, [r3, #1028]	@ 0x404
 8003b76:	e7bd      	b.n	8003af4 <HAL_PCD_EP_DB_Transmit+0x28a>
 8003b78:	2a01      	cmp	r2, #1
 8003b7a:	d1d5      	bne.n	8003b28 <HAL_PCD_EP_DB_Transmit+0x2be>
 8003b7c:	f8b3 2050 	ldrh.w	r2, [r3, #80]	@ 0x50
 8003b80:	b292      	uxth	r2, r2
 8003b82:	4413      	add	r3, r2
 8003b84:	7822      	ldrb	r2, [r4, #0]
 8003b86:	eb03 1302 	add.w	r3, r3, r2, lsl #4
 8003b8a:	2200      	movs	r2, #0
 8003b8c:	f8a3 240c 	strh.w	r2, [r3, #1036]	@ 0x40c
 8003b90:	e7ca      	b.n	8003b28 <HAL_PCD_EP_DB_Transmit+0x2be>
 8003b92:	f416 4f80 	tst.w	r6, #16384	@ 0x4000
 8003b96:	d10d      	bne.n	8003bb4 <HAL_PCD_EP_DB_Transmit+0x34a>
 8003b98:	6828      	ldr	r0, [r5, #0]
 8003b9a:	f830 3021 	ldrh.w	r3, [r0, r1, lsl #2]
 8003b9e:	b29b      	uxth	r3, r3
 8003ba0:	f423 43e0 	bic.w	r3, r3, #28672	@ 0x7000
 8003ba4:	f023 0370 	bic.w	r3, r3, #112	@ 0x70
 8003ba8:	f443 4340 	orr.w	r3, r3, #49152	@ 0xc000
 8003bac:	f043 0380 	orr.w	r3, r3, #128	@ 0x80
 8003bb0:	f820 3021 	strh.w	r3, [r0, r1, lsl #2]
 8003bb4:	f894 3024 	ldrb.w	r3, [r4, #36]	@ 0x24
 8003bb8:	2b01      	cmp	r3, #1
 8003bba:	f47f aef0 	bne.w	800399e <HAL_PCD_EP_DB_Transmit+0x134>
 8003bbe:	6963      	ldr	r3, [r4, #20]
 8003bc0:	4413      	add	r3, r2
 8003bc2:	6163      	str	r3, [r4, #20]
 8003bc4:	69e3      	ldr	r3, [r4, #28]
 8003bc6:	4413      	add	r3, r2
 8003bc8:	61e3      	str	r3, [r4, #28]
 8003bca:	6a21      	ldr	r1, [r4, #32]
 8003bcc:	6923      	ldr	r3, [r4, #16]
 8003bce:	4299      	cmp	r1, r3
 8003bd0:	d324      	bcc.n	8003c1c <HAL_PCD_EP_DB_Transmit+0x3b2>
 8003bd2:	1ac9      	subs	r1, r1, r3
 8003bd4:	6221      	str	r1, [r4, #32]
 8003bd6:	682a      	ldr	r2, [r5, #0]
 8003bd8:	7861      	ldrb	r1, [r4, #1]
 8003bda:	2900      	cmp	r1, #0
 8003bdc:	d143      	bne.n	8003c66 <HAL_PCD_EP_DB_Transmit+0x3fc>
 8003bde:	f8b2 1050 	ldrh.w	r1, [r2, #80]	@ 0x50
 8003be2:	b289      	uxth	r1, r1
 8003be4:	440a      	add	r2, r1
 8003be6:	7821      	ldrb	r1, [r4, #0]
 8003be8:	eb02 1201 	add.w	r2, r2, r1, lsl #4
 8003bec:	f8b2 140c 	ldrh.w	r1, [r2, #1036]	@ 0x40c
 8003bf0:	f3c1 0109 	ubfx	r1, r1, #0, #10
 8003bf4:	f8a2 140c 	strh.w	r1, [r2, #1036]	@ 0x40c
 8003bf8:	2b3e      	cmp	r3, #62	@ 0x3e
 8003bfa:	d91b      	bls.n	8003c34 <HAL_PCD_EP_DB_Transmit+0x3ca>
 8003bfc:	0958      	lsrs	r0, r3, #5
 8003bfe:	f013 0f1f 	tst.w	r3, #31
 8003c02:	d100      	bne.n	8003c06 <HAL_PCD_EP_DB_Transmit+0x39c>
 8003c04:	3801      	subs	r0, #1
 8003c06:	f8b2 140c 	ldrh.w	r1, [r2, #1036]	@ 0x40c
 8003c0a:	b289      	uxth	r1, r1
 8003c0c:	0280      	lsls	r0, r0, #10
 8003c0e:	b280      	uxth	r0, r0
 8003c10:	4301      	orrs	r1, r0
 8003c12:	f441 4100 	orr.w	r1, r1, #32768	@ 0x8000
 8003c16:	f8a2 140c 	strh.w	r1, [r2, #1036]	@ 0x40c
 8003c1a:	e026      	b.n	8003c6a <HAL_PCD_EP_DB_Transmit+0x400>
 8003c1c:	b921      	cbnz	r1, 8003c28 <HAL_PCD_EP_DB_Transmit+0x3be>
 8003c1e:	2300      	movs	r3, #0
 8003c20:	f884 3024 	strb.w	r3, [r4, #36]	@ 0x24
 8003c24:	4613      	mov	r3, r2
 8003c26:	e7d6      	b.n	8003bd6 <HAL_PCD_EP_DB_Transmit+0x36c>
 8003c28:	2300      	movs	r3, #0
 8003c2a:	6223      	str	r3, [r4, #32]
 8003c2c:	f884 3024 	strb.w	r3, [r4, #36]	@ 0x24
 8003c30:	460b      	mov	r3, r1
 8003c32:	e7d0      	b.n	8003bd6 <HAL_PCD_EP_DB_Transmit+0x36c>
 8003c34:	b94b      	cbnz	r3, 8003c4a <HAL_PCD_EP_DB_Transmit+0x3e0>
 8003c36:	f8b2 140c 	ldrh.w	r1, [r2, #1036]	@ 0x40c
 8003c3a:	ea6f 4141 	mvn.w	r1, r1, lsl #17
 8003c3e:	ea6f 4151 	mvn.w	r1, r1, lsr #17
 8003c42:	b289      	uxth	r1, r1
 8003c44:	f8a2 140c 	strh.w	r1, [r2, #1036]	@ 0x40c
 8003c48:	e00f      	b.n	8003c6a <HAL_PCD_EP_DB_Transmit+0x400>
 8003c4a:	0859      	lsrs	r1, r3, #1
 8003c4c:	f013 0f01 	tst.w	r3, #1
 8003c50:	d000      	beq.n	8003c54 <HAL_PCD_EP_DB_Transmit+0x3ea>
 8003c52:	3101      	adds	r1, #1
 8003c54:	f8b2 040c 	ldrh.w	r0, [r2, #1036]	@ 0x40c
 8003c58:	b280      	uxth	r0, r0
 8003c5a:	0289      	lsls	r1, r1, #10
 8003c5c:	b289      	uxth	r1, r1
 8003c5e:	4301      	orrs	r1, r0
 8003c60:	f8a2 140c 	strh.w	r1, [r2, #1036]	@ 0x40c
 8003c64:	e001      	b.n	8003c6a <HAL_PCD_EP_DB_Transmit+0x400>
 8003c66:	2901      	cmp	r1, #1
 8003c68:	d006      	beq.n	8003c78 <HAL_PCD_EP_DB_Transmit+0x40e>
 8003c6a:	b29b      	uxth	r3, r3
 8003c6c:	8962      	ldrh	r2, [r4, #10]
 8003c6e:	6961      	ldr	r1, [r4, #20]
 8003c70:	6828      	ldr	r0, [r5, #0]
 8003c72:	f002 f944 	bl	8005efe <USB_WritePMA>
 8003c76:	e692      	b.n	800399e <HAL_PCD_EP_DB_Transmit+0x134>
 8003c78:	f8b2 1050 	ldrh.w	r1, [r2, #80]	@ 0x50
 8003c7c:	b289      	uxth	r1, r1
 8003c7e:	440a      	add	r2, r1
 8003c80:	7821      	ldrb	r1, [r4, #0]
 8003c82:	eb02 1201 	add.w	r2, r2, r1, lsl #4
 8003c86:	b299      	uxth	r1, r3
 8003c88:	f8a2 140c 	strh.w	r1, [r2, #1036]	@ 0x40c
 8003c8c:	e7ed      	b.n	8003c6a <HAL_PCD_EP_DB_Transmit+0x400>

08003c8e <PCD_EP_ISR_Handler>:
 8003c8e:	e92d 41f0 	stmdb	sp!, {r4, r5, r6, r7, r8, lr}
 8003c92:	4605      	mov	r5, r0
 8003c94:	6828      	ldr	r0, [r5, #0]
 8003c96:	f8b0 3044 	ldrh.w	r3, [r0, #68]	@ 0x44
 8003c9a:	f413 4f00 	tst.w	r3, #32768	@ 0x8000
 8003c9e:	f000 829d 	beq.w	80041dc <PCD_EP_ISR_Handler+0x54e>
 8003ca2:	f8b0 4044 	ldrh.w	r4, [r0, #68]	@ 0x44
 8003ca6:	b2a3      	uxth	r3, r4
 8003ca8:	f014 040f 	ands.w	r4, r4, #15
 8003cac:	f040 80de 	bne.w	8003e6c <PCD_EP_ISR_Handler+0x1de>
 8003cb0:	f013 0f10 	tst.w	r3, #16
 8003cb4:	d06b      	beq.n	8003d8e <PCD_EP_ISR_Handler+0x100>
 8003cb6:	8803      	ldrh	r3, [r0, #0]
 8003cb8:	b29a      	uxth	r2, r3
 8003cba:	f413 6f00 	tst.w	r3, #2048	@ 0x800
 8003cbe:	f040 8099 	bne.w	8003df4 <PCD_EP_ISR_Handler+0x166>
 8003cc2:	f412 4f00 	tst.w	r2, #32768	@ 0x8000
 8003cc6:	d0e5      	beq.n	8003c94 <PCD_EP_ISR_Handler+0x6>
 8003cc8:	8803      	ldrh	r3, [r0, #0]
 8003cca:	f023 0370 	bic.w	r3, r3, #112	@ 0x70
 8003cce:	051b      	lsls	r3, r3, #20
 8003cd0:	0d1b      	lsrs	r3, r3, #20
 8003cd2:	f043 0380 	orr.w	r3, r3, #128	@ 0x80
 8003cd6:	8003      	strh	r3, [r0, #0]
 8003cd8:	6828      	ldr	r0, [r5, #0]
 8003cda:	f8b0 3050 	ldrh.w	r3, [r0, #80]	@ 0x50
 8003cde:	b29b      	uxth	r3, r3
 8003ce0:	f895 2150 	ldrb.w	r2, [r5, #336]	@ 0x150
 8003ce4:	eb03 03c2 	add.w	r3, r3, r2, lsl #3
 8003ce8:	3306      	adds	r3, #6
 8003cea:	eb00 0343 	add.w	r3, r0, r3, lsl #1
 8003cee:	f8b3 3400 	ldrh.w	r3, [r3, #1024]	@ 0x400
 8003cf2:	f3c3 0309 	ubfx	r3, r3, #0, #10
 8003cf6:	f8c5 316c 	str.w	r3, [r5, #364]	@ 0x16c
 8003cfa:	b18b      	cbz	r3, 8003d20 <PCD_EP_ISR_Handler+0x92>
 8003cfc:	f8d5 1164 	ldr.w	r1, [r5, #356]	@ 0x164
 8003d00:	b171      	cbz	r1, 8003d20 <PCD_EP_ISR_Handler+0x92>
 8003d02:	f8b5 2156 	ldrh.w	r2, [r5, #342]	@ 0x156
 8003d06:	f002 fcf4 	bl	80066f2 <USB_ReadPMA>
 8003d0a:	f8d5 3164 	ldr.w	r3, [r5, #356]	@ 0x164
 8003d0e:	f8d5 216c 	ldr.w	r2, [r5, #364]	@ 0x16c
 8003d12:	4413      	add	r3, r2
 8003d14:	f8c5 3164 	str.w	r3, [r5, #356]	@ 0x164
 8003d18:	2100      	movs	r1, #0
 8003d1a:	4628      	mov	r0, r5
 8003d1c:	f003 f936 	bl	8006f8c <HAL_PCD_DataOutStageCallback>
 8003d20:	682a      	ldr	r2, [r5, #0]
 8003d22:	8813      	ldrh	r3, [r2, #0]
 8003d24:	b299      	uxth	r1, r3
 8003d26:	f413 6f00 	tst.w	r3, #2048	@ 0x800
 8003d2a:	d1b3      	bne.n	8003c94 <PCD_EP_ISR_Handler+0x6>
 8003d2c:	f401 5140 	and.w	r1, r1, #12288	@ 0x3000
 8003d30:	f5b1 5f40 	cmp.w	r1, #12288	@ 0x3000
 8003d34:	d0ae      	beq.n	8003c94 <PCD_EP_ISR_Handler+0x6>
 8003d36:	f8b2 3050 	ldrh.w	r3, [r2, #80]	@ 0x50
 8003d3a:	b29b      	uxth	r3, r3
 8003d3c:	441a      	add	r2, r3
 8003d3e:	f8b2 340c 	ldrh.w	r3, [r2, #1036]	@ 0x40c
 8003d42:	f3c3 0309 	ubfx	r3, r3, #0, #10
 8003d46:	f8a2 340c 	strh.w	r3, [r2, #1036]	@ 0x40c
 8003d4a:	f8d5 3160 	ldr.w	r3, [r5, #352]	@ 0x160
 8003d4e:	2b3e      	cmp	r3, #62	@ 0x3e
 8003d50:	d973      	bls.n	8003e3a <PCD_EP_ISR_Handler+0x1ac>
 8003d52:	0959      	lsrs	r1, r3, #5
 8003d54:	f013 0f1f 	tst.w	r3, #31
 8003d58:	d100      	bne.n	8003d5c <PCD_EP_ISR_Handler+0xce>
 8003d5a:	3901      	subs	r1, #1
 8003d5c:	f8b2 340c 	ldrh.w	r3, [r2, #1036]	@ 0x40c
 8003d60:	b29b      	uxth	r3, r3
 8003d62:	0289      	lsls	r1, r1, #10
 8003d64:	b289      	uxth	r1, r1
 8003d66:	430b      	orrs	r3, r1
 8003d68:	f443 4300 	orr.w	r3, r3, #32768	@ 0x8000
 8003d6c:	f8a2 340c 	strh.w	r3, [r2, #1036]	@ 0x40c
 8003d70:	682a      	ldr	r2, [r5, #0]
 8003d72:	8813      	ldrh	r3, [r2, #0]
 8003d74:	b29b      	uxth	r3, r3
 8003d76:	f423 4380 	bic.w	r3, r3, #16384	@ 0x4000
 8003d7a:	f023 0370 	bic.w	r3, r3, #112	@ 0x70
 8003d7e:	f483 5340 	eor.w	r3, r3, #12288	@ 0x3000
 8003d82:	f443 4300 	orr.w	r3, r3, #32768	@ 0x8000
 8003d86:	f043 0380 	orr.w	r3, r3, #128	@ 0x80
 8003d8a:	8013      	strh	r3, [r2, #0]
 8003d8c:	e782      	b.n	8003c94 <PCD_EP_ISR_Handler+0x6>
 8003d8e:	8803      	ldrh	r3, [r0, #0]
 8003d90:	b29b      	uxth	r3, r3
 8003d92:	f423 43e1 	bic.w	r3, r3, #28800	@ 0x7080
 8003d96:	f023 0370 	bic.w	r3, r3, #112	@ 0x70
 8003d9a:	ea6f 4343 	mvn.w	r3, r3, lsl #17
 8003d9e:	ea6f 4353 	mvn.w	r3, r3, lsr #17
 8003da2:	b29b      	uxth	r3, r3
 8003da4:	8003      	strh	r3, [r0, #0]
 8003da6:	682a      	ldr	r2, [r5, #0]
 8003da8:	f8b2 3050 	ldrh.w	r3, [r2, #80]	@ 0x50
 8003dac:	b29b      	uxth	r3, r3
 8003dae:	7c29      	ldrb	r1, [r5, #16]
 8003db0:	eb03 03c1 	add.w	r3, r3, r1, lsl #3
 8003db4:	3302      	adds	r3, #2
 8003db6:	eb02 0243 	add.w	r2, r2, r3, lsl #1
 8003dba:	f8b2 3400 	ldrh.w	r3, [r2, #1024]	@ 0x400
 8003dbe:	f3c3 0309 	ubfx	r3, r3, #0, #10
 8003dc2:	62eb      	str	r3, [r5, #44]	@ 0x2c
 8003dc4:	6a6a      	ldr	r2, [r5, #36]	@ 0x24
 8003dc6:	441a      	add	r2, r3
 8003dc8:	626a      	str	r2, [r5, #36]	@ 0x24
 8003dca:	2100      	movs	r1, #0
 8003dcc:	4628      	mov	r0, r5
 8003dce:	f003 f8e9 	bl	8006fa4 <HAL_PCD_DataInStageCallback>
 8003dd2:	7b6b      	ldrb	r3, [r5, #13]
 8003dd4:	2b00      	cmp	r3, #0
 8003dd6:	f43f af5d 	beq.w	8003c94 <PCD_EP_ISR_Handler+0x6>
 8003dda:	6aab      	ldr	r3, [r5, #40]	@ 0x28
 8003ddc:	2b00      	cmp	r3, #0
 8003dde:	f47f af59 	bne.w	8003c94 <PCD_EP_ISR_Handler+0x6>
 8003de2:	7b6b      	ldrb	r3, [r5, #13]
 8003de4:	682a      	ldr	r2, [r5, #0]
 8003de6:	f043 0380 	orr.w	r3, r3, #128	@ 0x80
 8003dea:	f8a2 304c 	strh.w	r3, [r2, #76]	@ 0x4c
 8003dee:	2300      	movs	r3, #0
 8003df0:	736b      	strb	r3, [r5, #13]
 8003df2:	e74f      	b.n	8003c94 <PCD_EP_ISR_Handler+0x6>
 8003df4:	f8b0 3050 	ldrh.w	r3, [r0, #80]	@ 0x50
 8003df8:	b29b      	uxth	r3, r3
 8003dfa:	f895 2150 	ldrb.w	r2, [r5, #336]	@ 0x150
 8003dfe:	eb03 03c2 	add.w	r3, r3, r2, lsl #3
 8003e02:	3306      	adds	r3, #6
 8003e04:	eb00 0343 	add.w	r3, r0, r3, lsl #1
 8003e08:	f8b3 3400 	ldrh.w	r3, [r3, #1024]	@ 0x400
 8003e0c:	f3c3 0309 	ubfx	r3, r3, #0, #10
 8003e10:	f8c5 316c 	str.w	r3, [r5, #364]	@ 0x16c
 8003e14:	f8b5 2156 	ldrh.w	r2, [r5, #342]	@ 0x156
 8003e18:	f505 7126 	add.w	r1, r5, #664	@ 0x298
 8003e1c:	f002 fc69 	bl	80066f2 <USB_ReadPMA>
 8003e20:	682a      	ldr	r2, [r5, #0]
 8003e22:	8813      	ldrh	r3, [r2, #0]
 8003e24:	f023 0370 	bic.w	r3, r3, #112	@ 0x70
 8003e28:	051b      	lsls	r3, r3, #20
 8003e2a:	0d1b      	lsrs	r3, r3, #20
 8003e2c:	f043 0380 	orr.w	r3, r3, #128	@ 0x80
 8003e30:	8013      	strh	r3, [r2, #0]
 8003e32:	4628      	mov	r0, r5
 8003e34:	f003 f8a2 	bl	8006f7c <HAL_PCD_SetupStageCallback>
 8003e38:	e72c      	b.n	8003c94 <PCD_EP_ISR_Handler+0x6>
 8003e3a:	b94b      	cbnz	r3, 8003e50 <PCD_EP_ISR_Handler+0x1c2>
 8003e3c:	f8b2 340c 	ldrh.w	r3, [r2, #1036]	@ 0x40c
 8003e40:	ea6f 4343 	mvn.w	r3, r3, lsl #17
 8003e44:	ea6f 4353 	mvn.w	r3, r3, lsr #17
 8003e48:	b29b      	uxth	r3, r3
 8003e4a:	f8a2 340c 	strh.w	r3, [r2, #1036]	@ 0x40c
 8003e4e:	e78f      	b.n	8003d70 <PCD_EP_ISR_Handler+0xe2>
 8003e50:	0859      	lsrs	r1, r3, #1
 8003e52:	f013 0f01 	tst.w	r3, #1
 8003e56:	d000      	beq.n	8003e5a <PCD_EP_ISR_Handler+0x1cc>
 8003e58:	3101      	adds	r1, #1
 8003e5a:	f8b2 340c 	ldrh.w	r3, [r2, #1036]	@ 0x40c
 8003e5e:	b298      	uxth	r0, r3
 8003e60:	028b      	lsls	r3, r1, #10
 8003e62:	b29b      	uxth	r3, r3
 8003e64:	4303      	orrs	r3, r0
 8003e66:	f8a2 340c 	strh.w	r3, [r2, #1036]	@ 0x40c
 8003e6a:	e781      	b.n	8003d70 <PCD_EP_ISR_Handler+0xe2>
 8003e6c:	f830 3024 	ldrh.w	r3, [r0, r4, lsl #2]
 8003e70:	b29e      	uxth	r6, r3
 8003e72:	f413 4f00 	tst.w	r3, #32768	@ 0x8000
 8003e76:	d150      	bne.n	8003f1a <PCD_EP_ISR_Handler+0x28c>
 8003e78:	f016 0f80 	tst.w	r6, #128	@ 0x80
 8003e7c:	f43f af0a 	beq.w	8003c94 <PCD_EP_ISR_Handler+0x6>
 8003e80:	eb04 0184 	add.w	r1, r4, r4, lsl #2
 8003e84:	00c9      	lsls	r1, r1, #3
 8003e86:	3110      	adds	r1, #16
 8003e88:	4429      	add	r1, r5
 8003e8a:	682a      	ldr	r2, [r5, #0]
 8003e8c:	f832 3024 	ldrh.w	r3, [r2, r4, lsl #2]
 8003e90:	b29b      	uxth	r3, r3
 8003e92:	f423 43e1 	bic.w	r3, r3, #28800	@ 0x7080
 8003e96:	f023 0370 	bic.w	r3, r3, #112	@ 0x70
 8003e9a:	ea6f 4343 	mvn.w	r3, r3, lsl #17
 8003e9e:	ea6f 4353 	mvn.w	r3, r3, lsr #17
 8003ea2:	b29b      	uxth	r3, r3
 8003ea4:	f822 3024 	strh.w	r3, [r2, r4, lsl #2]
 8003ea8:	eb04 0384 	add.w	r3, r4, r4, lsl #2
 8003eac:	eb05 03c3 	add.w	r3, r5, r3, lsl #3
 8003eb0:	7cdb      	ldrb	r3, [r3, #19]
 8003eb2:	2b01      	cmp	r3, #1
 8003eb4:	f000 80f2 	beq.w	800409c <PCD_EP_ISR_Handler+0x40e>
 8003eb8:	f416 7f80 	tst.w	r6, #256	@ 0x100
 8003ebc:	f040 8189 	bne.w	80041d2 <PCD_EP_ISR_Handler+0x544>
 8003ec0:	6828      	ldr	r0, [r5, #0]
 8003ec2:	f8b0 3050 	ldrh.w	r3, [r0, #80]	@ 0x50
 8003ec6:	b29b      	uxth	r3, r3
 8003ec8:	eb04 0284 	add.w	r2, r4, r4, lsl #2
 8003ecc:	eb05 02c2 	add.w	r2, r5, r2, lsl #3
 8003ed0:	7c16      	ldrb	r6, [r2, #16]
 8003ed2:	eb03 03c6 	add.w	r3, r3, r6, lsl #3
 8003ed6:	3302      	adds	r3, #2
 8003ed8:	eb00 0343 	add.w	r3, r0, r3, lsl #1
 8003edc:	f8b3 3400 	ldrh.w	r3, [r3, #1024]	@ 0x400
 8003ee0:	f3c3 0309 	ubfx	r3, r3, #0, #10
 8003ee4:	1c62      	adds	r2, r4, #1
 8003ee6:	eb02 0282 	add.w	r2, r2, r2, lsl #2
 8003eea:	f855 2032 	ldr.w	r2, [r5, r2, lsl #3]
 8003eee:	429a      	cmp	r2, r3
 8003ef0:	f240 8152 	bls.w	8004198 <PCD_EP_ISR_Handler+0x50a>
 8003ef4:	1c67      	adds	r7, r4, #1
 8003ef6:	eb07 0787 	add.w	r7, r7, r7, lsl #2
 8003efa:	1ad2      	subs	r2, r2, r3
 8003efc:	f845 2037 	str.w	r2, [r5, r7, lsl #3]
 8003f00:	1c62      	adds	r2, r4, #1
 8003f02:	eb02 0282 	add.w	r2, r2, r2, lsl #2
 8003f06:	f855 2032 	ldr.w	r2, [r5, r2, lsl #3]
 8003f0a:	2a00      	cmp	r2, #0
 8003f0c:	f040 814b 	bne.w	80041a6 <PCD_EP_ISR_Handler+0x518>
 8003f10:	4631      	mov	r1, r6
 8003f12:	4628      	mov	r0, r5
 8003f14:	f003 f846 	bl	8006fa4 <HAL_PCD_DataInStageCallback>
 8003f18:	e6bc      	b.n	8003c94 <PCD_EP_ISR_Handler+0x6>
 8003f1a:	f830 3024 	ldrh.w	r3, [r0, r4, lsl #2]
 8003f1e:	f023 0370 	bic.w	r3, r3, #112	@ 0x70
 8003f22:	051b      	lsls	r3, r3, #20
 8003f24:	0d1b      	lsrs	r3, r3, #20
 8003f26:	f043 0380 	orr.w	r3, r3, #128	@ 0x80
 8003f2a:	f820 3024 	strh.w	r3, [r0, r4, lsl #2]
 8003f2e:	eb04 0184 	add.w	r1, r4, r4, lsl #2
 8003f32:	00c9      	lsls	r1, r1, #3
 8003f34:	f501 71a8 	add.w	r1, r1, #336	@ 0x150
 8003f38:	eb05 0801 	add.w	r8, r5, r1
 8003f3c:	eb04 0384 	add.w	r3, r4, r4, lsl #2
 8003f40:	eb05 03c3 	add.w	r3, r5, r3, lsl #3
 8003f44:	f893 315c 	ldrb.w	r3, [r3, #348]	@ 0x15c
 8003f48:	2b00      	cmp	r3, #0
 8003f4a:	d142      	bne.n	8003fd2 <PCD_EP_ISR_Handler+0x344>
 8003f4c:	6828      	ldr	r0, [r5, #0]
 8003f4e:	f8b0 3050 	ldrh.w	r3, [r0, #80]	@ 0x50
 8003f52:	b29b      	uxth	r3, r3
 8003f54:	eb04 0284 	add.w	r2, r4, r4, lsl #2
 8003f58:	eb05 02c2 	add.w	r2, r5, r2, lsl #3
 8003f5c:	f892 2150 	ldrb.w	r2, [r2, #336]	@ 0x150
 8003f60:	eb03 03c2 	add.w	r3, r3, r2, lsl #3
 8003f64:	3306      	adds	r3, #6
 8003f66:	eb00 0343 	add.w	r3, r0, r3, lsl #1
 8003f6a:	f8b3 7400 	ldrh.w	r7, [r3, #1024]	@ 0x400
 8003f6e:	f3c7 0709 	ubfx	r7, r7, #0, #10
 8003f72:	bb17      	cbnz	r7, 8003fba <PCD_EP_ISR_Handler+0x32c>
 8003f74:	eb04 0384 	add.w	r3, r4, r4, lsl #2
 8003f78:	eb05 03c3 	add.w	r3, r5, r3, lsl #3
 8003f7c:	f8d3 216c 	ldr.w	r2, [r3, #364]	@ 0x16c
 8003f80:	443a      	add	r2, r7
 8003f82:	f8c3 216c 	str.w	r2, [r3, #364]	@ 0x16c
 8003f86:	f8d3 2164 	ldr.w	r2, [r3, #356]	@ 0x164
 8003f8a:	443a      	add	r2, r7
 8003f8c:	f8c3 2164 	str.w	r2, [r3, #356]	@ 0x164
 8003f90:	f8d3 3168 	ldr.w	r3, [r3, #360]	@ 0x168
 8003f94:	b13b      	cbz	r3, 8003fa6 <PCD_EP_ISR_Handler+0x318>
 8003f96:	eb04 0384 	add.w	r3, r4, r4, lsl #2
 8003f9a:	eb05 03c3 	add.w	r3, r5, r3, lsl #3
 8003f9e:	f8d3 3160 	ldr.w	r3, [r3, #352]	@ 0x160
 8003fa2:	429f      	cmp	r7, r3
 8003fa4:	d275      	bcs.n	8004092 <PCD_EP_ISR_Handler+0x404>
 8003fa6:	eb04 0384 	add.w	r3, r4, r4, lsl #2
 8003faa:	eb05 03c3 	add.w	r3, r5, r3, lsl #3
 8003fae:	f893 1150 	ldrb.w	r1, [r3, #336]	@ 0x150
 8003fb2:	4628      	mov	r0, r5
 8003fb4:	f002 ffea 	bl	8006f8c <HAL_PCD_DataOutStageCallback>
 8003fb8:	e75e      	b.n	8003e78 <PCD_EP_ISR_Handler+0x1ea>
 8003fba:	eb04 0184 	add.w	r1, r4, r4, lsl #2
 8003fbe:	eb05 01c1 	add.w	r1, r5, r1, lsl #3
 8003fc2:	463b      	mov	r3, r7
 8003fc4:	f8b1 2156 	ldrh.w	r2, [r1, #342]	@ 0x156
 8003fc8:	f8d1 1164 	ldr.w	r1, [r1, #356]	@ 0x164
 8003fcc:	f002 fb91 	bl	80066f2 <USB_ReadPMA>
 8003fd0:	e7d0      	b.n	8003f74 <PCD_EP_ISR_Handler+0x2e6>
 8003fd2:	eb04 0384 	add.w	r3, r4, r4, lsl #2
 8003fd6:	eb05 03c3 	add.w	r3, r5, r3, lsl #3
 8003fda:	f893 3153 	ldrb.w	r3, [r3, #339]	@ 0x153
 8003fde:	2b02      	cmp	r3, #2
 8003fe0:	d035      	beq.n	800404e <PCD_EP_ISR_Handler+0x3c0>
 8003fe2:	6829      	ldr	r1, [r5, #0]
 8003fe4:	eb04 0284 	add.w	r2, r4, r4, lsl #2
 8003fe8:	eb05 02c2 	add.w	r2, r5, r2, lsl #3
 8003fec:	f892 0150 	ldrb.w	r0, [r2, #336]	@ 0x150
 8003ff0:	f831 3020 	ldrh.w	r3, [r1, r0, lsl #2]
 8003ff4:	b29b      	uxth	r3, r3
 8003ff6:	f423 43e0 	bic.w	r3, r3, #28672	@ 0x7000
 8003ffa:	f023 0370 	bic.w	r3, r3, #112	@ 0x70
 8003ffe:	f443 4300 	orr.w	r3, r3, #32768	@ 0x8000
 8004002:	f043 03c0 	orr.w	r3, r3, #192	@ 0xc0
 8004006:	f821 3020 	strh.w	r3, [r1, r0, lsl #2]
 800400a:	6828      	ldr	r0, [r5, #0]
 800400c:	f892 2150 	ldrb.w	r2, [r2, #336]	@ 0x150
 8004010:	f830 3022 	ldrh.w	r3, [r0, r2, lsl #2]
 8004014:	f413 4f80 	tst.w	r3, #16384	@ 0x4000
 8004018:	d020      	beq.n	800405c <PCD_EP_ISR_Handler+0x3ce>
 800401a:	f8b0 3050 	ldrh.w	r3, [r0, #80]	@ 0x50
 800401e:	b29b      	uxth	r3, r3
 8004020:	eb03 03c2 	add.w	r3, r3, r2, lsl #3
 8004024:	3302      	adds	r3, #2
 8004026:	eb00 0343 	add.w	r3, r0, r3, lsl #1
 800402a:	f8b3 7400 	ldrh.w	r7, [r3, #1024]	@ 0x400
 800402e:	f3c7 0709 	ubfx	r7, r7, #0, #10
 8004032:	2f00      	cmp	r7, #0
 8004034:	d09e      	beq.n	8003f74 <PCD_EP_ISR_Handler+0x2e6>
 8004036:	eb04 0184 	add.w	r1, r4, r4, lsl #2
 800403a:	eb05 01c1 	add.w	r1, r5, r1, lsl #3
 800403e:	463b      	mov	r3, r7
 8004040:	f8b1 2158 	ldrh.w	r2, [r1, #344]	@ 0x158
 8004044:	f8d1 1164 	ldr.w	r1, [r1, #356]	@ 0x164
 8004048:	f002 fb53 	bl	80066f2 <USB_ReadPMA>
 800404c:	e792      	b.n	8003f74 <PCD_EP_ISR_Handler+0x2e6>
 800404e:	4632      	mov	r2, r6
 8004050:	4641      	mov	r1, r8
 8004052:	4628      	mov	r0, r5
 8004054:	f7ff faee 	bl	8003634 <HAL_PCD_EP_DB_Receive>
 8004058:	4607      	mov	r7, r0
 800405a:	e78b      	b.n	8003f74 <PCD_EP_ISR_Handler+0x2e6>
 800405c:	f8b0 3050 	ldrh.w	r3, [r0, #80]	@ 0x50
 8004060:	b29b      	uxth	r3, r3
 8004062:	eb03 03c2 	add.w	r3, r3, r2, lsl #3
 8004066:	3306      	adds	r3, #6
 8004068:	eb00 0343 	add.w	r3, r0, r3, lsl #1
 800406c:	f8b3 7400 	ldrh.w	r7, [r3, #1024]	@ 0x400
 8004070:	f3c7 0709 	ubfx	r7, r7, #0, #10
 8004074:	2f00      	cmp	r7, #0
 8004076:	f43f af7d 	beq.w	8003f74 <PCD_EP_ISR_Handler+0x2e6>
 800407a:	eb04 0184 	add.w	r1, r4, r4, lsl #2
 800407e:	eb05 01c1 	add.w	r1, r5, r1, lsl #3
 8004082:	463b      	mov	r3, r7
 8004084:	f8b1 215a 	ldrh.w	r2, [r1, #346]	@ 0x15a
 8004088:	f8d1 1164 	ldr.w	r1, [r1, #356]	@ 0x164
 800408c:	f002 fb31 	bl	80066f2 <USB_ReadPMA>
 8004090:	e770      	b.n	8003f74 <PCD_EP_ISR_Handler+0x2e6>
 8004092:	4641      	mov	r1, r8
 8004094:	6828      	ldr	r0, [r5, #0]
 8004096:	f001 ff45 	bl	8005f24 <USB_EPStartXfer>
 800409a:	e6ed      	b.n	8003e78 <PCD_EP_ISR_Handler+0x1ea>
 800409c:	1c63      	adds	r3, r4, #1
 800409e:	eb03 0383 	add.w	r3, r3, r3, lsl #2
 80040a2:	00db      	lsls	r3, r3, #3
 80040a4:	2200      	movs	r2, #0
 80040a6:	50ea      	str	r2, [r5, r3]
 80040a8:	eb04 0384 	add.w	r3, r4, r4, lsl #2
 80040ac:	eb05 03c3 	add.w	r3, r5, r3, lsl #3
 80040b0:	7f1b      	ldrb	r3, [r3, #28]
 80040b2:	b31b      	cbz	r3, 80040fc <PCD_EP_ISR_Handler+0x46e>
 80040b4:	f016 0f40 	tst.w	r6, #64	@ 0x40
 80040b8:	d03b      	beq.n	8004132 <PCD_EP_ISR_Handler+0x4a4>
 80040ba:	eb04 0384 	add.w	r3, r4, r4, lsl #2
 80040be:	eb05 03c3 	add.w	r3, r5, r3, lsl #3
 80040c2:	7c5b      	ldrb	r3, [r3, #17]
 80040c4:	bb1b      	cbnz	r3, 800410e <PCD_EP_ISR_Handler+0x480>
 80040c6:	682b      	ldr	r3, [r5, #0]
 80040c8:	f8b3 2050 	ldrh.w	r2, [r3, #80]	@ 0x50
 80040cc:	b292      	uxth	r2, r2
 80040ce:	4413      	add	r3, r2
 80040d0:	eb04 0284 	add.w	r2, r4, r4, lsl #2
 80040d4:	eb05 02c2 	add.w	r2, r5, r2, lsl #3
 80040d8:	7c12      	ldrb	r2, [r2, #16]
 80040da:	eb03 1302 	add.w	r3, r3, r2, lsl #4
 80040de:	f8b3 2404 	ldrh.w	r2, [r3, #1028]	@ 0x404
 80040e2:	f3c2 0209 	ubfx	r2, r2, #0, #10
 80040e6:	f8a3 2404 	strh.w	r2, [r3, #1028]	@ 0x404
 80040ea:	f8b3 2404 	ldrh.w	r2, [r3, #1028]	@ 0x404
 80040ee:	ea6f 4242 	mvn.w	r2, r2, lsl #17
 80040f2:	ea6f 4252 	mvn.w	r2, r2, lsr #17
 80040f6:	b292      	uxth	r2, r2
 80040f8:	f8a3 2404 	strh.w	r2, [r3, #1028]	@ 0x404
 80040fc:	eb04 0484 	add.w	r4, r4, r4, lsl #2
 8004100:	eb05 04c4 	add.w	r4, r5, r4, lsl #3
 8004104:	7c21      	ldrb	r1, [r4, #16]
 8004106:	4628      	mov	r0, r5
 8004108:	f002 ff4c 	bl	8006fa4 <HAL_PCD_DataInStageCallback>
 800410c:	e5c2      	b.n	8003c94 <PCD_EP_ISR_Handler+0x6>
 800410e:	2b01      	cmp	r3, #1
 8004110:	d1f4      	bne.n	80040fc <PCD_EP_ISR_Handler+0x46e>
 8004112:	682b      	ldr	r3, [r5, #0]
 8004114:	f8b3 2050 	ldrh.w	r2, [r3, #80]	@ 0x50
 8004118:	b292      	uxth	r2, r2
 800411a:	4413      	add	r3, r2
 800411c:	eb04 0284 	add.w	r2, r4, r4, lsl #2
 8004120:	eb05 02c2 	add.w	r2, r5, r2, lsl #3
 8004124:	7c12      	ldrb	r2, [r2, #16]
 8004126:	eb03 1302 	add.w	r3, r3, r2, lsl #4
 800412a:	2200      	movs	r2, #0
 800412c:	f8a3 2404 	strh.w	r2, [r3, #1028]	@ 0x404
 8004130:	e7e4      	b.n	80040fc <PCD_EP_ISR_Handler+0x46e>
 8004132:	682b      	ldr	r3, [r5, #0]
 8004134:	eb04 0284 	add.w	r2, r4, r4, lsl #2
 8004138:	eb05 02c2 	add.w	r2, r5, r2, lsl #3
 800413c:	7c52      	ldrb	r2, [r2, #17]
 800413e:	b9d2      	cbnz	r2, 8004176 <PCD_EP_ISR_Handler+0x4e8>
 8004140:	f8b3 2050 	ldrh.w	r2, [r3, #80]	@ 0x50
 8004144:	b292      	uxth	r2, r2
 8004146:	4413      	add	r3, r2
 8004148:	eb04 0284 	add.w	r2, r4, r4, lsl #2
 800414c:	eb05 02c2 	add.w	r2, r5, r2, lsl #3
 8004150:	7c12      	ldrb	r2, [r2, #16]
 8004152:	eb03 1302 	add.w	r3, r3, r2, lsl #4
 8004156:	f8b3 240c 	ldrh.w	r2, [r3, #1036]	@ 0x40c
 800415a:	f3c2 0209 	ubfx	r2, r2, #0, #10
 800415e:	f8a3 240c 	strh.w	r2, [r3, #1036]	@ 0x40c
 8004162:	f8b3 240c 	ldrh.w	r2, [r3, #1036]	@ 0x40c
 8004166:	ea6f 4242 	mvn.w	r2, r2, lsl #17
 800416a:	ea6f 4252 	mvn.w	r2, r2, lsr #17
 800416e:	b292      	uxth	r2, r2
 8004170:	f8a3 240c 	strh.w	r2, [r3, #1036]	@ 0x40c
 8004174:	e7c2      	b.n	80040fc <PCD_EP_ISR_Handler+0x46e>
 8004176:	2a01      	cmp	r2, #1
 8004178:	d1c0      	bne.n	80040fc <PCD_EP_ISR_Handler+0x46e>
 800417a:	f8b3 2050 	ldrh.w	r2, [r3, #80]	@ 0x50
 800417e:	b292      	uxth	r2, r2
 8004180:	4413      	add	r3, r2
 8004182:	eb04 0284 	add.w	r2, r4, r4, lsl #2
 8004186:	eb05 02c2 	add.w	r2, r5, r2, lsl #3
 800418a:	7c12      	ldrb	r2, [r2, #16]
 800418c:	eb03 1302 	add.w	r3, r3, r2, lsl #4
 8004190:	2200      	movs	r2, #0
 8004192:	f8a3 240c 	strh.w	r2, [r3, #1036]	@ 0x40c
 8004196:	e7b1      	b.n	80040fc <PCD_EP_ISR_Handler+0x46e>
 8004198:	1c62      	adds	r2, r4, #1
 800419a:	eb02 0282 	add.w	r2, r2, r2, lsl #2
 800419e:	00d2      	lsls	r2, r2, #3
 80041a0:	2700      	movs	r7, #0
 80041a2:	50af      	str	r7, [r5, r2]
 80041a4:	e6ac      	b.n	8003f00 <PCD_EP_ISR_Handler+0x272>
 80041a6:	eb04 0284 	add.w	r2, r4, r4, lsl #2
 80041aa:	eb05 02c2 	add.w	r2, r5, r2, lsl #3
 80041ae:	6a56      	ldr	r6, [r2, #36]	@ 0x24
 80041b0:	441e      	add	r6, r3
 80041b2:	6256      	str	r6, [r2, #36]	@ 0x24
 80041b4:	3401      	adds	r4, #1
 80041b6:	eb04 0284 	add.w	r2, r4, r4, lsl #2
 80041ba:	eb05 02c2 	add.w	r2, r5, r2, lsl #3
 80041be:	6852      	ldr	r2, [r2, #4]
 80041c0:	eb04 0484 	add.w	r4, r4, r4, lsl #2
 80041c4:	eb05 04c4 	add.w	r4, r5, r4, lsl #3
 80041c8:	4413      	add	r3, r2
 80041ca:	6063      	str	r3, [r4, #4]
 80041cc:	f001 feaa 	bl	8005f24 <USB_EPStartXfer>
 80041d0:	e560      	b.n	8003c94 <PCD_EP_ISR_Handler+0x6>
 80041d2:	4632      	mov	r2, r6
 80041d4:	4628      	mov	r0, r5
 80041d6:	f7ff fb48 	bl	800386a <HAL_PCD_EP_DB_Transmit>
 80041da:	e55b      	b.n	8003c94 <PCD_EP_ISR_Handler+0x6>
 80041dc:	2000      	movs	r0, #0
 80041de:	e8bd 81f0 	ldmia.w	sp!, {r4, r5, r6, r7, r8, pc}

080041e2 <HAL_PCD_SetAddress>:
 80041e2:	f890 3290 	ldrb.w	r3, [r0, #656]	@ 0x290
 80041e6:	2b01      	cmp	r3, #1
 80041e8:	d00c      	beq.n	8004204 <HAL_PCD_SetAddress+0x22>
 80041ea:	b510      	push	{r4, lr}
 80041ec:	4604      	mov	r4, r0
 80041ee:	2301      	movs	r3, #1
 80041f0:	f880 3290 	strb.w	r3, [r0, #656]	@ 0x290
 80041f4:	7341      	strb	r1, [r0, #13]
 80041f6:	6800      	ldr	r0, [r0, #0]
 80041f8:	f001 fe71 	bl	8005ede <USB_SetDevAddress>
 80041fc:	2000      	movs	r0, #0
 80041fe:	f884 0290 	strb.w	r0, [r4, #656]	@ 0x290
 8004202:	bd10      	pop	{r4, pc}
 8004204:	2002      	movs	r0, #2
 8004206:	4770      	bx	lr

08004208 <HAL_PCD_IRQHandler>:
 8004208:	b510      	push	{r4, lr}
 800420a:	b084      	sub	sp, #16
 800420c:	4604      	mov	r4, r0
 800420e:	6800      	ldr	r0, [r0, #0]
 8004210:	f001 fe6f 	bl	8005ef2 <USB_ReadInterrupts>
 8004214:	f410 4f00 	tst.w	r0, #32768	@ 0x8000
 8004218:	d120      	bne.n	800425c <HAL_PCD_IRQHandler+0x54>
 800421a:	f410 6f80 	tst.w	r0, #1024	@ 0x400
 800421e:	d121      	bne.n	8004264 <HAL_PCD_IRQHandler+0x5c>
 8004220:	f410 4f80 	tst.w	r0, #16384	@ 0x4000
 8004224:	d12f      	bne.n	8004286 <HAL_PCD_IRQHandler+0x7e>
 8004226:	f410 5f00 	tst.w	r0, #8192	@ 0x2000
 800422a:	d137      	bne.n	800429c <HAL_PCD_IRQHandler+0x94>
 800422c:	f410 5f80 	tst.w	r0, #4096	@ 0x1000
 8004230:	d13e      	bne.n	80042b0 <HAL_PCD_IRQHandler+0xa8>
 8004232:	f410 6f00 	tst.w	r0, #2048	@ 0x800
 8004236:	f040 8087 	bne.w	8004348 <HAL_PCD_IRQHandler+0x140>
 800423a:	f410 7f00 	tst.w	r0, #512	@ 0x200
 800423e:	f040 80ae 	bne.w	800439e <HAL_PCD_IRQHandler+0x196>
 8004242:	f410 7f80 	tst.w	r0, #256	@ 0x100
 8004246:	d027      	beq.n	8004298 <HAL_PCD_IRQHandler+0x90>
 8004248:	6822      	ldr	r2, [r4, #0]
 800424a:	f8b2 3044 	ldrh.w	r3, [r2, #68]	@ 0x44
 800424e:	b29b      	uxth	r3, r3
 8004250:	f423 7380 	bic.w	r3, r3, #256	@ 0x100
 8004254:	b29b      	uxth	r3, r3
 8004256:	f8a2 3044 	strh.w	r3, [r2, #68]	@ 0x44
 800425a:	e01d      	b.n	8004298 <HAL_PCD_IRQHandler+0x90>
 800425c:	4620      	mov	r0, r4
 800425e:	f7ff fd16 	bl	8003c8e <PCD_EP_ISR_Handler>
 8004262:	e019      	b.n	8004298 <HAL_PCD_IRQHandler+0x90>
 8004264:	6822      	ldr	r2, [r4, #0]
 8004266:	f8b2 3044 	ldrh.w	r3, [r2, #68]	@ 0x44
 800426a:	b29b      	uxth	r3, r3
 800426c:	f423 6380 	bic.w	r3, r3, #1024	@ 0x400
 8004270:	b29b      	uxth	r3, r3
 8004272:	f8a2 3044 	strh.w	r3, [r2, #68]	@ 0x44
 8004276:	4620      	mov	r0, r4
 8004278:	f002 fea5 	bl	8006fc6 <HAL_PCD_ResetCallback>
 800427c:	2100      	movs	r1, #0
 800427e:	4620      	mov	r0, r4
 8004280:	f7ff ffaf 	bl	80041e2 <HAL_PCD_SetAddress>
 8004284:	e008      	b.n	8004298 <HAL_PCD_IRQHandler+0x90>
 8004286:	6822      	ldr	r2, [r4, #0]
 8004288:	f8b2 3044 	ldrh.w	r3, [r2, #68]	@ 0x44
 800428c:	b29b      	uxth	r3, r3
 800428e:	f423 4380 	bic.w	r3, r3, #16384	@ 0x4000
 8004292:	b29b      	uxth	r3, r3
 8004294:	f8a2 3044 	strh.w	r3, [r2, #68]	@ 0x44
 8004298:	b004      	add	sp, #16
 800429a:	bd10      	pop	{r4, pc}
 800429c:	6822      	ldr	r2, [r4, #0]
 800429e:	f8b2 3044 	ldrh.w	r3, [r2, #68]	@ 0x44
 80042a2:	b29b      	uxth	r3, r3
 80042a4:	f423 5300 	bic.w	r3, r3, #8192	@ 0x2000
 80042a8:	b29b      	uxth	r3, r3
 80042aa:	f8a2 3044 	strh.w	r3, [r2, #68]	@ 0x44
 80042ae:	e7f3      	b.n	8004298 <HAL_PCD_IRQHandler+0x90>
 80042b0:	6822      	ldr	r2, [r4, #0]
 80042b2:	f8b2 3040 	ldrh.w	r3, [r2, #64]	@ 0x40
 80042b6:	b29b      	uxth	r3, r3
 80042b8:	f023 0304 	bic.w	r3, r3, #4
 80042bc:	b29b      	uxth	r3, r3
 80042be:	f8a2 3040 	strh.w	r3, [r2, #64]	@ 0x40
 80042c2:	6822      	ldr	r2, [r4, #0]
 80042c4:	f8b2 3040 	ldrh.w	r3, [r2, #64]	@ 0x40
 80042c8:	b29b      	uxth	r3, r3
 80042ca:	f023 0308 	bic.w	r3, r3, #8
 80042ce:	b29b      	uxth	r3, r3
 80042d0:	f8a2 3040 	strh.w	r3, [r2, #64]	@ 0x40
 80042d4:	4620      	mov	r0, r4
 80042d6:	f002 fe99 	bl	800700c <HAL_PCD_ResumeCallback>
 80042da:	6822      	ldr	r2, [r4, #0]
 80042dc:	f8b2 3044 	ldrh.w	r3, [r2, #68]	@ 0x44
 80042e0:	b29b      	uxth	r3, r3
 80042e2:	f423 5380 	bic.w	r3, r3, #4096	@ 0x1000
 80042e6:	b29b      	uxth	r3, r3
 80042e8:	f8a2 3044 	strh.w	r3, [r2, #68]	@ 0x44
 80042ec:	e7d4      	b.n	8004298 <HAL_PCD_IRQHandler+0x90>
 80042ee:	6822      	ldr	r2, [r4, #0]
 80042f0:	f832 1023 	ldrh.w	r1, [r2, r3, lsl #2]
 80042f4:	aa04      	add	r2, sp, #16
 80042f6:	eb02 0243 	add.w	r2, r2, r3, lsl #1
 80042fa:	f822 1c10 	strh.w	r1, [r2, #-16]
 80042fe:	3301      	adds	r3, #1
 8004300:	b2db      	uxtb	r3, r3
 8004302:	2b07      	cmp	r3, #7
 8004304:	d9f3      	bls.n	80042ee <HAL_PCD_IRQHandler+0xe6>
 8004306:	6822      	ldr	r2, [r4, #0]
 8004308:	f8b2 3040 	ldrh.w	r3, [r2, #64]	@ 0x40
 800430c:	b29b      	uxth	r3, r3
 800430e:	f043 0301 	orr.w	r3, r3, #1
 8004312:	f8a2 3040 	strh.w	r3, [r2, #64]	@ 0x40
 8004316:	6822      	ldr	r2, [r4, #0]
 8004318:	f8b2 3040 	ldrh.w	r3, [r2, #64]	@ 0x40
 800431c:	b29b      	uxth	r3, r3
 800431e:	f023 0301 	bic.w	r3, r3, #1
 8004322:	b29b      	uxth	r3, r3
 8004324:	f8a2 3040 	strh.w	r3, [r2, #64]	@ 0x40
 8004328:	6823      	ldr	r3, [r4, #0]
 800432a:	f8b3 2044 	ldrh.w	r2, [r3, #68]	@ 0x44
 800432e:	f412 6f80 	tst.w	r2, #1024	@ 0x400
 8004332:	d0f9      	beq.n	8004328 <HAL_PCD_IRQHandler+0x120>
 8004334:	f8b3 2044 	ldrh.w	r2, [r3, #68]	@ 0x44
 8004338:	b292      	uxth	r2, r2
 800433a:	f422 6280 	bic.w	r2, r2, #1024	@ 0x400
 800433e:	b292      	uxth	r2, r2
 8004340:	f8a3 2044 	strh.w	r2, [r3, #68]	@ 0x44
 8004344:	2300      	movs	r3, #0
 8004346:	e00b      	b.n	8004360 <HAL_PCD_IRQHandler+0x158>
 8004348:	2300      	movs	r3, #0
 800434a:	e7da      	b.n	8004302 <HAL_PCD_IRQHandler+0xfa>
 800434c:	6822      	ldr	r2, [r4, #0]
 800434e:	a904      	add	r1, sp, #16
 8004350:	eb01 0143 	add.w	r1, r1, r3, lsl #1
 8004354:	f831 1c10 	ldrh.w	r1, [r1, #-16]
 8004358:	f822 1023 	strh.w	r1, [r2, r3, lsl #2]
 800435c:	3301      	adds	r3, #1
 800435e:	b2db      	uxtb	r3, r3
 8004360:	2b07      	cmp	r3, #7
 8004362:	d9f3      	bls.n	800434c <HAL_PCD_IRQHandler+0x144>
 8004364:	6822      	ldr	r2, [r4, #0]
 8004366:	f8b2 3040 	ldrh.w	r3, [r2, #64]	@ 0x40
 800436a:	b29b      	uxth	r3, r3
 800436c:	f043 0308 	orr.w	r3, r3, #8
 8004370:	f8a2 3040 	strh.w	r3, [r2, #64]	@ 0x40
 8004374:	6822      	ldr	r2, [r4, #0]
 8004376:	f8b2 3044 	ldrh.w	r3, [r2, #68]	@ 0x44
 800437a:	b29b      	uxth	r3, r3
 800437c:	f423 6300 	bic.w	r3, r3, #2048	@ 0x800
 8004380:	b29b      	uxth	r3, r3
 8004382:	f8a2 3044 	strh.w	r3, [r2, #68]	@ 0x44
 8004386:	6822      	ldr	r2, [r4, #0]
 8004388:	f8b2 3040 	ldrh.w	r3, [r2, #64]	@ 0x40
 800438c:	b29b      	uxth	r3, r3
 800438e:	f043 0304 	orr.w	r3, r3, #4
 8004392:	f8a2 3040 	strh.w	r3, [r2, #64]	@ 0x40
 8004396:	4620      	mov	r0, r4
 8004398:	f002 fe28 	bl	8006fec <HAL_PCD_SuspendCallback>
 800439c:	e77c      	b.n	8004298 <HAL_PCD_IRQHandler+0x90>
 800439e:	6822      	ldr	r2, [r4, #0]
 80043a0:	f8b2 3044 	ldrh.w	r3, [r2, #68]	@ 0x44
 80043a4:	b29b      	uxth	r3, r3
 80043a6:	f423 7300 	bic.w	r3, r3, #512	@ 0x200
 80043aa:	b29b      	uxth	r3, r3
 80043ac:	f8a2 3044 	strh.w	r3, [r2, #68]	@ 0x44
 80043b0:	4620      	mov	r0, r4
 80043b2:	f002 fe02 	bl	8006fba <HAL_PCD_SOFCallback>
 80043b6:	e76f      	b.n	8004298 <HAL_PCD_IRQHandler+0x90>

080043b8 <HAL_PCD_EP_Open>:
 80043b8:	b510      	push	{r4, lr}
 80043ba:	4604      	mov	r4, r0
 80043bc:	4608      	mov	r0, r1
 80043be:	f011 0f80 	tst.w	r1, #128	@ 0x80
 80043c2:	d126      	bne.n	8004412 <HAL_PCD_EP_Open+0x5a>
 80043c4:	f001 0c07 	and.w	ip, r1, #7
 80043c8:	eb0c 0e8c 	add.w	lr, ip, ip, lsl #2
 80043cc:	ea4f 0ece 	mov.w	lr, lr, lsl #3
 80043d0:	f50e 7ea8 	add.w	lr, lr, #336	@ 0x150
 80043d4:	eb04 010e 	add.w	r1, r4, lr
 80043d8:	eb0c 0c8c 	add.w	ip, ip, ip, lsl #2
 80043dc:	eb04 0ccc 	add.w	ip, r4, ip, lsl #3
 80043e0:	f04f 0e00 	mov.w	lr, #0
 80043e4:	f88c e151 	strb.w	lr, [ip, #337]	@ 0x151
 80043e8:	f000 0007 	and.w	r0, r0, #7
 80043ec:	7008      	strb	r0, [r1, #0]
 80043ee:	610a      	str	r2, [r1, #16]
 80043f0:	70cb      	strb	r3, [r1, #3]
 80043f2:	2b02      	cmp	r3, #2
 80043f4:	d01d      	beq.n	8004432 <HAL_PCD_EP_Open+0x7a>
 80043f6:	f894 3290 	ldrb.w	r3, [r4, #656]	@ 0x290
 80043fa:	2b01      	cmp	r3, #1
 80043fc:	d01c      	beq.n	8004438 <HAL_PCD_EP_Open+0x80>
 80043fe:	2301      	movs	r3, #1
 8004400:	f884 3290 	strb.w	r3, [r4, #656]	@ 0x290
 8004404:	6820      	ldr	r0, [r4, #0]
 8004406:	f001 fa24 	bl	8005852 <USB_ActivateEndpoint>
 800440a:	2000      	movs	r0, #0
 800440c:	f884 0290 	strb.w	r0, [r4, #656]	@ 0x290
 8004410:	bd10      	pop	{r4, pc}
 8004412:	f001 0c07 	and.w	ip, r1, #7
 8004416:	eb0c 018c 	add.w	r1, ip, ip, lsl #2
 800441a:	00c9      	lsls	r1, r1, #3
 800441c:	3110      	adds	r1, #16
 800441e:	4421      	add	r1, r4
 8004420:	eb0c 0c8c 	add.w	ip, ip, ip, lsl #2
 8004424:	eb04 0ccc 	add.w	ip, r4, ip, lsl #3
 8004428:	f04f 0e01 	mov.w	lr, #1
 800442c:	f88c e011 	strb.w	lr, [ip, #17]
 8004430:	e7da      	b.n	80043e8 <HAL_PCD_EP_Open+0x30>
 8004432:	2300      	movs	r3, #0
 8004434:	710b      	strb	r3, [r1, #4]
 8004436:	e7de      	b.n	80043f6 <HAL_PCD_EP_Open+0x3e>
 8004438:	2002      	movs	r0, #2
 800443a:	e7e9      	b.n	8004410 <HAL_PCD_EP_Open+0x58>

0800443c <HAL_PCD_EP_Close>:
 800443c:	b510      	push	{r4, lr}
 800443e:	4604      	mov	r4, r0
 8004440:	460a      	mov	r2, r1
 8004442:	f011 0f80 	tst.w	r1, #128	@ 0x80
 8004446:	d11f      	bne.n	8004488 <HAL_PCD_EP_Close+0x4c>
 8004448:	f001 0007 	and.w	r0, r1, #7
 800444c:	eb00 0380 	add.w	r3, r0, r0, lsl #2
 8004450:	00db      	lsls	r3, r3, #3
 8004452:	f503 73a8 	add.w	r3, r3, #336	@ 0x150
 8004456:	18e1      	adds	r1, r4, r3
 8004458:	eb00 0080 	add.w	r0, r0, r0, lsl #2
 800445c:	eb04 00c0 	add.w	r0, r4, r0, lsl #3
 8004460:	2300      	movs	r3, #0
 8004462:	f880 3151 	strb.w	r3, [r0, #337]	@ 0x151
 8004466:	f002 0207 	and.w	r2, r2, #7
 800446a:	700a      	strb	r2, [r1, #0]
 800446c:	f894 3290 	ldrb.w	r3, [r4, #656]	@ 0x290
 8004470:	2b01      	cmp	r3, #1
 8004472:	d017      	beq.n	80044a4 <HAL_PCD_EP_Close+0x68>
 8004474:	2301      	movs	r3, #1
 8004476:	f884 3290 	strb.w	r3, [r4, #656]	@ 0x290
 800447a:	6820      	ldr	r0, [r4, #0]
 800447c:	f001 fbce 	bl	8005c1c <USB_DeactivateEndpoint>
 8004480:	2000      	movs	r0, #0
 8004482:	f884 0290 	strb.w	r0, [r4, #656]	@ 0x290
 8004486:	bd10      	pop	{r4, pc}
 8004488:	f001 0007 	and.w	r0, r1, #7
 800448c:	eb00 0380 	add.w	r3, r0, r0, lsl #2
 8004490:	00db      	lsls	r3, r3, #3
 8004492:	3310      	adds	r3, #16
 8004494:	18e1      	adds	r1, r4, r3
 8004496:	eb00 0080 	add.w	r0, r0, r0, lsl #2
 800449a:	eb04 00c0 	add.w	r0, r4, r0, lsl #3
 800449e:	2301      	movs	r3, #1
 80044a0:	7443      	strb	r3, [r0, #17]
 80044a2:	e7e0      	b.n	8004466 <HAL_PCD_EP_Close+0x2a>
 80044a4:	2002      	movs	r0, #2
 80044a6:	e7ee      	b.n	8004486 <HAL_PCD_EP_Close+0x4a>

080044a8 <HAL_PCD_EP_Receive>:
 80044a8:	b510      	push	{r4, lr}
 80044aa:	f001 0c07 	and.w	ip, r1, #7
 80044ae:	eb0c 018c 	add.w	r1, ip, ip, lsl #2
 80044b2:	00c9      	lsls	r1, r1, #3
 80044b4:	f501 71a8 	add.w	r1, r1, #336	@ 0x150
 80044b8:	eb0c 0e8c 	add.w	lr, ip, ip, lsl #2
 80044bc:	eb00 0ece 	add.w	lr, r0, lr, lsl #3
 80044c0:	f8ce 2164 	str.w	r2, [lr, #356]	@ 0x164
 80044c4:	f8ce 3168 	str.w	r3, [lr, #360]	@ 0x168
 80044c8:	2400      	movs	r4, #0
 80044ca:	f8ce 416c 	str.w	r4, [lr, #364]	@ 0x16c
 80044ce:	f88e 4151 	strb.w	r4, [lr, #337]	@ 0x151
 80044d2:	f88e c150 	strb.w	ip, [lr, #336]	@ 0x150
 80044d6:	4401      	add	r1, r0
 80044d8:	6800      	ldr	r0, [r0, #0]
 80044da:	f001 fd23 	bl	8005f24 <USB_EPStartXfer>
 80044de:	4620      	mov	r0, r4
 80044e0:	bd10      	pop	{r4, pc}

080044e2 <HAL_PCD_EP_GetRxCount>:
 80044e2:	f001 0107 	and.w	r1, r1, #7
 80044e6:	eb01 0181 	add.w	r1, r1, r1, lsl #2
 80044ea:	eb00 00c1 	add.w	r0, r0, r1, lsl #3
 80044ee:	f8d0 016c 	ldr.w	r0, [r0, #364]	@ 0x16c
 80044f2:	4770      	bx	lr

080044f4 <HAL_PCD_EP_Transmit>:
 80044f4:	b538      	push	{r3, r4, r5, lr}
 80044f6:	f001 0c07 	and.w	ip, r1, #7
 80044fa:	eb0c 018c 	add.w	r1, ip, ip, lsl #2
 80044fe:	00c9      	lsls	r1, r1, #3
 8004500:	3110      	adds	r1, #16
 8004502:	eb0c 0e8c 	add.w	lr, ip, ip, lsl #2
 8004506:	eb00 0ece 	add.w	lr, r0, lr, lsl #3
 800450a:	f8ce 2024 	str.w	r2, [lr, #36]	@ 0x24
 800450e:	f10c 0201 	add.w	r2, ip, #1
 8004512:	eb02 0482 	add.w	r4, r2, r2, lsl #2
 8004516:	f840 3034 	str.w	r3, [r0, r4, lsl #3]
 800451a:	2501      	movs	r5, #1
 800451c:	f88e 5034 	strb.w	r5, [lr, #52]	@ 0x34
 8004520:	f8ce 3030 	str.w	r3, [lr, #48]	@ 0x30
 8004524:	eb00 02c4 	add.w	r2, r0, r4, lsl #3
 8004528:	2400      	movs	r4, #0
 800452a:	6054      	str	r4, [r2, #4]
 800452c:	f88e 5011 	strb.w	r5, [lr, #17]
 8004530:	f88e c010 	strb.w	ip, [lr, #16]
 8004534:	4401      	add	r1, r0
 8004536:	6800      	ldr	r0, [r0, #0]
 8004538:	f001 fcf4 	bl	8005f24 <USB_EPStartXfer>
 800453c:	4620      	mov	r0, r4
 800453e:	bd38      	pop	{r3, r4, r5, pc}

08004540 <HAL_PCD_EP_SetStall>:
 8004540:	b538      	push	{r3, r4, r5, lr}
 8004542:	f001 0507 	and.w	r5, r1, #7
 8004546:	7902      	ldrb	r2, [r0, #4]
 8004548:	42aa      	cmp	r2, r5
 800454a:	d335      	bcc.n	80045b8 <HAL_PCD_EP_SetStall+0x78>
 800454c:	4604      	mov	r4, r0
 800454e:	460b      	mov	r3, r1
 8004550:	f011 0f80 	tst.w	r1, #128	@ 0x80
 8004554:	d11e      	bne.n	8004594 <HAL_PCD_EP_SetStall+0x54>
 8004556:	eb01 0181 	add.w	r1, r1, r1, lsl #2
 800455a:	00c9      	lsls	r1, r1, #3
 800455c:	f501 71a8 	add.w	r1, r1, #336	@ 0x150
 8004560:	4401      	add	r1, r0
 8004562:	eb03 0383 	add.w	r3, r3, r3, lsl #2
 8004566:	eb00 03c3 	add.w	r3, r0, r3, lsl #3
 800456a:	2200      	movs	r2, #0
 800456c:	f883 2151 	strb.w	r2, [r3, #337]	@ 0x151
 8004570:	2301      	movs	r3, #1
 8004572:	708b      	strb	r3, [r1, #2]
 8004574:	700d      	strb	r5, [r1, #0]
 8004576:	f894 3290 	ldrb.w	r3, [r4, #656]	@ 0x290
 800457a:	2b01      	cmp	r3, #1
 800457c:	d01e      	beq.n	80045bc <HAL_PCD_EP_SetStall+0x7c>
 800457e:	2301      	movs	r3, #1
 8004580:	f884 3290 	strb.w	r3, [r4, #656]	@ 0x290
 8004584:	6820      	ldr	r0, [r4, #0]
 8004586:	f001 fc34 	bl	8005df2 <USB_EPSetStall>
 800458a:	b17d      	cbz	r5, 80045ac <HAL_PCD_EP_SetStall+0x6c>
 800458c:	2000      	movs	r0, #0
 800458e:	f884 0290 	strb.w	r0, [r4, #656]	@ 0x290
 8004592:	bd38      	pop	{r3, r4, r5, pc}
 8004594:	eb05 0185 	add.w	r1, r5, r5, lsl #2
 8004598:	00c9      	lsls	r1, r1, #3
 800459a:	3110      	adds	r1, #16
 800459c:	4401      	add	r1, r0
 800459e:	eb05 0385 	add.w	r3, r5, r5, lsl #2
 80045a2:	eb00 03c3 	add.w	r3, r0, r3, lsl #3
 80045a6:	2201      	movs	r2, #1
 80045a8:	745a      	strb	r2, [r3, #17]
 80045aa:	e7e1      	b.n	8004570 <HAL_PCD_EP_SetStall+0x30>
 80045ac:	f504 7126 	add.w	r1, r4, #664	@ 0x298
 80045b0:	6820      	ldr	r0, [r4, #0]
 80045b2:	f001 fca2 	bl	8005efa <USB_EP0_OutStart>
 80045b6:	e7e9      	b.n	800458c <HAL_PCD_EP_SetStall+0x4c>
 80045b8:	2001      	movs	r0, #1
 80045ba:	e7ea      	b.n	8004592 <HAL_PCD_EP_SetStall+0x52>
 80045bc:	2002      	movs	r0, #2
 80045be:	e7e8      	b.n	8004592 <HAL_PCD_EP_SetStall+0x52>

080045c0 <HAL_PCD_EP_ClrStall>:
 80045c0:	460b      	mov	r3, r1
 80045c2:	7901      	ldrb	r1, [r0, #4]
 80045c4:	f003 020f 	and.w	r2, r3, #15
 80045c8:	4291      	cmp	r1, r2
 80045ca:	d334      	bcc.n	8004636 <HAL_PCD_EP_ClrStall+0x76>
 80045cc:	b510      	push	{r4, lr}
 80045ce:	4604      	mov	r4, r0
 80045d0:	f013 0f80 	tst.w	r3, #128	@ 0x80
 80045d4:	d121      	bne.n	800461a <HAL_PCD_EP_ClrStall+0x5a>
 80045d6:	f003 0207 	and.w	r2, r3, #7
 80045da:	eb02 0182 	add.w	r1, r2, r2, lsl #2
 80045de:	00c9      	lsls	r1, r1, #3
 80045e0:	f501 71a8 	add.w	r1, r1, #336	@ 0x150
 80045e4:	4401      	add	r1, r0
 80045e6:	eb02 0282 	add.w	r2, r2, r2, lsl #2
 80045ea:	eb00 02c2 	add.w	r2, r0, r2, lsl #3
 80045ee:	2000      	movs	r0, #0
 80045f0:	f882 0151 	strb.w	r0, [r2, #337]	@ 0x151
 80045f4:	2200      	movs	r2, #0
 80045f6:	708a      	strb	r2, [r1, #2]
 80045f8:	f003 0307 	and.w	r3, r3, #7
 80045fc:	700b      	strb	r3, [r1, #0]
 80045fe:	f894 3290 	ldrb.w	r3, [r4, #656]	@ 0x290
 8004602:	2b01      	cmp	r3, #1
 8004604:	d019      	beq.n	800463a <HAL_PCD_EP_ClrStall+0x7a>
 8004606:	2301      	movs	r3, #1
 8004608:	f884 3290 	strb.w	r3, [r4, #656]	@ 0x290
 800460c:	6820      	ldr	r0, [r4, #0]
 800460e:	f001 fc15 	bl	8005e3c <USB_EPClearStall>
 8004612:	2000      	movs	r0, #0
 8004614:	f884 0290 	strb.w	r0, [r4, #656]	@ 0x290
 8004618:	bd10      	pop	{r4, pc}
 800461a:	f003 0207 	and.w	r2, r3, #7
 800461e:	eb02 0182 	add.w	r1, r2, r2, lsl #2
 8004622:	00c9      	lsls	r1, r1, #3
 8004624:	3110      	adds	r1, #16
 8004626:	4401      	add	r1, r0
 8004628:	eb02 0282 	add.w	r2, r2, r2, lsl #2
 800462c:	eb00 02c2 	add.w	r2, r0, r2, lsl #3
 8004630:	2001      	movs	r0, #1
 8004632:	7450      	strb	r0, [r2, #17]
 8004634:	e7de      	b.n	80045f4 <HAL_PCD_EP_ClrStall+0x34>
 8004636:	2001      	movs	r0, #1
 8004638:	4770      	bx	lr
 800463a:	2002      	movs	r0, #2
 800463c:	e7ec      	b.n	8004618 <HAL_PCD_EP_ClrStall+0x58>

0800463e <HAL_PCDEx_PMAConfig>:
 800463e:	f011 0f80 	tst.w	r1, #128	@ 0x80
 8004642:	d00b      	beq.n	800465c <HAL_PCDEx_PMAConfig+0x1e>
 8004644:	f001 0107 	and.w	r1, r1, #7
 8004648:	eb01 0181 	add.w	r1, r1, r1, lsl #2
 800464c:	00c9      	lsls	r1, r1, #3
 800464e:	3110      	adds	r1, #16
 8004650:	4408      	add	r0, r1
 8004652:	b952      	cbnz	r2, 800466a <HAL_PCDEx_PMAConfig+0x2c>
 8004654:	7302      	strb	r2, [r0, #12]
 8004656:	80c3      	strh	r3, [r0, #6]
 8004658:	2000      	movs	r0, #0
 800465a:	4770      	bx	lr
 800465c:	eb01 0181 	add.w	r1, r1, r1, lsl #2
 8004660:	00c9      	lsls	r1, r1, #3
 8004662:	f501 71a8 	add.w	r1, r1, #336	@ 0x150
 8004666:	4408      	add	r0, r1
 8004668:	e7f3      	b.n	8004652 <HAL_PCDEx_PMAConfig+0x14>
 800466a:	2201      	movs	r2, #1
 800466c:	7302      	strb	r2, [r0, #12]
 800466e:	8103      	strh	r3, [r0, #8]
 8004670:	0c1b      	lsrs	r3, r3, #16
 8004672:	8143      	strh	r3, [r0, #10]
 8004674:	e7f0      	b.n	8004658 <HAL_PCDEx_PMAConfig+0x1a>
	...

08004678 <RCC_Delay>:
 8004678:	b082      	sub	sp, #8
 800467a:	4b08      	ldr	r3, [pc, #32]	@ (800469c <RCC_Delay+0x24>)
 800467c:	681b      	ldr	r3, [r3, #0]
 800467e:	4a08      	ldr	r2, [pc, #32]	@ (80046a0 <RCC_Delay+0x28>)
 8004680:	fba2 2303 	umull	r2, r3, r2, r3
 8004684:	0a5b      	lsrs	r3, r3, #9
 8004686:	fb00 f303 	mul.w	r3, r0, r3
 800468a:	9301      	str	r3, [sp, #4]
 800468c:	bf00      	nop
 800468e:	9b01      	ldr	r3, [sp, #4]
 8004690:	1e5a      	subs	r2, r3, #1
 8004692:	9201      	str	r2, [sp, #4]
 8004694:	2b00      	cmp	r3, #0
 8004696:	d1f9      	bne.n	800468c <RCC_Delay+0x14>
 8004698:	b002      	add	sp, #8
 800469a:	4770      	bx	lr
 800469c:	20000068 	.word	0x20000068
 80046a0:	10624dd3 	.word	0x10624dd3

080046a4 <HAL_RCC_OscConfig>:
 80046a4:	2800      	cmp	r0, #0
 80046a6:	f000 81f1 	beq.w	8004a8c <HAL_RCC_OscConfig+0x3e8>
 80046aa:	b570      	push	{r4, r5, r6, lr}
 80046ac:	b082      	sub	sp, #8
 80046ae:	4604      	mov	r4, r0
 80046b0:	6803      	ldr	r3, [r0, #0]
 80046b2:	f013 0f01 	tst.w	r3, #1
 80046b6:	d02c      	beq.n	8004712 <HAL_RCC_OscConfig+0x6e>
 80046b8:	4b99      	ldr	r3, [pc, #612]	@ (8004920 <HAL_RCC_OscConfig+0x27c>)
 80046ba:	685b      	ldr	r3, [r3, #4]
 80046bc:	f003 030c 	and.w	r3, r3, #12
 80046c0:	2b04      	cmp	r3, #4
 80046c2:	d01d      	beq.n	8004700 <HAL_RCC_OscConfig+0x5c>
 80046c4:	4b96      	ldr	r3, [pc, #600]	@ (8004920 <HAL_RCC_OscConfig+0x27c>)
 80046c6:	685b      	ldr	r3, [r3, #4]
 80046c8:	f003 030c 	and.w	r3, r3, #12
 80046cc:	2b08      	cmp	r3, #8
 80046ce:	d012      	beq.n	80046f6 <HAL_RCC_OscConfig+0x52>
 80046d0:	6863      	ldr	r3, [r4, #4]
 80046d2:	f5b3 3f80 	cmp.w	r3, #65536	@ 0x10000
 80046d6:	d041      	beq.n	800475c <HAL_RCC_OscConfig+0xb8>
 80046d8:	2b00      	cmp	r3, #0
 80046da:	d155      	bne.n	8004788 <HAL_RCC_OscConfig+0xe4>
 80046dc:	f103 4380 	add.w	r3, r3, #1073741824	@ 0x40000000
 80046e0:	f503 3304 	add.w	r3, r3, #135168	@ 0x21000
 80046e4:	681a      	ldr	r2, [r3, #0]
 80046e6:	f422 3280 	bic.w	r2, r2, #65536	@ 0x10000
 80046ea:	601a      	str	r2, [r3, #0]
 80046ec:	681a      	ldr	r2, [r3, #0]
 80046ee:	f422 2280 	bic.w	r2, r2, #262144	@ 0x40000
 80046f2:	601a      	str	r2, [r3, #0]
 80046f4:	e037      	b.n	8004766 <HAL_RCC_OscConfig+0xc2>
 80046f6:	4b8a      	ldr	r3, [pc, #552]	@ (8004920 <HAL_RCC_OscConfig+0x27c>)
 80046f8:	685b      	ldr	r3, [r3, #4]
 80046fa:	f413 3f80 	tst.w	r3, #65536	@ 0x10000
 80046fe:	d0e7      	beq.n	80046d0 <HAL_RCC_OscConfig+0x2c>
 8004700:	4b87      	ldr	r3, [pc, #540]	@ (8004920 <HAL_RCC_OscConfig+0x27c>)
 8004702:	681b      	ldr	r3, [r3, #0]
 8004704:	f413 3f00 	tst.w	r3, #131072	@ 0x20000
 8004708:	d003      	beq.n	8004712 <HAL_RCC_OscConfig+0x6e>
 800470a:	6863      	ldr	r3, [r4, #4]
 800470c:	2b00      	cmp	r3, #0
 800470e:	f000 81bf 	beq.w	8004a90 <HAL_RCC_OscConfig+0x3ec>
 8004712:	6823      	ldr	r3, [r4, #0]
 8004714:	f013 0f02 	tst.w	r3, #2
 8004718:	d075      	beq.n	8004806 <HAL_RCC_OscConfig+0x162>
 800471a:	4b81      	ldr	r3, [pc, #516]	@ (8004920 <HAL_RCC_OscConfig+0x27c>)
 800471c:	685b      	ldr	r3, [r3, #4]
 800471e:	f013 0f0c 	tst.w	r3, #12
 8004722:	d05f      	beq.n	80047e4 <HAL_RCC_OscConfig+0x140>
 8004724:	4b7e      	ldr	r3, [pc, #504]	@ (8004920 <HAL_RCC_OscConfig+0x27c>)
 8004726:	685b      	ldr	r3, [r3, #4]
 8004728:	f003 030c 	and.w	r3, r3, #12
 800472c:	2b08      	cmp	r3, #8
 800472e:	d054      	beq.n	80047da <HAL_RCC_OscConfig+0x136>
 8004730:	6923      	ldr	r3, [r4, #16]
 8004732:	2b00      	cmp	r3, #0
 8004734:	f000 808a 	beq.w	800484c <HAL_RCC_OscConfig+0x1a8>
 8004738:	4b7a      	ldr	r3, [pc, #488]	@ (8004924 <HAL_RCC_OscConfig+0x280>)
 800473a:	2201      	movs	r2, #1
 800473c:	601a      	str	r2, [r3, #0]
 800473e:	f7fe fa09 	bl	8002b54 <HAL_GetTick>
 8004742:	4605      	mov	r5, r0
 8004744:	4b76      	ldr	r3, [pc, #472]	@ (8004920 <HAL_RCC_OscConfig+0x27c>)
 8004746:	681b      	ldr	r3, [r3, #0]
 8004748:	f013 0f02 	tst.w	r3, #2
 800474c:	d175      	bne.n	800483a <HAL_RCC_OscConfig+0x196>
 800474e:	f7fe fa01 	bl	8002b54 <HAL_GetTick>
 8004752:	1b40      	subs	r0, r0, r5
 8004754:	2802      	cmp	r0, #2
 8004756:	d9f5      	bls.n	8004744 <HAL_RCC_OscConfig+0xa0>
 8004758:	2003      	movs	r0, #3
 800475a:	e19e      	b.n	8004a9a <HAL_RCC_OscConfig+0x3f6>
 800475c:	4a70      	ldr	r2, [pc, #448]	@ (8004920 <HAL_RCC_OscConfig+0x27c>)
 800475e:	6813      	ldr	r3, [r2, #0]
 8004760:	f443 3380 	orr.w	r3, r3, #65536	@ 0x10000
 8004764:	6013      	str	r3, [r2, #0]
 8004766:	6863      	ldr	r3, [r4, #4]
 8004768:	b343      	cbz	r3, 80047bc <HAL_RCC_OscConfig+0x118>
 800476a:	f7fe f9f3 	bl	8002b54 <HAL_GetTick>
 800476e:	4605      	mov	r5, r0
 8004770:	4b6b      	ldr	r3, [pc, #428]	@ (8004920 <HAL_RCC_OscConfig+0x27c>)
 8004772:	681b      	ldr	r3, [r3, #0]
 8004774:	f413 3f00 	tst.w	r3, #131072	@ 0x20000
 8004778:	d1cb      	bne.n	8004712 <HAL_RCC_OscConfig+0x6e>
 800477a:	f7fe f9eb 	bl	8002b54 <HAL_GetTick>
 800477e:	1b40      	subs	r0, r0, r5
 8004780:	2864      	cmp	r0, #100	@ 0x64
 8004782:	d9f5      	bls.n	8004770 <HAL_RCC_OscConfig+0xcc>
 8004784:	2003      	movs	r0, #3
 8004786:	e188      	b.n	8004a9a <HAL_RCC_OscConfig+0x3f6>
 8004788:	f5b3 2fa0 	cmp.w	r3, #327680	@ 0x50000
 800478c:	d009      	beq.n	80047a2 <HAL_RCC_OscConfig+0xfe>
 800478e:	4b64      	ldr	r3, [pc, #400]	@ (8004920 <HAL_RCC_OscConfig+0x27c>)
 8004790:	681a      	ldr	r2, [r3, #0]
 8004792:	f422 3280 	bic.w	r2, r2, #65536	@ 0x10000
 8004796:	601a      	str	r2, [r3, #0]
 8004798:	681a      	ldr	r2, [r3, #0]
 800479a:	f422 2280 	bic.w	r2, r2, #262144	@ 0x40000
 800479e:	601a      	str	r2, [r3, #0]
 80047a0:	e7e1      	b.n	8004766 <HAL_RCC_OscConfig+0xc2>
 80047a2:	f103 4380 	add.w	r3, r3, #1073741824	@ 0x40000000
 80047a6:	f5a3 333c 	sub.w	r3, r3, #192512	@ 0x2f000
 80047aa:	681a      	ldr	r2, [r3, #0]
 80047ac:	f442 2280 	orr.w	r2, r2, #262144	@ 0x40000
 80047b0:	601a      	str	r2, [r3, #0]
 80047b2:	681a      	ldr	r2, [r3, #0]
 80047b4:	f442 3280 	orr.w	r2, r2, #65536	@ 0x10000
 80047b8:	601a      	str	r2, [r3, #0]
 80047ba:	e7d4      	b.n	8004766 <HAL_RCC_OscConfig+0xc2>
 80047bc:	f7fe f9ca 	bl	8002b54 <HAL_GetTick>
 80047c0:	4605      	mov	r5, r0
 80047c2:	4b57      	ldr	r3, [pc, #348]	@ (8004920 <HAL_RCC_OscConfig+0x27c>)
 80047c4:	681b      	ldr	r3, [r3, #0]
 80047c6:	f413 3f00 	tst.w	r3, #131072	@ 0x20000
 80047ca:	d0a2      	beq.n	8004712 <HAL_RCC_OscConfig+0x6e>
 80047cc:	f7fe f9c2 	bl	8002b54 <HAL_GetTick>
 80047d0:	1b40      	subs	r0, r0, r5
 80047d2:	2864      	cmp	r0, #100	@ 0x64
 80047d4:	d9f5      	bls.n	80047c2 <HAL_RCC_OscConfig+0x11e>
 80047d6:	2003      	movs	r0, #3
 80047d8:	e15f      	b.n	8004a9a <HAL_RCC_OscConfig+0x3f6>
 80047da:	4b51      	ldr	r3, [pc, #324]	@ (8004920 <HAL_RCC_OscConfig+0x27c>)
 80047dc:	685b      	ldr	r3, [r3, #4]
 80047de:	f413 3f80 	tst.w	r3, #65536	@ 0x10000
 80047e2:	d1a5      	bne.n	8004730 <HAL_RCC_OscConfig+0x8c>
 80047e4:	4b4e      	ldr	r3, [pc, #312]	@ (8004920 <HAL_RCC_OscConfig+0x27c>)
 80047e6:	681b      	ldr	r3, [r3, #0]
 80047e8:	f013 0f02 	tst.w	r3, #2
 80047ec:	d003      	beq.n	80047f6 <HAL_RCC_OscConfig+0x152>
 80047ee:	6923      	ldr	r3, [r4, #16]
 80047f0:	2b01      	cmp	r3, #1
 80047f2:	f040 814f 	bne.w	8004a94 <HAL_RCC_OscConfig+0x3f0>
 80047f6:	4a4a      	ldr	r2, [pc, #296]	@ (8004920 <HAL_RCC_OscConfig+0x27c>)
 80047f8:	6813      	ldr	r3, [r2, #0]
 80047fa:	f023 03f8 	bic.w	r3, r3, #248	@ 0xf8
 80047fe:	6961      	ldr	r1, [r4, #20]
 8004800:	ea43 03c1 	orr.w	r3, r3, r1, lsl #3
 8004804:	6013      	str	r3, [r2, #0]
 8004806:	6823      	ldr	r3, [r4, #0]
 8004808:	f013 0f08 	tst.w	r3, #8
 800480c:	d033      	beq.n	8004876 <HAL_RCC_OscConfig+0x1d2>
 800480e:	69a3      	ldr	r3, [r4, #24]
 8004810:	2b00      	cmp	r3, #0
 8004812:	d05c      	beq.n	80048ce <HAL_RCC_OscConfig+0x22a>
 8004814:	4b43      	ldr	r3, [pc, #268]	@ (8004924 <HAL_RCC_OscConfig+0x280>)
 8004816:	2201      	movs	r2, #1
 8004818:	f8c3 2480 	str.w	r2, [r3, #1152]	@ 0x480
 800481c:	f7fe f99a 	bl	8002b54 <HAL_GetTick>
 8004820:	4605      	mov	r5, r0
 8004822:	4b3f      	ldr	r3, [pc, #252]	@ (8004920 <HAL_RCC_OscConfig+0x27c>)
 8004824:	6a5b      	ldr	r3, [r3, #36]	@ 0x24
 8004826:	f013 0f02 	tst.w	r3, #2
 800482a:	d121      	bne.n	8004870 <HAL_RCC_OscConfig+0x1cc>
 800482c:	f7fe f992 	bl	8002b54 <HAL_GetTick>
 8004830:	1b40      	subs	r0, r0, r5
 8004832:	2802      	cmp	r0, #2
 8004834:	d9f5      	bls.n	8004822 <HAL_RCC_OscConfig+0x17e>
 8004836:	2003      	movs	r0, #3
 8004838:	e12f      	b.n	8004a9a <HAL_RCC_OscConfig+0x3f6>
 800483a:	4a39      	ldr	r2, [pc, #228]	@ (8004920 <HAL_RCC_OscConfig+0x27c>)
 800483c:	6813      	ldr	r3, [r2, #0]
 800483e:	f023 03f8 	bic.w	r3, r3, #248	@ 0xf8
 8004842:	6961      	ldr	r1, [r4, #20]
 8004844:	ea43 03c1 	orr.w	r3, r3, r1, lsl #3
 8004848:	6013      	str	r3, [r2, #0]
 800484a:	e7dc      	b.n	8004806 <HAL_RCC_OscConfig+0x162>
 800484c:	4b35      	ldr	r3, [pc, #212]	@ (8004924 <HAL_RCC_OscConfig+0x280>)
 800484e:	2200      	movs	r2, #0
 8004850:	601a      	str	r2, [r3, #0]
 8004852:	f7fe f97f 	bl	8002b54 <HAL_GetTick>
 8004856:	4605      	mov	r5, r0
 8004858:	4b31      	ldr	r3, [pc, #196]	@ (8004920 <HAL_RCC_OscConfig+0x27c>)
 800485a:	681b      	ldr	r3, [r3, #0]
 800485c:	f013 0f02 	tst.w	r3, #2
 8004860:	d0d1      	beq.n	8004806 <HAL_RCC_OscConfig+0x162>
 8004862:	f7fe f977 	bl	8002b54 <HAL_GetTick>
 8004866:	1b40      	subs	r0, r0, r5
 8004868:	2802      	cmp	r0, #2
 800486a:	d9f5      	bls.n	8004858 <HAL_RCC_OscConfig+0x1b4>
 800486c:	2003      	movs	r0, #3
 800486e:	e114      	b.n	8004a9a <HAL_RCC_OscConfig+0x3f6>
 8004870:	2001      	movs	r0, #1
 8004872:	f7ff ff01 	bl	8004678 <RCC_Delay>
 8004876:	6823      	ldr	r3, [r4, #0]
 8004878:	f013 0f04 	tst.w	r3, #4
 800487c:	f000 8096 	beq.w	80049ac <HAL_RCC_OscConfig+0x308>
 8004880:	4b27      	ldr	r3, [pc, #156]	@ (8004920 <HAL_RCC_OscConfig+0x27c>)
 8004882:	69db      	ldr	r3, [r3, #28]
 8004884:	f013 5f80 	tst.w	r3, #268435456	@ 0x10000000
 8004888:	d134      	bne.n	80048f4 <HAL_RCC_OscConfig+0x250>
 800488a:	4b25      	ldr	r3, [pc, #148]	@ (8004920 <HAL_RCC_OscConfig+0x27c>)
 800488c:	69da      	ldr	r2, [r3, #28]
 800488e:	f042 5280 	orr.w	r2, r2, #268435456	@ 0x10000000
 8004892:	61da      	str	r2, [r3, #28]
 8004894:	69db      	ldr	r3, [r3, #28]
 8004896:	f003 5380 	and.w	r3, r3, #268435456	@ 0x10000000
 800489a:	9301      	str	r3, [sp, #4]
 800489c:	9b01      	ldr	r3, [sp, #4]
 800489e:	2501      	movs	r5, #1
 80048a0:	4b21      	ldr	r3, [pc, #132]	@ (8004928 <HAL_RCC_OscConfig+0x284>)
 80048a2:	681b      	ldr	r3, [r3, #0]
 80048a4:	f413 7f80 	tst.w	r3, #256	@ 0x100
 80048a8:	d026      	beq.n	80048f8 <HAL_RCC_OscConfig+0x254>
 80048aa:	68e3      	ldr	r3, [r4, #12]
 80048ac:	2b01      	cmp	r3, #1
 80048ae:	d03d      	beq.n	800492c <HAL_RCC_OscConfig+0x288>
 80048b0:	2b00      	cmp	r3, #0
 80048b2:	d153      	bne.n	800495c <HAL_RCC_OscConfig+0x2b8>
 80048b4:	f103 4380 	add.w	r3, r3, #1073741824	@ 0x40000000
 80048b8:	f503 3304 	add.w	r3, r3, #135168	@ 0x21000
 80048bc:	6a1a      	ldr	r2, [r3, #32]
 80048be:	f022 0201 	bic.w	r2, r2, #1
 80048c2:	621a      	str	r2, [r3, #32]
 80048c4:	6a1a      	ldr	r2, [r3, #32]
 80048c6:	f022 0204 	bic.w	r2, r2, #4
 80048ca:	621a      	str	r2, [r3, #32]
 80048cc:	e033      	b.n	8004936 <HAL_RCC_OscConfig+0x292>
 80048ce:	4b15      	ldr	r3, [pc, #84]	@ (8004924 <HAL_RCC_OscConfig+0x280>)
 80048d0:	2200      	movs	r2, #0
 80048d2:	f8c3 2480 	str.w	r2, [r3, #1152]	@ 0x480
 80048d6:	f7fe f93d 	bl	8002b54 <HAL_GetTick>
 80048da:	4605      	mov	r5, r0
 80048dc:	4b10      	ldr	r3, [pc, #64]	@ (8004920 <HAL_RCC_OscConfig+0x27c>)
 80048de:	6a5b      	ldr	r3, [r3, #36]	@ 0x24
 80048e0:	f013 0f02 	tst.w	r3, #2
 80048e4:	d0c7      	beq.n	8004876 <HAL_RCC_OscConfig+0x1d2>
 80048e6:	f7fe f935 	bl	8002b54 <HAL_GetTick>
 80048ea:	1b40      	subs	r0, r0, r5
 80048ec:	2802      	cmp	r0, #2
 80048ee:	d9f5      	bls.n	80048dc <HAL_RCC_OscConfig+0x238>
 80048f0:	2003      	movs	r0, #3
 80048f2:	e0d2      	b.n	8004a9a <HAL_RCC_OscConfig+0x3f6>
 80048f4:	2500      	movs	r5, #0
 80048f6:	e7d3      	b.n	80048a0 <HAL_RCC_OscConfig+0x1fc>
 80048f8:	4a0b      	ldr	r2, [pc, #44]	@ (8004928 <HAL_RCC_OscConfig+0x284>)
 80048fa:	6813      	ldr	r3, [r2, #0]
 80048fc:	f443 7380 	orr.w	r3, r3, #256	@ 0x100
 8004900:	6013      	str	r3, [r2, #0]
 8004902:	f7fe f927 	bl	8002b54 <HAL_GetTick>
 8004906:	4606      	mov	r6, r0
 8004908:	4b07      	ldr	r3, [pc, #28]	@ (8004928 <HAL_RCC_OscConfig+0x284>)
 800490a:	681b      	ldr	r3, [r3, #0]
 800490c:	f413 7f80 	tst.w	r3, #256	@ 0x100
 8004910:	d1cb      	bne.n	80048aa <HAL_RCC_OscConfig+0x206>
 8004912:	f7fe f91f 	bl	8002b54 <HAL_GetTick>
 8004916:	1b80      	subs	r0, r0, r6
 8004918:	2864      	cmp	r0, #100	@ 0x64
 800491a:	d9f5      	bls.n	8004908 <HAL_RCC_OscConfig+0x264>
 800491c:	2003      	movs	r0, #3
 800491e:	e0bc      	b.n	8004a9a <HAL_RCC_OscConfig+0x3f6>
 8004920:	40021000 	.word	0x40021000
 8004924:	42420000 	.word	0x42420000
 8004928:	40007000 	.word	0x40007000
 800492c:	4a5f      	ldr	r2, [pc, #380]	@ (8004aac <HAL_RCC_OscConfig+0x408>)
 800492e:	6a13      	ldr	r3, [r2, #32]
 8004930:	f043 0301 	orr.w	r3, r3, #1
 8004934:	6213      	str	r3, [r2, #32]
 8004936:	68e3      	ldr	r3, [r4, #12]
 8004938:	b333      	cbz	r3, 8004988 <HAL_RCC_OscConfig+0x2e4>
 800493a:	f7fe f90b 	bl	8002b54 <HAL_GetTick>
 800493e:	4606      	mov	r6, r0
 8004940:	4b5a      	ldr	r3, [pc, #360]	@ (8004aac <HAL_RCC_OscConfig+0x408>)
 8004942:	6a1b      	ldr	r3, [r3, #32]
 8004944:	f013 0f02 	tst.w	r3, #2
 8004948:	d12f      	bne.n	80049aa <HAL_RCC_OscConfig+0x306>
 800494a:	f7fe f903 	bl	8002b54 <HAL_GetTick>
 800494e:	1b80      	subs	r0, r0, r6
 8004950:	f241 3388 	movw	r3, #5000	@ 0x1388
 8004954:	4298      	cmp	r0, r3
 8004956:	d9f3      	bls.n	8004940 <HAL_RCC_OscConfig+0x29c>
 8004958:	2003      	movs	r0, #3
 800495a:	e09e      	b.n	8004a9a <HAL_RCC_OscConfig+0x3f6>
 800495c:	2b05      	cmp	r3, #5
 800495e:	d009      	beq.n	8004974 <HAL_RCC_OscConfig+0x2d0>
 8004960:	4b52      	ldr	r3, [pc, #328]	@ (8004aac <HAL_RCC_OscConfig+0x408>)
 8004962:	6a1a      	ldr	r2, [r3, #32]
 8004964:	f022 0201 	bic.w	r2, r2, #1
 8004968:	621a      	str	r2, [r3, #32]
 800496a:	6a1a      	ldr	r2, [r3, #32]
 800496c:	f022 0204 	bic.w	r2, r2, #4
 8004970:	621a      	str	r2, [r3, #32]
 8004972:	e7e0      	b.n	8004936 <HAL_RCC_OscConfig+0x292>
 8004974:	4b4d      	ldr	r3, [pc, #308]	@ (8004aac <HAL_RCC_OscConfig+0x408>)
 8004976:	6a1a      	ldr	r2, [r3, #32]
 8004978:	f042 0204 	orr.w	r2, r2, #4
 800497c:	621a      	str	r2, [r3, #32]
 800497e:	6a1a      	ldr	r2, [r3, #32]
 8004980:	f042 0201 	orr.w	r2, r2, #1
 8004984:	621a      	str	r2, [r3, #32]
 8004986:	e7d6      	b.n	8004936 <HAL_RCC_OscConfig+0x292>
 8004988:	f7fe f8e4 	bl	8002b54 <HAL_GetTick>
 800498c:	4606      	mov	r6, r0
 800498e:	4b47      	ldr	r3, [pc, #284]	@ (8004aac <HAL_RCC_OscConfig+0x408>)
 8004990:	6a1b      	ldr	r3, [r3, #32]
 8004992:	f013 0f02 	tst.w	r3, #2
 8004996:	d008      	beq.n	80049aa <HAL_RCC_OscConfig+0x306>
 8004998:	f7fe f8dc 	bl	8002b54 <HAL_GetTick>
 800499c:	1b80      	subs	r0, r0, r6
 800499e:	f241 3388 	movw	r3, #5000	@ 0x1388
 80049a2:	4298      	cmp	r0, r3
 80049a4:	d9f3      	bls.n	800498e <HAL_RCC_OscConfig+0x2ea>
 80049a6:	2003      	movs	r0, #3
 80049a8:	e077      	b.n	8004a9a <HAL_RCC_OscConfig+0x3f6>
 80049aa:	b9e5      	cbnz	r5, 80049e6 <HAL_RCC_OscConfig+0x342>
 80049ac:	69e3      	ldr	r3, [r4, #28]
 80049ae:	2b00      	cmp	r3, #0
 80049b0:	d072      	beq.n	8004a98 <HAL_RCC_OscConfig+0x3f4>
 80049b2:	4a3e      	ldr	r2, [pc, #248]	@ (8004aac <HAL_RCC_OscConfig+0x408>)
 80049b4:	6852      	ldr	r2, [r2, #4]
 80049b6:	f002 020c 	and.w	r2, r2, #12
 80049ba:	2a08      	cmp	r2, #8
 80049bc:	d056      	beq.n	8004a6c <HAL_RCC_OscConfig+0x3c8>
 80049be:	2b02      	cmp	r3, #2
 80049c0:	d017      	beq.n	80049f2 <HAL_RCC_OscConfig+0x34e>
 80049c2:	4b3b      	ldr	r3, [pc, #236]	@ (8004ab0 <HAL_RCC_OscConfig+0x40c>)
 80049c4:	2200      	movs	r2, #0
 80049c6:	661a      	str	r2, [r3, #96]	@ 0x60
 80049c8:	f7fe f8c4 	bl	8002b54 <HAL_GetTick>
 80049cc:	4604      	mov	r4, r0
 80049ce:	4b37      	ldr	r3, [pc, #220]	@ (8004aac <HAL_RCC_OscConfig+0x408>)
 80049d0:	681b      	ldr	r3, [r3, #0]
 80049d2:	f013 7f00 	tst.w	r3, #33554432	@ 0x2000000
 80049d6:	d047      	beq.n	8004a68 <HAL_RCC_OscConfig+0x3c4>
 80049d8:	f7fe f8bc 	bl	8002b54 <HAL_GetTick>
 80049dc:	1b00      	subs	r0, r0, r4
 80049de:	2802      	cmp	r0, #2
 80049e0:	d9f5      	bls.n	80049ce <HAL_RCC_OscConfig+0x32a>
 80049e2:	2003      	movs	r0, #3
 80049e4:	e059      	b.n	8004a9a <HAL_RCC_OscConfig+0x3f6>
 80049e6:	4a31      	ldr	r2, [pc, #196]	@ (8004aac <HAL_RCC_OscConfig+0x408>)
 80049e8:	69d3      	ldr	r3, [r2, #28]
 80049ea:	f023 5380 	bic.w	r3, r3, #268435456	@ 0x10000000
 80049ee:	61d3      	str	r3, [r2, #28]
 80049f0:	e7dc      	b.n	80049ac <HAL_RCC_OscConfig+0x308>
 80049f2:	4b2f      	ldr	r3, [pc, #188]	@ (8004ab0 <HAL_RCC_OscConfig+0x40c>)
 80049f4:	2200      	movs	r2, #0
 80049f6:	661a      	str	r2, [r3, #96]	@ 0x60
 80049f8:	f7fe f8ac 	bl	8002b54 <HAL_GetTick>
 80049fc:	4605      	mov	r5, r0
 80049fe:	4b2b      	ldr	r3, [pc, #172]	@ (8004aac <HAL_RCC_OscConfig+0x408>)
 8004a00:	681b      	ldr	r3, [r3, #0]
 8004a02:	f013 7f00 	tst.w	r3, #33554432	@ 0x2000000
 8004a06:	d006      	beq.n	8004a16 <HAL_RCC_OscConfig+0x372>
 8004a08:	f7fe f8a4 	bl	8002b54 <HAL_GetTick>
 8004a0c:	1b40      	subs	r0, r0, r5
 8004a0e:	2802      	cmp	r0, #2
 8004a10:	d9f5      	bls.n	80049fe <HAL_RCC_OscConfig+0x35a>
 8004a12:	2003      	movs	r0, #3
 8004a14:	e041      	b.n	8004a9a <HAL_RCC_OscConfig+0x3f6>
 8004a16:	6a23      	ldr	r3, [r4, #32]
 8004a18:	f5b3 3f80 	cmp.w	r3, #65536	@ 0x10000
 8004a1c:	d01a      	beq.n	8004a54 <HAL_RCC_OscConfig+0x3b0>
 8004a1e:	4923      	ldr	r1, [pc, #140]	@ (8004aac <HAL_RCC_OscConfig+0x408>)
 8004a20:	684b      	ldr	r3, [r1, #4]
 8004a22:	f423 1374 	bic.w	r3, r3, #3997696	@ 0x3d0000
 8004a26:	6a22      	ldr	r2, [r4, #32]
 8004a28:	6a60      	ldr	r0, [r4, #36]	@ 0x24
 8004a2a:	4302      	orrs	r2, r0
 8004a2c:	4313      	orrs	r3, r2
 8004a2e:	604b      	str	r3, [r1, #4]
 8004a30:	4b1f      	ldr	r3, [pc, #124]	@ (8004ab0 <HAL_RCC_OscConfig+0x40c>)
 8004a32:	2201      	movs	r2, #1
 8004a34:	661a      	str	r2, [r3, #96]	@ 0x60
 8004a36:	f7fe f88d 	bl	8002b54 <HAL_GetTick>
 8004a3a:	4604      	mov	r4, r0
 8004a3c:	4b1b      	ldr	r3, [pc, #108]	@ (8004aac <HAL_RCC_OscConfig+0x408>)
 8004a3e:	681b      	ldr	r3, [r3, #0]
 8004a40:	f013 7f00 	tst.w	r3, #33554432	@ 0x2000000
 8004a44:	d10e      	bne.n	8004a64 <HAL_RCC_OscConfig+0x3c0>
 8004a46:	f7fe f885 	bl	8002b54 <HAL_GetTick>
 8004a4a:	1b00      	subs	r0, r0, r4
 8004a4c:	2802      	cmp	r0, #2
 8004a4e:	d9f5      	bls.n	8004a3c <HAL_RCC_OscConfig+0x398>
 8004a50:	2003      	movs	r0, #3
 8004a52:	e022      	b.n	8004a9a <HAL_RCC_OscConfig+0x3f6>
 8004a54:	4a15      	ldr	r2, [pc, #84]	@ (8004aac <HAL_RCC_OscConfig+0x408>)
 8004a56:	6853      	ldr	r3, [r2, #4]
 8004a58:	f423 3300 	bic.w	r3, r3, #131072	@ 0x20000
 8004a5c:	68a1      	ldr	r1, [r4, #8]
 8004a5e:	430b      	orrs	r3, r1
 8004a60:	6053      	str	r3, [r2, #4]
 8004a62:	e7dc      	b.n	8004a1e <HAL_RCC_OscConfig+0x37a>
 8004a64:	2000      	movs	r0, #0
 8004a66:	e018      	b.n	8004a9a <HAL_RCC_OscConfig+0x3f6>
 8004a68:	2000      	movs	r0, #0
 8004a6a:	e016      	b.n	8004a9a <HAL_RCC_OscConfig+0x3f6>
 8004a6c:	2b01      	cmp	r3, #1
 8004a6e:	d016      	beq.n	8004a9e <HAL_RCC_OscConfig+0x3fa>
 8004a70:	4b0e      	ldr	r3, [pc, #56]	@ (8004aac <HAL_RCC_OscConfig+0x408>)
 8004a72:	685b      	ldr	r3, [r3, #4]
 8004a74:	f403 3180 	and.w	r1, r3, #65536	@ 0x10000
 8004a78:	6a22      	ldr	r2, [r4, #32]
 8004a7a:	4291      	cmp	r1, r2
 8004a7c:	d111      	bne.n	8004aa2 <HAL_RCC_OscConfig+0x3fe>
 8004a7e:	f403 1370 	and.w	r3, r3, #3932160	@ 0x3c0000
 8004a82:	6a62      	ldr	r2, [r4, #36]	@ 0x24
 8004a84:	4293      	cmp	r3, r2
 8004a86:	d10e      	bne.n	8004aa6 <HAL_RCC_OscConfig+0x402>
 8004a88:	2000      	movs	r0, #0
 8004a8a:	e006      	b.n	8004a9a <HAL_RCC_OscConfig+0x3f6>
 8004a8c:	2001      	movs	r0, #1
 8004a8e:	4770      	bx	lr
 8004a90:	2001      	movs	r0, #1
 8004a92:	e002      	b.n	8004a9a <HAL_RCC_OscConfig+0x3f6>
 8004a94:	2001      	movs	r0, #1
 8004a96:	e000      	b.n	8004a9a <HAL_RCC_OscConfig+0x3f6>
 8004a98:	2000      	movs	r0, #0
 8004a9a:	b002      	add	sp, #8
 8004a9c:	bd70      	pop	{r4, r5, r6, pc}
 8004a9e:	2001      	movs	r0, #1
 8004aa0:	e7fb      	b.n	8004a9a <HAL_RCC_OscConfig+0x3f6>
 8004aa2:	2001      	movs	r0, #1
 8004aa4:	e7f9      	b.n	8004a9a <HAL_RCC_OscConfig+0x3f6>
 8004aa6:	2001      	movs	r0, #1
 8004aa8:	e7f7      	b.n	8004a9a <HAL_RCC_OscConfig+0x3f6>
 8004aaa:	bf00      	nop
 8004aac:	40021000 	.word	0x40021000
 8004ab0:	42420000 	.word	0x42420000

08004ab4 <HAL_RCC_GetSysClockFreq>:
 8004ab4:	4b0f      	ldr	r3, [pc, #60]	@ (8004af4 <HAL_RCC_GetSysClockFreq+0x40>)
 8004ab6:	685b      	ldr	r3, [r3, #4]
 8004ab8:	f003 020c 	and.w	r2, r3, #12
 8004abc:	2a08      	cmp	r2, #8
 8004abe:	d001      	beq.n	8004ac4 <HAL_RCC_GetSysClockFreq+0x10>
 8004ac0:	480d      	ldr	r0, [pc, #52]	@ (8004af8 <HAL_RCC_GetSysClockFreq+0x44>)
 8004ac2:	4770      	bx	lr
 8004ac4:	f3c3 4283 	ubfx	r2, r3, #18, #4
 8004ac8:	490c      	ldr	r1, [pc, #48]	@ (8004afc <HAL_RCC_GetSysClockFreq+0x48>)
 8004aca:	5c88      	ldrb	r0, [r1, r2]
 8004acc:	f413 3f80 	tst.w	r3, #65536	@ 0x10000
 8004ad0:	d00b      	beq.n	8004aea <HAL_RCC_GetSysClockFreq+0x36>
 8004ad2:	4b08      	ldr	r3, [pc, #32]	@ (8004af4 <HAL_RCC_GetSysClockFreq+0x40>)
 8004ad4:	685b      	ldr	r3, [r3, #4]
 8004ad6:	f3c3 4340 	ubfx	r3, r3, #17, #1
 8004ada:	4a09      	ldr	r2, [pc, #36]	@ (8004b00 <HAL_RCC_GetSysClockFreq+0x4c>)
 8004adc:	5cd3      	ldrb	r3, [r2, r3]
 8004ade:	4a06      	ldr	r2, [pc, #24]	@ (8004af8 <HAL_RCC_GetSysClockFreq+0x44>)
 8004ae0:	fb02 f000 	mul.w	r0, r2, r0
 8004ae4:	fbb0 f0f3 	udiv	r0, r0, r3
 8004ae8:	4770      	bx	lr
 8004aea:	4b06      	ldr	r3, [pc, #24]	@ (8004b04 <HAL_RCC_GetSysClockFreq+0x50>)
 8004aec:	fb03 f000 	mul.w	r0, r3, r0
 8004af0:	4770      	bx	lr
 8004af2:	bf00      	nop
 8004af4:	40021000 	.word	0x40021000
 8004af8:	007a1200 	.word	0x007a1200
 8004afc:	08007d58 	.word	0x08007d58
 8004b00:	08007d54 	.word	0x08007d54
 8004b04:	003d0900 	.word	0x003d0900

08004b08 <HAL_RCC_ClockConfig>:
 8004b08:	2800      	cmp	r0, #0
 8004b0a:	f000 80a0 	beq.w	8004c4e <HAL_RCC_ClockConfig+0x146>
 8004b0e:	b570      	push	{r4, r5, r6, lr}
 8004b10:	460d      	mov	r5, r1
 8004b12:	4604      	mov	r4, r0
 8004b14:	4b52      	ldr	r3, [pc, #328]	@ (8004c60 <HAL_RCC_ClockConfig+0x158>)
 8004b16:	681b      	ldr	r3, [r3, #0]
 8004b18:	f003 0307 	and.w	r3, r3, #7
 8004b1c:	428b      	cmp	r3, r1
 8004b1e:	d20b      	bcs.n	8004b38 <HAL_RCC_ClockConfig+0x30>
 8004b20:	4a4f      	ldr	r2, [pc, #316]	@ (8004c60 <HAL_RCC_ClockConfig+0x158>)
 8004b22:	6813      	ldr	r3, [r2, #0]
 8004b24:	f023 0307 	bic.w	r3, r3, #7
 8004b28:	430b      	orrs	r3, r1
 8004b2a:	6013      	str	r3, [r2, #0]
 8004b2c:	6813      	ldr	r3, [r2, #0]
 8004b2e:	f003 0307 	and.w	r3, r3, #7
 8004b32:	428b      	cmp	r3, r1
 8004b34:	f040 808d 	bne.w	8004c52 <HAL_RCC_ClockConfig+0x14a>
 8004b38:	6823      	ldr	r3, [r4, #0]
 8004b3a:	f013 0f02 	tst.w	r3, #2
 8004b3e:	d017      	beq.n	8004b70 <HAL_RCC_ClockConfig+0x68>
 8004b40:	f013 0f04 	tst.w	r3, #4
 8004b44:	d004      	beq.n	8004b50 <HAL_RCC_ClockConfig+0x48>
 8004b46:	4a47      	ldr	r2, [pc, #284]	@ (8004c64 <HAL_RCC_ClockConfig+0x15c>)
 8004b48:	6853      	ldr	r3, [r2, #4]
 8004b4a:	f443 63e0 	orr.w	r3, r3, #1792	@ 0x700
 8004b4e:	6053      	str	r3, [r2, #4]
 8004b50:	6823      	ldr	r3, [r4, #0]
 8004b52:	f013 0f08 	tst.w	r3, #8
 8004b56:	d004      	beq.n	8004b62 <HAL_RCC_ClockConfig+0x5a>
 8004b58:	4a42      	ldr	r2, [pc, #264]	@ (8004c64 <HAL_RCC_ClockConfig+0x15c>)
 8004b5a:	6853      	ldr	r3, [r2, #4]
 8004b5c:	f443 5360 	orr.w	r3, r3, #14336	@ 0x3800
 8004b60:	6053      	str	r3, [r2, #4]
 8004b62:	4a40      	ldr	r2, [pc, #256]	@ (8004c64 <HAL_RCC_ClockConfig+0x15c>)
 8004b64:	6853      	ldr	r3, [r2, #4]
 8004b66:	f023 03f0 	bic.w	r3, r3, #240	@ 0xf0
 8004b6a:	68a1      	ldr	r1, [r4, #8]
 8004b6c:	430b      	orrs	r3, r1
 8004b6e:	6053      	str	r3, [r2, #4]
 8004b70:	6823      	ldr	r3, [r4, #0]
 8004b72:	f013 0f01 	tst.w	r3, #1
 8004b76:	d031      	beq.n	8004bdc <HAL_RCC_ClockConfig+0xd4>
 8004b78:	6863      	ldr	r3, [r4, #4]
 8004b7a:	2b01      	cmp	r3, #1
 8004b7c:	d020      	beq.n	8004bc0 <HAL_RCC_ClockConfig+0xb8>
 8004b7e:	2b02      	cmp	r3, #2
 8004b80:	d025      	beq.n	8004bce <HAL_RCC_ClockConfig+0xc6>
 8004b82:	4a38      	ldr	r2, [pc, #224]	@ (8004c64 <HAL_RCC_ClockConfig+0x15c>)
 8004b84:	6812      	ldr	r2, [r2, #0]
 8004b86:	f012 0f02 	tst.w	r2, #2
 8004b8a:	d064      	beq.n	8004c56 <HAL_RCC_ClockConfig+0x14e>
 8004b8c:	4935      	ldr	r1, [pc, #212]	@ (8004c64 <HAL_RCC_ClockConfig+0x15c>)
 8004b8e:	684a      	ldr	r2, [r1, #4]
 8004b90:	f022 0203 	bic.w	r2, r2, #3
 8004b94:	4313      	orrs	r3, r2
 8004b96:	604b      	str	r3, [r1, #4]
 8004b98:	f7fd ffdc 	bl	8002b54 <HAL_GetTick>
 8004b9c:	4606      	mov	r6, r0
 8004b9e:	4b31      	ldr	r3, [pc, #196]	@ (8004c64 <HAL_RCC_ClockConfig+0x15c>)
 8004ba0:	685b      	ldr	r3, [r3, #4]
 8004ba2:	f003 030c 	and.w	r3, r3, #12
 8004ba6:	6862      	ldr	r2, [r4, #4]
 8004ba8:	ebb3 0f82 	cmp.w	r3, r2, lsl #2
 8004bac:	d016      	beq.n	8004bdc <HAL_RCC_ClockConfig+0xd4>
 8004bae:	f7fd ffd1 	bl	8002b54 <HAL_GetTick>
 8004bb2:	1b80      	subs	r0, r0, r6
 8004bb4:	f241 3388 	movw	r3, #5000	@ 0x1388
 8004bb8:	4298      	cmp	r0, r3
 8004bba:	d9f0      	bls.n	8004b9e <HAL_RCC_ClockConfig+0x96>
 8004bbc:	2003      	movs	r0, #3
 8004bbe:	e045      	b.n	8004c4c <HAL_RCC_ClockConfig+0x144>
 8004bc0:	4a28      	ldr	r2, [pc, #160]	@ (8004c64 <HAL_RCC_ClockConfig+0x15c>)
 8004bc2:	6812      	ldr	r2, [r2, #0]
 8004bc4:	f412 3f00 	tst.w	r2, #131072	@ 0x20000
 8004bc8:	d1e0      	bne.n	8004b8c <HAL_RCC_ClockConfig+0x84>
 8004bca:	2001      	movs	r0, #1
 8004bcc:	e03e      	b.n	8004c4c <HAL_RCC_ClockConfig+0x144>
 8004bce:	4a25      	ldr	r2, [pc, #148]	@ (8004c64 <HAL_RCC_ClockConfig+0x15c>)
 8004bd0:	6812      	ldr	r2, [r2, #0]
 8004bd2:	f012 7f00 	tst.w	r2, #33554432	@ 0x2000000
 8004bd6:	d1d9      	bne.n	8004b8c <HAL_RCC_ClockConfig+0x84>
 8004bd8:	2001      	movs	r0, #1
 8004bda:	e037      	b.n	8004c4c <HAL_RCC_ClockConfig+0x144>
 8004bdc:	4b20      	ldr	r3, [pc, #128]	@ (8004c60 <HAL_RCC_ClockConfig+0x158>)
 8004bde:	681b      	ldr	r3, [r3, #0]
 8004be0:	f003 0307 	and.w	r3, r3, #7
 8004be4:	42ab      	cmp	r3, r5
 8004be6:	d90a      	bls.n	8004bfe <HAL_RCC_ClockConfig+0xf6>
 8004be8:	4a1d      	ldr	r2, [pc, #116]	@ (8004c60 <HAL_RCC_ClockConfig+0x158>)
 8004bea:	6813      	ldr	r3, [r2, #0]
 8004bec:	f023 0307 	bic.w	r3, r3, #7
 8004bf0:	432b      	orrs	r3, r5
 8004bf2:	6013      	str	r3, [r2, #0]
 8004bf4:	6813      	ldr	r3, [r2, #0]
 8004bf6:	f003 0307 	and.w	r3, r3, #7
 8004bfa:	42ab      	cmp	r3, r5
 8004bfc:	d12d      	bne.n	8004c5a <HAL_RCC_ClockConfig+0x152>
 8004bfe:	6823      	ldr	r3, [r4, #0]
 8004c00:	f013 0f04 	tst.w	r3, #4
 8004c04:	d006      	beq.n	8004c14 <HAL_RCC_ClockConfig+0x10c>
 8004c06:	4a17      	ldr	r2, [pc, #92]	@ (8004c64 <HAL_RCC_ClockConfig+0x15c>)
 8004c08:	6853      	ldr	r3, [r2, #4]
 8004c0a:	f423 63e0 	bic.w	r3, r3, #1792	@ 0x700
 8004c0e:	68e1      	ldr	r1, [r4, #12]
 8004c10:	430b      	orrs	r3, r1
 8004c12:	6053      	str	r3, [r2, #4]
 8004c14:	6823      	ldr	r3, [r4, #0]
 8004c16:	f013 0f08 	tst.w	r3, #8
 8004c1a:	d007      	beq.n	8004c2c <HAL_RCC_ClockConfig+0x124>
 8004c1c:	4a11      	ldr	r2, [pc, #68]	@ (8004c64 <HAL_RCC_ClockConfig+0x15c>)
 8004c1e:	6853      	ldr	r3, [r2, #4]
 8004c20:	f423 5360 	bic.w	r3, r3, #14336	@ 0x3800
 8004c24:	6921      	ldr	r1, [r4, #16]
 8004c26:	ea43 03c1 	orr.w	r3, r3, r1, lsl #3
 8004c2a:	6053      	str	r3, [r2, #4]
 8004c2c:	f7ff ff42 	bl	8004ab4 <HAL_RCC_GetSysClockFreq>
 8004c30:	4b0c      	ldr	r3, [pc, #48]	@ (8004c64 <HAL_RCC_ClockConfig+0x15c>)
 8004c32:	685b      	ldr	r3, [r3, #4]
 8004c34:	f3c3 1303 	ubfx	r3, r3, #4, #4
 8004c38:	4a0b      	ldr	r2, [pc, #44]	@ (8004c68 <HAL_RCC_ClockConfig+0x160>)
 8004c3a:	5cd3      	ldrb	r3, [r2, r3]
 8004c3c:	40d8      	lsrs	r0, r3
 8004c3e:	4b0b      	ldr	r3, [pc, #44]	@ (8004c6c <HAL_RCC_ClockConfig+0x164>)
 8004c40:	6018      	str	r0, [r3, #0]
 8004c42:	4b0b      	ldr	r3, [pc, #44]	@ (8004c70 <HAL_RCC_ClockConfig+0x168>)
 8004c44:	6818      	ldr	r0, [r3, #0]
 8004c46:	f7fd ff41 	bl	8002acc <HAL_InitTick>
 8004c4a:	2000      	movs	r0, #0
 8004c4c:	bd70      	pop	{r4, r5, r6, pc}
 8004c4e:	2001      	movs	r0, #1
 8004c50:	4770      	bx	lr
 8004c52:	2001      	movs	r0, #1
 8004c54:	e7fa      	b.n	8004c4c <HAL_RCC_ClockConfig+0x144>
 8004c56:	2001      	movs	r0, #1
 8004c58:	e7f8      	b.n	8004c4c <HAL_RCC_ClockConfig+0x144>
 8004c5a:	2001      	movs	r0, #1
 8004c5c:	e7f6      	b.n	8004c4c <HAL_RCC_ClockConfig+0x144>
 8004c5e:	bf00      	nop
 8004c60:	40022000 	.word	0x40022000
 8004c64:	40021000 	.word	0x40021000
 8004c68:	08007d68 	.word	0x08007d68
 8004c6c:	20000068 	.word	0x20000068
 8004c70:	20000064 	.word	0x20000064

08004c74 <HAL_RCCEx_PeriphCLKConfig>:
 8004c74:	b570      	push	{r4, r5, r6, lr}
 8004c76:	b082      	sub	sp, #8
 8004c78:	4604      	mov	r4, r0
 8004c7a:	6803      	ldr	r3, [r0, #0]
 8004c7c:	f013 0f01 	tst.w	r3, #1
 8004c80:	d036      	beq.n	8004cf0 <HAL_RCCEx_PeriphCLKConfig+0x7c>
 8004c82:	4b3f      	ldr	r3, [pc, #252]	@ (8004d80 <HAL_RCCEx_PeriphCLKConfig+0x10c>)
 8004c84:	69db      	ldr	r3, [r3, #28]
 8004c86:	f013 5f80 	tst.w	r3, #268435456	@ 0x10000000
 8004c8a:	d149      	bne.n	8004d20 <HAL_RCCEx_PeriphCLKConfig+0xac>
 8004c8c:	4b3c      	ldr	r3, [pc, #240]	@ (8004d80 <HAL_RCCEx_PeriphCLKConfig+0x10c>)
 8004c8e:	69da      	ldr	r2, [r3, #28]
 8004c90:	f042 5280 	orr.w	r2, r2, #268435456	@ 0x10000000
 8004c94:	61da      	str	r2, [r3, #28]
 8004c96:	69db      	ldr	r3, [r3, #28]
 8004c98:	f003 5380 	and.w	r3, r3, #268435456	@ 0x10000000
 8004c9c:	9301      	str	r3, [sp, #4]
 8004c9e:	9b01      	ldr	r3, [sp, #4]
 8004ca0:	2501      	movs	r5, #1
 8004ca2:	4b38      	ldr	r3, [pc, #224]	@ (8004d84 <HAL_RCCEx_PeriphCLKConfig+0x110>)
 8004ca4:	681b      	ldr	r3, [r3, #0]
 8004ca6:	f413 7f80 	tst.w	r3, #256	@ 0x100
 8004caa:	d03b      	beq.n	8004d24 <HAL_RCCEx_PeriphCLKConfig+0xb0>
 8004cac:	4b34      	ldr	r3, [pc, #208]	@ (8004d80 <HAL_RCCEx_PeriphCLKConfig+0x10c>)
 8004cae:	6a1b      	ldr	r3, [r3, #32]
 8004cb0:	f413 7340 	ands.w	r3, r3, #768	@ 0x300
 8004cb4:	d013      	beq.n	8004cde <HAL_RCCEx_PeriphCLKConfig+0x6a>
 8004cb6:	6862      	ldr	r2, [r4, #4]
 8004cb8:	f402 7240 	and.w	r2, r2, #768	@ 0x300
 8004cbc:	429a      	cmp	r2, r3
 8004cbe:	d00e      	beq.n	8004cde <HAL_RCCEx_PeriphCLKConfig+0x6a>
 8004cc0:	4a2f      	ldr	r2, [pc, #188]	@ (8004d80 <HAL_RCCEx_PeriphCLKConfig+0x10c>)
 8004cc2:	6a13      	ldr	r3, [r2, #32]
 8004cc4:	f423 7040 	bic.w	r0, r3, #768	@ 0x300
 8004cc8:	492f      	ldr	r1, [pc, #188]	@ (8004d88 <HAL_RCCEx_PeriphCLKConfig+0x114>)
 8004cca:	2601      	movs	r6, #1
 8004ccc:	f8c1 6440 	str.w	r6, [r1, #1088]	@ 0x440
 8004cd0:	2600      	movs	r6, #0
 8004cd2:	f8c1 6440 	str.w	r6, [r1, #1088]	@ 0x440
 8004cd6:	6210      	str	r0, [r2, #32]
 8004cd8:	f013 0f01 	tst.w	r3, #1
 8004cdc:	d136      	bne.n	8004d4c <HAL_RCCEx_PeriphCLKConfig+0xd8>
 8004cde:	4a28      	ldr	r2, [pc, #160]	@ (8004d80 <HAL_RCCEx_PeriphCLKConfig+0x10c>)
 8004ce0:	6a13      	ldr	r3, [r2, #32]
 8004ce2:	f423 7340 	bic.w	r3, r3, #768	@ 0x300
 8004ce6:	6861      	ldr	r1, [r4, #4]
 8004ce8:	430b      	orrs	r3, r1
 8004cea:	6213      	str	r3, [r2, #32]
 8004cec:	2d00      	cmp	r5, #0
 8004cee:	d13e      	bne.n	8004d6e <HAL_RCCEx_PeriphCLKConfig+0xfa>
 8004cf0:	6823      	ldr	r3, [r4, #0]
 8004cf2:	f013 0f02 	tst.w	r3, #2
 8004cf6:	d006      	beq.n	8004d06 <HAL_RCCEx_PeriphCLKConfig+0x92>
 8004cf8:	4a21      	ldr	r2, [pc, #132]	@ (8004d80 <HAL_RCCEx_PeriphCLKConfig+0x10c>)
 8004cfa:	6853      	ldr	r3, [r2, #4]
 8004cfc:	f423 4340 	bic.w	r3, r3, #49152	@ 0xc000
 8004d00:	68a1      	ldr	r1, [r4, #8]
 8004d02:	430b      	orrs	r3, r1
 8004d04:	6053      	str	r3, [r2, #4]
 8004d06:	6823      	ldr	r3, [r4, #0]
 8004d08:	f013 0f10 	tst.w	r3, #16
 8004d0c:	d034      	beq.n	8004d78 <HAL_RCCEx_PeriphCLKConfig+0x104>
 8004d0e:	4a1c      	ldr	r2, [pc, #112]	@ (8004d80 <HAL_RCCEx_PeriphCLKConfig+0x10c>)
 8004d10:	6853      	ldr	r3, [r2, #4]
 8004d12:	f423 0380 	bic.w	r3, r3, #4194304	@ 0x400000
 8004d16:	68e1      	ldr	r1, [r4, #12]
 8004d18:	430b      	orrs	r3, r1
 8004d1a:	6053      	str	r3, [r2, #4]
 8004d1c:	2000      	movs	r0, #0
 8004d1e:	e02c      	b.n	8004d7a <HAL_RCCEx_PeriphCLKConfig+0x106>
 8004d20:	2500      	movs	r5, #0
 8004d22:	e7be      	b.n	8004ca2 <HAL_RCCEx_PeriphCLKConfig+0x2e>
 8004d24:	4a17      	ldr	r2, [pc, #92]	@ (8004d84 <HAL_RCCEx_PeriphCLKConfig+0x110>)
 8004d26:	6813      	ldr	r3, [r2, #0]
 8004d28:	f443 7380 	orr.w	r3, r3, #256	@ 0x100
 8004d2c:	6013      	str	r3, [r2, #0]
 8004d2e:	f7fd ff11 	bl	8002b54 <HAL_GetTick>
 8004d32:	4606      	mov	r6, r0
 8004d34:	4b13      	ldr	r3, [pc, #76]	@ (8004d84 <HAL_RCCEx_PeriphCLKConfig+0x110>)
 8004d36:	681b      	ldr	r3, [r3, #0]
 8004d38:	f413 7f80 	tst.w	r3, #256	@ 0x100
 8004d3c:	d1b6      	bne.n	8004cac <HAL_RCCEx_PeriphCLKConfig+0x38>
 8004d3e:	f7fd ff09 	bl	8002b54 <HAL_GetTick>
 8004d42:	1b80      	subs	r0, r0, r6
 8004d44:	2864      	cmp	r0, #100	@ 0x64
 8004d46:	d9f5      	bls.n	8004d34 <HAL_RCCEx_PeriphCLKConfig+0xc0>
 8004d48:	2003      	movs	r0, #3
 8004d4a:	e016      	b.n	8004d7a <HAL_RCCEx_PeriphCLKConfig+0x106>
 8004d4c:	f7fd ff02 	bl	8002b54 <HAL_GetTick>
 8004d50:	4606      	mov	r6, r0
 8004d52:	4b0b      	ldr	r3, [pc, #44]	@ (8004d80 <HAL_RCCEx_PeriphCLKConfig+0x10c>)
 8004d54:	6a1b      	ldr	r3, [r3, #32]
 8004d56:	f013 0f02 	tst.w	r3, #2
 8004d5a:	d1c0      	bne.n	8004cde <HAL_RCCEx_PeriphCLKConfig+0x6a>
 8004d5c:	f7fd fefa 	bl	8002b54 <HAL_GetTick>
 8004d60:	1b80      	subs	r0, r0, r6
 8004d62:	f241 3388 	movw	r3, #5000	@ 0x1388
 8004d66:	4298      	cmp	r0, r3
 8004d68:	d9f3      	bls.n	8004d52 <HAL_RCCEx_PeriphCLKConfig+0xde>
 8004d6a:	2003      	movs	r0, #3
 8004d6c:	e005      	b.n	8004d7a <HAL_RCCEx_PeriphCLKConfig+0x106>
 8004d6e:	69d3      	ldr	r3, [r2, #28]
 8004d70:	f023 5380 	bic.w	r3, r3, #268435456	@ 0x10000000
 8004d74:	61d3      	str	r3, [r2, #28]
 8004d76:	e7bb      	b.n	8004cf0 <HAL_RCCEx_PeriphCLKConfig+0x7c>
 8004d78:	2000      	movs	r0, #0
 8004d7a:	b002      	add	sp, #8
 8004d7c:	bd70      	pop	{r4, r5, r6, pc}
 8004d7e:	bf00      	nop
 8004d80:	40021000 	.word	0x40021000
 8004d84:	40007000 	.word	0x40007000
 8004d88:	42420000 	.word	0x42420000

08004d8c <TIM_OC1_SetConfig>:
 8004d8c:	b430      	push	{r4, r5}
 8004d8e:	6a02      	ldr	r2, [r0, #32]
 8004d90:	6a03      	ldr	r3, [r0, #32]
 8004d92:	f023 0301 	bic.w	r3, r3, #1
 8004d96:	6203      	str	r3, [r0, #32]
 8004d98:	6845      	ldr	r5, [r0, #4]
 8004d9a:	6983      	ldr	r3, [r0, #24]
 8004d9c:	f023 0373 	bic.w	r3, r3, #115	@ 0x73
 8004da0:	680c      	ldr	r4, [r1, #0]
 8004da2:	431c      	orrs	r4, r3
 8004da4:	f022 0202 	bic.w	r2, r2, #2
 8004da8:	688b      	ldr	r3, [r1, #8]
 8004daa:	4313      	orrs	r3, r2
 8004dac:	4a0b      	ldr	r2, [pc, #44]	@ (8004ddc <TIM_OC1_SetConfig+0x50>)
 8004dae:	4290      	cmp	r0, r2
 8004db0:	d006      	beq.n	8004dc0 <TIM_OC1_SetConfig+0x34>
 8004db2:	6045      	str	r5, [r0, #4]
 8004db4:	6184      	str	r4, [r0, #24]
 8004db6:	684a      	ldr	r2, [r1, #4]
 8004db8:	6342      	str	r2, [r0, #52]	@ 0x34
 8004dba:	6203      	str	r3, [r0, #32]
 8004dbc:	bc30      	pop	{r4, r5}
 8004dbe:	4770      	bx	lr
 8004dc0:	f023 0308 	bic.w	r3, r3, #8
 8004dc4:	68ca      	ldr	r2, [r1, #12]
 8004dc6:	431a      	orrs	r2, r3
 8004dc8:	f022 0304 	bic.w	r3, r2, #4
 8004dcc:	f425 7540 	bic.w	r5, r5, #768	@ 0x300
 8004dd0:	694a      	ldr	r2, [r1, #20]
 8004dd2:	432a      	orrs	r2, r5
 8004dd4:	698d      	ldr	r5, [r1, #24]
 8004dd6:	4315      	orrs	r5, r2
 8004dd8:	e7eb      	b.n	8004db2 <TIM_OC1_SetConfig+0x26>
 8004dda:	bf00      	nop
 8004ddc:	40012c00 	.word	0x40012c00

08004de0 <TIM_OC3_SetConfig>:
 8004de0:	b430      	push	{r4, r5}
 8004de2:	6a03      	ldr	r3, [r0, #32]
 8004de4:	6a02      	ldr	r2, [r0, #32]
 8004de6:	f422 7280 	bic.w	r2, r2, #256	@ 0x100
 8004dea:	6202      	str	r2, [r0, #32]
 8004dec:	6844      	ldr	r4, [r0, #4]
 8004dee:	69c2      	ldr	r2, [r0, #28]
 8004df0:	f022 0273 	bic.w	r2, r2, #115	@ 0x73
 8004df4:	680d      	ldr	r5, [r1, #0]
 8004df6:	4315      	orrs	r5, r2
 8004df8:	f423 7300 	bic.w	r3, r3, #512	@ 0x200
 8004dfc:	688a      	ldr	r2, [r1, #8]
 8004dfe:	ea43 2302 	orr.w	r3, r3, r2, lsl #8
 8004e02:	4a0d      	ldr	r2, [pc, #52]	@ (8004e38 <TIM_OC3_SetConfig+0x58>)
 8004e04:	4290      	cmp	r0, r2
 8004e06:	d006      	beq.n	8004e16 <TIM_OC3_SetConfig+0x36>
 8004e08:	6044      	str	r4, [r0, #4]
 8004e0a:	61c5      	str	r5, [r0, #28]
 8004e0c:	684a      	ldr	r2, [r1, #4]
 8004e0e:	63c2      	str	r2, [r0, #60]	@ 0x3c
 8004e10:	6203      	str	r3, [r0, #32]
 8004e12:	bc30      	pop	{r4, r5}
 8004e14:	4770      	bx	lr
 8004e16:	f423 6300 	bic.w	r3, r3, #2048	@ 0x800
 8004e1a:	68ca      	ldr	r2, [r1, #12]
 8004e1c:	ea43 2302 	orr.w	r3, r3, r2, lsl #8
 8004e20:	f423 6380 	bic.w	r3, r3, #1024	@ 0x400
 8004e24:	f424 5440 	bic.w	r4, r4, #12288	@ 0x3000
 8004e28:	694a      	ldr	r2, [r1, #20]
 8004e2a:	ea44 1402 	orr.w	r4, r4, r2, lsl #4
 8004e2e:	698a      	ldr	r2, [r1, #24]
 8004e30:	ea44 1402 	orr.w	r4, r4, r2, lsl #4
 8004e34:	e7e8      	b.n	8004e08 <TIM_OC3_SetConfig+0x28>
 8004e36:	bf00      	nop
 8004e38:	40012c00 	.word	0x40012c00

08004e3c <TIM_OC4_SetConfig>:
 8004e3c:	b430      	push	{r4, r5}
 8004e3e:	6a03      	ldr	r3, [r0, #32]
 8004e40:	6a02      	ldr	r2, [r0, #32]
 8004e42:	f422 5280 	bic.w	r2, r2, #4096	@ 0x1000
 8004e46:	6202      	str	r2, [r0, #32]
 8004e48:	6844      	ldr	r4, [r0, #4]
 8004e4a:	69c2      	ldr	r2, [r0, #28]
 8004e4c:	f422 42e6 	bic.w	r2, r2, #29440	@ 0x7300
 8004e50:	680d      	ldr	r5, [r1, #0]
 8004e52:	ea42 2205 	orr.w	r2, r2, r5, lsl #8
 8004e56:	f423 5300 	bic.w	r3, r3, #8192	@ 0x2000
 8004e5a:	688d      	ldr	r5, [r1, #8]
 8004e5c:	ea43 3305 	orr.w	r3, r3, r5, lsl #12
 8004e60:	4d07      	ldr	r5, [pc, #28]	@ (8004e80 <TIM_OC4_SetConfig+0x44>)
 8004e62:	42a8      	cmp	r0, r5
 8004e64:	d006      	beq.n	8004e74 <TIM_OC4_SetConfig+0x38>
 8004e66:	6044      	str	r4, [r0, #4]
 8004e68:	61c2      	str	r2, [r0, #28]
 8004e6a:	684a      	ldr	r2, [r1, #4]
 8004e6c:	6402      	str	r2, [r0, #64]	@ 0x40
 8004e6e:	6203      	str	r3, [r0, #32]
 8004e70:	bc30      	pop	{r4, r5}
 8004e72:	4770      	bx	lr
 8004e74:	f424 4480 	bic.w	r4, r4, #16384	@ 0x4000
 8004e78:	694d      	ldr	r5, [r1, #20]
 8004e7a:	ea44 1485 	orr.w	r4, r4, r5, lsl #6
 8004e7e:	e7f2      	b.n	8004e66 <TIM_OC4_SetConfig+0x2a>
 8004e80:	40012c00 	.word	0x40012c00

08004e84 <TIM_TI1_ConfigInputStage>:
 8004e84:	b410      	push	{r4}
 8004e86:	6a03      	ldr	r3, [r0, #32]
 8004e88:	6a04      	ldr	r4, [r0, #32]
 8004e8a:	f024 0401 	bic.w	r4, r4, #1
 8004e8e:	6204      	str	r4, [r0, #32]
 8004e90:	6984      	ldr	r4, [r0, #24]
 8004e92:	f024 0cf0 	bic.w	ip, r4, #240	@ 0xf0
 8004e96:	ea4c 1202 	orr.w	r2, ip, r2, lsl #4
 8004e9a:	f023 030a 	bic.w	r3, r3, #10
 8004e9e:	430b      	orrs	r3, r1
 8004ea0:	6182      	str	r2, [r0, #24]
 8004ea2:	6203      	str	r3, [r0, #32]
 8004ea4:	bc10      	pop	{r4}
 8004ea6:	4770      	bx	lr

08004ea8 <TIM_TI2_ConfigInputStage>:
 8004ea8:	b410      	push	{r4}
 8004eaa:	6a03      	ldr	r3, [r0, #32]
 8004eac:	6a04      	ldr	r4, [r0, #32]
 8004eae:	f024 0410 	bic.w	r4, r4, #16
 8004eb2:	6204      	str	r4, [r0, #32]
 8004eb4:	6984      	ldr	r4, [r0, #24]
 8004eb6:	f424 4c70 	bic.w	ip, r4, #61440	@ 0xf000
 8004eba:	ea4c 3202 	orr.w	r2, ip, r2, lsl #12
 8004ebe:	f023 03a0 	bic.w	r3, r3, #160	@ 0xa0
 8004ec2:	ea43 1301 	orr.w	r3, r3, r1, lsl #4
 8004ec6:	6182      	str	r2, [r0, #24]
 8004ec8:	6203      	str	r3, [r0, #32]
 8004eca:	bc10      	pop	{r4}
 8004ecc:	4770      	bx	lr

08004ece <TIM_ITRx_SetConfig>:
 8004ece:	6883      	ldr	r3, [r0, #8]
 8004ed0:	f023 0370 	bic.w	r3, r3, #112	@ 0x70
 8004ed4:	430b      	orrs	r3, r1
 8004ed6:	f043 0307 	orr.w	r3, r3, #7
 8004eda:	6083      	str	r3, [r0, #8]
 8004edc:	4770      	bx	lr
	...

08004ee0 <HAL_TIM_Base_Start>:
 8004ee0:	f890 303d 	ldrb.w	r3, [r0, #61]	@ 0x3d
 8004ee4:	b2db      	uxtb	r3, r3
 8004ee6:	2b01      	cmp	r3, #1
 8004ee8:	d122      	bne.n	8004f30 <HAL_TIM_Base_Start+0x50>
 8004eea:	2302      	movs	r3, #2
 8004eec:	f880 303d 	strb.w	r3, [r0, #61]	@ 0x3d
 8004ef0:	6803      	ldr	r3, [r0, #0]
 8004ef2:	4a11      	ldr	r2, [pc, #68]	@ (8004f38 <HAL_TIM_Base_Start+0x58>)
 8004ef4:	4293      	cmp	r3, r2
 8004ef6:	d010      	beq.n	8004f1a <HAL_TIM_Base_Start+0x3a>
 8004ef8:	f1b3 4f80 	cmp.w	r3, #1073741824	@ 0x40000000
 8004efc:	d00d      	beq.n	8004f1a <HAL_TIM_Base_Start+0x3a>
 8004efe:	f5a2 3294 	sub.w	r2, r2, #75776	@ 0x12800
 8004f02:	4293      	cmp	r3, r2
 8004f04:	d009      	beq.n	8004f1a <HAL_TIM_Base_Start+0x3a>
 8004f06:	f502 6280 	add.w	r2, r2, #1024	@ 0x400
 8004f0a:	4293      	cmp	r3, r2
 8004f0c:	d005      	beq.n	8004f1a <HAL_TIM_Base_Start+0x3a>
 8004f0e:	681a      	ldr	r2, [r3, #0]
 8004f10:	f042 0201 	orr.w	r2, r2, #1
 8004f14:	601a      	str	r2, [r3, #0]
 8004f16:	2000      	movs	r0, #0
 8004f18:	4770      	bx	lr
 8004f1a:	689a      	ldr	r2, [r3, #8]
 8004f1c:	f002 0207 	and.w	r2, r2, #7
 8004f20:	2a06      	cmp	r2, #6
 8004f22:	d007      	beq.n	8004f34 <HAL_TIM_Base_Start+0x54>
 8004f24:	681a      	ldr	r2, [r3, #0]
 8004f26:	f042 0201 	orr.w	r2, r2, #1
 8004f2a:	601a      	str	r2, [r3, #0]
 8004f2c:	2000      	movs	r0, #0
 8004f2e:	4770      	bx	lr
 8004f30:	2001      	movs	r0, #1
 8004f32:	4770      	bx	lr
 8004f34:	2000      	movs	r0, #0
 8004f36:	4770      	bx	lr
 8004f38:	40012c00 	.word	0x40012c00

08004f3c <HAL_TIM_Base_Start_IT>:
 8004f3c:	f890 303d 	ldrb.w	r3, [r0, #61]	@ 0x3d
 8004f40:	b2db      	uxtb	r3, r3
 8004f42:	2b01      	cmp	r3, #1
 8004f44:	d127      	bne.n	8004f96 <HAL_TIM_Base_Start_IT+0x5a>
 8004f46:	2302      	movs	r3, #2
 8004f48:	f880 303d 	strb.w	r3, [r0, #61]	@ 0x3d
 8004f4c:	6802      	ldr	r2, [r0, #0]
 8004f4e:	68d3      	ldr	r3, [r2, #12]
 8004f50:	f043 0301 	orr.w	r3, r3, #1
 8004f54:	60d3      	str	r3, [r2, #12]
 8004f56:	6803      	ldr	r3, [r0, #0]
 8004f58:	4a11      	ldr	r2, [pc, #68]	@ (8004fa0 <HAL_TIM_Base_Start_IT+0x64>)
 8004f5a:	4293      	cmp	r3, r2
 8004f5c:	d010      	beq.n	8004f80 <HAL_TIM_Base_Start_IT+0x44>
 8004f5e:	f1b3 4f80 	cmp.w	r3, #1073741824	@ 0x40000000
 8004f62:	d00d      	beq.n	8004f80 <HAL_TIM_Base_Start_IT+0x44>
 8004f64:	f5a2 3294 	sub.w	r2, r2, #75776	@ 0x12800
 8004f68:	4293      	cmp	r3, r2
 8004f6a:	d009      	beq.n	8004f80 <HAL_TIM_Base_Start_IT+0x44>
 8004f6c:	f502 6280 	add.w	r2, r2, #1024	@ 0x400
 8004f70:	4293      	cmp	r3, r2
 8004f72:	d005      	beq.n	8004f80 <HAL_TIM_Base_Start_IT+0x44>
 8004f74:	681a      	ldr	r2, [r3, #0]
 8004f76:	f042 0201 	orr.w	r2, r2, #1
 8004f7a:	601a      	str	r2, [r3, #0]
 8004f7c:	2000      	movs	r0, #0
 8004f7e:	4770      	bx	lr
 8004f80:	689a      	ldr	r2, [r3, #8]
 8004f82:	f002 0207 	and.w	r2, r2, #7
 8004f86:	2a06      	cmp	r2, #6
 8004f88:	d007      	beq.n	8004f9a <HAL_TIM_Base_Start_IT+0x5e>
 8004f8a:	681a      	ldr	r2, [r3, #0]
 8004f8c:	f042 0201 	orr.w	r2, r2, #1
 8004f90:	601a      	str	r2, [r3, #0]
 8004f92:	2000      	movs	r0, #0
 8004f94:	4770      	bx	lr
 8004f96:	2001      	movs	r0, #1
 8004f98:	4770      	bx	lr
 8004f9a:	2000      	movs	r0, #0
 8004f9c:	4770      	bx	lr
 8004f9e:	bf00      	nop
 8004fa0:	40012c00 	.word	0x40012c00

08004fa4 <HAL_TIM_Base_Stop_IT>:
 8004fa4:	6802      	ldr	r2, [r0, #0]
 8004fa6:	68d3      	ldr	r3, [r2, #12]
 8004fa8:	f023 0301 	bic.w	r3, r3, #1
 8004fac:	60d3      	str	r3, [r2, #12]
 8004fae:	6803      	ldr	r3, [r0, #0]
 8004fb0:	6a19      	ldr	r1, [r3, #32]
 8004fb2:	f241 1211 	movw	r2, #4369	@ 0x1111
 8004fb6:	4211      	tst	r1, r2
 8004fb8:	d108      	bne.n	8004fcc <HAL_TIM_Base_Stop_IT+0x28>
 8004fba:	6a19      	ldr	r1, [r3, #32]
 8004fbc:	f240 4244 	movw	r2, #1092	@ 0x444
 8004fc0:	4211      	tst	r1, r2
 8004fc2:	d103      	bne.n	8004fcc <HAL_TIM_Base_Stop_IT+0x28>
 8004fc4:	681a      	ldr	r2, [r3, #0]
 8004fc6:	f022 0201 	bic.w	r2, r2, #1
 8004fca:	601a      	str	r2, [r3, #0]
 8004fcc:	2301      	movs	r3, #1
 8004fce:	f880 303d 	strb.w	r3, [r0, #61]	@ 0x3d
 8004fd2:	2000      	movs	r0, #0
 8004fd4:	4770      	bx	lr

08004fd6 <HAL_TIM_PWM_MspInit>:
 8004fd6:	4770      	bx	lr

08004fd8 <HAL_TIM_OC_DelayElapsedCallback>:
 8004fd8:	4770      	bx	lr

08004fda <HAL_TIM_IC_CaptureCallback>:
 8004fda:	4770      	bx	lr

08004fdc <HAL_TIM_PWM_PulseFinishedCallback>:
 8004fdc:	4770      	bx	lr

08004fde <HAL_TIM_TriggerCallback>:
 8004fde:	4770      	bx	lr

08004fe0 <HAL_TIM_IRQHandler>:
 8004fe0:	b570      	push	{r4, r5, r6, lr}
 8004fe2:	4604      	mov	r4, r0
 8004fe4:	6803      	ldr	r3, [r0, #0]
 8004fe6:	68de      	ldr	r6, [r3, #12]
 8004fe8:	691d      	ldr	r5, [r3, #16]
 8004fea:	f015 0f02 	tst.w	r5, #2
 8004fee:	d010      	beq.n	8005012 <HAL_TIM_IRQHandler+0x32>
 8004ff0:	f016 0f02 	tst.w	r6, #2
 8004ff4:	d00d      	beq.n	8005012 <HAL_TIM_IRQHandler+0x32>
 8004ff6:	f06f 0202 	mvn.w	r2, #2
 8004ffa:	611a      	str	r2, [r3, #16]
 8004ffc:	2301      	movs	r3, #1
 8004ffe:	7703      	strb	r3, [r0, #28]
 8005000:	6803      	ldr	r3, [r0, #0]
 8005002:	699b      	ldr	r3, [r3, #24]
 8005004:	f013 0f03 	tst.w	r3, #3
 8005008:	d05e      	beq.n	80050c8 <HAL_TIM_IRQHandler+0xe8>
 800500a:	f7ff ffe6 	bl	8004fda <HAL_TIM_IC_CaptureCallback>
 800500e:	2300      	movs	r3, #0
 8005010:	7723      	strb	r3, [r4, #28]
 8005012:	f015 0f04 	tst.w	r5, #4
 8005016:	d012      	beq.n	800503e <HAL_TIM_IRQHandler+0x5e>
 8005018:	f016 0f04 	tst.w	r6, #4
 800501c:	d00f      	beq.n	800503e <HAL_TIM_IRQHandler+0x5e>
 800501e:	6823      	ldr	r3, [r4, #0]
 8005020:	f06f 0204 	mvn.w	r2, #4
 8005024:	611a      	str	r2, [r3, #16]
 8005026:	2302      	movs	r3, #2
 8005028:	7723      	strb	r3, [r4, #28]
 800502a:	6823      	ldr	r3, [r4, #0]
 800502c:	699b      	ldr	r3, [r3, #24]
 800502e:	f413 7f40 	tst.w	r3, #768	@ 0x300
 8005032:	d04f      	beq.n	80050d4 <HAL_TIM_IRQHandler+0xf4>
 8005034:	4620      	mov	r0, r4
 8005036:	f7ff ffd0 	bl	8004fda <HAL_TIM_IC_CaptureCallback>
 800503a:	2300      	movs	r3, #0
 800503c:	7723      	strb	r3, [r4, #28]
 800503e:	f015 0f08 	tst.w	r5, #8
 8005042:	d012      	beq.n	800506a <HAL_TIM_IRQHandler+0x8a>
 8005044:	f016 0f08 	tst.w	r6, #8
 8005048:	d00f      	beq.n	800506a <HAL_TIM_IRQHandler+0x8a>
 800504a:	6823      	ldr	r3, [r4, #0]
 800504c:	f06f 0208 	mvn.w	r2, #8
 8005050:	611a      	str	r2, [r3, #16]
 8005052:	2304      	movs	r3, #4
 8005054:	7723      	strb	r3, [r4, #28]
 8005056:	6823      	ldr	r3, [r4, #0]
 8005058:	69db      	ldr	r3, [r3, #28]
 800505a:	f013 0f03 	tst.w	r3, #3
 800505e:	d040      	beq.n	80050e2 <HAL_TIM_IRQHandler+0x102>
 8005060:	4620      	mov	r0, r4
 8005062:	f7ff ffba 	bl	8004fda <HAL_TIM_IC_CaptureCallback>
 8005066:	2300      	movs	r3, #0
 8005068:	7723      	strb	r3, [r4, #28]
 800506a:	f015 0f10 	tst.w	r5, #16
 800506e:	d012      	beq.n	8005096 <HAL_TIM_IRQHandler+0xb6>
 8005070:	f016 0f10 	tst.w	r6, #16
 8005074:	d00f      	beq.n	8005096 <HAL_TIM_IRQHandler+0xb6>
 8005076:	6823      	ldr	r3, [r4, #0]
 8005078:	f06f 0210 	mvn.w	r2, #16
 800507c:	611a      	str	r2, [r3, #16]
 800507e:	2308      	movs	r3, #8
 8005080:	7723      	strb	r3, [r4, #28]
 8005082:	6823      	ldr	r3, [r4, #0]
 8005084:	69db      	ldr	r3, [r3, #28]
 8005086:	f413 7f40 	tst.w	r3, #768	@ 0x300
 800508a:	d031      	beq.n	80050f0 <HAL_TIM_IRQHandler+0x110>
 800508c:	4620      	mov	r0, r4
 800508e:	f7ff ffa4 	bl	8004fda <HAL_TIM_IC_CaptureCallback>
 8005092:	2300      	movs	r3, #0
 8005094:	7723      	strb	r3, [r4, #28]
 8005096:	f015 0f01 	tst.w	r5, #1
 800509a:	d002      	beq.n	80050a2 <HAL_TIM_IRQHandler+0xc2>
 800509c:	f016 0f01 	tst.w	r6, #1
 80050a0:	d12d      	bne.n	80050fe <HAL_TIM_IRQHandler+0x11e>
 80050a2:	f015 0f80 	tst.w	r5, #128	@ 0x80
 80050a6:	d002      	beq.n	80050ae <HAL_TIM_IRQHandler+0xce>
 80050a8:	f016 0f80 	tst.w	r6, #128	@ 0x80
 80050ac:	d12f      	bne.n	800510e <HAL_TIM_IRQHandler+0x12e>
 80050ae:	f015 0f40 	tst.w	r5, #64	@ 0x40
 80050b2:	d002      	beq.n	80050ba <HAL_TIM_IRQHandler+0xda>
 80050b4:	f016 0f40 	tst.w	r6, #64	@ 0x40
 80050b8:	d131      	bne.n	800511e <HAL_TIM_IRQHandler+0x13e>
 80050ba:	f015 0f20 	tst.w	r5, #32
 80050be:	d002      	beq.n	80050c6 <HAL_TIM_IRQHandler+0xe6>
 80050c0:	f016 0f20 	tst.w	r6, #32
 80050c4:	d133      	bne.n	800512e <HAL_TIM_IRQHandler+0x14e>
 80050c6:	bd70      	pop	{r4, r5, r6, pc}
 80050c8:	f7ff ff86 	bl	8004fd8 <HAL_TIM_OC_DelayElapsedCallback>
 80050cc:	4620      	mov	r0, r4
 80050ce:	f7ff ff85 	bl	8004fdc <HAL_TIM_PWM_PulseFinishedCallback>
 80050d2:	e79c      	b.n	800500e <HAL_TIM_IRQHandler+0x2e>
 80050d4:	4620      	mov	r0, r4
 80050d6:	f7ff ff7f 	bl	8004fd8 <HAL_TIM_OC_DelayElapsedCallback>
 80050da:	4620      	mov	r0, r4
 80050dc:	f7ff ff7e 	bl	8004fdc <HAL_TIM_PWM_PulseFinishedCallback>
 80050e0:	e7ab      	b.n	800503a <HAL_TIM_IRQHandler+0x5a>
 80050e2:	4620      	mov	r0, r4
 80050e4:	f7ff ff78 	bl	8004fd8 <HAL_TIM_OC_DelayElapsedCallback>
 80050e8:	4620      	mov	r0, r4
 80050ea:	f7ff ff77 	bl	8004fdc <HAL_TIM_PWM_PulseFinishedCallback>
 80050ee:	e7ba      	b.n	8005066 <HAL_TIM_IRQHandler+0x86>
 80050f0:	4620      	mov	r0, r4
 80050f2:	f7ff ff71 	bl	8004fd8 <HAL_TIM_OC_DelayElapsedCallback>
 80050f6:	4620      	mov	r0, r4
 80050f8:	f7ff ff70 	bl	8004fdc <HAL_TIM_PWM_PulseFinishedCallback>
 80050fc:	e7c9      	b.n	8005092 <HAL_TIM_IRQHandler+0xb2>
 80050fe:	6823      	ldr	r3, [r4, #0]
 8005100:	f06f 0201 	mvn.w	r2, #1
 8005104:	611a      	str	r2, [r3, #16]
 8005106:	4620      	mov	r0, r4
 8005108:	f7fd fc3a 	bl	8002980 <HAL_TIM_PeriodElapsedCallback>
 800510c:	e7c9      	b.n	80050a2 <HAL_TIM_IRQHandler+0xc2>
 800510e:	6823      	ldr	r3, [r4, #0]
 8005110:	f06f 0280 	mvn.w	r2, #128	@ 0x80
 8005114:	611a      	str	r2, [r3, #16]
 8005116:	4620      	mov	r0, r4
 8005118:	f000 fb2a 	bl	8005770 <HAL_TIMEx_BreakCallback>
 800511c:	e7c7      	b.n	80050ae <HAL_TIM_IRQHandler+0xce>
 800511e:	6823      	ldr	r3, [r4, #0]
 8005120:	f06f 0240 	mvn.w	r2, #64	@ 0x40
 8005124:	611a      	str	r2, [r3, #16]
 8005126:	4620      	mov	r0, r4
 8005128:	f7ff ff59 	bl	8004fde <HAL_TIM_TriggerCallback>
 800512c:	e7c5      	b.n	80050ba <HAL_TIM_IRQHandler+0xda>
 800512e:	6823      	ldr	r3, [r4, #0]
 8005130:	f06f 0220 	mvn.w	r2, #32
 8005134:	611a      	str	r2, [r3, #16]
 8005136:	4620      	mov	r0, r4
 8005138:	f000 fb19 	bl	800576e <HAL_TIMEx_CommutCallback>
 800513c:	e7c3      	b.n	80050c6 <HAL_TIM_IRQHandler+0xe6>
	...

08005140 <TIM_Base_SetConfig>:
 8005140:	6803      	ldr	r3, [r0, #0]
 8005142:	4a1f      	ldr	r2, [pc, #124]	@ (80051c0 <TIM_Base_SetConfig+0x80>)
 8005144:	4290      	cmp	r0, r2
 8005146:	d00a      	beq.n	800515e <TIM_Base_SetConfig+0x1e>
 8005148:	f1b0 4f80 	cmp.w	r0, #1073741824	@ 0x40000000
 800514c:	d007      	beq.n	800515e <TIM_Base_SetConfig+0x1e>
 800514e:	f5a2 3294 	sub.w	r2, r2, #75776	@ 0x12800
 8005152:	4290      	cmp	r0, r2
 8005154:	d003      	beq.n	800515e <TIM_Base_SetConfig+0x1e>
 8005156:	f502 6280 	add.w	r2, r2, #1024	@ 0x400
 800515a:	4290      	cmp	r0, r2
 800515c:	d103      	bne.n	8005166 <TIM_Base_SetConfig+0x26>
 800515e:	f023 0370 	bic.w	r3, r3, #112	@ 0x70
 8005162:	684a      	ldr	r2, [r1, #4]
 8005164:	4313      	orrs	r3, r2
 8005166:	4a16      	ldr	r2, [pc, #88]	@ (80051c0 <TIM_Base_SetConfig+0x80>)
 8005168:	4290      	cmp	r0, r2
 800516a:	d00a      	beq.n	8005182 <TIM_Base_SetConfig+0x42>
 800516c:	f1b0 4f80 	cmp.w	r0, #1073741824	@ 0x40000000
 8005170:	d007      	beq.n	8005182 <TIM_Base_SetConfig+0x42>
 8005172:	f5a2 3294 	sub.w	r2, r2, #75776	@ 0x12800
 8005176:	4290      	cmp	r0, r2
 8005178:	d003      	beq.n	8005182 <TIM_Base_SetConfig+0x42>
 800517a:	f502 6280 	add.w	r2, r2, #1024	@ 0x400
 800517e:	4290      	cmp	r0, r2
 8005180:	d103      	bne.n	800518a <TIM_Base_SetConfig+0x4a>
 8005182:	f423 7340 	bic.w	r3, r3, #768	@ 0x300
 8005186:	68ca      	ldr	r2, [r1, #12]
 8005188:	4313      	orrs	r3, r2
 800518a:	f023 0380 	bic.w	r3, r3, #128	@ 0x80
 800518e:	694a      	ldr	r2, [r1, #20]
 8005190:	4313      	orrs	r3, r2
 8005192:	6003      	str	r3, [r0, #0]
 8005194:	688b      	ldr	r3, [r1, #8]
 8005196:	62c3      	str	r3, [r0, #44]	@ 0x2c
 8005198:	680b      	ldr	r3, [r1, #0]
 800519a:	6283      	str	r3, [r0, #40]	@ 0x28
 800519c:	4b08      	ldr	r3, [pc, #32]	@ (80051c0 <TIM_Base_SetConfig+0x80>)
 800519e:	4298      	cmp	r0, r3
 80051a0:	d00a      	beq.n	80051b8 <TIM_Base_SetConfig+0x78>
 80051a2:	2301      	movs	r3, #1
 80051a4:	6143      	str	r3, [r0, #20]
 80051a6:	6903      	ldr	r3, [r0, #16]
 80051a8:	f013 0f01 	tst.w	r3, #1
 80051ac:	d003      	beq.n	80051b6 <TIM_Base_SetConfig+0x76>
 80051ae:	6903      	ldr	r3, [r0, #16]
 80051b0:	f023 0301 	bic.w	r3, r3, #1
 80051b4:	6103      	str	r3, [r0, #16]
 80051b6:	4770      	bx	lr
 80051b8:	690b      	ldr	r3, [r1, #16]
 80051ba:	6303      	str	r3, [r0, #48]	@ 0x30
 80051bc:	e7f1      	b.n	80051a2 <TIM_Base_SetConfig+0x62>
 80051be:	bf00      	nop
 80051c0:	40012c00 	.word	0x40012c00

080051c4 <HAL_TIM_Base_Init>:
 80051c4:	b340      	cbz	r0, 8005218 <HAL_TIM_Base_Init+0x54>
 80051c6:	b510      	push	{r4, lr}
 80051c8:	4604      	mov	r4, r0
 80051ca:	f890 303d 	ldrb.w	r3, [r0, #61]	@ 0x3d
 80051ce:	b1f3      	cbz	r3, 800520e <HAL_TIM_Base_Init+0x4a>
 80051d0:	2302      	movs	r3, #2
 80051d2:	f884 303d 	strb.w	r3, [r4, #61]	@ 0x3d
 80051d6:	4621      	mov	r1, r4
 80051d8:	f851 0b04 	ldr.w	r0, [r1], #4
 80051dc:	f7ff ffb0 	bl	8005140 <TIM_Base_SetConfig>
 80051e0:	2301      	movs	r3, #1
 80051e2:	f884 3046 	strb.w	r3, [r4, #70]	@ 0x46
 80051e6:	f884 303e 	strb.w	r3, [r4, #62]	@ 0x3e
 80051ea:	f884 303f 	strb.w	r3, [r4, #63]	@ 0x3f
 80051ee:	f884 3040 	strb.w	r3, [r4, #64]	@ 0x40
 80051f2:	f884 3041 	strb.w	r3, [r4, #65]	@ 0x41
 80051f6:	f884 3042 	strb.w	r3, [r4, #66]	@ 0x42
 80051fa:	f884 3043 	strb.w	r3, [r4, #67]	@ 0x43
 80051fe:	f884 3044 	strb.w	r3, [r4, #68]	@ 0x44
 8005202:	f884 3045 	strb.w	r3, [r4, #69]	@ 0x45
 8005206:	f884 303d 	strb.w	r3, [r4, #61]	@ 0x3d
 800520a:	2000      	movs	r0, #0
 800520c:	bd10      	pop	{r4, pc}
 800520e:	f880 303c 	strb.w	r3, [r0, #60]	@ 0x3c
 8005212:	f001 fb55 	bl	80068c0 <HAL_TIM_Base_MspInit>
 8005216:	e7db      	b.n	80051d0 <HAL_TIM_Base_Init+0xc>
 8005218:	2001      	movs	r0, #1
 800521a:	4770      	bx	lr

0800521c <HAL_TIM_PWM_Init>:
 800521c:	b340      	cbz	r0, 8005270 <HAL_TIM_PWM_Init+0x54>
 800521e:	b510      	push	{r4, lr}
 8005220:	4604      	mov	r4, r0
 8005222:	f890 303d 	ldrb.w	r3, [r0, #61]	@ 0x3d
 8005226:	b1f3      	cbz	r3, 8005266 <HAL_TIM_PWM_Init+0x4a>
 8005228:	2302      	movs	r3, #2
 800522a:	f884 303d 	strb.w	r3, [r4, #61]	@ 0x3d
 800522e:	4621      	mov	r1, r4
 8005230:	f851 0b04 	ldr.w	r0, [r1], #4
 8005234:	f7ff ff84 	bl	8005140 <TIM_Base_SetConfig>
 8005238:	2301      	movs	r3, #1
 800523a:	f884 3046 	strb.w	r3, [r4, #70]	@ 0x46
 800523e:	f884 303e 	strb.w	r3, [r4, #62]	@ 0x3e
 8005242:	f884 303f 	strb.w	r3, [r4, #63]	@ 0x3f
 8005246:	f884 3040 	strb.w	r3, [r4, #64]	@ 0x40
 800524a:	f884 3041 	strb.w	r3, [r4, #65]	@ 0x41
 800524e:	f884 3042 	strb.w	r3, [r4, #66]	@ 0x42
 8005252:	f884 3043 	strb.w	r3, [r4, #67]	@ 0x43
 8005256:	f884 3044 	strb.w	r3, [r4, #68]	@ 0x44
 800525a:	f884 3045 	strb.w	r3, [r4, #69]	@ 0x45
 800525e:	f884 303d 	strb.w	r3, [r4, #61]	@ 0x3d
 8005262:	2000      	movs	r0, #0
 8005264:	bd10      	pop	{r4, pc}
 8005266:	f880 303c 	strb.w	r3, [r0, #60]	@ 0x3c
 800526a:	f7ff feb4 	bl	8004fd6 <HAL_TIM_PWM_MspInit>
 800526e:	e7db      	b.n	8005228 <HAL_TIM_PWM_Init+0xc>
 8005270:	2001      	movs	r0, #1
 8005272:	4770      	bx	lr

08005274 <TIM_OC2_SetConfig>:
 8005274:	b430      	push	{r4, r5}
 8005276:	6a03      	ldr	r3, [r0, #32]
 8005278:	6a02      	ldr	r2, [r0, #32]
 800527a:	f022 0210 	bic.w	r2, r2, #16
 800527e:	6202      	str	r2, [r0, #32]
 8005280:	6844      	ldr	r4, [r0, #4]
 8005282:	6982      	ldr	r2, [r0, #24]
 8005284:	f422 42e6 	bic.w	r2, r2, #29440	@ 0x7300
 8005288:	680d      	ldr	r5, [r1, #0]
 800528a:	ea42 2205 	orr.w	r2, r2, r5, lsl #8
 800528e:	f023 0320 	bic.w	r3, r3, #32
 8005292:	688d      	ldr	r5, [r1, #8]
 8005294:	ea43 1305 	orr.w	r3, r3, r5, lsl #4
 8005298:	4d0c      	ldr	r5, [pc, #48]	@ (80052cc <TIM_OC2_SetConfig+0x58>)
 800529a:	42a8      	cmp	r0, r5
 800529c:	d006      	beq.n	80052ac <TIM_OC2_SetConfig+0x38>
 800529e:	6044      	str	r4, [r0, #4]
 80052a0:	6182      	str	r2, [r0, #24]
 80052a2:	684a      	ldr	r2, [r1, #4]
 80052a4:	6382      	str	r2, [r0, #56]	@ 0x38
 80052a6:	6203      	str	r3, [r0, #32]
 80052a8:	bc30      	pop	{r4, r5}
 80052aa:	4770      	bx	lr
 80052ac:	f023 0380 	bic.w	r3, r3, #128	@ 0x80
 80052b0:	68cd      	ldr	r5, [r1, #12]
 80052b2:	ea43 1305 	orr.w	r3, r3, r5, lsl #4
 80052b6:	f023 0340 	bic.w	r3, r3, #64	@ 0x40
 80052ba:	f424 6440 	bic.w	r4, r4, #3072	@ 0xc00
 80052be:	694d      	ldr	r5, [r1, #20]
 80052c0:	ea44 0485 	orr.w	r4, r4, r5, lsl #2
 80052c4:	698d      	ldr	r5, [r1, #24]
 80052c6:	ea44 0485 	orr.w	r4, r4, r5, lsl #2
 80052ca:	e7e8      	b.n	800529e <TIM_OC2_SetConfig+0x2a>
 80052cc:	40012c00 	.word	0x40012c00

080052d0 <HAL_TIM_PWM_ConfigChannel>:
 80052d0:	b538      	push	{r3, r4, r5, lr}
 80052d2:	f890 303c 	ldrb.w	r3, [r0, #60]	@ 0x3c
 80052d6:	2b01      	cmp	r3, #1
 80052d8:	d066      	beq.n	80053a8 <HAL_TIM_PWM_ConfigChannel+0xd8>
 80052da:	4604      	mov	r4, r0
 80052dc:	460d      	mov	r5, r1
 80052de:	2301      	movs	r3, #1
 80052e0:	f880 303c 	strb.w	r3, [r0, #60]	@ 0x3c
 80052e4:	2a0c      	cmp	r2, #12
 80052e6:	d85a      	bhi.n	800539e <HAL_TIM_PWM_ConfigChannel+0xce>
 80052e8:	e8df f002 	tbb	[pc, r2]
 80052ec:	59595907 	.word	0x59595907
 80052f0:	5959591b 	.word	0x5959591b
 80052f4:	59595930 	.word	0x59595930
 80052f8:	44          	.byte	0x44
 80052f9:	00          	.byte	0x00
 80052fa:	6800      	ldr	r0, [r0, #0]
 80052fc:	f7ff fd46 	bl	8004d8c <TIM_OC1_SetConfig>
 8005300:	6822      	ldr	r2, [r4, #0]
 8005302:	6993      	ldr	r3, [r2, #24]
 8005304:	f043 0308 	orr.w	r3, r3, #8
 8005308:	6193      	str	r3, [r2, #24]
 800530a:	6822      	ldr	r2, [r4, #0]
 800530c:	6993      	ldr	r3, [r2, #24]
 800530e:	f023 0304 	bic.w	r3, r3, #4
 8005312:	6193      	str	r3, [r2, #24]
 8005314:	6822      	ldr	r2, [r4, #0]
 8005316:	6993      	ldr	r3, [r2, #24]
 8005318:	6929      	ldr	r1, [r5, #16]
 800531a:	430b      	orrs	r3, r1
 800531c:	6193      	str	r3, [r2, #24]
 800531e:	2000      	movs	r0, #0
 8005320:	e03e      	b.n	80053a0 <HAL_TIM_PWM_ConfigChannel+0xd0>
 8005322:	6800      	ldr	r0, [r0, #0]
 8005324:	f7ff ffa6 	bl	8005274 <TIM_OC2_SetConfig>
 8005328:	6822      	ldr	r2, [r4, #0]
 800532a:	6993      	ldr	r3, [r2, #24]
 800532c:	f443 6300 	orr.w	r3, r3, #2048	@ 0x800
 8005330:	6193      	str	r3, [r2, #24]
 8005332:	6822      	ldr	r2, [r4, #0]
 8005334:	6993      	ldr	r3, [r2, #24]
 8005336:	f423 6380 	bic.w	r3, r3, #1024	@ 0x400
 800533a:	6193      	str	r3, [r2, #24]
 800533c:	6822      	ldr	r2, [r4, #0]
 800533e:	6993      	ldr	r3, [r2, #24]
 8005340:	6929      	ldr	r1, [r5, #16]
 8005342:	ea43 2301 	orr.w	r3, r3, r1, lsl #8
 8005346:	6193      	str	r3, [r2, #24]
 8005348:	2000      	movs	r0, #0
 800534a:	e029      	b.n	80053a0 <HAL_TIM_PWM_ConfigChannel+0xd0>
 800534c:	6800      	ldr	r0, [r0, #0]
 800534e:	f7ff fd47 	bl	8004de0 <TIM_OC3_SetConfig>
 8005352:	6822      	ldr	r2, [r4, #0]
 8005354:	69d3      	ldr	r3, [r2, #28]
 8005356:	f043 0308 	orr.w	r3, r3, #8
 800535a:	61d3      	str	r3, [r2, #28]
 800535c:	6822      	ldr	r2, [r4, #0]
 800535e:	69d3      	ldr	r3, [r2, #28]
 8005360:	f023 0304 	bic.w	r3, r3, #4
 8005364:	61d3      	str	r3, [r2, #28]
 8005366:	6822      	ldr	r2, [r4, #0]
 8005368:	69d3      	ldr	r3, [r2, #28]
 800536a:	6929      	ldr	r1, [r5, #16]
 800536c:	430b      	orrs	r3, r1
 800536e:	61d3      	str	r3, [r2, #28]
 8005370:	2000      	movs	r0, #0
 8005372:	e015      	b.n	80053a0 <HAL_TIM_PWM_ConfigChannel+0xd0>
 8005374:	6800      	ldr	r0, [r0, #0]
 8005376:	f7ff fd61 	bl	8004e3c <TIM_OC4_SetConfig>
 800537a:	6822      	ldr	r2, [r4, #0]
 800537c:	69d3      	ldr	r3, [r2, #28]
 800537e:	f443 6300 	orr.w	r3, r3, #2048	@ 0x800
 8005382:	61d3      	str	r3, [r2, #28]
 8005384:	6822      	ldr	r2, [r4, #0]
 8005386:	69d3      	ldr	r3, [r2, #28]
 8005388:	f423 6380 	bic.w	r3, r3, #1024	@ 0x400
 800538c:	61d3      	str	r3, [r2, #28]
 800538e:	6822      	ldr	r2, [r4, #0]
 8005390:	69d3      	ldr	r3, [r2, #28]
 8005392:	6929      	ldr	r1, [r5, #16]
 8005394:	ea43 2301 	orr.w	r3, r3, r1, lsl #8
 8005398:	61d3      	str	r3, [r2, #28]
 800539a:	2000      	movs	r0, #0
 800539c:	e000      	b.n	80053a0 <HAL_TIM_PWM_ConfigChannel+0xd0>
 800539e:	2001      	movs	r0, #1
 80053a0:	2300      	movs	r3, #0
 80053a2:	f884 303c 	strb.w	r3, [r4, #60]	@ 0x3c
 80053a6:	bd38      	pop	{r3, r4, r5, pc}
 80053a8:	2002      	movs	r0, #2
 80053aa:	e7fc      	b.n	80053a6 <HAL_TIM_PWM_ConfigChannel+0xd6>

080053ac <TIM_ETR_SetConfig>:
 80053ac:	b410      	push	{r4}
 80053ae:	6884      	ldr	r4, [r0, #8]
 80053b0:	f424 4c7f 	bic.w	ip, r4, #65280	@ 0xff00
 80053b4:	ea42 2203 	orr.w	r2, r2, r3, lsl #8
 80053b8:	430a      	orrs	r2, r1
 80053ba:	ea42 020c 	orr.w	r2, r2, ip
 80053be:	6082      	str	r2, [r0, #8]
 80053c0:	bc10      	pop	{r4}
 80053c2:	4770      	bx	lr

080053c4 <HAL_TIM_ConfigClockSource>:
 80053c4:	f890 303c 	ldrb.w	r3, [r0, #60]	@ 0x3c
 80053c8:	2b01      	cmp	r3, #1
 80053ca:	d078      	beq.n	80054be <HAL_TIM_ConfigClockSource+0xfa>
 80053cc:	b510      	push	{r4, lr}
 80053ce:	4604      	mov	r4, r0
 80053d0:	2301      	movs	r3, #1
 80053d2:	f880 303c 	strb.w	r3, [r0, #60]	@ 0x3c
 80053d6:	2302      	movs	r3, #2
 80053d8:	f880 303d 	strb.w	r3, [r0, #61]	@ 0x3d
 80053dc:	6802      	ldr	r2, [r0, #0]
 80053de:	6893      	ldr	r3, [r2, #8]
 80053e0:	f423 437f 	bic.w	r3, r3, #65280	@ 0xff00
 80053e4:	f023 0377 	bic.w	r3, r3, #119	@ 0x77
 80053e8:	6093      	str	r3, [r2, #8]
 80053ea:	680b      	ldr	r3, [r1, #0]
 80053ec:	2b60      	cmp	r3, #96	@ 0x60
 80053ee:	d04c      	beq.n	800548a <HAL_TIM_ConfigClockSource+0xc6>
 80053f0:	d823      	bhi.n	800543a <HAL_TIM_ConfigClockSource+0x76>
 80053f2:	2b40      	cmp	r3, #64	@ 0x40
 80053f4:	d054      	beq.n	80054a0 <HAL_TIM_ConfigClockSource+0xdc>
 80053f6:	d811      	bhi.n	800541c <HAL_TIM_ConfigClockSource+0x58>
 80053f8:	2b20      	cmp	r3, #32
 80053fa:	d003      	beq.n	8005404 <HAL_TIM_ConfigClockSource+0x40>
 80053fc:	d80a      	bhi.n	8005414 <HAL_TIM_ConfigClockSource+0x50>
 80053fe:	b10b      	cbz	r3, 8005404 <HAL_TIM_ConfigClockSource+0x40>
 8005400:	2b10      	cmp	r3, #16
 8005402:	d105      	bne.n	8005410 <HAL_TIM_ConfigClockSource+0x4c>
 8005404:	4619      	mov	r1, r3
 8005406:	6820      	ldr	r0, [r4, #0]
 8005408:	f7ff fd61 	bl	8004ece <TIM_ITRx_SetConfig>
 800540c:	2000      	movs	r0, #0
 800540e:	e028      	b.n	8005462 <HAL_TIM_ConfigClockSource+0x9e>
 8005410:	2001      	movs	r0, #1
 8005412:	e026      	b.n	8005462 <HAL_TIM_ConfigClockSource+0x9e>
 8005414:	2b30      	cmp	r3, #48	@ 0x30
 8005416:	d0f5      	beq.n	8005404 <HAL_TIM_ConfigClockSource+0x40>
 8005418:	2001      	movs	r0, #1
 800541a:	e022      	b.n	8005462 <HAL_TIM_ConfigClockSource+0x9e>
 800541c:	2b50      	cmp	r3, #80	@ 0x50
 800541e:	d10a      	bne.n	8005436 <HAL_TIM_ConfigClockSource+0x72>
 8005420:	68ca      	ldr	r2, [r1, #12]
 8005422:	6849      	ldr	r1, [r1, #4]
 8005424:	6800      	ldr	r0, [r0, #0]
 8005426:	f7ff fd2d 	bl	8004e84 <TIM_TI1_ConfigInputStage>
 800542a:	2150      	movs	r1, #80	@ 0x50
 800542c:	6820      	ldr	r0, [r4, #0]
 800542e:	f7ff fd4e 	bl	8004ece <TIM_ITRx_SetConfig>
 8005432:	2000      	movs	r0, #0
 8005434:	e015      	b.n	8005462 <HAL_TIM_ConfigClockSource+0x9e>
 8005436:	2001      	movs	r0, #1
 8005438:	e013      	b.n	8005462 <HAL_TIM_ConfigClockSource+0x9e>
 800543a:	f5b3 5f80 	cmp.w	r3, #4096	@ 0x1000
 800543e:	d03a      	beq.n	80054b6 <HAL_TIM_ConfigClockSource+0xf2>
 8005440:	f5b3 5f00 	cmp.w	r3, #8192	@ 0x2000
 8005444:	d014      	beq.n	8005470 <HAL_TIM_ConfigClockSource+0xac>
 8005446:	2b70      	cmp	r3, #112	@ 0x70
 8005448:	d137      	bne.n	80054ba <HAL_TIM_ConfigClockSource+0xf6>
 800544a:	68cb      	ldr	r3, [r1, #12]
 800544c:	684a      	ldr	r2, [r1, #4]
 800544e:	6889      	ldr	r1, [r1, #8]
 8005450:	6800      	ldr	r0, [r0, #0]
 8005452:	f7ff ffab 	bl	80053ac <TIM_ETR_SetConfig>
 8005456:	6822      	ldr	r2, [r4, #0]
 8005458:	6893      	ldr	r3, [r2, #8]
 800545a:	f043 0377 	orr.w	r3, r3, #119	@ 0x77
 800545e:	6093      	str	r3, [r2, #8]
 8005460:	2000      	movs	r0, #0
 8005462:	2301      	movs	r3, #1
 8005464:	f884 303d 	strb.w	r3, [r4, #61]	@ 0x3d
 8005468:	2300      	movs	r3, #0
 800546a:	f884 303c 	strb.w	r3, [r4, #60]	@ 0x3c
 800546e:	bd10      	pop	{r4, pc}
 8005470:	68cb      	ldr	r3, [r1, #12]
 8005472:	684a      	ldr	r2, [r1, #4]
 8005474:	6889      	ldr	r1, [r1, #8]
 8005476:	6800      	ldr	r0, [r0, #0]
 8005478:	f7ff ff98 	bl	80053ac <TIM_ETR_SetConfig>
 800547c:	6822      	ldr	r2, [r4, #0]
 800547e:	6893      	ldr	r3, [r2, #8]
 8005480:	f443 4380 	orr.w	r3, r3, #16384	@ 0x4000
 8005484:	6093      	str	r3, [r2, #8]
 8005486:	2000      	movs	r0, #0
 8005488:	e7eb      	b.n	8005462 <HAL_TIM_ConfigClockSource+0x9e>
 800548a:	68ca      	ldr	r2, [r1, #12]
 800548c:	6849      	ldr	r1, [r1, #4]
 800548e:	6800      	ldr	r0, [r0, #0]
 8005490:	f7ff fd0a 	bl	8004ea8 <TIM_TI2_ConfigInputStage>
 8005494:	2160      	movs	r1, #96	@ 0x60
 8005496:	6820      	ldr	r0, [r4, #0]
 8005498:	f7ff fd19 	bl	8004ece <TIM_ITRx_SetConfig>
 800549c:	2000      	movs	r0, #0
 800549e:	e7e0      	b.n	8005462 <HAL_TIM_ConfigClockSource+0x9e>
 80054a0:	68ca      	ldr	r2, [r1, #12]
 80054a2:	6849      	ldr	r1, [r1, #4]
 80054a4:	6800      	ldr	r0, [r0, #0]
 80054a6:	f7ff fced 	bl	8004e84 <TIM_TI1_ConfigInputStage>
 80054aa:	2140      	movs	r1, #64	@ 0x40
 80054ac:	6820      	ldr	r0, [r4, #0]
 80054ae:	f7ff fd0e 	bl	8004ece <TIM_ITRx_SetConfig>
 80054b2:	2000      	movs	r0, #0
 80054b4:	e7d5      	b.n	8005462 <HAL_TIM_ConfigClockSource+0x9e>
 80054b6:	2000      	movs	r0, #0
 80054b8:	e7d3      	b.n	8005462 <HAL_TIM_ConfigClockSource+0x9e>
 80054ba:	2001      	movs	r0, #1
 80054bc:	e7d1      	b.n	8005462 <HAL_TIM_ConfigClockSource+0x9e>
 80054be:	2002      	movs	r0, #2
 80054c0:	4770      	bx	lr

080054c2 <TIM_CCxChannelCmd>:
 80054c2:	f001 011f 	and.w	r1, r1, #31
 80054c6:	f04f 0c01 	mov.w	ip, #1
 80054ca:	fa0c fc01 	lsl.w	ip, ip, r1
 80054ce:	6a03      	ldr	r3, [r0, #32]
 80054d0:	ea23 030c 	bic.w	r3, r3, ip
 80054d4:	6203      	str	r3, [r0, #32]
 80054d6:	6a03      	ldr	r3, [r0, #32]
 80054d8:	408a      	lsls	r2, r1
 80054da:	4313      	orrs	r3, r2
 80054dc:	6203      	str	r3, [r0, #32]
 80054de:	4770      	bx	lr

080054e0 <HAL_TIM_PWM_Start>:
 80054e0:	b510      	push	{r4, lr}
 80054e2:	4604      	mov	r4, r0
 80054e4:	4608      	mov	r0, r1
 80054e6:	bb51      	cbnz	r1, 800553e <HAL_TIM_PWM_Start+0x5e>
 80054e8:	f894 303e 	ldrb.w	r3, [r4, #62]	@ 0x3e
 80054ec:	b2db      	uxtb	r3, r3
 80054ee:	3b01      	subs	r3, #1
 80054f0:	bf18      	it	ne
 80054f2:	2301      	movne	r3, #1
 80054f4:	2b00      	cmp	r3, #0
 80054f6:	d15b      	bne.n	80055b0 <HAL_TIM_PWM_Start+0xd0>
 80054f8:	2800      	cmp	r0, #0
 80054fa:	d139      	bne.n	8005570 <HAL_TIM_PWM_Start+0x90>
 80054fc:	2302      	movs	r3, #2
 80054fe:	f884 303e 	strb.w	r3, [r4, #62]	@ 0x3e
 8005502:	2201      	movs	r2, #1
 8005504:	4601      	mov	r1, r0
 8005506:	6820      	ldr	r0, [r4, #0]
 8005508:	f7ff ffdb 	bl	80054c2 <TIM_CCxChannelCmd>
 800550c:	6823      	ldr	r3, [r4, #0]
 800550e:	4a2a      	ldr	r2, [pc, #168]	@ (80055b8 <HAL_TIM_PWM_Start+0xd8>)
 8005510:	4293      	cmp	r3, r2
 8005512:	d03d      	beq.n	8005590 <HAL_TIM_PWM_Start+0xb0>
 8005514:	6823      	ldr	r3, [r4, #0]
 8005516:	4a28      	ldr	r2, [pc, #160]	@ (80055b8 <HAL_TIM_PWM_Start+0xd8>)
 8005518:	4293      	cmp	r3, r2
 800551a:	d03e      	beq.n	800559a <HAL_TIM_PWM_Start+0xba>
 800551c:	f1b3 4f80 	cmp.w	r3, #1073741824	@ 0x40000000
 8005520:	d03b      	beq.n	800559a <HAL_TIM_PWM_Start+0xba>
 8005522:	f5a2 3294 	sub.w	r2, r2, #75776	@ 0x12800
 8005526:	4293      	cmp	r3, r2
 8005528:	d037      	beq.n	800559a <HAL_TIM_PWM_Start+0xba>
 800552a:	f502 6280 	add.w	r2, r2, #1024	@ 0x400
 800552e:	4293      	cmp	r3, r2
 8005530:	d033      	beq.n	800559a <HAL_TIM_PWM_Start+0xba>
 8005532:	681a      	ldr	r2, [r3, #0]
 8005534:	f042 0201 	orr.w	r2, r2, #1
 8005538:	601a      	str	r2, [r3, #0]
 800553a:	2000      	movs	r0, #0
 800553c:	e039      	b.n	80055b2 <HAL_TIM_PWM_Start+0xd2>
 800553e:	2904      	cmp	r1, #4
 8005540:	d008      	beq.n	8005554 <HAL_TIM_PWM_Start+0x74>
 8005542:	2908      	cmp	r1, #8
 8005544:	d00d      	beq.n	8005562 <HAL_TIM_PWM_Start+0x82>
 8005546:	f894 3041 	ldrb.w	r3, [r4, #65]	@ 0x41
 800554a:	b2db      	uxtb	r3, r3
 800554c:	3b01      	subs	r3, #1
 800554e:	bf18      	it	ne
 8005550:	2301      	movne	r3, #1
 8005552:	e7cf      	b.n	80054f4 <HAL_TIM_PWM_Start+0x14>
 8005554:	f894 303f 	ldrb.w	r3, [r4, #63]	@ 0x3f
 8005558:	b2db      	uxtb	r3, r3
 800555a:	3b01      	subs	r3, #1
 800555c:	bf18      	it	ne
 800555e:	2301      	movne	r3, #1
 8005560:	e7c8      	b.n	80054f4 <HAL_TIM_PWM_Start+0x14>
 8005562:	f894 3040 	ldrb.w	r3, [r4, #64]	@ 0x40
 8005566:	b2db      	uxtb	r3, r3
 8005568:	3b01      	subs	r3, #1
 800556a:	bf18      	it	ne
 800556c:	2301      	movne	r3, #1
 800556e:	e7c1      	b.n	80054f4 <HAL_TIM_PWM_Start+0x14>
 8005570:	2804      	cmp	r0, #4
 8005572:	d005      	beq.n	8005580 <HAL_TIM_PWM_Start+0xa0>
 8005574:	2808      	cmp	r0, #8
 8005576:	d007      	beq.n	8005588 <HAL_TIM_PWM_Start+0xa8>
 8005578:	2302      	movs	r3, #2
 800557a:	f884 3041 	strb.w	r3, [r4, #65]	@ 0x41
 800557e:	e7c0      	b.n	8005502 <HAL_TIM_PWM_Start+0x22>
 8005580:	2302      	movs	r3, #2
 8005582:	f884 303f 	strb.w	r3, [r4, #63]	@ 0x3f
 8005586:	e7bc      	b.n	8005502 <HAL_TIM_PWM_Start+0x22>
 8005588:	2302      	movs	r3, #2
 800558a:	f884 3040 	strb.w	r3, [r4, #64]	@ 0x40
 800558e:	e7b8      	b.n	8005502 <HAL_TIM_PWM_Start+0x22>
 8005590:	6c5a      	ldr	r2, [r3, #68]	@ 0x44
 8005592:	f442 4200 	orr.w	r2, r2, #32768	@ 0x8000
 8005596:	645a      	str	r2, [r3, #68]	@ 0x44
 8005598:	e7bc      	b.n	8005514 <HAL_TIM_PWM_Start+0x34>
 800559a:	689a      	ldr	r2, [r3, #8]
 800559c:	f002 0207 	and.w	r2, r2, #7
 80055a0:	2a06      	cmp	r2, #6
 80055a2:	d007      	beq.n	80055b4 <HAL_TIM_PWM_Start+0xd4>
 80055a4:	681a      	ldr	r2, [r3, #0]
 80055a6:	f042 0201 	orr.w	r2, r2, #1
 80055aa:	601a      	str	r2, [r3, #0]
 80055ac:	2000      	movs	r0, #0
 80055ae:	e000      	b.n	80055b2 <HAL_TIM_PWM_Start+0xd2>
 80055b0:	2001      	movs	r0, #1
 80055b2:	bd10      	pop	{r4, pc}
 80055b4:	2000      	movs	r0, #0
 80055b6:	e7fc      	b.n	80055b2 <HAL_TIM_PWM_Start+0xd2>
 80055b8:	40012c00 	.word	0x40012c00

080055bc <TIM_CCxNChannelCmd>:
 80055bc:	f001 010f 	and.w	r1, r1, #15
 80055c0:	f04f 0c04 	mov.w	ip, #4
 80055c4:	fa0c fc01 	lsl.w	ip, ip, r1
 80055c8:	6a03      	ldr	r3, [r0, #32]
 80055ca:	ea23 030c 	bic.w	r3, r3, ip
 80055ce:	6203      	str	r3, [r0, #32]
 80055d0:	6a03      	ldr	r3, [r0, #32]
 80055d2:	408a      	lsls	r2, r1
 80055d4:	4313      	orrs	r3, r2
 80055d6:	6203      	str	r3, [r0, #32]
 80055d8:	4770      	bx	lr
	...

080055dc <HAL_TIMEx_PWMN_Start>:
 80055dc:	b510      	push	{r4, lr}
 80055de:	4604      	mov	r4, r0
 80055e0:	4608      	mov	r0, r1
 80055e2:	bb59      	cbnz	r1, 800563c <HAL_TIMEx_PWMN_Start+0x60>
 80055e4:	f894 3042 	ldrb.w	r3, [r4, #66]	@ 0x42
 80055e8:	b2db      	uxtb	r3, r3
 80055ea:	3b01      	subs	r3, #1
 80055ec:	bf18      	it	ne
 80055ee:	2301      	movne	r3, #1
 80055f0:	2b00      	cmp	r3, #0
 80055f2:	d157      	bne.n	80056a4 <HAL_TIMEx_PWMN_Start+0xc8>
 80055f4:	2800      	cmp	r0, #0
 80055f6:	d13a      	bne.n	800566e <HAL_TIMEx_PWMN_Start+0x92>
 80055f8:	2302      	movs	r3, #2
 80055fa:	f884 3042 	strb.w	r3, [r4, #66]	@ 0x42
 80055fe:	2204      	movs	r2, #4
 8005600:	4601      	mov	r1, r0
 8005602:	6820      	ldr	r0, [r4, #0]
 8005604:	f7ff ffda 	bl	80055bc <TIM_CCxNChannelCmd>
 8005608:	6822      	ldr	r2, [r4, #0]
 800560a:	6c53      	ldr	r3, [r2, #68]	@ 0x44
 800560c:	f443 4300 	orr.w	r3, r3, #32768	@ 0x8000
 8005610:	6453      	str	r3, [r2, #68]	@ 0x44
 8005612:	6823      	ldr	r3, [r4, #0]
 8005614:	4a25      	ldr	r2, [pc, #148]	@ (80056ac <HAL_TIMEx_PWMN_Start+0xd0>)
 8005616:	4293      	cmp	r3, r2
 8005618:	d039      	beq.n	800568e <HAL_TIMEx_PWMN_Start+0xb2>
 800561a:	f1b3 4f80 	cmp.w	r3, #1073741824	@ 0x40000000
 800561e:	d036      	beq.n	800568e <HAL_TIMEx_PWMN_Start+0xb2>
 8005620:	f5a2 3294 	sub.w	r2, r2, #75776	@ 0x12800
 8005624:	4293      	cmp	r3, r2
 8005626:	d032      	beq.n	800568e <HAL_TIMEx_PWMN_Start+0xb2>
 8005628:	f502 6280 	add.w	r2, r2, #1024	@ 0x400
 800562c:	4293      	cmp	r3, r2
 800562e:	d02e      	beq.n	800568e <HAL_TIMEx_PWMN_Start+0xb2>
 8005630:	681a      	ldr	r2, [r3, #0]
 8005632:	f042 0201 	orr.w	r2, r2, #1
 8005636:	601a      	str	r2, [r3, #0]
 8005638:	2000      	movs	r0, #0
 800563a:	e034      	b.n	80056a6 <HAL_TIMEx_PWMN_Start+0xca>
 800563c:	2904      	cmp	r1, #4
 800563e:	d008      	beq.n	8005652 <HAL_TIMEx_PWMN_Start+0x76>
 8005640:	2908      	cmp	r1, #8
 8005642:	d00d      	beq.n	8005660 <HAL_TIMEx_PWMN_Start+0x84>
 8005644:	f894 3045 	ldrb.w	r3, [r4, #69]	@ 0x45
 8005648:	b2db      	uxtb	r3, r3
 800564a:	3b01      	subs	r3, #1
 800564c:	bf18      	it	ne
 800564e:	2301      	movne	r3, #1
 8005650:	e7ce      	b.n	80055f0 <HAL_TIMEx_PWMN_Start+0x14>
 8005652:	f894 3043 	ldrb.w	r3, [r4, #67]	@ 0x43
 8005656:	b2db      	uxtb	r3, r3
 8005658:	3b01      	subs	r3, #1
 800565a:	bf18      	it	ne
 800565c:	2301      	movne	r3, #1
 800565e:	e7c7      	b.n	80055f0 <HAL_TIMEx_PWMN_Start+0x14>
 8005660:	f894 3044 	ldrb.w	r3, [r4, #68]	@ 0x44
 8005664:	b2db      	uxtb	r3, r3
 8005666:	3b01      	subs	r3, #1
 8005668:	bf18      	it	ne
 800566a:	2301      	movne	r3, #1
 800566c:	e7c0      	b.n	80055f0 <HAL_TIMEx_PWMN_Start+0x14>
 800566e:	2804      	cmp	r0, #4
 8005670:	d005      	beq.n	800567e <HAL_TIMEx_PWMN_Start+0xa2>
 8005672:	2808      	cmp	r0, #8
 8005674:	d007      	beq.n	8005686 <HAL_TIMEx_PWMN_Start+0xaa>
 8005676:	2302      	movs	r3, #2
 8005678:	f884 3045 	strb.w	r3, [r4, #69]	@ 0x45
 800567c:	e7bf      	b.n	80055fe <HAL_TIMEx_PWMN_Start+0x22>
 800567e:	2302      	movs	r3, #2
 8005680:	f884 3043 	strb.w	r3, [r4, #67]	@ 0x43
 8005684:	e7bb      	b.n	80055fe <HAL_TIMEx_PWMN_Start+0x22>
 8005686:	2302      	movs	r3, #2
 8005688:	f884 3044 	strb.w	r3, [r4, #68]	@ 0x44
 800568c:	e7b7      	b.n	80055fe <HAL_TIMEx_PWMN_Start+0x22>
 800568e:	689a      	ldr	r2, [r3, #8]
 8005690:	f002 0207 	and.w	r2, r2, #7
 8005694:	2a06      	cmp	r2, #6
 8005696:	d007      	beq.n	80056a8 <HAL_TIMEx_PWMN_Start+0xcc>
 8005698:	681a      	ldr	r2, [r3, #0]
 800569a:	f042 0201 	orr.w	r2, r2, #1
 800569e:	601a      	str	r2, [r3, #0]
 80056a0:	2000      	movs	r0, #0
 80056a2:	e000      	b.n	80056a6 <HAL_TIMEx_PWMN_Start+0xca>
 80056a4:	2001      	movs	r0, #1
 80056a6:	bd10      	pop	{r4, pc}
 80056a8:	2000      	movs	r0, #0
 80056aa:	e7fc      	b.n	80056a6 <HAL_TIMEx_PWMN_Start+0xca>
 80056ac:	40012c00 	.word	0x40012c00

080056b0 <HAL_TIMEx_MasterConfigSynchronization>:
 80056b0:	f890 203c 	ldrb.w	r2, [r0, #60]	@ 0x3c
 80056b4:	2a01      	cmp	r2, #1
 80056b6:	d02c      	beq.n	8005712 <HAL_TIMEx_MasterConfigSynchronization+0x62>
 80056b8:	b410      	push	{r4}
 80056ba:	4603      	mov	r3, r0
 80056bc:	2201      	movs	r2, #1
 80056be:	f880 203c 	strb.w	r2, [r0, #60]	@ 0x3c
 80056c2:	2202      	movs	r2, #2
 80056c4:	f880 203d 	strb.w	r2, [r0, #61]	@ 0x3d
 80056c8:	6802      	ldr	r2, [r0, #0]
 80056ca:	6850      	ldr	r0, [r2, #4]
 80056cc:	6894      	ldr	r4, [r2, #8]
 80056ce:	f020 0c70 	bic.w	ip, r0, #112	@ 0x70
 80056d2:	6808      	ldr	r0, [r1, #0]
 80056d4:	ea40 000c 	orr.w	r0, r0, ip
 80056d8:	6050      	str	r0, [r2, #4]
 80056da:	681a      	ldr	r2, [r3, #0]
 80056dc:	480e      	ldr	r0, [pc, #56]	@ (8005718 <HAL_TIMEx_MasterConfigSynchronization+0x68>)
 80056de:	4282      	cmp	r2, r0
 80056e0:	d00a      	beq.n	80056f8 <HAL_TIMEx_MasterConfigSynchronization+0x48>
 80056e2:	f1b2 4f80 	cmp.w	r2, #1073741824	@ 0x40000000
 80056e6:	d007      	beq.n	80056f8 <HAL_TIMEx_MasterConfigSynchronization+0x48>
 80056e8:	f5a0 3094 	sub.w	r0, r0, #75776	@ 0x12800
 80056ec:	4282      	cmp	r2, r0
 80056ee:	d003      	beq.n	80056f8 <HAL_TIMEx_MasterConfigSynchronization+0x48>
 80056f0:	f500 6080 	add.w	r0, r0, #1024	@ 0x400
 80056f4:	4282      	cmp	r2, r0
 80056f6:	d104      	bne.n	8005702 <HAL_TIMEx_MasterConfigSynchronization+0x52>
 80056f8:	f024 0480 	bic.w	r4, r4, #128	@ 0x80
 80056fc:	6849      	ldr	r1, [r1, #4]
 80056fe:	4321      	orrs	r1, r4
 8005700:	6091      	str	r1, [r2, #8]
 8005702:	2201      	movs	r2, #1
 8005704:	f883 203d 	strb.w	r2, [r3, #61]	@ 0x3d
 8005708:	2000      	movs	r0, #0
 800570a:	f883 003c 	strb.w	r0, [r3, #60]	@ 0x3c
 800570e:	bc10      	pop	{r4}
 8005710:	4770      	bx	lr
 8005712:	2002      	movs	r0, #2
 8005714:	4770      	bx	lr
 8005716:	bf00      	nop
 8005718:	40012c00 	.word	0x40012c00

0800571c <HAL_TIMEx_ConfigBreakDeadTime>:
 800571c:	4602      	mov	r2, r0
 800571e:	f890 303c 	ldrb.w	r3, [r0, #60]	@ 0x3c
 8005722:	2b01      	cmp	r3, #1
 8005724:	d021      	beq.n	800576a <HAL_TIMEx_ConfigBreakDeadTime+0x4e>
 8005726:	2301      	movs	r3, #1
 8005728:	f880 303c 	strb.w	r3, [r0, #60]	@ 0x3c
 800572c:	68cb      	ldr	r3, [r1, #12]
 800572e:	f423 7340 	bic.w	r3, r3, #768	@ 0x300
 8005732:	6888      	ldr	r0, [r1, #8]
 8005734:	4303      	orrs	r3, r0
 8005736:	f423 6380 	bic.w	r3, r3, #1024	@ 0x400
 800573a:	6848      	ldr	r0, [r1, #4]
 800573c:	4303      	orrs	r3, r0
 800573e:	f423 6300 	bic.w	r3, r3, #2048	@ 0x800
 8005742:	6808      	ldr	r0, [r1, #0]
 8005744:	4303      	orrs	r3, r0
 8005746:	f423 5380 	bic.w	r3, r3, #4096	@ 0x1000
 800574a:	6908      	ldr	r0, [r1, #16]
 800574c:	4303      	orrs	r3, r0
 800574e:	f423 5300 	bic.w	r3, r3, #8192	@ 0x2000
 8005752:	6948      	ldr	r0, [r1, #20]
 8005754:	4303      	orrs	r3, r0
 8005756:	f423 4380 	bic.w	r3, r3, #16384	@ 0x4000
 800575a:	69c9      	ldr	r1, [r1, #28]
 800575c:	430b      	orrs	r3, r1
 800575e:	6811      	ldr	r1, [r2, #0]
 8005760:	644b      	str	r3, [r1, #68]	@ 0x44
 8005762:	2000      	movs	r0, #0
 8005764:	f882 003c 	strb.w	r0, [r2, #60]	@ 0x3c
 8005768:	4770      	bx	lr
 800576a:	2002      	movs	r0, #2
 800576c:	4770      	bx	lr

0800576e <HAL_TIMEx_CommutCallback>:
 800576e:	4770      	bx	lr

08005770 <HAL_TIMEx_BreakCallback>:
 8005770:	4770      	bx	lr

08005772 <NMI_Handler>:
 8005772:	e7fe      	b.n	8005772 <NMI_Handler>

08005774 <HardFault_Handler>:
 8005774:	e7fe      	b.n	8005774 <HardFault_Handler>

08005776 <MemManage_Handler>:
 8005776:	e7fe      	b.n	8005776 <MemManage_Handler>

08005778 <BusFault_Handler>:
 8005778:	e7fe      	b.n	8005778 <BusFault_Handler>

0800577a <UsageFault_Handler>:
 800577a:	e7fe      	b.n	800577a <UsageFault_Handler>

0800577c <SVC_Handler>:
 800577c:	4770      	bx	lr

0800577e <DebugMon_Handler>:
 800577e:	4770      	bx	lr

08005780 <PendSV_Handler>:
 8005780:	4770      	bx	lr

08005782 <SysTick_Handler>:
 8005782:	b508      	push	{r3, lr}
 8005784:	f7fd f9da 	bl	8002b3c <HAL_IncTick>
 8005788:	bd08      	pop	{r3, pc}

0800578a <EXTI0_IRQHandler>:
 800578a:	b508      	push	{r3, lr}
 800578c:	2001      	movs	r0, #1
 800578e:	f7fd ff21 	bl	80035d4 <HAL_GPIO_EXTI_IRQHandler>
 8005792:	bd08      	pop	{r3, pc}

08005794 <EXTI1_IRQHandler>:
 8005794:	b508      	push	{r3, lr}
 8005796:	2002      	movs	r0, #2
 8005798:	f7fd ff1c 	bl	80035d4 <HAL_GPIO_EXTI_IRQHandler>
 800579c:	bd08      	pop	{r3, pc}

0800579e <EXTI2_IRQHandler>:
 800579e:	b508      	push	{r3, lr}
 80057a0:	2004      	movs	r0, #4
 80057a2:	f7fd ff17 	bl	80035d4 <HAL_GPIO_EXTI_IRQHandler>
 80057a6:	bd08      	pop	{r3, pc}

080057a8 <DMA1_Channel1_IRQHandler>:
 80057a8:	b508      	push	{r3, lr}
 80057aa:	4802      	ldr	r0, [pc, #8]	@ (80057b4 <DMA1_Channel1_IRQHandler+0xc>)
 80057ac:	f7fd fd54 	bl	8003258 <HAL_DMA_IRQHandler>
 80057b0:	bd08      	pop	{r3, pc}
 80057b2:	bf00      	nop
 80057b4:	20000340 	.word	0x20000340

080057b8 <USB_LP_CAN1_RX0_IRQHandler>:
 80057b8:	b508      	push	{r3, lr}
 80057ba:	4802      	ldr	r0, [pc, #8]	@ (80057c4 <USB_LP_CAN1_RX0_IRQHandler+0xc>)
 80057bc:	f7fe fd24 	bl	8004208 <HAL_PCD_IRQHandler>
 80057c0:	bd08      	pop	{r3, pc}
 80057c2:	bf00      	nop
 80057c4:	20001490 	.word	0x20001490

080057c8 <TIM2_IRQHandler>:
 80057c8:	b508      	push	{r3, lr}
 80057ca:	4802      	ldr	r0, [pc, #8]	@ (80057d4 <TIM2_IRQHandler+0xc>)
 80057cc:	f7ff fc08 	bl	8004fe0 <HAL_TIM_IRQHandler>
 80057d0:	bd08      	pop	{r3, pc}
 80057d2:	bf00      	nop
 80057d4:	2000071c 	.word	0x2000071c

080057d8 <TIM3_IRQHandler>:
 80057d8:	b508      	push	{r3, lr}
 80057da:	4802      	ldr	r0, [pc, #8]	@ (80057e4 <TIM3_IRQHandler+0xc>)
 80057dc:	f7ff fc00 	bl	8004fe0 <HAL_TIM_IRQHandler>
 80057e0:	bd08      	pop	{r3, pc}
 80057e2:	bf00      	nop
 80057e4:	200006d4 	.word	0x200006d4

080057e8 <TIM4_IRQHandler>:
 80057e8:	b508      	push	{r3, lr}
 80057ea:	4802      	ldr	r0, [pc, #8]	@ (80057f4 <TIM4_IRQHandler+0xc>)
 80057ec:	f7ff fbf8 	bl	8004fe0 <HAL_TIM_IRQHandler>
 80057f0:	bd08      	pop	{r3, pc}
 80057f2:	bf00      	nop
 80057f4:	2000068c 	.word	0x2000068c

080057f8 <USB_CoreInit>:
 80057f8:	b084      	sub	sp, #16
 80057fa:	a804      	add	r0, sp, #16
 80057fc:	e900 000e 	stmdb	r0, {r1, r2, r3}
 8005800:	2000      	movs	r0, #0
 8005802:	b004      	add	sp, #16
 8005804:	4770      	bx	lr

08005806 <USB_EnableGlobalInt>:
 8005806:	4603      	mov	r3, r0
 8005808:	2000      	movs	r0, #0
 800580a:	f8a3 0044 	strh.w	r0, [r3, #68]	@ 0x44
 800580e:	f44f 423f 	mov.w	r2, #48896	@ 0xbf00
 8005812:	f8a3 2040 	strh.w	r2, [r3, #64]	@ 0x40
 8005816:	4770      	bx	lr

08005818 <USB_DisableGlobalInt>:
 8005818:	f8b0 3040 	ldrh.w	r3, [r0, #64]	@ 0x40
 800581c:	f423 537c 	bic.w	r3, r3, #16128	@ 0x3f00
 8005820:	045b      	lsls	r3, r3, #17
 8005822:	0c5b      	lsrs	r3, r3, #17
 8005824:	f8a0 3040 	strh.w	r3, [r0, #64]	@ 0x40
 8005828:	2000      	movs	r0, #0
 800582a:	4770      	bx	lr

0800582c <USB_SetCurrentMode>:
 800582c:	2000      	movs	r0, #0
 800582e:	4770      	bx	lr

08005830 <USB_DevInit>:
 8005830:	b084      	sub	sp, #16
 8005832:	4684      	mov	ip, r0
 8005834:	a804      	add	r0, sp, #16
 8005836:	e900 000e 	stmdb	r0, {r1, r2, r3}
 800583a:	2301      	movs	r3, #1
 800583c:	f8ac 3040 	strh.w	r3, [ip, #64]	@ 0x40
 8005840:	2000      	movs	r0, #0
 8005842:	f8ac 0040 	strh.w	r0, [ip, #64]	@ 0x40
 8005846:	f8ac 0044 	strh.w	r0, [ip, #68]	@ 0x44
 800584a:	f8ac 0050 	strh.w	r0, [ip, #80]	@ 0x50
 800584e:	b004      	add	sp, #16
 8005850:	4770      	bx	lr

08005852 <USB_ActivateEndpoint>:
 8005852:	b510      	push	{r4, lr}
 8005854:	4603      	mov	r3, r0
 8005856:	f891 c000 	ldrb.w	ip, [r1]
 800585a:	f830 202c 	ldrh.w	r2, [r0, ip, lsl #2]
 800585e:	b292      	uxth	r2, r2
 8005860:	f422 42ec 	bic.w	r2, r2, #30208	@ 0x7600
 8005864:	f022 0270 	bic.w	r2, r2, #112	@ 0x70
 8005868:	b292      	uxth	r2, r2
 800586a:	78c8      	ldrb	r0, [r1, #3]
 800586c:	2803      	cmp	r0, #3
 800586e:	d861      	bhi.n	8005934 <USB_ActivateEndpoint+0xe2>
 8005870:	e8df f000 	tbb	[pc, r0]
 8005874:	58025c55 	.word	0x58025c55
 8005878:	2000      	movs	r0, #0
 800587a:	f248 0e80 	movw	lr, #32896	@ 0x8080
 800587e:	ea42 020e 	orr.w	r2, r2, lr
 8005882:	f823 202c 	strh.w	r2, [r3, ip, lsl #2]
 8005886:	f891 c000 	ldrb.w	ip, [r1]
 800588a:	f833 202c 	ldrh.w	r2, [r3, ip, lsl #2]
 800588e:	b292      	uxth	r2, r2
 8005890:	f422 42e0 	bic.w	r2, r2, #28672	@ 0x7000
 8005894:	f022 0270 	bic.w	r2, r2, #112	@ 0x70
 8005898:	ea42 020c 	orr.w	r2, r2, ip
 800589c:	ea42 020e 	orr.w	r2, r2, lr
 80058a0:	f823 202c 	strh.w	r2, [r3, ip, lsl #2]
 80058a4:	7b0a      	ldrb	r2, [r1, #12]
 80058a6:	2a00      	cmp	r2, #0
 80058a8:	f040 80dc 	bne.w	8005a64 <USB_ActivateEndpoint+0x212>
 80058ac:	784a      	ldrb	r2, [r1, #1]
 80058ae:	2a00      	cmp	r2, #0
 80058b0:	d051      	beq.n	8005956 <USB_ActivateEndpoint+0x104>
 80058b2:	f8b3 2050 	ldrh.w	r2, [r3, #80]	@ 0x50
 80058b6:	b292      	uxth	r2, r2
 80058b8:	441a      	add	r2, r3
 80058ba:	780c      	ldrb	r4, [r1, #0]
 80058bc:	eb02 1204 	add.w	r2, r2, r4, lsl #4
 80058c0:	f8b1 c006 	ldrh.w	ip, [r1, #6]
 80058c4:	ea4f 0c5c 	mov.w	ip, ip, lsr #1
 80058c8:	ea4f 0c4c 	mov.w	ip, ip, lsl #1
 80058cc:	f8a2 c400 	strh.w	ip, [r2, #1024]	@ 0x400
 80058d0:	780c      	ldrb	r4, [r1, #0]
 80058d2:	f833 2024 	ldrh.w	r2, [r3, r4, lsl #2]
 80058d6:	f012 0f40 	tst.w	r2, #64	@ 0x40
 80058da:	d00c      	beq.n	80058f6 <USB_ActivateEndpoint+0xa4>
 80058dc:	f833 2024 	ldrh.w	r2, [r3, r4, lsl #2]
 80058e0:	b292      	uxth	r2, r2
 80058e2:	f422 42e0 	bic.w	r2, r2, #28672	@ 0x7000
 80058e6:	f022 0270 	bic.w	r2, r2, #112	@ 0x70
 80058ea:	f442 4200 	orr.w	r2, r2, #32768	@ 0x8000
 80058ee:	f042 02c0 	orr.w	r2, r2, #192	@ 0xc0
 80058f2:	f823 2024 	strh.w	r2, [r3, r4, lsl #2]
 80058f6:	78ca      	ldrb	r2, [r1, #3]
 80058f8:	2a01      	cmp	r2, #1
 80058fa:	d01d      	beq.n	8005938 <USB_ActivateEndpoint+0xe6>
 80058fc:	7809      	ldrb	r1, [r1, #0]
 80058fe:	f833 2021 	ldrh.w	r2, [r3, r1, lsl #2]
 8005902:	b292      	uxth	r2, r2
 8005904:	f422 42e0 	bic.w	r2, r2, #28672	@ 0x7000
 8005908:	f022 0240 	bic.w	r2, r2, #64	@ 0x40
 800590c:	f082 0220 	eor.w	r2, r2, #32
 8005910:	f442 4200 	orr.w	r2, r2, #32768	@ 0x8000
 8005914:	f042 0280 	orr.w	r2, r2, #128	@ 0x80
 8005918:	f823 2021 	strh.w	r2, [r3, r1, lsl #2]
 800591c:	e117      	b.n	8005b4e <USB_ActivateEndpoint+0x2fc>
 800591e:	f442 7200 	orr.w	r2, r2, #512	@ 0x200
 8005922:	e7aa      	b.n	800587a <USB_ActivateEndpoint+0x28>
 8005924:	f442 62c0 	orr.w	r2, r2, #1536	@ 0x600
 8005928:	2000      	movs	r0, #0
 800592a:	e7a6      	b.n	800587a <USB_ActivateEndpoint+0x28>
 800592c:	f442 6280 	orr.w	r2, r2, #1024	@ 0x400
 8005930:	2000      	movs	r0, #0
 8005932:	e7a2      	b.n	800587a <USB_ActivateEndpoint+0x28>
 8005934:	2001      	movs	r0, #1
 8005936:	e7a0      	b.n	800587a <USB_ActivateEndpoint+0x28>
 8005938:	7809      	ldrb	r1, [r1, #0]
 800593a:	f833 2021 	ldrh.w	r2, [r3, r1, lsl #2]
 800593e:	b292      	uxth	r2, r2
 8005940:	f422 42e0 	bic.w	r2, r2, #28672	@ 0x7000
 8005944:	f022 0240 	bic.w	r2, r2, #64	@ 0x40
 8005948:	f442 4200 	orr.w	r2, r2, #32768	@ 0x8000
 800594c:	f042 0280 	orr.w	r2, r2, #128	@ 0x80
 8005950:	f823 2021 	strh.w	r2, [r3, r1, lsl #2]
 8005954:	e0fb      	b.n	8005b4e <USB_ActivateEndpoint+0x2fc>
 8005956:	f8b3 2050 	ldrh.w	r2, [r3, #80]	@ 0x50
 800595a:	b292      	uxth	r2, r2
 800595c:	441a      	add	r2, r3
 800595e:	780c      	ldrb	r4, [r1, #0]
 8005960:	eb02 1204 	add.w	r2, r2, r4, lsl #4
 8005964:	f8b1 c006 	ldrh.w	ip, [r1, #6]
 8005968:	ea4f 0c5c 	mov.w	ip, ip, lsr #1
 800596c:	ea4f 0c4c 	mov.w	ip, ip, lsl #1
 8005970:	f8a2 c408 	strh.w	ip, [r2, #1032]	@ 0x408
 8005974:	f8b3 2050 	ldrh.w	r2, [r3, #80]	@ 0x50
 8005978:	b292      	uxth	r2, r2
 800597a:	441a      	add	r2, r3
 800597c:	780c      	ldrb	r4, [r1, #0]
 800597e:	eb02 1204 	add.w	r2, r2, r4, lsl #4
 8005982:	f8b2 c40c 	ldrh.w	ip, [r2, #1036]	@ 0x40c
 8005986:	f3cc 0c09 	ubfx	ip, ip, #0, #10
 800598a:	f8a2 c40c 	strh.w	ip, [r2, #1036]	@ 0x40c
 800598e:	690c      	ldr	r4, [r1, #16]
 8005990:	2c3e      	cmp	r4, #62	@ 0x3e
 8005992:	d939      	bls.n	8005a08 <USB_ActivateEndpoint+0x1b6>
 8005994:	ea4f 1e54 	mov.w	lr, r4, lsr #5
 8005998:	f014 0f1f 	tst.w	r4, #31
 800599c:	d101      	bne.n	80059a2 <USB_ActivateEndpoint+0x150>
 800599e:	f10e 3eff 	add.w	lr, lr, #4294967295	@ 0xffffffff
 80059a2:	f8b2 c40c 	ldrh.w	ip, [r2, #1036]	@ 0x40c
 80059a6:	fa1f fc8c 	uxth.w	ip, ip
 80059aa:	ea4f 2e8e 	mov.w	lr, lr, lsl #10
 80059ae:	fa1f fe8e 	uxth.w	lr, lr
 80059b2:	ea4c 0c0e 	orr.w	ip, ip, lr
 80059b6:	f44c 4c00 	orr.w	ip, ip, #32768	@ 0x8000
 80059ba:	f8a2 c40c 	strh.w	ip, [r2, #1036]	@ 0x40c
 80059be:	780c      	ldrb	r4, [r1, #0]
 80059c0:	f833 2024 	ldrh.w	r2, [r3, r4, lsl #2]
 80059c4:	f412 4f80 	tst.w	r2, #16384	@ 0x4000
 80059c8:	d00c      	beq.n	80059e4 <USB_ActivateEndpoint+0x192>
 80059ca:	f833 2024 	ldrh.w	r2, [r3, r4, lsl #2]
 80059ce:	b292      	uxth	r2, r2
 80059d0:	f422 42e0 	bic.w	r2, r2, #28672	@ 0x7000
 80059d4:	f022 0270 	bic.w	r2, r2, #112	@ 0x70
 80059d8:	f442 4240 	orr.w	r2, r2, #49152	@ 0xc000
 80059dc:	f042 0280 	orr.w	r2, r2, #128	@ 0x80
 80059e0:	f823 2024 	strh.w	r2, [r3, r4, lsl #2]
 80059e4:	7809      	ldrb	r1, [r1, #0]
 80059e6:	bb69      	cbnz	r1, 8005a44 <USB_ActivateEndpoint+0x1f2>
 80059e8:	f833 2021 	ldrh.w	r2, [r3, r1, lsl #2]
 80059ec:	b292      	uxth	r2, r2
 80059ee:	f422 4280 	bic.w	r2, r2, #16384	@ 0x4000
 80059f2:	f022 0270 	bic.w	r2, r2, #112	@ 0x70
 80059f6:	f482 5240 	eor.w	r2, r2, #12288	@ 0x3000
 80059fa:	f442 4200 	orr.w	r2, r2, #32768	@ 0x8000
 80059fe:	f042 0280 	orr.w	r2, r2, #128	@ 0x80
 8005a02:	f823 2021 	strh.w	r2, [r3, r1, lsl #2]
 8005a06:	e0a2      	b.n	8005b4e <USB_ActivateEndpoint+0x2fc>
 8005a08:	b94c      	cbnz	r4, 8005a1e <USB_ActivateEndpoint+0x1cc>
 8005a0a:	f8b2 440c 	ldrh.w	r4, [r2, #1036]	@ 0x40c
 8005a0e:	ea6f 4444 	mvn.w	r4, r4, lsl #17
 8005a12:	ea6f 4454 	mvn.w	r4, r4, lsr #17
 8005a16:	b2a4      	uxth	r4, r4
 8005a18:	f8a2 440c 	strh.w	r4, [r2, #1036]	@ 0x40c
 8005a1c:	e7cf      	b.n	80059be <USB_ActivateEndpoint+0x16c>
 8005a1e:	ea4f 0c54 	mov.w	ip, r4, lsr #1
 8005a22:	f014 0f01 	tst.w	r4, #1
 8005a26:	d001      	beq.n	8005a2c <USB_ActivateEndpoint+0x1da>
 8005a28:	f10c 0c01 	add.w	ip, ip, #1
 8005a2c:	f8b2 440c 	ldrh.w	r4, [r2, #1036]	@ 0x40c
 8005a30:	b2a4      	uxth	r4, r4
 8005a32:	ea4f 2c8c 	mov.w	ip, ip, lsl #10
 8005a36:	fa1f fc8c 	uxth.w	ip, ip
 8005a3a:	ea44 040c 	orr.w	r4, r4, ip
 8005a3e:	f8a2 440c 	strh.w	r4, [r2, #1036]	@ 0x40c
 8005a42:	e7bc      	b.n	80059be <USB_ActivateEndpoint+0x16c>
 8005a44:	f833 2021 	ldrh.w	r2, [r3, r1, lsl #2]
 8005a48:	b292      	uxth	r2, r2
 8005a4a:	f422 4280 	bic.w	r2, r2, #16384	@ 0x4000
 8005a4e:	f022 0270 	bic.w	r2, r2, #112	@ 0x70
 8005a52:	f482 5200 	eor.w	r2, r2, #8192	@ 0x2000
 8005a56:	f442 4200 	orr.w	r2, r2, #32768	@ 0x8000
 8005a5a:	f042 0280 	orr.w	r2, r2, #128	@ 0x80
 8005a5e:	f823 2021 	strh.w	r2, [r3, r1, lsl #2]
 8005a62:	e074      	b.n	8005b4e <USB_ActivateEndpoint+0x2fc>
 8005a64:	78ca      	ldrb	r2, [r1, #3]
 8005a66:	2a02      	cmp	r2, #2
 8005a68:	d072      	beq.n	8005b50 <USB_ActivateEndpoint+0x2fe>
 8005a6a:	780c      	ldrb	r4, [r1, #0]
 8005a6c:	f833 2024 	ldrh.w	r2, [r3, r4, lsl #2]
 8005a70:	b292      	uxth	r2, r2
 8005a72:	f422 42e2 	bic.w	r2, r2, #28928	@ 0x7100
 8005a76:	f022 0270 	bic.w	r2, r2, #112	@ 0x70
 8005a7a:	f442 4200 	orr.w	r2, r2, #32768	@ 0x8000
 8005a7e:	f042 0280 	orr.w	r2, r2, #128	@ 0x80
 8005a82:	f823 2024 	strh.w	r2, [r3, r4, lsl #2]
 8005a86:	f8b3 2050 	ldrh.w	r2, [r3, #80]	@ 0x50
 8005a8a:	b292      	uxth	r2, r2
 8005a8c:	441a      	add	r2, r3
 8005a8e:	f891 c000 	ldrb.w	ip, [r1]
 8005a92:	eb02 120c 	add.w	r2, r2, ip, lsl #4
 8005a96:	f8b1 c008 	ldrh.w	ip, [r1, #8]
 8005a9a:	ea4f 0c5c 	mov.w	ip, ip, lsr #1
 8005a9e:	ea4f 0c4c 	mov.w	ip, ip, lsl #1
 8005aa2:	f8a2 c400 	strh.w	ip, [r2, #1024]	@ 0x400
 8005aa6:	f8b3 2050 	ldrh.w	r2, [r3, #80]	@ 0x50
 8005aaa:	b292      	uxth	r2, r2
 8005aac:	441a      	add	r2, r3
 8005aae:	f891 c000 	ldrb.w	ip, [r1]
 8005ab2:	eb02 120c 	add.w	r2, r2, ip, lsl #4
 8005ab6:	f8b1 c00a 	ldrh.w	ip, [r1, #10]
 8005aba:	ea4f 0c5c 	mov.w	ip, ip, lsr #1
 8005abe:	ea4f 0c4c 	mov.w	ip, ip, lsl #1
 8005ac2:	f8a2 c408 	strh.w	ip, [r2, #1032]	@ 0x408
 8005ac6:	784a      	ldrb	r2, [r1, #1]
 8005ac8:	2a00      	cmp	r2, #0
 8005aca:	d150      	bne.n	8005b6e <USB_ActivateEndpoint+0x31c>
 8005acc:	780c      	ldrb	r4, [r1, #0]
 8005ace:	f833 2024 	ldrh.w	r2, [r3, r4, lsl #2]
 8005ad2:	f412 4f80 	tst.w	r2, #16384	@ 0x4000
 8005ad6:	d00c      	beq.n	8005af2 <USB_ActivateEndpoint+0x2a0>
 8005ad8:	f833 2024 	ldrh.w	r2, [r3, r4, lsl #2]
 8005adc:	b292      	uxth	r2, r2
 8005ade:	f422 42e0 	bic.w	r2, r2, #28672	@ 0x7000
 8005ae2:	f022 0270 	bic.w	r2, r2, #112	@ 0x70
 8005ae6:	f442 4240 	orr.w	r2, r2, #49152	@ 0xc000
 8005aea:	f042 0280 	orr.w	r2, r2, #128	@ 0x80
 8005aee:	f823 2024 	strh.w	r2, [r3, r4, lsl #2]
 8005af2:	780c      	ldrb	r4, [r1, #0]
 8005af4:	f833 2024 	ldrh.w	r2, [r3, r4, lsl #2]
 8005af8:	f012 0f40 	tst.w	r2, #64	@ 0x40
 8005afc:	d00c      	beq.n	8005b18 <USB_ActivateEndpoint+0x2c6>
 8005afe:	f833 2024 	ldrh.w	r2, [r3, r4, lsl #2]
 8005b02:	b292      	uxth	r2, r2
 8005b04:	f422 42e0 	bic.w	r2, r2, #28672	@ 0x7000
 8005b08:	f022 0270 	bic.w	r2, r2, #112	@ 0x70
 8005b0c:	f442 4200 	orr.w	r2, r2, #32768	@ 0x8000
 8005b10:	f042 02c0 	orr.w	r2, r2, #192	@ 0xc0
 8005b14:	f823 2024 	strh.w	r2, [r3, r4, lsl #2]
 8005b18:	f891 c000 	ldrb.w	ip, [r1]
 8005b1c:	f833 202c 	ldrh.w	r2, [r3, ip, lsl #2]
 8005b20:	b292      	uxth	r2, r2
 8005b22:	f422 4280 	bic.w	r2, r2, #16384	@ 0x4000
 8005b26:	f022 0270 	bic.w	r2, r2, #112	@ 0x70
 8005b2a:	f482 5240 	eor.w	r2, r2, #12288	@ 0x3000
 8005b2e:	f248 0480 	movw	r4, #32896	@ 0x8080
 8005b32:	4322      	orrs	r2, r4
 8005b34:	f823 202c 	strh.w	r2, [r3, ip, lsl #2]
 8005b38:	7809      	ldrb	r1, [r1, #0]
 8005b3a:	f833 2021 	ldrh.w	r2, [r3, r1, lsl #2]
 8005b3e:	b292      	uxth	r2, r2
 8005b40:	f422 42e0 	bic.w	r2, r2, #28672	@ 0x7000
 8005b44:	f022 0240 	bic.w	r2, r2, #64	@ 0x40
 8005b48:	4322      	orrs	r2, r4
 8005b4a:	f823 2021 	strh.w	r2, [r3, r1, lsl #2]
 8005b4e:	bd10      	pop	{r4, pc}
 8005b50:	780c      	ldrb	r4, [r1, #0]
 8005b52:	f833 2024 	ldrh.w	r2, [r3, r4, lsl #2]
 8005b56:	b292      	uxth	r2, r2
 8005b58:	f422 42e0 	bic.w	r2, r2, #28672	@ 0x7000
 8005b5c:	f022 0270 	bic.w	r2, r2, #112	@ 0x70
 8005b60:	f442 4201 	orr.w	r2, r2, #33024	@ 0x8100
 8005b64:	f042 0280 	orr.w	r2, r2, #128	@ 0x80
 8005b68:	f823 2024 	strh.w	r2, [r3, r4, lsl #2]
 8005b6c:	e78b      	b.n	8005a86 <USB_ActivateEndpoint+0x234>
 8005b6e:	780c      	ldrb	r4, [r1, #0]
 8005b70:	f833 2024 	ldrh.w	r2, [r3, r4, lsl #2]
 8005b74:	f412 4f80 	tst.w	r2, #16384	@ 0x4000
 8005b78:	d00c      	beq.n	8005b94 <USB_ActivateEndpoint+0x342>
 8005b7a:	f833 2024 	ldrh.w	r2, [r3, r4, lsl #2]
 8005b7e:	b292      	uxth	r2, r2
 8005b80:	f422 42e0 	bic.w	r2, r2, #28672	@ 0x7000
 8005b84:	f022 0270 	bic.w	r2, r2, #112	@ 0x70
 8005b88:	f442 4240 	orr.w	r2, r2, #49152	@ 0xc000
 8005b8c:	f042 0280 	orr.w	r2, r2, #128	@ 0x80
 8005b90:	f823 2024 	strh.w	r2, [r3, r4, lsl #2]
 8005b94:	780c      	ldrb	r4, [r1, #0]
 8005b96:	f833 2024 	ldrh.w	r2, [r3, r4, lsl #2]
 8005b9a:	f012 0f40 	tst.w	r2, #64	@ 0x40
 8005b9e:	d00c      	beq.n	8005bba <USB_ActivateEndpoint+0x368>
 8005ba0:	f833 2024 	ldrh.w	r2, [r3, r4, lsl #2]
 8005ba4:	b292      	uxth	r2, r2
 8005ba6:	f422 42e0 	bic.w	r2, r2, #28672	@ 0x7000
 8005baa:	f022 0270 	bic.w	r2, r2, #112	@ 0x70
 8005bae:	f442 4200 	orr.w	r2, r2, #32768	@ 0x8000
 8005bb2:	f042 02c0 	orr.w	r2, r2, #192	@ 0xc0
 8005bb6:	f823 2024 	strh.w	r2, [r3, r4, lsl #2]
 8005bba:	78ca      	ldrb	r2, [r1, #3]
 8005bbc:	2a01      	cmp	r2, #1
 8005bbe:	d01e      	beq.n	8005bfe <USB_ActivateEndpoint+0x3ac>
 8005bc0:	780c      	ldrb	r4, [r1, #0]
 8005bc2:	f833 2024 	ldrh.w	r2, [r3, r4, lsl #2]
 8005bc6:	b292      	uxth	r2, r2
 8005bc8:	f422 42e0 	bic.w	r2, r2, #28672	@ 0x7000
 8005bcc:	f022 0240 	bic.w	r2, r2, #64	@ 0x40
 8005bd0:	f082 0220 	eor.w	r2, r2, #32
 8005bd4:	f442 4200 	orr.w	r2, r2, #32768	@ 0x8000
 8005bd8:	f042 0280 	orr.w	r2, r2, #128	@ 0x80
 8005bdc:	f823 2024 	strh.w	r2, [r3, r4, lsl #2]
 8005be0:	7809      	ldrb	r1, [r1, #0]
 8005be2:	f833 2021 	ldrh.w	r2, [r3, r1, lsl #2]
 8005be6:	b292      	uxth	r2, r2
 8005be8:	f422 4280 	bic.w	r2, r2, #16384	@ 0x4000
 8005bec:	f022 0270 	bic.w	r2, r2, #112	@ 0x70
 8005bf0:	f442 4200 	orr.w	r2, r2, #32768	@ 0x8000
 8005bf4:	f042 0280 	orr.w	r2, r2, #128	@ 0x80
 8005bf8:	f823 2021 	strh.w	r2, [r3, r1, lsl #2]
 8005bfc:	e7a7      	b.n	8005b4e <USB_ActivateEndpoint+0x2fc>
 8005bfe:	780c      	ldrb	r4, [r1, #0]
 8005c00:	f833 2024 	ldrh.w	r2, [r3, r4, lsl #2]
 8005c04:	b292      	uxth	r2, r2
 8005c06:	f422 42e0 	bic.w	r2, r2, #28672	@ 0x7000
 8005c0a:	f022 0240 	bic.w	r2, r2, #64	@ 0x40
 8005c0e:	f442 4200 	orr.w	r2, r2, #32768	@ 0x8000
 8005c12:	f042 0280 	orr.w	r2, r2, #128	@ 0x80
 8005c16:	f823 2024 	strh.w	r2, [r3, r4, lsl #2]
 8005c1a:	e7e1      	b.n	8005be0 <USB_ActivateEndpoint+0x38e>

08005c1c <USB_DeactivateEndpoint>:
 8005c1c:	7b0b      	ldrb	r3, [r1, #12]
 8005c1e:	2b00      	cmp	r3, #0
 8005c20:	d146      	bne.n	8005cb0 <USB_DeactivateEndpoint+0x94>
 8005c22:	784b      	ldrb	r3, [r1, #1]
 8005c24:	b313      	cbz	r3, 8005c6c <USB_DeactivateEndpoint+0x50>
 8005c26:	780a      	ldrb	r2, [r1, #0]
 8005c28:	f830 3022 	ldrh.w	r3, [r0, r2, lsl #2]
 8005c2c:	f013 0f40 	tst.w	r3, #64	@ 0x40
 8005c30:	d00c      	beq.n	8005c4c <USB_DeactivateEndpoint+0x30>
 8005c32:	f830 3022 	ldrh.w	r3, [r0, r2, lsl #2]
 8005c36:	b29b      	uxth	r3, r3
 8005c38:	f423 43e0 	bic.w	r3, r3, #28672	@ 0x7000
 8005c3c:	f023 0370 	bic.w	r3, r3, #112	@ 0x70
 8005c40:	f443 4300 	orr.w	r3, r3, #32768	@ 0x8000
 8005c44:	f043 03c0 	orr.w	r3, r3, #192	@ 0xc0
 8005c48:	f820 3022 	strh.w	r3, [r0, r2, lsl #2]
 8005c4c:	780a      	ldrb	r2, [r1, #0]
 8005c4e:	f830 3022 	ldrh.w	r3, [r0, r2, lsl #2]
 8005c52:	b29b      	uxth	r3, r3
 8005c54:	f423 43e0 	bic.w	r3, r3, #28672	@ 0x7000
 8005c58:	f023 0340 	bic.w	r3, r3, #64	@ 0x40
 8005c5c:	f443 4300 	orr.w	r3, r3, #32768	@ 0x8000
 8005c60:	f043 0380 	orr.w	r3, r3, #128	@ 0x80
 8005c64:	f820 3022 	strh.w	r3, [r0, r2, lsl #2]
 8005c68:	2000      	movs	r0, #0
 8005c6a:	4770      	bx	lr
 8005c6c:	780a      	ldrb	r2, [r1, #0]
 8005c6e:	f830 3022 	ldrh.w	r3, [r0, r2, lsl #2]
 8005c72:	f413 4f80 	tst.w	r3, #16384	@ 0x4000
 8005c76:	d00c      	beq.n	8005c92 <USB_DeactivateEndpoint+0x76>
 8005c78:	f830 3022 	ldrh.w	r3, [r0, r2, lsl #2]
 8005c7c:	b29b      	uxth	r3, r3
 8005c7e:	f423 43e0 	bic.w	r3, r3, #28672	@ 0x7000
 8005c82:	f023 0370 	bic.w	r3, r3, #112	@ 0x70
 8005c86:	f443 4340 	orr.w	r3, r3, #49152	@ 0xc000
 8005c8a:	f043 0380 	orr.w	r3, r3, #128	@ 0x80
 8005c8e:	f820 3022 	strh.w	r3, [r0, r2, lsl #2]
 8005c92:	780a      	ldrb	r2, [r1, #0]
 8005c94:	f830 3022 	ldrh.w	r3, [r0, r2, lsl #2]
 8005c98:	b29b      	uxth	r3, r3
 8005c9a:	f423 4380 	bic.w	r3, r3, #16384	@ 0x4000
 8005c9e:	f023 0370 	bic.w	r3, r3, #112	@ 0x70
 8005ca2:	f443 4300 	orr.w	r3, r3, #32768	@ 0x8000
 8005ca6:	f043 0380 	orr.w	r3, r3, #128	@ 0x80
 8005caa:	f820 3022 	strh.w	r3, [r0, r2, lsl #2]
 8005cae:	e7db      	b.n	8005c68 <USB_DeactivateEndpoint+0x4c>
 8005cb0:	784b      	ldrb	r3, [r1, #1]
 8005cb2:	2b00      	cmp	r3, #0
 8005cb4:	d14e      	bne.n	8005d54 <USB_DeactivateEndpoint+0x138>
 8005cb6:	780a      	ldrb	r2, [r1, #0]
 8005cb8:	f830 3022 	ldrh.w	r3, [r0, r2, lsl #2]
 8005cbc:	f413 4f80 	tst.w	r3, #16384	@ 0x4000
 8005cc0:	d00c      	beq.n	8005cdc <USB_DeactivateEndpoint+0xc0>
 8005cc2:	f830 3022 	ldrh.w	r3, [r0, r2, lsl #2]
 8005cc6:	b29b      	uxth	r3, r3
 8005cc8:	f423 43e0 	bic.w	r3, r3, #28672	@ 0x7000
 8005ccc:	f023 0370 	bic.w	r3, r3, #112	@ 0x70
 8005cd0:	f443 4340 	orr.w	r3, r3, #49152	@ 0xc000
 8005cd4:	f043 0380 	orr.w	r3, r3, #128	@ 0x80
 8005cd8:	f820 3022 	strh.w	r3, [r0, r2, lsl #2]
 8005cdc:	780a      	ldrb	r2, [r1, #0]
 8005cde:	f830 3022 	ldrh.w	r3, [r0, r2, lsl #2]
 8005ce2:	f013 0f40 	tst.w	r3, #64	@ 0x40
 8005ce6:	d00c      	beq.n	8005d02 <USB_DeactivateEndpoint+0xe6>
 8005ce8:	f830 3022 	ldrh.w	r3, [r0, r2, lsl #2]
 8005cec:	b29b      	uxth	r3, r3
 8005cee:	f423 43e0 	bic.w	r3, r3, #28672	@ 0x7000
 8005cf2:	f023 0370 	bic.w	r3, r3, #112	@ 0x70
 8005cf6:	f443 4300 	orr.w	r3, r3, #32768	@ 0x8000
 8005cfa:	f043 03c0 	orr.w	r3, r3, #192	@ 0xc0
 8005cfe:	f820 3022 	strh.w	r3, [r0, r2, lsl #2]
 8005d02:	780a      	ldrb	r2, [r1, #0]
 8005d04:	f830 3022 	ldrh.w	r3, [r0, r2, lsl #2]
 8005d08:	b29b      	uxth	r3, r3
 8005d0a:	f423 43e0 	bic.w	r3, r3, #28672	@ 0x7000
 8005d0e:	f023 0370 	bic.w	r3, r3, #112	@ 0x70
 8005d12:	f443 4300 	orr.w	r3, r3, #32768	@ 0x8000
 8005d16:	f043 03c0 	orr.w	r3, r3, #192	@ 0xc0
 8005d1a:	f820 3022 	strh.w	r3, [r0, r2, lsl #2]
 8005d1e:	780a      	ldrb	r2, [r1, #0]
 8005d20:	f830 3022 	ldrh.w	r3, [r0, r2, lsl #2]
 8005d24:	b29b      	uxth	r3, r3
 8005d26:	f423 4380 	bic.w	r3, r3, #16384	@ 0x4000
 8005d2a:	f023 0370 	bic.w	r3, r3, #112	@ 0x70
 8005d2e:	f248 0c80 	movw	ip, #32896	@ 0x8080
 8005d32:	ea43 030c 	orr.w	r3, r3, ip
 8005d36:	f820 3022 	strh.w	r3, [r0, r2, lsl #2]
 8005d3a:	780a      	ldrb	r2, [r1, #0]
 8005d3c:	f830 3022 	ldrh.w	r3, [r0, r2, lsl #2]
 8005d40:	b29b      	uxth	r3, r3
 8005d42:	f423 43e0 	bic.w	r3, r3, #28672	@ 0x7000
 8005d46:	f023 0340 	bic.w	r3, r3, #64	@ 0x40
 8005d4a:	ea43 030c 	orr.w	r3, r3, ip
 8005d4e:	f820 3022 	strh.w	r3, [r0, r2, lsl #2]
 8005d52:	e789      	b.n	8005c68 <USB_DeactivateEndpoint+0x4c>
 8005d54:	780a      	ldrb	r2, [r1, #0]
 8005d56:	f830 3022 	ldrh.w	r3, [r0, r2, lsl #2]
 8005d5a:	f413 4f80 	tst.w	r3, #16384	@ 0x4000
 8005d5e:	d00c      	beq.n	8005d7a <USB_DeactivateEndpoint+0x15e>
 8005d60:	f830 3022 	ldrh.w	r3, [r0, r2, lsl #2]
 8005d64:	b29b      	uxth	r3, r3
 8005d66:	f423 43e0 	bic.w	r3, r3, #28672	@ 0x7000
 8005d6a:	f023 0370 	bic.w	r3, r3, #112	@ 0x70
 8005d6e:	f443 4340 	orr.w	r3, r3, #49152	@ 0xc000
 8005d72:	f043 0380 	orr.w	r3, r3, #128	@ 0x80
 8005d76:	f820 3022 	strh.w	r3, [r0, r2, lsl #2]
 8005d7a:	780a      	ldrb	r2, [r1, #0]
 8005d7c:	f830 3022 	ldrh.w	r3, [r0, r2, lsl #2]
 8005d80:	f013 0f40 	tst.w	r3, #64	@ 0x40
 8005d84:	d00c      	beq.n	8005da0 <USB_DeactivateEndpoint+0x184>
 8005d86:	f830 3022 	ldrh.w	r3, [r0, r2, lsl #2]
 8005d8a:	b29b      	uxth	r3, r3
 8005d8c:	f423 43e0 	bic.w	r3, r3, #28672	@ 0x7000
 8005d90:	f023 0370 	bic.w	r3, r3, #112	@ 0x70
 8005d94:	f443 4300 	orr.w	r3, r3, #32768	@ 0x8000
 8005d98:	f043 03c0 	orr.w	r3, r3, #192	@ 0xc0
 8005d9c:	f820 3022 	strh.w	r3, [r0, r2, lsl #2]
 8005da0:	780a      	ldrb	r2, [r1, #0]
 8005da2:	f830 3022 	ldrh.w	r3, [r0, r2, lsl #2]
 8005da6:	b29b      	uxth	r3, r3
 8005da8:	f423 43e0 	bic.w	r3, r3, #28672	@ 0x7000
 8005dac:	f023 0370 	bic.w	r3, r3, #112	@ 0x70
 8005db0:	f443 4340 	orr.w	r3, r3, #49152	@ 0xc000
 8005db4:	f043 0380 	orr.w	r3, r3, #128	@ 0x80
 8005db8:	f820 3022 	strh.w	r3, [r0, r2, lsl #2]
 8005dbc:	780a      	ldrb	r2, [r1, #0]
 8005dbe:	f830 3022 	ldrh.w	r3, [r0, r2, lsl #2]
 8005dc2:	b29b      	uxth	r3, r3
 8005dc4:	f423 43e0 	bic.w	r3, r3, #28672	@ 0x7000
 8005dc8:	f023 0340 	bic.w	r3, r3, #64	@ 0x40
 8005dcc:	f248 0c80 	movw	ip, #32896	@ 0x8080
 8005dd0:	ea43 030c 	orr.w	r3, r3, ip
 8005dd4:	f820 3022 	strh.w	r3, [r0, r2, lsl #2]
 8005dd8:	780a      	ldrb	r2, [r1, #0]
 8005dda:	f830 3022 	ldrh.w	r3, [r0, r2, lsl #2]
 8005dde:	b29b      	uxth	r3, r3
 8005de0:	f423 4380 	bic.w	r3, r3, #16384	@ 0x4000
 8005de4:	f023 0370 	bic.w	r3, r3, #112	@ 0x70
 8005de8:	ea43 030c 	orr.w	r3, r3, ip
 8005dec:	f820 3022 	strh.w	r3, [r0, r2, lsl #2]
 8005df0:	e73a      	b.n	8005c68 <USB_DeactivateEndpoint+0x4c>

08005df2 <USB_EPSetStall>:
 8005df2:	784b      	ldrb	r3, [r1, #1]
 8005df4:	b18b      	cbz	r3, 8005e1a <USB_EPSetStall+0x28>
 8005df6:	780a      	ldrb	r2, [r1, #0]
 8005df8:	f830 3022 	ldrh.w	r3, [r0, r2, lsl #2]
 8005dfc:	b29b      	uxth	r3, r3
 8005dfe:	f423 43e0 	bic.w	r3, r3, #28672	@ 0x7000
 8005e02:	f023 0340 	bic.w	r3, r3, #64	@ 0x40
 8005e06:	f083 0310 	eor.w	r3, r3, #16
 8005e0a:	f443 4300 	orr.w	r3, r3, #32768	@ 0x8000
 8005e0e:	f043 0380 	orr.w	r3, r3, #128	@ 0x80
 8005e12:	f820 3022 	strh.w	r3, [r0, r2, lsl #2]
 8005e16:	2000      	movs	r0, #0
 8005e18:	4770      	bx	lr
 8005e1a:	780a      	ldrb	r2, [r1, #0]
 8005e1c:	f830 3022 	ldrh.w	r3, [r0, r2, lsl #2]
 8005e20:	b29b      	uxth	r3, r3
 8005e22:	f423 4380 	bic.w	r3, r3, #16384	@ 0x4000
 8005e26:	f023 0370 	bic.w	r3, r3, #112	@ 0x70
 8005e2a:	f483 5380 	eor.w	r3, r3, #4096	@ 0x1000
 8005e2e:	f443 4300 	orr.w	r3, r3, #32768	@ 0x8000
 8005e32:	f043 0380 	orr.w	r3, r3, #128	@ 0x80
 8005e36:	f820 3022 	strh.w	r3, [r0, r2, lsl #2]
 8005e3a:	e7ec      	b.n	8005e16 <USB_EPSetStall+0x24>

08005e3c <USB_EPClearStall>:
 8005e3c:	7b0b      	ldrb	r3, [r1, #12]
 8005e3e:	2b00      	cmp	r3, #0
 8005e40:	d14b      	bne.n	8005eda <USB_EPClearStall+0x9e>
 8005e42:	784b      	ldrb	r3, [r1, #1]
 8005e44:	b333      	cbz	r3, 8005e94 <USB_EPClearStall+0x58>
 8005e46:	780a      	ldrb	r2, [r1, #0]
 8005e48:	f830 3022 	ldrh.w	r3, [r0, r2, lsl #2]
 8005e4c:	f013 0f40 	tst.w	r3, #64	@ 0x40
 8005e50:	d00c      	beq.n	8005e6c <USB_EPClearStall+0x30>
 8005e52:	f830 3022 	ldrh.w	r3, [r0, r2, lsl #2]
 8005e56:	b29b      	uxth	r3, r3
 8005e58:	f423 43e0 	bic.w	r3, r3, #28672	@ 0x7000
 8005e5c:	f023 0370 	bic.w	r3, r3, #112	@ 0x70
 8005e60:	f443 4300 	orr.w	r3, r3, #32768	@ 0x8000
 8005e64:	f043 03c0 	orr.w	r3, r3, #192	@ 0xc0
 8005e68:	f820 3022 	strh.w	r3, [r0, r2, lsl #2]
 8005e6c:	78cb      	ldrb	r3, [r1, #3]
 8005e6e:	2b01      	cmp	r3, #1
 8005e70:	d033      	beq.n	8005eda <USB_EPClearStall+0x9e>
 8005e72:	780a      	ldrb	r2, [r1, #0]
 8005e74:	f830 3022 	ldrh.w	r3, [r0, r2, lsl #2]
 8005e78:	b29b      	uxth	r3, r3
 8005e7a:	f423 43e0 	bic.w	r3, r3, #28672	@ 0x7000
 8005e7e:	f023 0340 	bic.w	r3, r3, #64	@ 0x40
 8005e82:	f083 0320 	eor.w	r3, r3, #32
 8005e86:	f443 4300 	orr.w	r3, r3, #32768	@ 0x8000
 8005e8a:	f043 0380 	orr.w	r3, r3, #128	@ 0x80
 8005e8e:	f820 3022 	strh.w	r3, [r0, r2, lsl #2]
 8005e92:	e022      	b.n	8005eda <USB_EPClearStall+0x9e>
 8005e94:	780a      	ldrb	r2, [r1, #0]
 8005e96:	f830 3022 	ldrh.w	r3, [r0, r2, lsl #2]
 8005e9a:	f413 4f80 	tst.w	r3, #16384	@ 0x4000
 8005e9e:	d00c      	beq.n	8005eba <USB_EPClearStall+0x7e>
 8005ea0:	f830 3022 	ldrh.w	r3, [r0, r2, lsl #2]
 8005ea4:	b29b      	uxth	r3, r3
 8005ea6:	f423 43e0 	bic.w	r3, r3, #28672	@ 0x7000
 8005eaa:	f023 0370 	bic.w	r3, r3, #112	@ 0x70
 8005eae:	f443 4340 	orr.w	r3, r3, #49152	@ 0xc000
 8005eb2:	f043 0380 	orr.w	r3, r3, #128	@ 0x80
 8005eb6:	f820 3022 	strh.w	r3, [r0, r2, lsl #2]
 8005eba:	780a      	ldrb	r2, [r1, #0]
 8005ebc:	f830 3022 	ldrh.w	r3, [r0, r2, lsl #2]
 8005ec0:	b29b      	uxth	r3, r3
 8005ec2:	f423 4380 	bic.w	r3, r3, #16384	@ 0x4000
 8005ec6:	f023 0370 	bic.w	r3, r3, #112	@ 0x70
 8005eca:	f483 5340 	eor.w	r3, r3, #12288	@ 0x3000
 8005ece:	f443 4300 	orr.w	r3, r3, #32768	@ 0x8000
 8005ed2:	f043 0380 	orr.w	r3, r3, #128	@ 0x80
 8005ed6:	f820 3022 	strh.w	r3, [r0, r2, lsl #2]
 8005eda:	2000      	movs	r0, #0
 8005edc:	4770      	bx	lr

08005ede <USB_SetDevAddress>:
 8005ede:	b911      	cbnz	r1, 8005ee6 <USB_SetDevAddress+0x8>
 8005ee0:	2380      	movs	r3, #128	@ 0x80
 8005ee2:	f8a0 304c 	strh.w	r3, [r0, #76]	@ 0x4c
 8005ee6:	2000      	movs	r0, #0
 8005ee8:	4770      	bx	lr

08005eea <USB_DevConnect>:
 8005eea:	2000      	movs	r0, #0
 8005eec:	4770      	bx	lr

08005eee <USB_DevDisconnect>:
 8005eee:	2000      	movs	r0, #0
 8005ef0:	4770      	bx	lr

08005ef2 <USB_ReadInterrupts>:
 8005ef2:	f8b0 0044 	ldrh.w	r0, [r0, #68]	@ 0x44
 8005ef6:	b280      	uxth	r0, r0
 8005ef8:	4770      	bx	lr

08005efa <USB_EP0_OutStart>:
 8005efa:	2000      	movs	r0, #0
 8005efc:	4770      	bx	lr

08005efe <USB_WritePMA>:
 8005efe:	3301      	adds	r3, #1
 8005f00:	085b      	lsrs	r3, r3, #1
 8005f02:	eb00 0042 	add.w	r0, r0, r2, lsl #1
 8005f06:	f500 6080 	add.w	r0, r0, #1024	@ 0x400
 8005f0a:	e008      	b.n	8005f1e <USB_WritePMA+0x20>
 8005f0c:	780a      	ldrb	r2, [r1, #0]
 8005f0e:	f891 c001 	ldrb.w	ip, [r1, #1]
 8005f12:	ea42 220c 	orr.w	r2, r2, ip, lsl #8
 8005f16:	f820 2b04 	strh.w	r2, [r0], #4
 8005f1a:	3102      	adds	r1, #2
 8005f1c:	3b01      	subs	r3, #1
 8005f1e:	2b00      	cmp	r3, #0
 8005f20:	d1f4      	bne.n	8005f0c <USB_WritePMA+0xe>
 8005f22:	4770      	bx	lr

08005f24 <USB_EPStartXfer>:
 8005f24:	b570      	push	{r4, r5, r6, lr}
 8005f26:	4605      	mov	r5, r0
 8005f28:	460c      	mov	r4, r1
 8005f2a:	784a      	ldrb	r2, [r1, #1]
 8005f2c:	2a01      	cmp	r2, #1
 8005f2e:	d03b      	beq.n	8005fa8 <USB_EPStartXfer+0x84>
 8005f30:	7b0b      	ldrb	r3, [r1, #12]
 8005f32:	2b00      	cmp	r3, #0
 8005f34:	f040 82a6 	bne.w	8006484 <USB_EPStartXfer+0x560>
 8005f38:	698b      	ldr	r3, [r1, #24]
 8005f3a:	690a      	ldr	r2, [r1, #16]
 8005f3c:	4293      	cmp	r3, r2
 8005f3e:	f240 8284 	bls.w	800644a <USB_EPStartXfer+0x526>
 8005f42:	1a9b      	subs	r3, r3, r2
 8005f44:	618b      	str	r3, [r1, #24]
 8005f46:	f8b5 3050 	ldrh.w	r3, [r5, #80]	@ 0x50
 8005f4a:	b29b      	uxth	r3, r3
 8005f4c:	442b      	add	r3, r5
 8005f4e:	7821      	ldrb	r1, [r4, #0]
 8005f50:	eb03 1301 	add.w	r3, r3, r1, lsl #4
 8005f54:	f8b3 140c 	ldrh.w	r1, [r3, #1036]	@ 0x40c
 8005f58:	f3c1 0109 	ubfx	r1, r1, #0, #10
 8005f5c:	f8a3 140c 	strh.w	r1, [r3, #1036]	@ 0x40c
 8005f60:	2a3e      	cmp	r2, #62	@ 0x3e
 8005f62:	f240 8276 	bls.w	8006452 <USB_EPStartXfer+0x52e>
 8005f66:	0951      	lsrs	r1, r2, #5
 8005f68:	f012 0f1f 	tst.w	r2, #31
 8005f6c:	d100      	bne.n	8005f70 <USB_EPStartXfer+0x4c>
 8005f6e:	3901      	subs	r1, #1
 8005f70:	f8b3 240c 	ldrh.w	r2, [r3, #1036]	@ 0x40c
 8005f74:	b292      	uxth	r2, r2
 8005f76:	0289      	lsls	r1, r1, #10
 8005f78:	b289      	uxth	r1, r1
 8005f7a:	430a      	orrs	r2, r1
 8005f7c:	f442 4200 	orr.w	r2, r2, #32768	@ 0x8000
 8005f80:	f8a3 240c 	strh.w	r2, [r3, #1036]	@ 0x40c
 8005f84:	7822      	ldrb	r2, [r4, #0]
 8005f86:	f835 3022 	ldrh.w	r3, [r5, r2, lsl #2]
 8005f8a:	b29b      	uxth	r3, r3
 8005f8c:	f423 4380 	bic.w	r3, r3, #16384	@ 0x4000
 8005f90:	f023 0370 	bic.w	r3, r3, #112	@ 0x70
 8005f94:	f483 5340 	eor.w	r3, r3, #12288	@ 0x3000
 8005f98:	f443 4300 	orr.w	r3, r3, #32768	@ 0x8000
 8005f9c:	f043 0380 	orr.w	r3, r3, #128	@ 0x80
 8005fa0:	f825 3022 	strh.w	r3, [r5, r2, lsl #2]
 8005fa4:	2000      	movs	r0, #0
 8005fa6:	bd70      	pop	{r4, r5, r6, pc}
 8005fa8:	698e      	ldr	r6, [r1, #24]
 8005faa:	6909      	ldr	r1, [r1, #16]
 8005fac:	428e      	cmp	r6, r1
 8005fae:	d900      	bls.n	8005fb2 <USB_EPStartXfer+0x8e>
 8005fb0:	460e      	mov	r6, r1
 8005fb2:	7b23      	ldrb	r3, [r4, #12]
 8005fb4:	b373      	cbz	r3, 8006014 <USB_EPStartXfer+0xf0>
 8005fb6:	78e3      	ldrb	r3, [r4, #3]
 8005fb8:	2b02      	cmp	r3, #2
 8005fba:	d04d      	beq.n	8006058 <USB_EPStartXfer+0x134>
 8005fbc:	6a23      	ldr	r3, [r4, #32]
 8005fbe:	1b9b      	subs	r3, r3, r6
 8005fc0:	6223      	str	r3, [r4, #32]
 8005fc2:	7821      	ldrb	r1, [r4, #0]
 8005fc4:	f835 3021 	ldrh.w	r3, [r5, r1, lsl #2]
 8005fc8:	f013 0f40 	tst.w	r3, #64	@ 0x40
 8005fcc:	f000 81f5 	beq.w	80063ba <USB_EPStartXfer+0x496>
 8005fd0:	2a00      	cmp	r2, #0
 8005fd2:	f040 81e2 	bne.w	800639a <USB_EPStartXfer+0x476>
 8005fd6:	f8b5 3050 	ldrh.w	r3, [r5, #80]	@ 0x50
 8005fda:	b29b      	uxth	r3, r3
 8005fdc:	442b      	add	r3, r5
 8005fde:	eb03 1301 	add.w	r3, r3, r1, lsl #4
 8005fe2:	f8b3 240c 	ldrh.w	r2, [r3, #1036]	@ 0x40c
 8005fe6:	f3c2 0209 	ubfx	r2, r2, #0, #10
 8005fea:	f8a3 240c 	strh.w	r2, [r3, #1036]	@ 0x40c
 8005fee:	2e3e      	cmp	r6, #62	@ 0x3e
 8005ff0:	f240 81ba 	bls.w	8006368 <USB_EPStartXfer+0x444>
 8005ff4:	0971      	lsrs	r1, r6, #5
 8005ff6:	f016 0f1f 	tst.w	r6, #31
 8005ffa:	d100      	bne.n	8005ffe <USB_EPStartXfer+0xda>
 8005ffc:	3901      	subs	r1, #1
 8005ffe:	f8b3 240c 	ldrh.w	r2, [r3, #1036]	@ 0x40c
 8006002:	b292      	uxth	r2, r2
 8006004:	0289      	lsls	r1, r1, #10
 8006006:	b289      	uxth	r1, r1
 8006008:	430a      	orrs	r2, r1
 800600a:	f442 4200 	orr.w	r2, r2, #32768	@ 0x8000
 800600e:	f8a3 240c 	strh.w	r2, [r3, #1036]	@ 0x40c
 8006012:	e1cb      	b.n	80063ac <USB_EPStartXfer+0x488>
 8006014:	b2b6      	uxth	r6, r6
 8006016:	4633      	mov	r3, r6
 8006018:	88e2      	ldrh	r2, [r4, #6]
 800601a:	6961      	ldr	r1, [r4, #20]
 800601c:	4628      	mov	r0, r5
 800601e:	f7ff ff6e 	bl	8005efe <USB_WritePMA>
 8006022:	f8b5 3050 	ldrh.w	r3, [r5, #80]	@ 0x50
 8006026:	b29b      	uxth	r3, r3
 8006028:	442b      	add	r3, r5
 800602a:	7822      	ldrb	r2, [r4, #0]
 800602c:	eb03 1302 	add.w	r3, r3, r2, lsl #4
 8006030:	f8a3 6404 	strh.w	r6, [r3, #1028]	@ 0x404
 8006034:	7822      	ldrb	r2, [r4, #0]
 8006036:	f835 3022 	ldrh.w	r3, [r5, r2, lsl #2]
 800603a:	b29b      	uxth	r3, r3
 800603c:	f423 43e0 	bic.w	r3, r3, #28672	@ 0x7000
 8006040:	f023 0340 	bic.w	r3, r3, #64	@ 0x40
 8006044:	f083 0330 	eor.w	r3, r3, #48	@ 0x30
 8006048:	f443 4300 	orr.w	r3, r3, #32768	@ 0x8000
 800604c:	f043 0380 	orr.w	r3, r3, #128	@ 0x80
 8006050:	f825 3022 	strh.w	r3, [r5, r2, lsl #2]
 8006054:	2000      	movs	r0, #0
 8006056:	e7a6      	b.n	8005fa6 <USB_EPStartXfer+0x82>
 8006058:	6a23      	ldr	r3, [r4, #32]
 800605a:	4299      	cmp	r1, r3
 800605c:	f080 8166 	bcs.w	800632c <USB_EPStartXfer+0x408>
 8006060:	7822      	ldrb	r2, [r4, #0]
 8006062:	f835 3022 	ldrh.w	r3, [r5, r2, lsl #2]
 8006066:	b29b      	uxth	r3, r3
 8006068:	f423 43e0 	bic.w	r3, r3, #28672	@ 0x7000
 800606c:	f023 0370 	bic.w	r3, r3, #112	@ 0x70
 8006070:	f443 4301 	orr.w	r3, r3, #33024	@ 0x8100
 8006074:	f043 0380 	orr.w	r3, r3, #128	@ 0x80
 8006078:	f825 3022 	strh.w	r3, [r5, r2, lsl #2]
 800607c:	6a23      	ldr	r3, [r4, #32]
 800607e:	1b9b      	subs	r3, r3, r6
 8006080:	6223      	str	r3, [r4, #32]
 8006082:	7822      	ldrb	r2, [r4, #0]
 8006084:	f835 3022 	ldrh.w	r3, [r5, r2, lsl #2]
 8006088:	f013 0f40 	tst.w	r3, #64	@ 0x40
 800608c:	f000 80a7 	beq.w	80061de <USB_EPStartXfer+0x2ba>
 8006090:	7863      	ldrb	r3, [r4, #1]
 8006092:	bbb3      	cbnz	r3, 8006102 <USB_EPStartXfer+0x1de>
 8006094:	f8b5 3050 	ldrh.w	r3, [r5, #80]	@ 0x50
 8006098:	b29b      	uxth	r3, r3
 800609a:	442b      	add	r3, r5
 800609c:	eb03 1302 	add.w	r3, r3, r2, lsl #4
 80060a0:	f8b3 240c 	ldrh.w	r2, [r3, #1036]	@ 0x40c
 80060a4:	f3c2 0209 	ubfx	r2, r2, #0, #10
 80060a8:	f8a3 240c 	strh.w	r2, [r3, #1036]	@ 0x40c
 80060ac:	2e3e      	cmp	r6, #62	@ 0x3e
 80060ae:	d90f      	bls.n	80060d0 <USB_EPStartXfer+0x1ac>
 80060b0:	0971      	lsrs	r1, r6, #5
 80060b2:	f016 0f1f 	tst.w	r6, #31
 80060b6:	d100      	bne.n	80060ba <USB_EPStartXfer+0x196>
 80060b8:	3901      	subs	r1, #1
 80060ba:	f8b3 240c 	ldrh.w	r2, [r3, #1036]	@ 0x40c
 80060be:	b292      	uxth	r2, r2
 80060c0:	0289      	lsls	r1, r1, #10
 80060c2:	b289      	uxth	r1, r1
 80060c4:	430a      	orrs	r2, r1
 80060c6:	f442 4200 	orr.w	r2, r2, #32768	@ 0x8000
 80060ca:	f8a3 240c 	strh.w	r2, [r3, #1036]	@ 0x40c
 80060ce:	e01a      	b.n	8006106 <USB_EPStartXfer+0x1e2>
 80060d0:	b94e      	cbnz	r6, 80060e6 <USB_EPStartXfer+0x1c2>
 80060d2:	f8b3 240c 	ldrh.w	r2, [r3, #1036]	@ 0x40c
 80060d6:	ea6f 4242 	mvn.w	r2, r2, lsl #17
 80060da:	ea6f 4252 	mvn.w	r2, r2, lsr #17
 80060de:	b292      	uxth	r2, r2
 80060e0:	f8a3 240c 	strh.w	r2, [r3, #1036]	@ 0x40c
 80060e4:	e00f      	b.n	8006106 <USB_EPStartXfer+0x1e2>
 80060e6:	0872      	lsrs	r2, r6, #1
 80060e8:	f016 0f01 	tst.w	r6, #1
 80060ec:	d000      	beq.n	80060f0 <USB_EPStartXfer+0x1cc>
 80060ee:	3201      	adds	r2, #1
 80060f0:	f8b3 140c 	ldrh.w	r1, [r3, #1036]	@ 0x40c
 80060f4:	b289      	uxth	r1, r1
 80060f6:	0292      	lsls	r2, r2, #10
 80060f8:	b292      	uxth	r2, r2
 80060fa:	430a      	orrs	r2, r1
 80060fc:	f8a3 240c 	strh.w	r2, [r3, #1036]	@ 0x40c
 8006100:	e001      	b.n	8006106 <USB_EPStartXfer+0x1e2>
 8006102:	2b01      	cmp	r3, #1
 8006104:	d030      	beq.n	8006168 <USB_EPStartXfer+0x244>
 8006106:	b2b3      	uxth	r3, r6
 8006108:	8962      	ldrh	r2, [r4, #10]
 800610a:	6961      	ldr	r1, [r4, #20]
 800610c:	4628      	mov	r0, r5
 800610e:	f7ff fef6 	bl	8005efe <USB_WritePMA>
 8006112:	6963      	ldr	r3, [r4, #20]
 8006114:	4433      	add	r3, r6
 8006116:	6163      	str	r3, [r4, #20]
 8006118:	6a23      	ldr	r3, [r4, #32]
 800611a:	6922      	ldr	r2, [r4, #16]
 800611c:	4293      	cmp	r3, r2
 800611e:	d92d      	bls.n	800617c <USB_EPStartXfer+0x258>
 8006120:	1b9b      	subs	r3, r3, r6
 8006122:	6223      	str	r3, [r4, #32]
 8006124:	7863      	ldrb	r3, [r4, #1]
 8006126:	2b00      	cmp	r3, #0
 8006128:	d145      	bne.n	80061b6 <USB_EPStartXfer+0x292>
 800612a:	f8b5 3050 	ldrh.w	r3, [r5, #80]	@ 0x50
 800612e:	b29b      	uxth	r3, r3
 8006130:	442b      	add	r3, r5
 8006132:	7822      	ldrb	r2, [r4, #0]
 8006134:	eb03 1302 	add.w	r3, r3, r2, lsl #4
 8006138:	f8b3 2404 	ldrh.w	r2, [r3, #1028]	@ 0x404
 800613c:	f3c2 0209 	ubfx	r2, r2, #0, #10
 8006140:	f8a3 2404 	strh.w	r2, [r3, #1028]	@ 0x404
 8006144:	2e3e      	cmp	r6, #62	@ 0x3e
 8006146:	d91d      	bls.n	8006184 <USB_EPStartXfer+0x260>
 8006148:	0971      	lsrs	r1, r6, #5
 800614a:	f016 0f1f 	tst.w	r6, #31
 800614e:	d100      	bne.n	8006152 <USB_EPStartXfer+0x22e>
 8006150:	3901      	subs	r1, #1
 8006152:	f8b3 2404 	ldrh.w	r2, [r3, #1028]	@ 0x404
 8006156:	b292      	uxth	r2, r2
 8006158:	0289      	lsls	r1, r1, #10
 800615a:	b289      	uxth	r1, r1
 800615c:	430a      	orrs	r2, r1
 800615e:	f442 4200 	orr.w	r2, r2, #32768	@ 0x8000
 8006162:	f8a3 2404 	strh.w	r2, [r3, #1028]	@ 0x404
 8006166:	e028      	b.n	80061ba <USB_EPStartXfer+0x296>
 8006168:	f8b5 3050 	ldrh.w	r3, [r5, #80]	@ 0x50
 800616c:	b29b      	uxth	r3, r3
 800616e:	442b      	add	r3, r5
 8006170:	eb03 1302 	add.w	r3, r3, r2, lsl #4
 8006174:	b2b2      	uxth	r2, r6
 8006176:	f8a3 240c 	strh.w	r2, [r3, #1036]	@ 0x40c
 800617a:	e7c4      	b.n	8006106 <USB_EPStartXfer+0x1e2>
 800617c:	2200      	movs	r2, #0
 800617e:	6222      	str	r2, [r4, #32]
 8006180:	461e      	mov	r6, r3
 8006182:	e7cf      	b.n	8006124 <USB_EPStartXfer+0x200>
 8006184:	b94e      	cbnz	r6, 800619a <USB_EPStartXfer+0x276>
 8006186:	f8b3 2404 	ldrh.w	r2, [r3, #1028]	@ 0x404
 800618a:	ea6f 4242 	mvn.w	r2, r2, lsl #17
 800618e:	ea6f 4252 	mvn.w	r2, r2, lsr #17
 8006192:	b292      	uxth	r2, r2
 8006194:	f8a3 2404 	strh.w	r2, [r3, #1028]	@ 0x404
 8006198:	e00f      	b.n	80061ba <USB_EPStartXfer+0x296>
 800619a:	0872      	lsrs	r2, r6, #1
 800619c:	f016 0f01 	tst.w	r6, #1
 80061a0:	d000      	beq.n	80061a4 <USB_EPStartXfer+0x280>
 80061a2:	3201      	adds	r2, #1
 80061a4:	f8b3 1404 	ldrh.w	r1, [r3, #1028]	@ 0x404
 80061a8:	b289      	uxth	r1, r1
 80061aa:	0292      	lsls	r2, r2, #10
 80061ac:	b292      	uxth	r2, r2
 80061ae:	430a      	orrs	r2, r1
 80061b0:	f8a3 2404 	strh.w	r2, [r3, #1028]	@ 0x404
 80061b4:	e001      	b.n	80061ba <USB_EPStartXfer+0x296>
 80061b6:	2b01      	cmp	r3, #1
 80061b8:	d006      	beq.n	80061c8 <USB_EPStartXfer+0x2a4>
 80061ba:	b2b3      	uxth	r3, r6
 80061bc:	8922      	ldrh	r2, [r4, #8]
 80061be:	6961      	ldr	r1, [r4, #20]
 80061c0:	4628      	mov	r0, r5
 80061c2:	f7ff fe9c 	bl	8005efe <USB_WritePMA>
 80061c6:	e735      	b.n	8006034 <USB_EPStartXfer+0x110>
 80061c8:	f8b5 3050 	ldrh.w	r3, [r5, #80]	@ 0x50
 80061cc:	b29b      	uxth	r3, r3
 80061ce:	442b      	add	r3, r5
 80061d0:	7822      	ldrb	r2, [r4, #0]
 80061d2:	eb03 1302 	add.w	r3, r3, r2, lsl #4
 80061d6:	b2b2      	uxth	r2, r6
 80061d8:	f8a3 2404 	strh.w	r2, [r3, #1028]	@ 0x404
 80061dc:	e7ed      	b.n	80061ba <USB_EPStartXfer+0x296>
 80061de:	7863      	ldrb	r3, [r4, #1]
 80061e0:	bbb3      	cbnz	r3, 8006250 <USB_EPStartXfer+0x32c>
 80061e2:	f8b5 3050 	ldrh.w	r3, [r5, #80]	@ 0x50
 80061e6:	b29b      	uxth	r3, r3
 80061e8:	442b      	add	r3, r5
 80061ea:	eb03 1302 	add.w	r3, r3, r2, lsl #4
 80061ee:	f8b3 2404 	ldrh.w	r2, [r3, #1028]	@ 0x404
 80061f2:	f3c2 0209 	ubfx	r2, r2, #0, #10
 80061f6:	f8a3 2404 	strh.w	r2, [r3, #1028]	@ 0x404
 80061fa:	2e3e      	cmp	r6, #62	@ 0x3e
 80061fc:	d90f      	bls.n	800621e <USB_EPStartXfer+0x2fa>
 80061fe:	0971      	lsrs	r1, r6, #5
 8006200:	f016 0f1f 	tst.w	r6, #31
 8006204:	d100      	bne.n	8006208 <USB_EPStartXfer+0x2e4>
 8006206:	3901      	subs	r1, #1
 8006208:	f8b3 2404 	ldrh.w	r2, [r3, #1028]	@ 0x404
 800620c:	b292      	uxth	r2, r2
 800620e:	0289      	lsls	r1, r1, #10
 8006210:	b289      	uxth	r1, r1
 8006212:	430a      	orrs	r2, r1
 8006214:	f442 4200 	orr.w	r2, r2, #32768	@ 0x8000
 8006218:	f8a3 2404 	strh.w	r2, [r3, #1028]	@ 0x404
 800621c:	e01a      	b.n	8006254 <USB_EPStartXfer+0x330>
 800621e:	b94e      	cbnz	r6, 8006234 <USB_EPStartXfer+0x310>
 8006220:	f8b3 2404 	ldrh.w	r2, [r3, #1028]	@ 0x404
 8006224:	ea6f 4242 	mvn.w	r2, r2, lsl #17
 8006228:	ea6f 4252 	mvn.w	r2, r2, lsr #17
 800622c:	b292      	uxth	r2, r2
 800622e:	f8a3 2404 	strh.w	r2, [r3, #1028]	@ 0x404
 8006232:	e00f      	b.n	8006254 <USB_EPStartXfer+0x330>
 8006234:	0872      	lsrs	r2, r6, #1
 8006236:	f016 0f01 	tst.w	r6, #1
 800623a:	d000      	beq.n	800623e <USB_EPStartXfer+0x31a>
 800623c:	3201      	adds	r2, #1
 800623e:	f8b3 1404 	ldrh.w	r1, [r3, #1028]	@ 0x404
 8006242:	b289      	uxth	r1, r1
 8006244:	0292      	lsls	r2, r2, #10
 8006246:	b292      	uxth	r2, r2
 8006248:	430a      	orrs	r2, r1
 800624a:	f8a3 2404 	strh.w	r2, [r3, #1028]	@ 0x404
 800624e:	e001      	b.n	8006254 <USB_EPStartXfer+0x330>
 8006250:	2b01      	cmp	r3, #1
 8006252:	d030      	beq.n	80062b6 <USB_EPStartXfer+0x392>
 8006254:	b2b3      	uxth	r3, r6
 8006256:	8922      	ldrh	r2, [r4, #8]
 8006258:	6961      	ldr	r1, [r4, #20]
 800625a:	4628      	mov	r0, r5
 800625c:	f7ff fe4f 	bl	8005efe <USB_WritePMA>
 8006260:	6963      	ldr	r3, [r4, #20]
 8006262:	4433      	add	r3, r6
 8006264:	6163      	str	r3, [r4, #20]
 8006266:	6a23      	ldr	r3, [r4, #32]
 8006268:	6922      	ldr	r2, [r4, #16]
 800626a:	4293      	cmp	r3, r2
 800626c:	d92d      	bls.n	80062ca <USB_EPStartXfer+0x3a6>
 800626e:	1b9b      	subs	r3, r3, r6
 8006270:	6223      	str	r3, [r4, #32]
 8006272:	7863      	ldrb	r3, [r4, #1]
 8006274:	2b00      	cmp	r3, #0
 8006276:	d145      	bne.n	8006304 <USB_EPStartXfer+0x3e0>
 8006278:	f8b5 3050 	ldrh.w	r3, [r5, #80]	@ 0x50
 800627c:	b29b      	uxth	r3, r3
 800627e:	442b      	add	r3, r5
 8006280:	7822      	ldrb	r2, [r4, #0]
 8006282:	eb03 1302 	add.w	r3, r3, r2, lsl #4
 8006286:	f8b3 240c 	ldrh.w	r2, [r3, #1036]	@ 0x40c
 800628a:	f3c2 0209 	ubfx	r2, r2, #0, #10
 800628e:	f8a3 240c 	strh.w	r2, [r3, #1036]	@ 0x40c
 8006292:	2e3e      	cmp	r6, #62	@ 0x3e
 8006294:	d91d      	bls.n	80062d2 <USB_EPStartXfer+0x3ae>
 8006296:	0971      	lsrs	r1, r6, #5
 8006298:	f016 0f1f 	tst.w	r6, #31
 800629c:	d100      	bne.n	80062a0 <USB_EPStartXfer+0x37c>
 800629e:	3901      	subs	r1, #1
 80062a0:	f8b3 240c 	ldrh.w	r2, [r3, #1036]	@ 0x40c
 80062a4:	b292      	uxth	r2, r2
 80062a6:	0289      	lsls	r1, r1, #10
 80062a8:	b289      	uxth	r1, r1
 80062aa:	430a      	orrs	r2, r1
 80062ac:	f442 4200 	orr.w	r2, r2, #32768	@ 0x8000
 80062b0:	f8a3 240c 	strh.w	r2, [r3, #1036]	@ 0x40c
 80062b4:	e028      	b.n	8006308 <USB_EPStartXfer+0x3e4>
 80062b6:	f8b5 3050 	ldrh.w	r3, [r5, #80]	@ 0x50
 80062ba:	b29b      	uxth	r3, r3
 80062bc:	442b      	add	r3, r5
 80062be:	eb03 1302 	add.w	r3, r3, r2, lsl #4
 80062c2:	b2b2      	uxth	r2, r6
 80062c4:	f8a3 2404 	strh.w	r2, [r3, #1028]	@ 0x404
 80062c8:	e7c4      	b.n	8006254 <USB_EPStartXfer+0x330>
 80062ca:	2200      	movs	r2, #0
 80062cc:	6222      	str	r2, [r4, #32]
 80062ce:	461e      	mov	r6, r3
 80062d0:	e7cf      	b.n	8006272 <USB_EPStartXfer+0x34e>
 80062d2:	b94e      	cbnz	r6, 80062e8 <USB_EPStartXfer+0x3c4>
 80062d4:	f8b3 240c 	ldrh.w	r2, [r3, #1036]	@ 0x40c
 80062d8:	ea6f 4242 	mvn.w	r2, r2, lsl #17
 80062dc:	ea6f 4252 	mvn.w	r2, r2, lsr #17
 80062e0:	b292      	uxth	r2, r2
 80062e2:	f8a3 240c 	strh.w	r2, [r3, #1036]	@ 0x40c
 80062e6:	e00f      	b.n	8006308 <USB_EPStartXfer+0x3e4>
 80062e8:	0872      	lsrs	r2, r6, #1
 80062ea:	f016 0f01 	tst.w	r6, #1
 80062ee:	d000      	beq.n	80062f2 <USB_EPStartXfer+0x3ce>
 80062f0:	3201      	adds	r2, #1
 80062f2:	f8b3 140c 	ldrh.w	r1, [r3, #1036]	@ 0x40c
 80062f6:	b289      	uxth	r1, r1
 80062f8:	0292      	lsls	r2, r2, #10
 80062fa:	b292      	uxth	r2, r2
 80062fc:	430a      	orrs	r2, r1
 80062fe:	f8a3 240c 	strh.w	r2, [r3, #1036]	@ 0x40c
 8006302:	e001      	b.n	8006308 <USB_EPStartXfer+0x3e4>
 8006304:	2b01      	cmp	r3, #1
 8006306:	d006      	beq.n	8006316 <USB_EPStartXfer+0x3f2>
 8006308:	b2b3      	uxth	r3, r6
 800630a:	8962      	ldrh	r2, [r4, #10]
 800630c:	6961      	ldr	r1, [r4, #20]
 800630e:	4628      	mov	r0, r5
 8006310:	f7ff fdf5 	bl	8005efe <USB_WritePMA>
 8006314:	e68e      	b.n	8006034 <USB_EPStartXfer+0x110>
 8006316:	f8b5 3050 	ldrh.w	r3, [r5, #80]	@ 0x50
 800631a:	b29b      	uxth	r3, r3
 800631c:	442b      	add	r3, r5
 800631e:	7822      	ldrb	r2, [r4, #0]
 8006320:	eb03 1302 	add.w	r3, r3, r2, lsl #4
 8006324:	b2b2      	uxth	r2, r6
 8006326:	f8a3 240c 	strh.w	r2, [r3, #1036]	@ 0x40c
 800632a:	e7ed      	b.n	8006308 <USB_EPStartXfer+0x3e4>
 800632c:	7821      	ldrb	r1, [r4, #0]
 800632e:	f835 2021 	ldrh.w	r2, [r5, r1, lsl #2]
 8006332:	b292      	uxth	r2, r2
 8006334:	f422 42e2 	bic.w	r2, r2, #28928	@ 0x7100
 8006338:	f022 0270 	bic.w	r2, r2, #112	@ 0x70
 800633c:	f442 4200 	orr.w	r2, r2, #32768	@ 0x8000
 8006340:	f042 0280 	orr.w	r2, r2, #128	@ 0x80
 8006344:	f825 2021 	strh.w	r2, [r5, r1, lsl #2]
 8006348:	f8b5 2050 	ldrh.w	r2, [r5, #80]	@ 0x50
 800634c:	b292      	uxth	r2, r2
 800634e:	442a      	add	r2, r5
 8006350:	7821      	ldrb	r1, [r4, #0]
 8006352:	eb02 1201 	add.w	r2, r2, r1, lsl #4
 8006356:	b29b      	uxth	r3, r3
 8006358:	f8a2 3404 	strh.w	r3, [r2, #1028]	@ 0x404
 800635c:	8922      	ldrh	r2, [r4, #8]
 800635e:	6961      	ldr	r1, [r4, #20]
 8006360:	4628      	mov	r0, r5
 8006362:	f7ff fdcc 	bl	8005efe <USB_WritePMA>
 8006366:	e665      	b.n	8006034 <USB_EPStartXfer+0x110>
 8006368:	b94e      	cbnz	r6, 800637e <USB_EPStartXfer+0x45a>
 800636a:	f8b3 240c 	ldrh.w	r2, [r3, #1036]	@ 0x40c
 800636e:	ea6f 4242 	mvn.w	r2, r2, lsl #17
 8006372:	ea6f 4252 	mvn.w	r2, r2, lsr #17
 8006376:	b292      	uxth	r2, r2
 8006378:	f8a3 240c 	strh.w	r2, [r3, #1036]	@ 0x40c
 800637c:	e016      	b.n	80063ac <USB_EPStartXfer+0x488>
 800637e:	0872      	lsrs	r2, r6, #1
 8006380:	f016 0f01 	tst.w	r6, #1
 8006384:	d000      	beq.n	8006388 <USB_EPStartXfer+0x464>
 8006386:	3201      	adds	r2, #1
 8006388:	f8b3 140c 	ldrh.w	r1, [r3, #1036]	@ 0x40c
 800638c:	b289      	uxth	r1, r1
 800638e:	0292      	lsls	r2, r2, #10
 8006390:	b292      	uxth	r2, r2
 8006392:	430a      	orrs	r2, r1
 8006394:	f8a3 240c 	strh.w	r2, [r3, #1036]	@ 0x40c
 8006398:	e008      	b.n	80063ac <USB_EPStartXfer+0x488>
 800639a:	f8b5 3050 	ldrh.w	r3, [r5, #80]	@ 0x50
 800639e:	b29b      	uxth	r3, r3
 80063a0:	442b      	add	r3, r5
 80063a2:	eb03 1301 	add.w	r3, r3, r1, lsl #4
 80063a6:	b2b2      	uxth	r2, r6
 80063a8:	f8a3 240c 	strh.w	r2, [r3, #1036]	@ 0x40c
 80063ac:	b2b3      	uxth	r3, r6
 80063ae:	8962      	ldrh	r2, [r4, #10]
 80063b0:	6961      	ldr	r1, [r4, #20]
 80063b2:	4628      	mov	r0, r5
 80063b4:	f7ff fda3 	bl	8005efe <USB_WritePMA>
 80063b8:	e63c      	b.n	8006034 <USB_EPStartXfer+0x110>
 80063ba:	bbb2      	cbnz	r2, 800642a <USB_EPStartXfer+0x506>
 80063bc:	f8b5 3050 	ldrh.w	r3, [r5, #80]	@ 0x50
 80063c0:	b29b      	uxth	r3, r3
 80063c2:	442b      	add	r3, r5
 80063c4:	eb03 1301 	add.w	r3, r3, r1, lsl #4
 80063c8:	f8b3 2404 	ldrh.w	r2, [r3, #1028]	@ 0x404
 80063cc:	f3c2 0209 	ubfx	r2, r2, #0, #10
 80063d0:	f8a3 2404 	strh.w	r2, [r3, #1028]	@ 0x404
 80063d4:	2e3e      	cmp	r6, #62	@ 0x3e
 80063d6:	d90f      	bls.n	80063f8 <USB_EPStartXfer+0x4d4>
 80063d8:	0971      	lsrs	r1, r6, #5
 80063da:	f016 0f1f 	tst.w	r6, #31
 80063de:	d100      	bne.n	80063e2 <USB_EPStartXfer+0x4be>
 80063e0:	3901      	subs	r1, #1
 80063e2:	f8b3 2404 	ldrh.w	r2, [r3, #1028]	@ 0x404
 80063e6:	b292      	uxth	r2, r2
 80063e8:	0289      	lsls	r1, r1, #10
 80063ea:	b289      	uxth	r1, r1
 80063ec:	430a      	orrs	r2, r1
 80063ee:	f442 4200 	orr.w	r2, r2, #32768	@ 0x8000
 80063f2:	f8a3 2404 	strh.w	r2, [r3, #1028]	@ 0x404
 80063f6:	e021      	b.n	800643c <USB_EPStartXfer+0x518>
 80063f8:	b94e      	cbnz	r6, 800640e <USB_EPStartXfer+0x4ea>
 80063fa:	f8b3 2404 	ldrh.w	r2, [r3, #1028]	@ 0x404
 80063fe:	ea6f 4242 	mvn.w	r2, r2, lsl #17
 8006402:	ea6f 4252 	mvn.w	r2, r2, lsr #17
 8006406:	b292      	uxth	r2, r2
 8006408:	f8a3 2404 	strh.w	r2, [r3, #1028]	@ 0x404
 800640c:	e016      	b.n	800643c <USB_EPStartXfer+0x518>
 800640e:	0872      	lsrs	r2, r6, #1
 8006410:	f016 0f01 	tst.w	r6, #1
 8006414:	d000      	beq.n	8006418 <USB_EPStartXfer+0x4f4>
 8006416:	3201      	adds	r2, #1
 8006418:	f8b3 1404 	ldrh.w	r1, [r3, #1028]	@ 0x404
 800641c:	b289      	uxth	r1, r1
 800641e:	0292      	lsls	r2, r2, #10
 8006420:	b292      	uxth	r2, r2
 8006422:	430a      	orrs	r2, r1
 8006424:	f8a3 2404 	strh.w	r2, [r3, #1028]	@ 0x404
 8006428:	e008      	b.n	800643c <USB_EPStartXfer+0x518>
 800642a:	f8b5 3050 	ldrh.w	r3, [r5, #80]	@ 0x50
 800642e:	b29b      	uxth	r3, r3
 8006430:	442b      	add	r3, r5
 8006432:	eb03 1301 	add.w	r3, r3, r1, lsl #4
 8006436:	b2b2      	uxth	r2, r6
 8006438:	f8a3 2404 	strh.w	r2, [r3, #1028]	@ 0x404
 800643c:	b2b3      	uxth	r3, r6
 800643e:	8922      	ldrh	r2, [r4, #8]
 8006440:	6961      	ldr	r1, [r4, #20]
 8006442:	4628      	mov	r0, r5
 8006444:	f7ff fd5b 	bl	8005efe <USB_WritePMA>
 8006448:	e5f4      	b.n	8006034 <USB_EPStartXfer+0x110>
 800644a:	2200      	movs	r2, #0
 800644c:	618a      	str	r2, [r1, #24]
 800644e:	461a      	mov	r2, r3
 8006450:	e579      	b.n	8005f46 <USB_EPStartXfer+0x22>
 8006452:	b94a      	cbnz	r2, 8006468 <USB_EPStartXfer+0x544>
 8006454:	f8b3 240c 	ldrh.w	r2, [r3, #1036]	@ 0x40c
 8006458:	ea6f 4242 	mvn.w	r2, r2, lsl #17
 800645c:	ea6f 4252 	mvn.w	r2, r2, lsr #17
 8006460:	b292      	uxth	r2, r2
 8006462:	f8a3 240c 	strh.w	r2, [r3, #1036]	@ 0x40c
 8006466:	e58d      	b.n	8005f84 <USB_EPStartXfer+0x60>
 8006468:	0851      	lsrs	r1, r2, #1
 800646a:	f012 0f01 	tst.w	r2, #1
 800646e:	d000      	beq.n	8006472 <USB_EPStartXfer+0x54e>
 8006470:	3101      	adds	r1, #1
 8006472:	f8b3 240c 	ldrh.w	r2, [r3, #1036]	@ 0x40c
 8006476:	b292      	uxth	r2, r2
 8006478:	0289      	lsls	r1, r1, #10
 800647a:	b289      	uxth	r1, r1
 800647c:	430a      	orrs	r2, r1
 800647e:	f8a3 240c 	strh.w	r2, [r3, #1036]	@ 0x40c
 8006482:	e57f      	b.n	8005f84 <USB_EPStartXfer+0x60>
 8006484:	78cb      	ldrb	r3, [r1, #3]
 8006486:	2b02      	cmp	r3, #2
 8006488:	d04d      	beq.n	8006526 <USB_EPStartXfer+0x602>
 800648a:	2b01      	cmp	r3, #1
 800648c:	f040 812f 	bne.w	80066ee <USB_EPStartXfer+0x7ca>
 8006490:	6989      	ldr	r1, [r1, #24]
 8006492:	6923      	ldr	r3, [r4, #16]
 8006494:	4299      	cmp	r1, r3
 8006496:	f240 80e6 	bls.w	8006666 <USB_EPStartXfer+0x742>
 800649a:	1ac9      	subs	r1, r1, r3
 800649c:	61a1      	str	r1, [r4, #24]
 800649e:	b9f2      	cbnz	r2, 80064de <USB_EPStartXfer+0x5ba>
 80064a0:	f8b5 2050 	ldrh.w	r2, [r5, #80]	@ 0x50
 80064a4:	b292      	uxth	r2, r2
 80064a6:	442a      	add	r2, r5
 80064a8:	7821      	ldrb	r1, [r4, #0]
 80064aa:	eb02 1201 	add.w	r2, r2, r1, lsl #4
 80064ae:	f8b2 1404 	ldrh.w	r1, [r2, #1028]	@ 0x404
 80064b2:	f3c1 0109 	ubfx	r1, r1, #0, #10
 80064b6:	f8a2 1404 	strh.w	r1, [r2, #1028]	@ 0x404
 80064ba:	2b3e      	cmp	r3, #62	@ 0x3e
 80064bc:	f240 80d7 	bls.w	800666e <USB_EPStartXfer+0x74a>
 80064c0:	0958      	lsrs	r0, r3, #5
 80064c2:	f013 0f1f 	tst.w	r3, #31
 80064c6:	d100      	bne.n	80064ca <USB_EPStartXfer+0x5a6>
 80064c8:	3801      	subs	r0, #1
 80064ca:	f8b2 1404 	ldrh.w	r1, [r2, #1028]	@ 0x404
 80064ce:	b289      	uxth	r1, r1
 80064d0:	0280      	lsls	r0, r0, #10
 80064d2:	b280      	uxth	r0, r0
 80064d4:	4301      	orrs	r1, r0
 80064d6:	f441 4100 	orr.w	r1, r1, #32768	@ 0x8000
 80064da:	f8a2 1404 	strh.w	r1, [r2, #1028]	@ 0x404
 80064de:	7862      	ldrb	r2, [r4, #1]
 80064e0:	2a00      	cmp	r2, #0
 80064e2:	f040 80f6 	bne.w	80066d2 <USB_EPStartXfer+0x7ae>
 80064e6:	f8b5 2050 	ldrh.w	r2, [r5, #80]	@ 0x50
 80064ea:	b292      	uxth	r2, r2
 80064ec:	442a      	add	r2, r5
 80064ee:	7821      	ldrb	r1, [r4, #0]
 80064f0:	eb02 1201 	add.w	r2, r2, r1, lsl #4
 80064f4:	f8b2 140c 	ldrh.w	r1, [r2, #1036]	@ 0x40c
 80064f8:	f3c1 0109 	ubfx	r1, r1, #0, #10
 80064fc:	f8a2 140c 	strh.w	r1, [r2, #1036]	@ 0x40c
 8006500:	2b3e      	cmp	r3, #62	@ 0x3e
 8006502:	f240 80cd 	bls.w	80066a0 <USB_EPStartXfer+0x77c>
 8006506:	0959      	lsrs	r1, r3, #5
 8006508:	f013 0f1f 	tst.w	r3, #31
 800650c:	d100      	bne.n	8006510 <USB_EPStartXfer+0x5ec>
 800650e:	3901      	subs	r1, #1
 8006510:	f8b2 340c 	ldrh.w	r3, [r2, #1036]	@ 0x40c
 8006514:	b29b      	uxth	r3, r3
 8006516:	0289      	lsls	r1, r1, #10
 8006518:	b289      	uxth	r1, r1
 800651a:	430b      	orrs	r3, r1
 800651c:	f443 4300 	orr.w	r3, r3, #32768	@ 0x8000
 8006520:	f8a2 340c 	strh.w	r3, [r2, #1036]	@ 0x40c
 8006524:	e52e      	b.n	8005f84 <USB_EPStartXfer+0x60>
 8006526:	b9f2      	cbnz	r2, 8006566 <USB_EPStartXfer+0x642>
 8006528:	f8b0 3050 	ldrh.w	r3, [r0, #80]	@ 0x50
 800652c:	b29b      	uxth	r3, r3
 800652e:	4403      	add	r3, r0
 8006530:	780a      	ldrb	r2, [r1, #0]
 8006532:	eb03 1302 	add.w	r3, r3, r2, lsl #4
 8006536:	f8b3 2404 	ldrh.w	r2, [r3, #1028]	@ 0x404
 800653a:	f3c2 0209 	ubfx	r2, r2, #0, #10
 800653e:	f8a3 2404 	strh.w	r2, [r3, #1028]	@ 0x404
 8006542:	690a      	ldr	r2, [r1, #16]
 8006544:	2a3e      	cmp	r2, #62	@ 0x3e
 8006546:	d931      	bls.n	80065ac <USB_EPStartXfer+0x688>
 8006548:	0951      	lsrs	r1, r2, #5
 800654a:	f012 0f1f 	tst.w	r2, #31
 800654e:	d100      	bne.n	8006552 <USB_EPStartXfer+0x62e>
 8006550:	3901      	subs	r1, #1
 8006552:	f8b3 2404 	ldrh.w	r2, [r3, #1028]	@ 0x404
 8006556:	b292      	uxth	r2, r2
 8006558:	0289      	lsls	r1, r1, #10
 800655a:	b289      	uxth	r1, r1
 800655c:	430a      	orrs	r2, r1
 800655e:	f442 4200 	orr.w	r2, r2, #32768	@ 0x8000
 8006562:	f8a3 2404 	strh.w	r2, [r3, #1028]	@ 0x404
 8006566:	7863      	ldrb	r3, [r4, #1]
 8006568:	2b00      	cmp	r3, #0
 800656a:	d151      	bne.n	8006610 <USB_EPStartXfer+0x6ec>
 800656c:	f8b5 3050 	ldrh.w	r3, [r5, #80]	@ 0x50
 8006570:	b29b      	uxth	r3, r3
 8006572:	442b      	add	r3, r5
 8006574:	7822      	ldrb	r2, [r4, #0]
 8006576:	eb03 1302 	add.w	r3, r3, r2, lsl #4
 800657a:	f8b3 240c 	ldrh.w	r2, [r3, #1036]	@ 0x40c
 800657e:	f3c2 0209 	ubfx	r2, r2, #0, #10
 8006582:	f8a3 240c 	strh.w	r2, [r3, #1036]	@ 0x40c
 8006586:	6922      	ldr	r2, [r4, #16]
 8006588:	2a3e      	cmp	r2, #62	@ 0x3e
 800658a:	d928      	bls.n	80065de <USB_EPStartXfer+0x6ba>
 800658c:	0951      	lsrs	r1, r2, #5
 800658e:	f012 0f1f 	tst.w	r2, #31
 8006592:	d100      	bne.n	8006596 <USB_EPStartXfer+0x672>
 8006594:	3901      	subs	r1, #1
 8006596:	f8b3 240c 	ldrh.w	r2, [r3, #1036]	@ 0x40c
 800659a:	b292      	uxth	r2, r2
 800659c:	0289      	lsls	r1, r1, #10
 800659e:	b289      	uxth	r1, r1
 80065a0:	430a      	orrs	r2, r1
 80065a2:	f442 4200 	orr.w	r2, r2, #32768	@ 0x8000
 80065a6:	f8a3 240c 	strh.w	r2, [r3, #1036]	@ 0x40c
 80065aa:	e033      	b.n	8006614 <USB_EPStartXfer+0x6f0>
 80065ac:	b94a      	cbnz	r2, 80065c2 <USB_EPStartXfer+0x69e>
 80065ae:	f8b3 2404 	ldrh.w	r2, [r3, #1028]	@ 0x404
 80065b2:	ea6f 4242 	mvn.w	r2, r2, lsl #17
 80065b6:	ea6f 4252 	mvn.w	r2, r2, lsr #17
 80065ba:	b292      	uxth	r2, r2
 80065bc:	f8a3 2404 	strh.w	r2, [r3, #1028]	@ 0x404
 80065c0:	e7d1      	b.n	8006566 <USB_EPStartXfer+0x642>
 80065c2:	0851      	lsrs	r1, r2, #1
 80065c4:	f012 0f01 	tst.w	r2, #1
 80065c8:	d000      	beq.n	80065cc <USB_EPStartXfer+0x6a8>
 80065ca:	3101      	adds	r1, #1
 80065cc:	f8b3 2404 	ldrh.w	r2, [r3, #1028]	@ 0x404
 80065d0:	b290      	uxth	r0, r2
 80065d2:	028a      	lsls	r2, r1, #10
 80065d4:	b292      	uxth	r2, r2
 80065d6:	4302      	orrs	r2, r0
 80065d8:	f8a3 2404 	strh.w	r2, [r3, #1028]	@ 0x404
 80065dc:	e7c3      	b.n	8006566 <USB_EPStartXfer+0x642>
 80065de:	b94a      	cbnz	r2, 80065f4 <USB_EPStartXfer+0x6d0>
 80065e0:	f8b3 240c 	ldrh.w	r2, [r3, #1036]	@ 0x40c
 80065e4:	ea6f 4242 	mvn.w	r2, r2, lsl #17
 80065e8:	ea6f 4252 	mvn.w	r2, r2, lsr #17
 80065ec:	b292      	uxth	r2, r2
 80065ee:	f8a3 240c 	strh.w	r2, [r3, #1036]	@ 0x40c
 80065f2:	e00f      	b.n	8006614 <USB_EPStartXfer+0x6f0>
 80065f4:	0851      	lsrs	r1, r2, #1
 80065f6:	f012 0f01 	tst.w	r2, #1
 80065fa:	d000      	beq.n	80065fe <USB_EPStartXfer+0x6da>
 80065fc:	3101      	adds	r1, #1
 80065fe:	f8b3 240c 	ldrh.w	r2, [r3, #1036]	@ 0x40c
 8006602:	b290      	uxth	r0, r2
 8006604:	028a      	lsls	r2, r1, #10
 8006606:	b292      	uxth	r2, r2
 8006608:	4302      	orrs	r2, r0
 800660a:	f8a3 240c 	strh.w	r2, [r3, #1036]	@ 0x40c
 800660e:	e001      	b.n	8006614 <USB_EPStartXfer+0x6f0>
 8006610:	2b01      	cmp	r3, #1
 8006612:	d01d      	beq.n	8006650 <USB_EPStartXfer+0x72c>
 8006614:	69e3      	ldr	r3, [r4, #28]
 8006616:	2b00      	cmp	r3, #0
 8006618:	f43f acb4 	beq.w	8005f84 <USB_EPStartXfer+0x60>
 800661c:	7822      	ldrb	r2, [r4, #0]
 800661e:	f835 1022 	ldrh.w	r1, [r5, r2, lsl #2]
 8006622:	f244 0340 	movw	r3, #16448	@ 0x4040
 8006626:	ea03 0001 	and.w	r0, r3, r1
 800662a:	438b      	bics	r3, r1
 800662c:	d002      	beq.n	8006634 <USB_EPStartXfer+0x710>
 800662e:	2800      	cmp	r0, #0
 8006630:	f47f aca8 	bne.w	8005f84 <USB_EPStartXfer+0x60>
 8006634:	f835 3022 	ldrh.w	r3, [r5, r2, lsl #2]
 8006638:	b29b      	uxth	r3, r3
 800663a:	f423 43e0 	bic.w	r3, r3, #28672	@ 0x7000
 800663e:	f023 0370 	bic.w	r3, r3, #112	@ 0x70
 8006642:	f443 4300 	orr.w	r3, r3, #32768	@ 0x8000
 8006646:	f043 03c0 	orr.w	r3, r3, #192	@ 0xc0
 800664a:	f825 3022 	strh.w	r3, [r5, r2, lsl #2]
 800664e:	e499      	b.n	8005f84 <USB_EPStartXfer+0x60>
 8006650:	f8b5 3050 	ldrh.w	r3, [r5, #80]	@ 0x50
 8006654:	b29b      	uxth	r3, r3
 8006656:	442b      	add	r3, r5
 8006658:	7822      	ldrb	r2, [r4, #0]
 800665a:	eb03 1302 	add.w	r3, r3, r2, lsl #4
 800665e:	8a22      	ldrh	r2, [r4, #16]
 8006660:	f8a3 240c 	strh.w	r2, [r3, #1036]	@ 0x40c
 8006664:	e7d6      	b.n	8006614 <USB_EPStartXfer+0x6f0>
 8006666:	2300      	movs	r3, #0
 8006668:	61a3      	str	r3, [r4, #24]
 800666a:	460b      	mov	r3, r1
 800666c:	e717      	b.n	800649e <USB_EPStartXfer+0x57a>
 800666e:	b94b      	cbnz	r3, 8006684 <USB_EPStartXfer+0x760>
 8006670:	f8b2 1404 	ldrh.w	r1, [r2, #1028]	@ 0x404
 8006674:	ea6f 4141 	mvn.w	r1, r1, lsl #17
 8006678:	ea6f 4151 	mvn.w	r1, r1, lsr #17
 800667c:	b289      	uxth	r1, r1
 800667e:	f8a2 1404 	strh.w	r1, [r2, #1028]	@ 0x404
 8006682:	e72c      	b.n	80064de <USB_EPStartXfer+0x5ba>
 8006684:	0859      	lsrs	r1, r3, #1
 8006686:	f013 0f01 	tst.w	r3, #1
 800668a:	d000      	beq.n	800668e <USB_EPStartXfer+0x76a>
 800668c:	3101      	adds	r1, #1
 800668e:	f8b2 0404 	ldrh.w	r0, [r2, #1028]	@ 0x404
 8006692:	b280      	uxth	r0, r0
 8006694:	0289      	lsls	r1, r1, #10
 8006696:	b289      	uxth	r1, r1
 8006698:	4301      	orrs	r1, r0
 800669a:	f8a2 1404 	strh.w	r1, [r2, #1028]	@ 0x404
 800669e:	e71e      	b.n	80064de <USB_EPStartXfer+0x5ba>
 80066a0:	b94b      	cbnz	r3, 80066b6 <USB_EPStartXfer+0x792>
 80066a2:	f8b2 340c 	ldrh.w	r3, [r2, #1036]	@ 0x40c
 80066a6:	ea6f 4343 	mvn.w	r3, r3, lsl #17
 80066aa:	ea6f 4353 	mvn.w	r3, r3, lsr #17
 80066ae:	b29b      	uxth	r3, r3
 80066b0:	f8a2 340c 	strh.w	r3, [r2, #1036]	@ 0x40c
 80066b4:	e466      	b.n	8005f84 <USB_EPStartXfer+0x60>
 80066b6:	0859      	lsrs	r1, r3, #1
 80066b8:	f013 0f01 	tst.w	r3, #1
 80066bc:	d000      	beq.n	80066c0 <USB_EPStartXfer+0x79c>
 80066be:	3101      	adds	r1, #1
 80066c0:	f8b2 340c 	ldrh.w	r3, [r2, #1036]	@ 0x40c
 80066c4:	b298      	uxth	r0, r3
 80066c6:	028b      	lsls	r3, r1, #10
 80066c8:	b29b      	uxth	r3, r3
 80066ca:	4303      	orrs	r3, r0
 80066cc:	f8a2 340c 	strh.w	r3, [r2, #1036]	@ 0x40c
 80066d0:	e458      	b.n	8005f84 <USB_EPStartXfer+0x60>
 80066d2:	2a01      	cmp	r2, #1
 80066d4:	f47f ac56 	bne.w	8005f84 <USB_EPStartXfer+0x60>
 80066d8:	f8b5 2050 	ldrh.w	r2, [r5, #80]	@ 0x50
 80066dc:	b292      	uxth	r2, r2
 80066de:	442a      	add	r2, r5
 80066e0:	7821      	ldrb	r1, [r4, #0]
 80066e2:	eb02 1201 	add.w	r2, r2, r1, lsl #4
 80066e6:	b29b      	uxth	r3, r3
 80066e8:	f8a2 340c 	strh.w	r3, [r2, #1036]	@ 0x40c
 80066ec:	e44a      	b.n	8005f84 <USB_EPStartXfer+0x60>
 80066ee:	2001      	movs	r0, #1
 80066f0:	e459      	b.n	8005fa6 <USB_EPStartXfer+0x82>

080066f2 <USB_ReadPMA>:
 80066f2:	b410      	push	{r4}
 80066f4:	085c      	lsrs	r4, r3, #1
 80066f6:	eb00 0042 	add.w	r0, r0, r2, lsl #1
 80066fa:	f500 6080 	add.w	r0, r0, #1024	@ 0x400
 80066fe:	e007      	b.n	8006710 <USB_ReadPMA+0x1e>
 8006700:	f830 2b04 	ldrh.w	r2, [r0], #4
 8006704:	700a      	strb	r2, [r1, #0]
 8006706:	f3c2 2207 	ubfx	r2, r2, #8, #8
 800670a:	704a      	strb	r2, [r1, #1]
 800670c:	3102      	adds	r1, #2
 800670e:	3c01      	subs	r4, #1
 8006710:	2c00      	cmp	r4, #0
 8006712:	d1f5      	bne.n	8006700 <USB_ReadPMA+0xe>
 8006714:	f013 0f01 	tst.w	r3, #1
 8006718:	d001      	beq.n	800671e <USB_ReadPMA+0x2c>
 800671a:	8803      	ldrh	r3, [r0, #0]
 800671c:	700b      	strb	r3, [r1, #0]
 800671e:	bc10      	pop	{r4}
 8006720:	4770      	bx	lr
	...

08006724 <_sbrk>:
 8006724:	b510      	push	{r4, lr}
 8006726:	4603      	mov	r3, r0
 8006728:	4a0c      	ldr	r2, [pc, #48]	@ (800675c <_sbrk+0x38>)
 800672a:	490d      	ldr	r1, [pc, #52]	@ (8006760 <_sbrk+0x3c>)
 800672c:	480d      	ldr	r0, [pc, #52]	@ (8006764 <_sbrk+0x40>)
 800672e:	6800      	ldr	r0, [r0, #0]
 8006730:	b140      	cbz	r0, 8006744 <_sbrk+0x20>
 8006732:	480c      	ldr	r0, [pc, #48]	@ (8006764 <_sbrk+0x40>)
 8006734:	6800      	ldr	r0, [r0, #0]
 8006736:	4403      	add	r3, r0
 8006738:	1a52      	subs	r2, r2, r1
 800673a:	4293      	cmp	r3, r2
 800673c:	d806      	bhi.n	800674c <_sbrk+0x28>
 800673e:	4a09      	ldr	r2, [pc, #36]	@ (8006764 <_sbrk+0x40>)
 8006740:	6013      	str	r3, [r2, #0]
 8006742:	bd10      	pop	{r4, pc}
 8006744:	4807      	ldr	r0, [pc, #28]	@ (8006764 <_sbrk+0x40>)
 8006746:	4c08      	ldr	r4, [pc, #32]	@ (8006768 <_sbrk+0x44>)
 8006748:	6004      	str	r4, [r0, #0]
 800674a:	e7f2      	b.n	8006732 <_sbrk+0xe>
 800674c:	f7f9 fd24 	bl	8000198 <__errno>
 8006750:	230c      	movs	r3, #12
 8006752:	6003      	str	r3, [r0, #0]
 8006754:	f04f 30ff 	mov.w	r0, #4294967295	@ 0xffffffff
 8006758:	e7f3      	b.n	8006742 <_sbrk+0x1e>
 800675a:	bf00      	nop
 800675c:	20005000 	.word	0x20005000
 8006760:	00000400 	.word	0x00000400
 8006764:	20000688 	.word	0x20000688
 8006768:	20001970 	.word	0x20001970

0800676c <SystemInit>:
 800676c:	4770      	bx	lr
	...

08006770 <MX_TIM2_Init>:
 8006770:	b500      	push	{lr}
 8006772:	b087      	sub	sp, #28
 8006774:	2300      	movs	r3, #0
 8006776:	9302      	str	r3, [sp, #8]
 8006778:	9303      	str	r3, [sp, #12]
 800677a:	9304      	str	r3, [sp, #16]
 800677c:	9305      	str	r3, [sp, #20]
 800677e:	9300      	str	r3, [sp, #0]
 8006780:	9301      	str	r3, [sp, #4]
 8006782:	4816      	ldr	r0, [pc, #88]	@ (80067dc <MX_TIM2_Init+0x6c>)
 8006784:	f04f 4280 	mov.w	r2, #1073741824	@ 0x40000000
 8006788:	6002      	str	r2, [r0, #0]
 800678a:	f240 22cf 	movw	r2, #719	@ 0x2cf
 800678e:	6042      	str	r2, [r0, #4]
 8006790:	6083      	str	r3, [r0, #8]
 8006792:	f241 3288 	movw	r2, #5000	@ 0x1388
 8006796:	60c2      	str	r2, [r0, #12]
 8006798:	6103      	str	r3, [r0, #16]
 800679a:	6183      	str	r3, [r0, #24]
 800679c:	f7fe fd12 	bl	80051c4 <HAL_TIM_Base_Init>
 80067a0:	b990      	cbnz	r0, 80067c8 <MX_TIM2_Init+0x58>
 80067a2:	f44f 5380 	mov.w	r3, #4096	@ 0x1000
 80067a6:	9302      	str	r3, [sp, #8]
 80067a8:	a902      	add	r1, sp, #8
 80067aa:	480c      	ldr	r0, [pc, #48]	@ (80067dc <MX_TIM2_Init+0x6c>)
 80067ac:	f7fe fe0a 	bl	80053c4 <HAL_TIM_ConfigClockSource>
 80067b0:	b968      	cbnz	r0, 80067ce <MX_TIM2_Init+0x5e>
 80067b2:	2300      	movs	r3, #0
 80067b4:	9300      	str	r3, [sp, #0]
 80067b6:	9301      	str	r3, [sp, #4]
 80067b8:	4669      	mov	r1, sp
 80067ba:	4808      	ldr	r0, [pc, #32]	@ (80067dc <MX_TIM2_Init+0x6c>)
 80067bc:	f7fe ff78 	bl	80056b0 <HAL_TIMEx_MasterConfigSynchronization>
 80067c0:	b940      	cbnz	r0, 80067d4 <MX_TIM2_Init+0x64>
 80067c2:	b007      	add	sp, #28
 80067c4:	f85d fb04 	ldr.w	pc, [sp], #4
 80067c8:	f7fb fcb0 	bl	800212c <Error_Handler>
 80067cc:	e7e9      	b.n	80067a2 <MX_TIM2_Init+0x32>
 80067ce:	f7fb fcad 	bl	800212c <Error_Handler>
 80067d2:	e7ee      	b.n	80067b2 <MX_TIM2_Init+0x42>
 80067d4:	f7fb fcaa 	bl	800212c <Error_Handler>
 80067d8:	e7f3      	b.n	80067c2 <MX_TIM2_Init+0x52>
 80067da:	bf00      	nop
 80067dc:	2000071c 	.word	0x2000071c

080067e0 <MX_TIM3_Init>:
 80067e0:	b500      	push	{lr}
 80067e2:	b087      	sub	sp, #28
 80067e4:	2300      	movs	r3, #0
 80067e6:	9302      	str	r3, [sp, #8]
 80067e8:	9303      	str	r3, [sp, #12]
 80067ea:	9304      	str	r3, [sp, #16]
 80067ec:	9305      	str	r3, [sp, #20]
 80067ee:	9300      	str	r3, [sp, #0]
 80067f0:	9301      	str	r3, [sp, #4]
 80067f2:	4815      	ldr	r0, [pc, #84]	@ (8006848 <MX_TIM3_Init+0x68>)
 80067f4:	4a15      	ldr	r2, [pc, #84]	@ (800684c <MX_TIM3_Init+0x6c>)
 80067f6:	6002      	str	r2, [r0, #0]
 80067f8:	22b3      	movs	r2, #179	@ 0xb3
 80067fa:	6042      	str	r2, [r0, #4]
 80067fc:	6083      	str	r3, [r0, #8]
 80067fe:	f44f 72fa 	mov.w	r2, #500	@ 0x1f4
 8006802:	60c2      	str	r2, [r0, #12]
 8006804:	6103      	str	r3, [r0, #16]
 8006806:	6183      	str	r3, [r0, #24]
 8006808:	f7fe fcdc 	bl	80051c4 <HAL_TIM_Base_Init>
 800680c:	b990      	cbnz	r0, 8006834 <MX_TIM3_Init+0x54>
 800680e:	f44f 5380 	mov.w	r3, #4096	@ 0x1000
 8006812:	9302      	str	r3, [sp, #8]
 8006814:	a902      	add	r1, sp, #8
 8006816:	480c      	ldr	r0, [pc, #48]	@ (8006848 <MX_TIM3_Init+0x68>)
 8006818:	f7fe fdd4 	bl	80053c4 <HAL_TIM_ConfigClockSource>
 800681c:	b968      	cbnz	r0, 800683a <MX_TIM3_Init+0x5a>
 800681e:	2300      	movs	r3, #0
 8006820:	9300      	str	r3, [sp, #0]
 8006822:	9301      	str	r3, [sp, #4]
 8006824:	4669      	mov	r1, sp
 8006826:	4808      	ldr	r0, [pc, #32]	@ (8006848 <MX_TIM3_Init+0x68>)
 8006828:	f7fe ff42 	bl	80056b0 <HAL_TIMEx_MasterConfigSynchronization>
 800682c:	b940      	cbnz	r0, 8006840 <MX_TIM3_Init+0x60>
 800682e:	b007      	add	sp, #28
 8006830:	f85d fb04 	ldr.w	pc, [sp], #4
 8006834:	f7fb fc7a 	bl	800212c <Error_Handler>
 8006838:	e7e9      	b.n	800680e <MX_TIM3_Init+0x2e>
 800683a:	f7fb fc77 	bl	800212c <Error_Handler>
 800683e:	e7ee      	b.n	800681e <MX_TIM3_Init+0x3e>
 8006840:	f7fb fc74 	bl	800212c <Error_Handler>
 8006844:	e7f3      	b.n	800682e <MX_TIM3_Init+0x4e>
 8006846:	bf00      	nop
 8006848:	200006d4 	.word	0x200006d4
 800684c:	40000400 	.word	0x40000400

08006850 <MX_TIM4_Init>:
 8006850:	b500      	push	{lr}
 8006852:	b087      	sub	sp, #28
 8006854:	2300      	movs	r3, #0
 8006856:	9302      	str	r3, [sp, #8]
 8006858:	9303      	str	r3, [sp, #12]
 800685a:	9304      	str	r3, [sp, #16]
 800685c:	9305      	str	r3, [sp, #20]
 800685e:	9300      	str	r3, [sp, #0]
 8006860:	9301      	str	r3, [sp, #4]
 8006862:	4815      	ldr	r0, [pc, #84]	@ (80068b8 <MX_TIM4_Init+0x68>)
 8006864:	4a15      	ldr	r2, [pc, #84]	@ (80068bc <MX_TIM4_Init+0x6c>)
 8006866:	6002      	str	r2, [r0, #0]
 8006868:	f240 1267 	movw	r2, #359	@ 0x167
 800686c:	6042      	str	r2, [r0, #4]
 800686e:	6083      	str	r3, [r0, #8]
 8006870:	f644 621f 	movw	r2, #19999	@ 0x4e1f
 8006874:	60c2      	str	r2, [r0, #12]
 8006876:	6103      	str	r3, [r0, #16]
 8006878:	6183      	str	r3, [r0, #24]
 800687a:	f7fe fca3 	bl	80051c4 <HAL_TIM_Base_Init>
 800687e:	b990      	cbnz	r0, 80068a6 <MX_TIM4_Init+0x56>
 8006880:	f44f 5380 	mov.w	r3, #4096	@ 0x1000
 8006884:	9302      	str	r3, [sp, #8]
 8006886:	a902      	add	r1, sp, #8
 8006888:	480b      	ldr	r0, [pc, #44]	@ (80068b8 <MX_TIM4_Init+0x68>)
 800688a:	f7fe fd9b 	bl	80053c4 <HAL_TIM_ConfigClockSource>
 800688e:	b968      	cbnz	r0, 80068ac <MX_TIM4_Init+0x5c>
 8006890:	2300      	movs	r3, #0
 8006892:	9300      	str	r3, [sp, #0]
 8006894:	9301      	str	r3, [sp, #4]
 8006896:	4669      	mov	r1, sp
 8006898:	4807      	ldr	r0, [pc, #28]	@ (80068b8 <MX_TIM4_Init+0x68>)
 800689a:	f7fe ff09 	bl	80056b0 <HAL_TIMEx_MasterConfigSynchronization>
 800689e:	b940      	cbnz	r0, 80068b2 <MX_TIM4_Init+0x62>
 80068a0:	b007      	add	sp, #28
 80068a2:	f85d fb04 	ldr.w	pc, [sp], #4
 80068a6:	f7fb fc41 	bl	800212c <Error_Handler>
 80068aa:	e7e9      	b.n	8006880 <MX_TIM4_Init+0x30>
 80068ac:	f7fb fc3e 	bl	800212c <Error_Handler>
 80068b0:	e7ee      	b.n	8006890 <MX_TIM4_Init+0x40>
 80068b2:	f7fb fc3b 	bl	800212c <Error_Handler>
 80068b6:	e7f3      	b.n	80068a0 <MX_TIM4_Init+0x50>
 80068b8:	2000068c 	.word	0x2000068c
 80068bc:	40000800 	.word	0x40000800

080068c0 <HAL_TIM_Base_MspInit>:
 80068c0:	b500      	push	{lr}
 80068c2:	b08b      	sub	sp, #44	@ 0x2c
 80068c4:	2300      	movs	r3, #0
 80068c6:	9306      	str	r3, [sp, #24]
 80068c8:	9307      	str	r3, [sp, #28]
 80068ca:	9308      	str	r3, [sp, #32]
 80068cc:	9309      	str	r3, [sp, #36]	@ 0x24
 80068ce:	6803      	ldr	r3, [r0, #0]
 80068d0:	4a31      	ldr	r2, [pc, #196]	@ (8006998 <HAL_TIM_Base_MspInit+0xd8>)
 80068d2:	4293      	cmp	r3, r2
 80068d4:	d00b      	beq.n	80068ee <HAL_TIM_Base_MspInit+0x2e>
 80068d6:	f1b3 4f80 	cmp.w	r3, #1073741824	@ 0x40000000
 80068da:	d023      	beq.n	8006924 <HAL_TIM_Base_MspInit+0x64>
 80068dc:	4a2f      	ldr	r2, [pc, #188]	@ (800699c <HAL_TIM_Base_MspInit+0xdc>)
 80068de:	4293      	cmp	r3, r2
 80068e0:	d034      	beq.n	800694c <HAL_TIM_Base_MspInit+0x8c>
 80068e2:	4a2f      	ldr	r2, [pc, #188]	@ (80069a0 <HAL_TIM_Base_MspInit+0xe0>)
 80068e4:	4293      	cmp	r3, r2
 80068e6:	d044      	beq.n	8006972 <HAL_TIM_Base_MspInit+0xb2>
 80068e8:	b00b      	add	sp, #44	@ 0x2c
 80068ea:	f85d fb04 	ldr.w	pc, [sp], #4
 80068ee:	4b2d      	ldr	r3, [pc, #180]	@ (80069a4 <HAL_TIM_Base_MspInit+0xe4>)
 80068f0:	699a      	ldr	r2, [r3, #24]
 80068f2:	f442 6200 	orr.w	r2, r2, #2048	@ 0x800
 80068f6:	619a      	str	r2, [r3, #24]
 80068f8:	699a      	ldr	r2, [r3, #24]
 80068fa:	f402 6200 	and.w	r2, r2, #2048	@ 0x800
 80068fe:	9201      	str	r2, [sp, #4]
 8006900:	9a01      	ldr	r2, [sp, #4]
 8006902:	699a      	ldr	r2, [r3, #24]
 8006904:	f042 0208 	orr.w	r2, r2, #8
 8006908:	619a      	str	r2, [r3, #24]
 800690a:	699b      	ldr	r3, [r3, #24]
 800690c:	f003 0308 	and.w	r3, r3, #8
 8006910:	9302      	str	r3, [sp, #8]
 8006912:	9b02      	ldr	r3, [sp, #8]
 8006914:	f44f 5380 	mov.w	r3, #4096	@ 0x1000
 8006918:	9306      	str	r3, [sp, #24]
 800691a:	a906      	add	r1, sp, #24
 800691c:	4822      	ldr	r0, [pc, #136]	@ (80069a8 <HAL_TIM_Base_MspInit+0xe8>)
 800691e:	f7fc fd3d 	bl	800339c <HAL_GPIO_Init>
 8006922:	e7e1      	b.n	80068e8 <HAL_TIM_Base_MspInit+0x28>
 8006924:	f503 3304 	add.w	r3, r3, #135168	@ 0x21000
 8006928:	69da      	ldr	r2, [r3, #28]
 800692a:	f042 0201 	orr.w	r2, r2, #1
 800692e:	61da      	str	r2, [r3, #28]
 8006930:	69db      	ldr	r3, [r3, #28]
 8006932:	f003 0301 	and.w	r3, r3, #1
 8006936:	9303      	str	r3, [sp, #12]
 8006938:	9b03      	ldr	r3, [sp, #12]
 800693a:	2200      	movs	r2, #0
 800693c:	4611      	mov	r1, r2
 800693e:	201c      	movs	r0, #28
 8006940:	f7fc fbd2 	bl	80030e8 <HAL_NVIC_SetPriority>
 8006944:	201c      	movs	r0, #28
 8006946:	f7fc fbdf 	bl	8003108 <HAL_NVIC_EnableIRQ>
 800694a:	e7cd      	b.n	80068e8 <HAL_TIM_Base_MspInit+0x28>
 800694c:	4b15      	ldr	r3, [pc, #84]	@ (80069a4 <HAL_TIM_Base_MspInit+0xe4>)
 800694e:	69da      	ldr	r2, [r3, #28]
 8006950:	f042 0202 	orr.w	r2, r2, #2
 8006954:	61da      	str	r2, [r3, #28]
 8006956:	69db      	ldr	r3, [r3, #28]
 8006958:	f003 0302 	and.w	r3, r3, #2
 800695c:	9304      	str	r3, [sp, #16]
 800695e:	9b04      	ldr	r3, [sp, #16]
 8006960:	2200      	movs	r2, #0
 8006962:	4611      	mov	r1, r2
 8006964:	201d      	movs	r0, #29
 8006966:	f7fc fbbf 	bl	80030e8 <HAL_NVIC_SetPriority>
 800696a:	201d      	movs	r0, #29
 800696c:	f7fc fbcc 	bl	8003108 <HAL_NVIC_EnableIRQ>
 8006970:	e7ba      	b.n	80068e8 <HAL_TIM_Base_MspInit+0x28>
 8006972:	4b0c      	ldr	r3, [pc, #48]	@ (80069a4 <HAL_TIM_Base_MspInit+0xe4>)
 8006974:	69da      	ldr	r2, [r3, #28]
 8006976:	f042 0204 	orr.w	r2, r2, #4
 800697a:	61da      	str	r2, [r3, #28]
 800697c:	69db      	ldr	r3, [r3, #28]
 800697e:	f003 0304 	and.w	r3, r3, #4
 8006982:	9305      	str	r3, [sp, #20]
 8006984:	9b05      	ldr	r3, [sp, #20]
 8006986:	2200      	movs	r2, #0
 8006988:	4611      	mov	r1, r2
 800698a:	201e      	movs	r0, #30
 800698c:	f7fc fbac 	bl	80030e8 <HAL_NVIC_SetPriority>
 8006990:	201e      	movs	r0, #30
 8006992:	f7fc fbb9 	bl	8003108 <HAL_NVIC_EnableIRQ>
 8006996:	e7a7      	b.n	80068e8 <HAL_TIM_Base_MspInit+0x28>
 8006998:	40012c00 	.word	0x40012c00
 800699c:	40000400 	.word	0x40000400
 80069a0:	40000800 	.word	0x40000800
 80069a4:	40021000 	.word	0x40021000
 80069a8:	40010c00 	.word	0x40010c00

080069ac <HAL_TIM_MspPostInit>:
 80069ac:	b510      	push	{r4, lr}
 80069ae:	b086      	sub	sp, #24
 80069b0:	2300      	movs	r3, #0
 80069b2:	9302      	str	r3, [sp, #8]
 80069b4:	9303      	str	r3, [sp, #12]
 80069b6:	9304      	str	r3, [sp, #16]
 80069b8:	9305      	str	r3, [sp, #20]
 80069ba:	6802      	ldr	r2, [r0, #0]
 80069bc:	4b16      	ldr	r3, [pc, #88]	@ (8006a18 <HAL_TIM_MspPostInit+0x6c>)
 80069be:	429a      	cmp	r2, r3
 80069c0:	d001      	beq.n	80069c6 <HAL_TIM_MspPostInit+0x1a>
 80069c2:	b006      	add	sp, #24
 80069c4:	bd10      	pop	{r4, pc}
 80069c6:	f503 4364 	add.w	r3, r3, #58368	@ 0xe400
 80069ca:	699a      	ldr	r2, [r3, #24]
 80069cc:	f042 0208 	orr.w	r2, r2, #8
 80069d0:	619a      	str	r2, [r3, #24]
 80069d2:	699a      	ldr	r2, [r3, #24]
 80069d4:	f002 0208 	and.w	r2, r2, #8
 80069d8:	9200      	str	r2, [sp, #0]
 80069da:	9a00      	ldr	r2, [sp, #0]
 80069dc:	699a      	ldr	r2, [r3, #24]
 80069de:	f042 0204 	orr.w	r2, r2, #4
 80069e2:	619a      	str	r2, [r3, #24]
 80069e4:	699b      	ldr	r3, [r3, #24]
 80069e6:	f003 0304 	and.w	r3, r3, #4
 80069ea:	9301      	str	r3, [sp, #4]
 80069ec:	9b01      	ldr	r3, [sp, #4]
 80069ee:	f44f 4360 	mov.w	r3, #57344	@ 0xe000
 80069f2:	9302      	str	r3, [sp, #8]
 80069f4:	2402      	movs	r4, #2
 80069f6:	9403      	str	r4, [sp, #12]
 80069f8:	9405      	str	r4, [sp, #20]
 80069fa:	a902      	add	r1, sp, #8
 80069fc:	4807      	ldr	r0, [pc, #28]	@ (8006a1c <HAL_TIM_MspPostInit+0x70>)
 80069fe:	f7fc fccd 	bl	800339c <HAL_GPIO_Init>
 8006a02:	f44f 63e0 	mov.w	r3, #1792	@ 0x700
 8006a06:	9302      	str	r3, [sp, #8]
 8006a08:	9403      	str	r4, [sp, #12]
 8006a0a:	9405      	str	r4, [sp, #20]
 8006a0c:	a902      	add	r1, sp, #8
 8006a0e:	4804      	ldr	r0, [pc, #16]	@ (8006a20 <HAL_TIM_MspPostInit+0x74>)
 8006a10:	f7fc fcc4 	bl	800339c <HAL_GPIO_Init>
 8006a14:	e7d5      	b.n	80069c2 <HAL_TIM_MspPostInit+0x16>
 8006a16:	bf00      	nop
 8006a18:	40012c00 	.word	0x40012c00
 8006a1c:	40010c00 	.word	0x40010c00
 8006a20:	40010800 	.word	0x40010800

08006a24 <MX_TIM1_Init>:
 8006a24:	b510      	push	{r4, lr}
 8006a26:	b096      	sub	sp, #88	@ 0x58
 8006a28:	2400      	movs	r4, #0
 8006a2a:	9412      	str	r4, [sp, #72]	@ 0x48
 8006a2c:	9413      	str	r4, [sp, #76]	@ 0x4c
 8006a2e:	9414      	str	r4, [sp, #80]	@ 0x50
 8006a30:	9415      	str	r4, [sp, #84]	@ 0x54
 8006a32:	9410      	str	r4, [sp, #64]	@ 0x40
 8006a34:	9411      	str	r4, [sp, #68]	@ 0x44
 8006a36:	9409      	str	r4, [sp, #36]	@ 0x24
 8006a38:	940a      	str	r4, [sp, #40]	@ 0x28
 8006a3a:	940b      	str	r4, [sp, #44]	@ 0x2c
 8006a3c:	940c      	str	r4, [sp, #48]	@ 0x30
 8006a3e:	940d      	str	r4, [sp, #52]	@ 0x34
 8006a40:	940e      	str	r4, [sp, #56]	@ 0x38
 8006a42:	940f      	str	r4, [sp, #60]	@ 0x3c
 8006a44:	2220      	movs	r2, #32
 8006a46:	4621      	mov	r1, r4
 8006a48:	a801      	add	r0, sp, #4
 8006a4a:	f7f9 fbd3 	bl	80001f4 <memset>
 8006a4e:	4838      	ldr	r0, [pc, #224]	@ (8006b30 <MX_TIM1_Init+0x10c>)
 8006a50:	4b38      	ldr	r3, [pc, #224]	@ (8006b34 <MX_TIM1_Init+0x110>)
 8006a52:	6003      	str	r3, [r0, #0]
 8006a54:	2303      	movs	r3, #3
 8006a56:	6043      	str	r3, [r0, #4]
 8006a58:	6084      	str	r4, [r0, #8]
 8006a5a:	f44f 6392 	mov.w	r3, #1168	@ 0x490
 8006a5e:	60c3      	str	r3, [r0, #12]
 8006a60:	6104      	str	r4, [r0, #16]
 8006a62:	6144      	str	r4, [r0, #20]
 8006a64:	6184      	str	r4, [r0, #24]
 8006a66:	f7fe fbad 	bl	80051c4 <HAL_TIM_Base_Init>
 8006a6a:	2800      	cmp	r0, #0
 8006a6c:	d147      	bne.n	8006afe <MX_TIM1_Init+0xda>
 8006a6e:	f44f 5380 	mov.w	r3, #4096	@ 0x1000
 8006a72:	9312      	str	r3, [sp, #72]	@ 0x48
 8006a74:	a912      	add	r1, sp, #72	@ 0x48
 8006a76:	482e      	ldr	r0, [pc, #184]	@ (8006b30 <MX_TIM1_Init+0x10c>)
 8006a78:	f7fe fca4 	bl	80053c4 <HAL_TIM_ConfigClockSource>
 8006a7c:	2800      	cmp	r0, #0
 8006a7e:	d141      	bne.n	8006b04 <MX_TIM1_Init+0xe0>
 8006a80:	482b      	ldr	r0, [pc, #172]	@ (8006b30 <MX_TIM1_Init+0x10c>)
 8006a82:	f7fe fbcb 	bl	800521c <HAL_TIM_PWM_Init>
 8006a86:	2800      	cmp	r0, #0
 8006a88:	d13f      	bne.n	8006b0a <MX_TIM1_Init+0xe6>
 8006a8a:	2300      	movs	r3, #0
 8006a8c:	9310      	str	r3, [sp, #64]	@ 0x40
 8006a8e:	9311      	str	r3, [sp, #68]	@ 0x44
 8006a90:	a910      	add	r1, sp, #64	@ 0x40
 8006a92:	4827      	ldr	r0, [pc, #156]	@ (8006b30 <MX_TIM1_Init+0x10c>)
 8006a94:	f7fe fe0c 	bl	80056b0 <HAL_TIMEx_MasterConfigSynchronization>
 8006a98:	2800      	cmp	r0, #0
 8006a9a:	d139      	bne.n	8006b10 <MX_TIM1_Init+0xec>
 8006a9c:	2360      	movs	r3, #96	@ 0x60
 8006a9e:	9309      	str	r3, [sp, #36]	@ 0x24
 8006aa0:	2200      	movs	r2, #0
 8006aa2:	920a      	str	r2, [sp, #40]	@ 0x28
 8006aa4:	920b      	str	r2, [sp, #44]	@ 0x2c
 8006aa6:	920c      	str	r2, [sp, #48]	@ 0x30
 8006aa8:	920d      	str	r2, [sp, #52]	@ 0x34
 8006aaa:	920e      	str	r2, [sp, #56]	@ 0x38
 8006aac:	920f      	str	r2, [sp, #60]	@ 0x3c
 8006aae:	a909      	add	r1, sp, #36	@ 0x24
 8006ab0:	481f      	ldr	r0, [pc, #124]	@ (8006b30 <MX_TIM1_Init+0x10c>)
 8006ab2:	f7fe fc0d 	bl	80052d0 <HAL_TIM_PWM_ConfigChannel>
 8006ab6:	bb70      	cbnz	r0, 8006b16 <MX_TIM1_Init+0xf2>
 8006ab8:	2204      	movs	r2, #4
 8006aba:	a909      	add	r1, sp, #36	@ 0x24
 8006abc:	481c      	ldr	r0, [pc, #112]	@ (8006b30 <MX_TIM1_Init+0x10c>)
 8006abe:	f7fe fc07 	bl	80052d0 <HAL_TIM_PWM_ConfigChannel>
 8006ac2:	bb58      	cbnz	r0, 8006b1c <MX_TIM1_Init+0xf8>
 8006ac4:	2208      	movs	r2, #8
 8006ac6:	a909      	add	r1, sp, #36	@ 0x24
 8006ac8:	4819      	ldr	r0, [pc, #100]	@ (8006b30 <MX_TIM1_Init+0x10c>)
 8006aca:	f7fe fc01 	bl	80052d0 <HAL_TIM_PWM_ConfigChannel>
 8006ace:	bb40      	cbnz	r0, 8006b22 <MX_TIM1_Init+0xfe>
 8006ad0:	2300      	movs	r3, #0
 8006ad2:	9301      	str	r3, [sp, #4]
 8006ad4:	9302      	str	r3, [sp, #8]
 8006ad6:	9303      	str	r3, [sp, #12]
 8006ad8:	223c      	movs	r2, #60	@ 0x3c
 8006ada:	9204      	str	r2, [sp, #16]
 8006adc:	f44f 5280 	mov.w	r2, #4096	@ 0x1000
 8006ae0:	9205      	str	r2, [sp, #20]
 8006ae2:	f44f 5200 	mov.w	r2, #8192	@ 0x2000
 8006ae6:	9206      	str	r2, [sp, #24]
 8006ae8:	9308      	str	r3, [sp, #32]
 8006aea:	a901      	add	r1, sp, #4
 8006aec:	4810      	ldr	r0, [pc, #64]	@ (8006b30 <MX_TIM1_Init+0x10c>)
 8006aee:	f7fe fe15 	bl	800571c <HAL_TIMEx_ConfigBreakDeadTime>
 8006af2:	b9c8      	cbnz	r0, 8006b28 <MX_TIM1_Init+0x104>
 8006af4:	480e      	ldr	r0, [pc, #56]	@ (8006b30 <MX_TIM1_Init+0x10c>)
 8006af6:	f7ff ff59 	bl	80069ac <HAL_TIM_MspPostInit>
 8006afa:	b016      	add	sp, #88	@ 0x58
 8006afc:	bd10      	pop	{r4, pc}
 8006afe:	f7fb fb15 	bl	800212c <Error_Handler>
 8006b02:	e7b4      	b.n	8006a6e <MX_TIM1_Init+0x4a>
 8006b04:	f7fb fb12 	bl	800212c <Error_Handler>
 8006b08:	e7ba      	b.n	8006a80 <MX_TIM1_Init+0x5c>
 8006b0a:	f7fb fb0f 	bl	800212c <Error_Handler>
 8006b0e:	e7bc      	b.n	8006a8a <MX_TIM1_Init+0x66>
 8006b10:	f7fb fb0c 	bl	800212c <Error_Handler>
 8006b14:	e7c2      	b.n	8006a9c <MX_TIM1_Init+0x78>
 8006b16:	f7fb fb09 	bl	800212c <Error_Handler>
 8006b1a:	e7cd      	b.n	8006ab8 <MX_TIM1_Init+0x94>
 8006b1c:	f7fb fb06 	bl	800212c <Error_Handler>
 8006b20:	e7d0      	b.n	8006ac4 <MX_TIM1_Init+0xa0>
 8006b22:	f7fb fb03 	bl	800212c <Error_Handler>
 8006b26:	e7d3      	b.n	8006ad0 <MX_TIM1_Init+0xac>
 8006b28:	f7fb fb00 	bl	800212c <Error_Handler>
 8006b2c:	e7e2      	b.n	8006af4 <MX_TIM1_Init+0xd0>
 8006b2e:	bf00      	nop
 8006b30:	20000764 	.word	0x20000764
 8006b34:	40012c00 	.word	0x40012c00

08006b38 <MX_USB_DEVICE_Init>:
 8006b38:	b508      	push	{r3, lr}
 8006b3a:	2200      	movs	r2, #0
 8006b3c:	490f      	ldr	r1, [pc, #60]	@ (8006b7c <MX_USB_DEVICE_Init+0x44>)
 8006b3e:	4810      	ldr	r0, [pc, #64]	@ (8006b80 <MX_USB_DEVICE_Init+0x48>)
 8006b40:	f000 fb12 	bl	8007168 <USBD_Init>
 8006b44:	b970      	cbnz	r0, 8006b64 <MX_USB_DEVICE_Init+0x2c>
 8006b46:	490f      	ldr	r1, [pc, #60]	@ (8006b84 <MX_USB_DEVICE_Init+0x4c>)
 8006b48:	480d      	ldr	r0, [pc, #52]	@ (8006b80 <MX_USB_DEVICE_Init+0x48>)
 8006b4a:	f000 fb24 	bl	8007196 <USBD_RegisterClass>
 8006b4e:	b960      	cbnz	r0, 8006b6a <MX_USB_DEVICE_Init+0x32>
 8006b50:	490d      	ldr	r1, [pc, #52]	@ (8006b88 <MX_USB_DEVICE_Init+0x50>)
 8006b52:	480b      	ldr	r0, [pc, #44]	@ (8006b80 <MX_USB_DEVICE_Init+0x48>)
 8006b54:	f000 f965 	bl	8006e22 <USBD_CDC_RegisterInterface>
 8006b58:	b950      	cbnz	r0, 8006b70 <MX_USB_DEVICE_Init+0x38>
 8006b5a:	4809      	ldr	r0, [pc, #36]	@ (8006b80 <MX_USB_DEVICE_Init+0x48>)
 8006b5c:	f000 fb22 	bl	80071a4 <USBD_Start>
 8006b60:	b948      	cbnz	r0, 8006b76 <MX_USB_DEVICE_Init+0x3e>
 8006b62:	bd08      	pop	{r3, pc}
 8006b64:	f7fb fae2 	bl	800212c <Error_Handler>
 8006b68:	e7ed      	b.n	8006b46 <MX_USB_DEVICE_Init+0xe>
 8006b6a:	f7fb fadf 	bl	800212c <Error_Handler>
 8006b6e:	e7ef      	b.n	8006b50 <MX_USB_DEVICE_Init+0x18>
 8006b70:	f7fb fadc 	bl	800212c <Error_Handler>
 8006b74:	e7f1      	b.n	8006b5a <MX_USB_DEVICE_Init+0x22>
 8006b76:	f7fb fad9 	bl	800212c <Error_Handler>
 8006b7a:	e7f2      	b.n	8006b62 <MX_USB_DEVICE_Init+0x2a>
 8006b7c:	200001c0 	.word	0x200001c0
 8006b80:	200007ac 	.word	0x200007ac
 8006b84:	20000138 	.word	0x20000138
 8006b88:	2000017c 	.word	0x2000017c

08006b8c <USBD_CDC_EP0_RxReady>:
 8006b8c:	b510      	push	{r4, lr}
 8006b8e:	f8d0 42b8 	ldr.w	r4, [r0, #696]	@ 0x2b8
 8006b92:	f8d0 32bc 	ldr.w	r3, [r0, #700]	@ 0x2bc
 8006b96:	b15b      	cbz	r3, 8006bb0 <USBD_CDC_EP0_RxReady+0x24>
 8006b98:	f894 0200 	ldrb.w	r0, [r4, #512]	@ 0x200
 8006b9c:	28ff      	cmp	r0, #255	@ 0xff
 8006b9e:	d007      	beq.n	8006bb0 <USBD_CDC_EP0_RxReady+0x24>
 8006ba0:	689b      	ldr	r3, [r3, #8]
 8006ba2:	f894 2201 	ldrb.w	r2, [r4, #513]	@ 0x201
 8006ba6:	4621      	mov	r1, r4
 8006ba8:	4798      	blx	r3
 8006baa:	23ff      	movs	r3, #255	@ 0xff
 8006bac:	f884 3200 	strb.w	r3, [r4, #512]	@ 0x200
 8006bb0:	2000      	movs	r0, #0
 8006bb2:	bd10      	pop	{r4, pc}

08006bb4 <USBD_CDC_GetFSCfgDesc>:
 8006bb4:	2343      	movs	r3, #67	@ 0x43
 8006bb6:	8003      	strh	r3, [r0, #0]
 8006bb8:	4800      	ldr	r0, [pc, #0]	@ (8006bbc <USBD_CDC_GetFSCfgDesc+0x8>)
 8006bba:	4770      	bx	lr
 8006bbc:	200000b0 	.word	0x200000b0

08006bc0 <USBD_CDC_GetHSCfgDesc>:
 8006bc0:	2343      	movs	r3, #67	@ 0x43
 8006bc2:	8003      	strh	r3, [r0, #0]
 8006bc4:	4800      	ldr	r0, [pc, #0]	@ (8006bc8 <USBD_CDC_GetHSCfgDesc+0x8>)
 8006bc6:	4770      	bx	lr
 8006bc8:	200000f4 	.word	0x200000f4

08006bcc <USBD_CDC_GetOtherSpeedCfgDesc>:
 8006bcc:	2343      	movs	r3, #67	@ 0x43
 8006bce:	8003      	strh	r3, [r0, #0]
 8006bd0:	4800      	ldr	r0, [pc, #0]	@ (8006bd4 <USBD_CDC_GetOtherSpeedCfgDesc+0x8>)
 8006bd2:	4770      	bx	lr
 8006bd4:	2000006c 	.word	0x2000006c

08006bd8 <USBD_CDC_GetDeviceQualifierDescriptor>:
 8006bd8:	230a      	movs	r3, #10
 8006bda:	8003      	strh	r3, [r0, #0]
 8006bdc:	4800      	ldr	r0, [pc, #0]	@ (8006be0 <USBD_CDC_GetDeviceQualifierDescriptor+0x8>)
 8006bde:	4770      	bx	lr
 8006be0:	20000170 	.word	0x20000170

08006be4 <USBD_CDC_DataOut>:
 8006be4:	b538      	push	{r3, r4, r5, lr}
 8006be6:	4604      	mov	r4, r0
 8006be8:	f8d0 52b8 	ldr.w	r5, [r0, #696]	@ 0x2b8
 8006bec:	f000 faaf 	bl	800714e <USBD_LL_GetRxDataSize>
 8006bf0:	f8c5 020c 	str.w	r0, [r5, #524]	@ 0x20c
 8006bf4:	f8d4 32b8 	ldr.w	r3, [r4, #696]	@ 0x2b8
 8006bf8:	b14b      	cbz	r3, 8006c0e <USBD_CDC_DataOut+0x2a>
 8006bfa:	f8d4 32bc 	ldr.w	r3, [r4, #700]	@ 0x2bc
 8006bfe:	68db      	ldr	r3, [r3, #12]
 8006c00:	f505 7103 	add.w	r1, r5, #524	@ 0x20c
 8006c04:	f8d5 0204 	ldr.w	r0, [r5, #516]	@ 0x204
 8006c08:	4798      	blx	r3
 8006c0a:	2000      	movs	r0, #0
 8006c0c:	bd38      	pop	{r3, r4, r5, pc}
 8006c0e:	2002      	movs	r0, #2
 8006c10:	e7fc      	b.n	8006c0c <USBD_CDC_DataOut+0x28>

08006c12 <USBD_CDC_DataIn>:
 8006c12:	b510      	push	{r4, lr}
 8006c14:	f8d0 22b8 	ldr.w	r2, [r0, #696]	@ 0x2b8
 8006c18:	f8d0 42c0 	ldr.w	r4, [r0, #704]	@ 0x2c0
 8006c1c:	b1f2      	cbz	r2, 8006c5c <USBD_CDC_DataIn+0x4a>
 8006c1e:	eb01 0381 	add.w	r3, r1, r1, lsl #2
 8006c22:	eb00 0383 	add.w	r3, r0, r3, lsl #2
 8006c26:	69db      	ldr	r3, [r3, #28]
 8006c28:	b14b      	cbz	r3, 8006c3e <USBD_CDC_DataIn+0x2c>
 8006c2a:	eb01 0c81 	add.w	ip, r1, r1, lsl #2
 8006c2e:	eb04 04cc 	add.w	r4, r4, ip, lsl #3
 8006c32:	6a24      	ldr	r4, [r4, #32]
 8006c34:	fbb3 fcf4 	udiv	ip, r3, r4
 8006c38:	fb04 331c 	mls	r3, r4, ip, r3
 8006c3c:	b123      	cbz	r3, 8006c48 <USBD_CDC_DataIn+0x36>
 8006c3e:	2300      	movs	r3, #0
 8006c40:	f8c2 3214 	str.w	r3, [r2, #532]	@ 0x214
 8006c44:	2000      	movs	r0, #0
 8006c46:	bd10      	pop	{r4, pc}
 8006c48:	eb01 0381 	add.w	r3, r1, r1, lsl #2
 8006c4c:	eb00 0383 	add.w	r3, r0, r3, lsl #2
 8006c50:	2200      	movs	r2, #0
 8006c52:	61da      	str	r2, [r3, #28]
 8006c54:	4613      	mov	r3, r2
 8006c56:	f000 fa6a 	bl	800712e <USBD_LL_Transmit>
 8006c5a:	e7f3      	b.n	8006c44 <USBD_CDC_DataIn+0x32>
 8006c5c:	2002      	movs	r0, #2
 8006c5e:	e7f2      	b.n	8006c46 <USBD_CDC_DataIn+0x34>

08006c60 <USBD_CDC_Setup>:
 8006c60:	b5f0      	push	{r4, r5, r6, r7, lr}
 8006c62:	b083      	sub	sp, #12
 8006c64:	4606      	mov	r6, r0
 8006c66:	460c      	mov	r4, r1
 8006c68:	f8d0 72b8 	ldr.w	r7, [r0, #696]	@ 0x2b8
 8006c6c:	2300      	movs	r3, #0
 8006c6e:	f88d 3007 	strb.w	r3, [sp, #7]
 8006c72:	f8ad 3004 	strh.w	r3, [sp, #4]
 8006c76:	780b      	ldrb	r3, [r1, #0]
 8006c78:	f013 0560 	ands.w	r5, r3, #96	@ 0x60
 8006c7c:	d027      	beq.n	8006cce <USBD_CDC_Setup+0x6e>
 8006c7e:	2d20      	cmp	r5, #32
 8006c80:	d153      	bne.n	8006d2a <USBD_CDC_Setup+0xca>
 8006c82:	88ca      	ldrh	r2, [r1, #6]
 8006c84:	b1da      	cbz	r2, 8006cbe <USBD_CDC_Setup+0x5e>
 8006c86:	f013 0f80 	tst.w	r3, #128	@ 0x80
 8006c8a:	d00c      	beq.n	8006ca6 <USBD_CDC_Setup+0x46>
 8006c8c:	f8d0 32bc 	ldr.w	r3, [r0, #700]	@ 0x2bc
 8006c90:	689b      	ldr	r3, [r3, #8]
 8006c92:	4639      	mov	r1, r7
 8006c94:	7860      	ldrb	r0, [r4, #1]
 8006c96:	4798      	blx	r3
 8006c98:	88e2      	ldrh	r2, [r4, #6]
 8006c9a:	4639      	mov	r1, r7
 8006c9c:	4630      	mov	r0, r6
 8006c9e:	f000 ff8f 	bl	8007bc0 <USBD_CtlSendData>
 8006ca2:	2500      	movs	r5, #0
 8006ca4:	e044      	b.n	8006d30 <USBD_CDC_Setup+0xd0>
 8006ca6:	784b      	ldrb	r3, [r1, #1]
 8006ca8:	f887 3200 	strb.w	r3, [r7, #512]	@ 0x200
 8006cac:	798b      	ldrb	r3, [r1, #6]
 8006cae:	f887 3201 	strb.w	r3, [r7, #513]	@ 0x201
 8006cb2:	88ca      	ldrh	r2, [r1, #6]
 8006cb4:	4639      	mov	r1, r7
 8006cb6:	f000 ff98 	bl	8007bea <USBD_CtlPrepareRx>
 8006cba:	2500      	movs	r5, #0
 8006cbc:	e038      	b.n	8006d30 <USBD_CDC_Setup+0xd0>
 8006cbe:	f8d0 32bc 	ldr.w	r3, [r0, #700]	@ 0x2bc
 8006cc2:	689b      	ldr	r3, [r3, #8]
 8006cc4:	2200      	movs	r2, #0
 8006cc6:	7848      	ldrb	r0, [r1, #1]
 8006cc8:	4798      	blx	r3
 8006cca:	2500      	movs	r5, #0
 8006ccc:	e030      	b.n	8006d30 <USBD_CDC_Setup+0xd0>
 8006cce:	784f      	ldrb	r7, [r1, #1]
 8006cd0:	2f0a      	cmp	r7, #10
 8006cd2:	d010      	beq.n	8006cf6 <USBD_CDC_Setup+0x96>
 8006cd4:	2f0b      	cmp	r7, #11
 8006cd6:	d01c      	beq.n	8006d12 <USBD_CDC_Setup+0xb2>
 8006cd8:	bb1f      	cbnz	r7, 8006d22 <USBD_CDC_Setup+0xc2>
 8006cda:	f890 329c 	ldrb.w	r3, [r0, #668]	@ 0x29c
 8006cde:	2b03      	cmp	r3, #3
 8006ce0:	d003      	beq.n	8006cea <USBD_CDC_Setup+0x8a>
 8006ce2:	f000 fbc7 	bl	8007474 <USBD_CtlError>
 8006ce6:	2502      	movs	r5, #2
 8006ce8:	e022      	b.n	8006d30 <USBD_CDC_Setup+0xd0>
 8006cea:	2202      	movs	r2, #2
 8006cec:	a901      	add	r1, sp, #4
 8006cee:	f000 ff67 	bl	8007bc0 <USBD_CtlSendData>
 8006cf2:	463d      	mov	r5, r7
 8006cf4:	e01c      	b.n	8006d30 <USBD_CDC_Setup+0xd0>
 8006cf6:	f890 329c 	ldrb.w	r3, [r0, #668]	@ 0x29c
 8006cfa:	2b03      	cmp	r3, #3
 8006cfc:	d003      	beq.n	8006d06 <USBD_CDC_Setup+0xa6>
 8006cfe:	f000 fbb9 	bl	8007474 <USBD_CtlError>
 8006d02:	2502      	movs	r5, #2
 8006d04:	e014      	b.n	8006d30 <USBD_CDC_Setup+0xd0>
 8006d06:	2201      	movs	r2, #1
 8006d08:	f10d 0107 	add.w	r1, sp, #7
 8006d0c:	f000 ff58 	bl	8007bc0 <USBD_CtlSendData>
 8006d10:	e00e      	b.n	8006d30 <USBD_CDC_Setup+0xd0>
 8006d12:	f890 329c 	ldrb.w	r3, [r0, #668]	@ 0x29c
 8006d16:	2b03      	cmp	r3, #3
 8006d18:	d00a      	beq.n	8006d30 <USBD_CDC_Setup+0xd0>
 8006d1a:	f000 fbab 	bl	8007474 <USBD_CtlError>
 8006d1e:	2502      	movs	r5, #2
 8006d20:	e006      	b.n	8006d30 <USBD_CDC_Setup+0xd0>
 8006d22:	f000 fba7 	bl	8007474 <USBD_CtlError>
 8006d26:	2502      	movs	r5, #2
 8006d28:	e002      	b.n	8006d30 <USBD_CDC_Setup+0xd0>
 8006d2a:	f000 fba3 	bl	8007474 <USBD_CtlError>
 8006d2e:	2502      	movs	r5, #2
 8006d30:	4628      	mov	r0, r5
 8006d32:	b003      	add	sp, #12
 8006d34:	bdf0      	pop	{r4, r5, r6, r7, pc}

08006d36 <USBD_CDC_DeInit>:
 8006d36:	b538      	push	{r3, r4, r5, lr}
 8006d38:	4604      	mov	r4, r0
 8006d3a:	2181      	movs	r1, #129	@ 0x81
 8006d3c:	f000 f9c1 	bl	80070c2 <USBD_LL_CloseEP>
 8006d40:	2500      	movs	r5, #0
 8006d42:	62e5      	str	r5, [r4, #44]	@ 0x2c
 8006d44:	2101      	movs	r1, #1
 8006d46:	4620      	mov	r0, r4
 8006d48:	f000 f9bb 	bl	80070c2 <USBD_LL_CloseEP>
 8006d4c:	f8c4 516c 	str.w	r5, [r4, #364]	@ 0x16c
 8006d50:	2182      	movs	r1, #130	@ 0x82
 8006d52:	4620      	mov	r0, r4
 8006d54:	f000 f9b5 	bl	80070c2 <USBD_LL_CloseEP>
 8006d58:	6425      	str	r5, [r4, #64]	@ 0x40
 8006d5a:	f8d4 32b8 	ldr.w	r3, [r4, #696]	@ 0x2b8
 8006d5e:	b14b      	cbz	r3, 8006d74 <USBD_CDC_DeInit+0x3e>
 8006d60:	f8d4 32bc 	ldr.w	r3, [r4, #700]	@ 0x2bc
 8006d64:	685b      	ldr	r3, [r3, #4]
 8006d66:	4798      	blx	r3
 8006d68:	f8d4 02b8 	ldr.w	r0, [r4, #696]	@ 0x2b8
 8006d6c:	f000 f9fa 	bl	8007164 <USBD_static_free>
 8006d70:	f8c4 52b8 	str.w	r5, [r4, #696]	@ 0x2b8
 8006d74:	2000      	movs	r0, #0
 8006d76:	bd38      	pop	{r3, r4, r5, pc}

08006d78 <USBD_CDC_Init>:
 8006d78:	b570      	push	{r4, r5, r6, lr}
 8006d7a:	4604      	mov	r4, r0
 8006d7c:	7c03      	ldrb	r3, [r0, #16]
 8006d7e:	bbab      	cbnz	r3, 8006dec <USBD_CDC_Init+0x74>
 8006d80:	f44f 7300 	mov.w	r3, #512	@ 0x200
 8006d84:	2202      	movs	r2, #2
 8006d86:	2181      	movs	r1, #129	@ 0x81
 8006d88:	f000 f990 	bl	80070ac <USBD_LL_OpenEP>
 8006d8c:	2501      	movs	r5, #1
 8006d8e:	62e5      	str	r5, [r4, #44]	@ 0x2c
 8006d90:	f44f 7300 	mov.w	r3, #512	@ 0x200
 8006d94:	2202      	movs	r2, #2
 8006d96:	4629      	mov	r1, r5
 8006d98:	4620      	mov	r0, r4
 8006d9a:	f000 f987 	bl	80070ac <USBD_LL_OpenEP>
 8006d9e:	f8c4 516c 	str.w	r5, [r4, #364]	@ 0x16c
 8006da2:	2308      	movs	r3, #8
 8006da4:	2203      	movs	r2, #3
 8006da6:	2182      	movs	r1, #130	@ 0x82
 8006da8:	4620      	mov	r0, r4
 8006daa:	f000 f97f 	bl	80070ac <USBD_LL_OpenEP>
 8006dae:	2301      	movs	r3, #1
 8006db0:	6423      	str	r3, [r4, #64]	@ 0x40
 8006db2:	f44f 7007 	mov.w	r0, #540	@ 0x21c
 8006db6:	f000 f9d1 	bl	800715c <USBD_static_malloc>
 8006dba:	4605      	mov	r5, r0
 8006dbc:	f8c4 02b8 	str.w	r0, [r4, #696]	@ 0x2b8
 8006dc0:	b368      	cbz	r0, 8006e1e <USBD_CDC_Init+0xa6>
 8006dc2:	f8d4 32bc 	ldr.w	r3, [r4, #700]	@ 0x2bc
 8006dc6:	681b      	ldr	r3, [r3, #0]
 8006dc8:	4798      	blx	r3
 8006dca:	2300      	movs	r3, #0
 8006dcc:	f8c5 3214 	str.w	r3, [r5, #532]	@ 0x214
 8006dd0:	f8c5 3218 	str.w	r3, [r5, #536]	@ 0x218
 8006dd4:	7c26      	ldrb	r6, [r4, #16]
 8006dd6:	b9ce      	cbnz	r6, 8006e0c <USBD_CDC_Init+0x94>
 8006dd8:	f44f 7300 	mov.w	r3, #512	@ 0x200
 8006ddc:	f8d5 2204 	ldr.w	r2, [r5, #516]	@ 0x204
 8006de0:	2101      	movs	r1, #1
 8006de2:	4620      	mov	r0, r4
 8006de4:	f000 f9ab 	bl	800713e <USBD_LL_PrepareReceive>
 8006de8:	4630      	mov	r0, r6
 8006dea:	bd70      	pop	{r4, r5, r6, pc}
 8006dec:	2340      	movs	r3, #64	@ 0x40
 8006dee:	2202      	movs	r2, #2
 8006df0:	2181      	movs	r1, #129	@ 0x81
 8006df2:	f000 f95b 	bl	80070ac <USBD_LL_OpenEP>
 8006df6:	2501      	movs	r5, #1
 8006df8:	62e5      	str	r5, [r4, #44]	@ 0x2c
 8006dfa:	2340      	movs	r3, #64	@ 0x40
 8006dfc:	2202      	movs	r2, #2
 8006dfe:	4629      	mov	r1, r5
 8006e00:	4620      	mov	r0, r4
 8006e02:	f000 f953 	bl	80070ac <USBD_LL_OpenEP>
 8006e06:	f8c4 516c 	str.w	r5, [r4, #364]	@ 0x16c
 8006e0a:	e7ca      	b.n	8006da2 <USBD_CDC_Init+0x2a>
 8006e0c:	2340      	movs	r3, #64	@ 0x40
 8006e0e:	f8d5 2204 	ldr.w	r2, [r5, #516]	@ 0x204
 8006e12:	2101      	movs	r1, #1
 8006e14:	4620      	mov	r0, r4
 8006e16:	f000 f992 	bl	800713e <USBD_LL_PrepareReceive>
 8006e1a:	2600      	movs	r6, #0
 8006e1c:	e7e4      	b.n	8006de8 <USBD_CDC_Init+0x70>
 8006e1e:	2601      	movs	r6, #1
 8006e20:	e7e2      	b.n	8006de8 <USBD_CDC_Init+0x70>

08006e22 <USBD_CDC_RegisterInterface>:
 8006e22:	b119      	cbz	r1, 8006e2c <USBD_CDC_RegisterInterface+0xa>
 8006e24:	f8c0 12bc 	str.w	r1, [r0, #700]	@ 0x2bc
 8006e28:	2000      	movs	r0, #0
 8006e2a:	4770      	bx	lr
 8006e2c:	2002      	movs	r0, #2
 8006e2e:	4770      	bx	lr

08006e30 <USBD_CDC_SetTxBuffer>:
 8006e30:	f8d0 32b8 	ldr.w	r3, [r0, #696]	@ 0x2b8
 8006e34:	f8c3 1208 	str.w	r1, [r3, #520]	@ 0x208
 8006e38:	f8c3 2210 	str.w	r2, [r3, #528]	@ 0x210
 8006e3c:	2000      	movs	r0, #0
 8006e3e:	4770      	bx	lr

08006e40 <USBD_CDC_SetRxBuffer>:
 8006e40:	f8d0 32b8 	ldr.w	r3, [r0, #696]	@ 0x2b8
 8006e44:	f8c3 1204 	str.w	r1, [r3, #516]	@ 0x204
 8006e48:	2000      	movs	r0, #0
 8006e4a:	4770      	bx	lr

08006e4c <USBD_CDC_TransmitPacket>:
 8006e4c:	f8d0 22b8 	ldr.w	r2, [r0, #696]	@ 0x2b8
 8006e50:	b19a      	cbz	r2, 8006e7a <USBD_CDC_TransmitPacket+0x2e>
 8006e52:	b508      	push	{r3, lr}
 8006e54:	f8d2 3214 	ldr.w	r3, [r2, #532]	@ 0x214
 8006e58:	b10b      	cbz	r3, 8006e5e <USBD_CDC_TransmitPacket+0x12>
 8006e5a:	2001      	movs	r0, #1
 8006e5c:	bd08      	pop	{r3, pc}
 8006e5e:	2301      	movs	r3, #1
 8006e60:	f8c2 3214 	str.w	r3, [r2, #532]	@ 0x214
 8006e64:	f8d2 3210 	ldr.w	r3, [r2, #528]	@ 0x210
 8006e68:	6303      	str	r3, [r0, #48]	@ 0x30
 8006e6a:	b29b      	uxth	r3, r3
 8006e6c:	f8d2 2208 	ldr.w	r2, [r2, #520]	@ 0x208
 8006e70:	2181      	movs	r1, #129	@ 0x81
 8006e72:	f000 f95c 	bl	800712e <USBD_LL_Transmit>
 8006e76:	2000      	movs	r0, #0
 8006e78:	e7f0      	b.n	8006e5c <USBD_CDC_TransmitPacket+0x10>
 8006e7a:	2002      	movs	r0, #2
 8006e7c:	4770      	bx	lr

08006e7e <USBD_CDC_ReceivePacket>:
 8006e7e:	f8d0 22b8 	ldr.w	r2, [r0, #696]	@ 0x2b8
 8006e82:	b192      	cbz	r2, 8006eaa <USBD_CDC_ReceivePacket+0x2c>
 8006e84:	b508      	push	{r3, lr}
 8006e86:	7c03      	ldrb	r3, [r0, #16]
 8006e88:	b943      	cbnz	r3, 8006e9c <USBD_CDC_ReceivePacket+0x1e>
 8006e8a:	f44f 7300 	mov.w	r3, #512	@ 0x200
 8006e8e:	f8d2 2204 	ldr.w	r2, [r2, #516]	@ 0x204
 8006e92:	2101      	movs	r1, #1
 8006e94:	f000 f953 	bl	800713e <USBD_LL_PrepareReceive>
 8006e98:	2000      	movs	r0, #0
 8006e9a:	bd08      	pop	{r3, pc}
 8006e9c:	2340      	movs	r3, #64	@ 0x40
 8006e9e:	f8d2 2204 	ldr.w	r2, [r2, #516]	@ 0x204
 8006ea2:	2101      	movs	r1, #1
 8006ea4:	f000 f94b 	bl	800713e <USBD_LL_PrepareReceive>
 8006ea8:	e7f6      	b.n	8006e98 <USBD_CDC_ReceivePacket+0x1a>
 8006eaa:	2002      	movs	r0, #2
 8006eac:	4770      	bx	lr

08006eae <CDC_DeInit_FS>:
 8006eae:	2000      	movs	r0, #0
 8006eb0:	4770      	bx	lr

08006eb2 <CDC_Control_FS>:
 8006eb2:	2000      	movs	r0, #0
 8006eb4:	4770      	bx	lr
	...

08006eb8 <CDC_Receive_FS>:
 8006eb8:	b510      	push	{r4, lr}
 8006eba:	4601      	mov	r1, r0
 8006ebc:	4c04      	ldr	r4, [pc, #16]	@ (8006ed0 <CDC_Receive_FS+0x18>)
 8006ebe:	4620      	mov	r0, r4
 8006ec0:	f7ff ffbe 	bl	8006e40 <USBD_CDC_SetRxBuffer>
 8006ec4:	4620      	mov	r0, r4
 8006ec6:	f7ff ffda 	bl	8006e7e <USBD_CDC_ReceivePacket>
 8006eca:	2000      	movs	r0, #0
 8006ecc:	bd10      	pop	{r4, pc}
 8006ece:	bf00      	nop
 8006ed0:	200007ac 	.word	0x200007ac

08006ed4 <CDC_Init_FS>:
 8006ed4:	b510      	push	{r4, lr}
 8006ed6:	4c06      	ldr	r4, [pc, #24]	@ (8006ef0 <CDC_Init_FS+0x1c>)
 8006ed8:	2200      	movs	r2, #0
 8006eda:	4906      	ldr	r1, [pc, #24]	@ (8006ef4 <CDC_Init_FS+0x20>)
 8006edc:	4620      	mov	r0, r4
 8006ede:	f7ff ffa7 	bl	8006e30 <USBD_CDC_SetTxBuffer>
 8006ee2:	4905      	ldr	r1, [pc, #20]	@ (8006ef8 <CDC_Init_FS+0x24>)
 8006ee4:	4620      	mov	r0, r4
 8006ee6:	f7ff ffab 	bl	8006e40 <USBD_CDC_SetRxBuffer>
 8006eea:	2000      	movs	r0, #0
 8006eec:	bd10      	pop	{r4, pc}
 8006eee:	bf00      	nop
 8006ef0:	200007ac 	.word	0x200007ac
 8006ef4:	20000a70 	.word	0x20000a70
 8006ef8:	20000e70 	.word	0x20000e70

08006efc <CDC_Transmit_FS>:
 8006efc:	4b09      	ldr	r3, [pc, #36]	@ (8006f24 <CDC_Transmit_FS+0x28>)
 8006efe:	f8d3 32b8 	ldr.w	r3, [r3, #696]	@ 0x2b8
 8006f02:	f8d3 3214 	ldr.w	r3, [r3, #532]	@ 0x214
 8006f06:	b10b      	cbz	r3, 8006f0c <CDC_Transmit_FS+0x10>
 8006f08:	2001      	movs	r0, #1
 8006f0a:	4770      	bx	lr
 8006f0c:	b510      	push	{r4, lr}
 8006f0e:	4c05      	ldr	r4, [pc, #20]	@ (8006f24 <CDC_Transmit_FS+0x28>)
 8006f10:	460a      	mov	r2, r1
 8006f12:	4601      	mov	r1, r0
 8006f14:	4620      	mov	r0, r4
 8006f16:	f7ff ff8b 	bl	8006e30 <USBD_CDC_SetTxBuffer>
 8006f1a:	4620      	mov	r0, r4
 8006f1c:	f7ff ff96 	bl	8006e4c <USBD_CDC_TransmitPacket>
 8006f20:	bd10      	pop	{r4, pc}
 8006f22:	bf00      	nop
 8006f24:	200007ac 	.word	0x200007ac

08006f28 <USBD_Get_USB_Status>:
 8006f28:	2802      	cmp	r0, #2
 8006f2a:	d805      	bhi.n	8006f38 <USBD_Get_USB_Status+0x10>
 8006f2c:	e8df f000 	tbb	[pc, r0]
 8006f30:	0405      	.short	0x0405
 8006f32:	02          	.byte	0x02
 8006f33:	00          	.byte	0x00
 8006f34:	2001      	movs	r0, #1
 8006f36:	4770      	bx	lr
 8006f38:	2002      	movs	r0, #2
 8006f3a:	4770      	bx	lr

08006f3c <HAL_PCD_MspInit>:
 8006f3c:	6802      	ldr	r2, [r0, #0]
 8006f3e:	4b0e      	ldr	r3, [pc, #56]	@ (8006f78 <HAL_PCD_MspInit+0x3c>)
 8006f40:	429a      	cmp	r2, r3
 8006f42:	d000      	beq.n	8006f46 <HAL_PCD_MspInit+0xa>
 8006f44:	4770      	bx	lr
 8006f46:	b500      	push	{lr}
 8006f48:	b083      	sub	sp, #12
 8006f4a:	f503 33da 	add.w	r3, r3, #111616	@ 0x1b400
 8006f4e:	69da      	ldr	r2, [r3, #28]
 8006f50:	f442 0200 	orr.w	r2, r2, #8388608	@ 0x800000
 8006f54:	61da      	str	r2, [r3, #28]
 8006f56:	69db      	ldr	r3, [r3, #28]
 8006f58:	f403 0300 	and.w	r3, r3, #8388608	@ 0x800000
 8006f5c:	9301      	str	r3, [sp, #4]
 8006f5e:	9b01      	ldr	r3, [sp, #4]
 8006f60:	2200      	movs	r2, #0
 8006f62:	4611      	mov	r1, r2
 8006f64:	2014      	movs	r0, #20
 8006f66:	f7fc f8bf 	bl	80030e8 <HAL_NVIC_SetPriority>
 8006f6a:	2014      	movs	r0, #20
 8006f6c:	f7fc f8cc 	bl	8003108 <HAL_NVIC_EnableIRQ>
 8006f70:	b003      	add	sp, #12
 8006f72:	f85d fb04 	ldr.w	pc, [sp], #4
 8006f76:	bf00      	nop
 8006f78:	40005c00 	.word	0x40005c00

08006f7c <HAL_PCD_SetupStageCallback>:
 8006f7c:	b508      	push	{r3, lr}
 8006f7e:	f500 7126 	add.w	r1, r0, #664	@ 0x298
 8006f82:	f8d0 02d4 	ldr.w	r0, [r0, #724]	@ 0x2d4
 8006f86:	f000 f925 	bl	80071d4 <USBD_LL_SetupStage>
 8006f8a:	bd08      	pop	{r3, pc}

08006f8c <HAL_PCD_DataOutStageCallback>:
 8006f8c:	b508      	push	{r3, lr}
 8006f8e:	eb01 0381 	add.w	r3, r1, r1, lsl #2
 8006f92:	eb00 03c3 	add.w	r3, r0, r3, lsl #3
 8006f96:	f8d3 2164 	ldr.w	r2, [r3, #356]	@ 0x164
 8006f9a:	f8d0 02d4 	ldr.w	r0, [r0, #724]	@ 0x2d4
 8006f9e:	f000 f946 	bl	800722e <USBD_LL_DataOutStage>
 8006fa2:	bd08      	pop	{r3, pc}

08006fa4 <HAL_PCD_DataInStageCallback>:
 8006fa4:	b508      	push	{r3, lr}
 8006fa6:	eb01 0381 	add.w	r3, r1, r1, lsl #2
 8006faa:	eb00 03c3 	add.w	r3, r0, r3, lsl #3
 8006fae:	6a5a      	ldr	r2, [r3, #36]	@ 0x24
 8006fb0:	f8d0 02d4 	ldr.w	r0, [r0, #724]	@ 0x2d4
 8006fb4:	f000 f981 	bl	80072ba <USBD_LL_DataInStage>
 8006fb8:	bd08      	pop	{r3, pc}

08006fba <HAL_PCD_SOFCallback>:
 8006fba:	b508      	push	{r3, lr}
 8006fbc:	f8d0 02d4 	ldr.w	r0, [r0, #724]	@ 0x2d4
 8006fc0:	f000 fa22 	bl	8007408 <USBD_LL_SOF>
 8006fc4:	bd08      	pop	{r3, pc}

08006fc6 <HAL_PCD_ResetCallback>:
 8006fc6:	b510      	push	{r4, lr}
 8006fc8:	4604      	mov	r4, r0
 8006fca:	7983      	ldrb	r3, [r0, #6]
 8006fcc:	2b02      	cmp	r3, #2
 8006fce:	d109      	bne.n	8006fe4 <HAL_PCD_ResetCallback+0x1e>
 8006fd0:	2101      	movs	r1, #1
 8006fd2:	f8d4 02d4 	ldr.w	r0, [r4, #724]	@ 0x2d4
 8006fd6:	f000 fa00 	bl	80073da <USBD_LL_SetSpeed>
 8006fda:	f8d4 02d4 	ldr.w	r0, [r4, #724]	@ 0x2d4
 8006fde:	f000 f9d4 	bl	800738a <USBD_LL_Reset>
 8006fe2:	bd10      	pop	{r4, pc}
 8006fe4:	f7fb f8a2 	bl	800212c <Error_Handler>
 8006fe8:	e7f2      	b.n	8006fd0 <HAL_PCD_ResetCallback+0xa>
	...

08006fec <HAL_PCD_SuspendCallback>:
 8006fec:	b510      	push	{r4, lr}
 8006fee:	4604      	mov	r4, r0
 8006ff0:	f8d0 02d4 	ldr.w	r0, [r0, #724]	@ 0x2d4
 8006ff4:	f000 f9f4 	bl	80073e0 <USBD_LL_Suspend>
 8006ff8:	7aa3      	ldrb	r3, [r4, #10]
 8006ffa:	b123      	cbz	r3, 8007006 <HAL_PCD_SuspendCallback+0x1a>
 8006ffc:	4a02      	ldr	r2, [pc, #8]	@ (8007008 <HAL_PCD_SuspendCallback+0x1c>)
 8006ffe:	6913      	ldr	r3, [r2, #16]
 8007000:	f043 0306 	orr.w	r3, r3, #6
 8007004:	6113      	str	r3, [r2, #16]
 8007006:	bd10      	pop	{r4, pc}
 8007008:	e000ed00 	.word	0xe000ed00

0800700c <HAL_PCD_ResumeCallback>:
 800700c:	b508      	push	{r3, lr}
 800700e:	f8d0 02d4 	ldr.w	r0, [r0, #724]	@ 0x2d4
 8007012:	f000 f9ee 	bl	80073f2 <USBD_LL_Resume>
 8007016:	bd08      	pop	{r3, pc}

08007018 <USBD_LL_Init>:
 8007018:	b510      	push	{r4, lr}
 800701a:	4604      	mov	r4, r0
 800701c:	481d      	ldr	r0, [pc, #116]	@ (8007094 <USBD_LL_Init+0x7c>)
 800701e:	f8c0 42d4 	str.w	r4, [r0, #724]	@ 0x2d4
 8007022:	f8c4 02c0 	str.w	r0, [r4, #704]	@ 0x2c0
 8007026:	4b1c      	ldr	r3, [pc, #112]	@ (8007098 <USBD_LL_Init+0x80>)
 8007028:	6003      	str	r3, [r0, #0]
 800702a:	2308      	movs	r3, #8
 800702c:	7103      	strb	r3, [r0, #4]
 800702e:	2302      	movs	r3, #2
 8007030:	7183      	strb	r3, [r0, #6]
 8007032:	2300      	movs	r3, #0
 8007034:	7283      	strb	r3, [r0, #10]
 8007036:	72c3      	strb	r3, [r0, #11]
 8007038:	7303      	strb	r3, [r0, #12]
 800703a:	f7fc fb89 	bl	8003750 <HAL_PCD_Init>
 800703e:	bb30      	cbnz	r0, 800708e <USBD_LL_Init+0x76>
 8007040:	2318      	movs	r3, #24
 8007042:	2200      	movs	r2, #0
 8007044:	4611      	mov	r1, r2
 8007046:	f8d4 02c0 	ldr.w	r0, [r4, #704]	@ 0x2c0
 800704a:	f7fd faf8 	bl	800463e <HAL_PCDEx_PMAConfig>
 800704e:	2358      	movs	r3, #88	@ 0x58
 8007050:	2200      	movs	r2, #0
 8007052:	2180      	movs	r1, #128	@ 0x80
 8007054:	f8d4 02c0 	ldr.w	r0, [r4, #704]	@ 0x2c0
 8007058:	f7fd faf1 	bl	800463e <HAL_PCDEx_PMAConfig>
 800705c:	23c0      	movs	r3, #192	@ 0xc0
 800705e:	2200      	movs	r2, #0
 8007060:	2181      	movs	r1, #129	@ 0x81
 8007062:	f8d4 02c0 	ldr.w	r0, [r4, #704]	@ 0x2c0
 8007066:	f7fd faea 	bl	800463e <HAL_PCDEx_PMAConfig>
 800706a:	f44f 7388 	mov.w	r3, #272	@ 0x110
 800706e:	2200      	movs	r2, #0
 8007070:	2101      	movs	r1, #1
 8007072:	f8d4 02c0 	ldr.w	r0, [r4, #704]	@ 0x2c0
 8007076:	f7fd fae2 	bl	800463e <HAL_PCDEx_PMAConfig>
 800707a:	f44f 7380 	mov.w	r3, #256	@ 0x100
 800707e:	2200      	movs	r2, #0
 8007080:	2182      	movs	r1, #130	@ 0x82
 8007082:	f8d4 02c0 	ldr.w	r0, [r4, #704]	@ 0x2c0
 8007086:	f7fd fada 	bl	800463e <HAL_PCDEx_PMAConfig>
 800708a:	2000      	movs	r0, #0
 800708c:	bd10      	pop	{r4, pc}
 800708e:	f7fb f84d 	bl	800212c <Error_Handler>
 8007092:	e7d5      	b.n	8007040 <USBD_LL_Init+0x28>
 8007094:	20001490 	.word	0x20001490
 8007098:	40005c00 	.word	0x40005c00

0800709c <USBD_LL_Start>:
 800709c:	b508      	push	{r3, lr}
 800709e:	f8d0 02c0 	ldr.w	r0, [r0, #704]	@ 0x2c0
 80070a2:	f7fc fbc9 	bl	8003838 <HAL_PCD_Start>
 80070a6:	f7ff ff3f 	bl	8006f28 <USBD_Get_USB_Status>
 80070aa:	bd08      	pop	{r3, pc}

080070ac <USBD_LL_OpenEP>:
 80070ac:	b508      	push	{r3, lr}
 80070ae:	4694      	mov	ip, r2
 80070b0:	461a      	mov	r2, r3
 80070b2:	4663      	mov	r3, ip
 80070b4:	f8d0 02c0 	ldr.w	r0, [r0, #704]	@ 0x2c0
 80070b8:	f7fd f97e 	bl	80043b8 <HAL_PCD_EP_Open>
 80070bc:	f7ff ff34 	bl	8006f28 <USBD_Get_USB_Status>
 80070c0:	bd08      	pop	{r3, pc}

080070c2 <USBD_LL_CloseEP>:
 80070c2:	b508      	push	{r3, lr}
 80070c4:	f8d0 02c0 	ldr.w	r0, [r0, #704]	@ 0x2c0
 80070c8:	f7fd f9b8 	bl	800443c <HAL_PCD_EP_Close>
 80070cc:	f7ff ff2c 	bl	8006f28 <USBD_Get_USB_Status>
 80070d0:	bd08      	pop	{r3, pc}

080070d2 <USBD_LL_StallEP>:
 80070d2:	b508      	push	{r3, lr}
 80070d4:	f8d0 02c0 	ldr.w	r0, [r0, #704]	@ 0x2c0
 80070d8:	f7fd fa32 	bl	8004540 <HAL_PCD_EP_SetStall>
 80070dc:	f7ff ff24 	bl	8006f28 <USBD_Get_USB_Status>
 80070e0:	bd08      	pop	{r3, pc}

080070e2 <USBD_LL_ClearStallEP>:
 80070e2:	b508      	push	{r3, lr}
 80070e4:	f8d0 02c0 	ldr.w	r0, [r0, #704]	@ 0x2c0
 80070e8:	f7fd fa6a 	bl	80045c0 <HAL_PCD_EP_ClrStall>
 80070ec:	f7ff ff1c 	bl	8006f28 <USBD_Get_USB_Status>
 80070f0:	bd08      	pop	{r3, pc}

080070f2 <USBD_LL_IsStallEP>:
 80070f2:	f8d0 32c0 	ldr.w	r3, [r0, #704]	@ 0x2c0
 80070f6:	f011 0f80 	tst.w	r1, #128	@ 0x80
 80070fa:	d108      	bne.n	800710e <USBD_LL_IsStallEP+0x1c>
 80070fc:	f001 017f 	and.w	r1, r1, #127	@ 0x7f
 8007100:	eb01 0181 	add.w	r1, r1, r1, lsl #2
 8007104:	eb03 03c1 	add.w	r3, r3, r1, lsl #3
 8007108:	f893 0152 	ldrb.w	r0, [r3, #338]	@ 0x152
 800710c:	4770      	bx	lr
 800710e:	f001 017f 	and.w	r1, r1, #127	@ 0x7f
 8007112:	eb01 0181 	add.w	r1, r1, r1, lsl #2
 8007116:	eb03 03c1 	add.w	r3, r3, r1, lsl #3
 800711a:	7c98      	ldrb	r0, [r3, #18]
 800711c:	4770      	bx	lr

0800711e <USBD_LL_SetUSBAddress>:
 800711e:	b508      	push	{r3, lr}
 8007120:	f8d0 02c0 	ldr.w	r0, [r0, #704]	@ 0x2c0
 8007124:	f7fd f85d 	bl	80041e2 <HAL_PCD_SetAddress>
 8007128:	f7ff fefe 	bl	8006f28 <USBD_Get_USB_Status>
 800712c:	bd08      	pop	{r3, pc}

0800712e <USBD_LL_Transmit>:
 800712e:	b508      	push	{r3, lr}
 8007130:	f8d0 02c0 	ldr.w	r0, [r0, #704]	@ 0x2c0
 8007134:	f7fd f9de 	bl	80044f4 <HAL_PCD_EP_Transmit>
 8007138:	f7ff fef6 	bl	8006f28 <USBD_Get_USB_Status>
 800713c:	bd08      	pop	{r3, pc}

0800713e <USBD_LL_PrepareReceive>:
 800713e:	b508      	push	{r3, lr}
 8007140:	f8d0 02c0 	ldr.w	r0, [r0, #704]	@ 0x2c0
 8007144:	f7fd f9b0 	bl	80044a8 <HAL_PCD_EP_Receive>
 8007148:	f7ff feee 	bl	8006f28 <USBD_Get_USB_Status>
 800714c:	bd08      	pop	{r3, pc}

0800714e <USBD_LL_GetRxDataSize>:
 800714e:	b508      	push	{r3, lr}
 8007150:	f8d0 02c0 	ldr.w	r0, [r0, #704]	@ 0x2c0
 8007154:	f7fd f9c5 	bl	80044e2 <HAL_PCD_EP_GetRxCount>
 8007158:	bd08      	pop	{r3, pc}
	...

0800715c <USBD_static_malloc>:
 800715c:	4800      	ldr	r0, [pc, #0]	@ (8007160 <USBD_static_malloc+0x4>)
 800715e:	4770      	bx	lr
 8007160:	20001270 	.word	0x20001270

08007164 <USBD_static_free>:
 8007164:	4770      	bx	lr

08007166 <HAL_PCDEx_SetConnectionState>:
 8007166:	4770      	bx	lr

08007168 <USBD_Init>:
 8007168:	b198      	cbz	r0, 8007192 <USBD_Init+0x2a>
 800716a:	b508      	push	{r3, lr}
 800716c:	4603      	mov	r3, r0
 800716e:	f8d0 02b4 	ldr.w	r0, [r0, #692]	@ 0x2b4
 8007172:	b110      	cbz	r0, 800717a <USBD_Init+0x12>
 8007174:	2000      	movs	r0, #0
 8007176:	f8c3 02b4 	str.w	r0, [r3, #692]	@ 0x2b4
 800717a:	b109      	cbz	r1, 8007180 <USBD_Init+0x18>
 800717c:	f8c3 12b0 	str.w	r1, [r3, #688]	@ 0x2b0
 8007180:	2101      	movs	r1, #1
 8007182:	f883 129c 	strb.w	r1, [r3, #668]	@ 0x29c
 8007186:	701a      	strb	r2, [r3, #0]
 8007188:	4618      	mov	r0, r3
 800718a:	f7ff ff45 	bl	8007018 <USBD_LL_Init>
 800718e:	2000      	movs	r0, #0
 8007190:	bd08      	pop	{r3, pc}
 8007192:	2002      	movs	r0, #2
 8007194:	4770      	bx	lr

08007196 <USBD_RegisterClass>:
 8007196:	b119      	cbz	r1, 80071a0 <USBD_RegisterClass+0xa>
 8007198:	f8c0 12b4 	str.w	r1, [r0, #692]	@ 0x2b4
 800719c:	2000      	movs	r0, #0
 800719e:	4770      	bx	lr
 80071a0:	2002      	movs	r0, #2
 80071a2:	4770      	bx	lr

080071a4 <USBD_Start>:
 80071a4:	b508      	push	{r3, lr}
 80071a6:	f7ff ff79 	bl	800709c <USBD_LL_Start>
 80071aa:	2000      	movs	r0, #0
 80071ac:	bd08      	pop	{r3, pc}

080071ae <USBD_SetClassConfig>:
 80071ae:	b508      	push	{r3, lr}
 80071b0:	f8d0 32b4 	ldr.w	r3, [r0, #692]	@ 0x2b4
 80071b4:	b12b      	cbz	r3, 80071c2 <USBD_SetClassConfig+0x14>
 80071b6:	681b      	ldr	r3, [r3, #0]
 80071b8:	4798      	blx	r3
 80071ba:	b900      	cbnz	r0, 80071be <USBD_SetClassConfig+0x10>
 80071bc:	bd08      	pop	{r3, pc}
 80071be:	2002      	movs	r0, #2
 80071c0:	e7fc      	b.n	80071bc <USBD_SetClassConfig+0xe>
 80071c2:	2002      	movs	r0, #2
 80071c4:	e7fa      	b.n	80071bc <USBD_SetClassConfig+0xe>

080071c6 <USBD_ClrClassConfig>:
 80071c6:	b508      	push	{r3, lr}
 80071c8:	f8d0 32b4 	ldr.w	r3, [r0, #692]	@ 0x2b4
 80071cc:	685b      	ldr	r3, [r3, #4]
 80071ce:	4798      	blx	r3
 80071d0:	2000      	movs	r0, #0
 80071d2:	bd08      	pop	{r3, pc}

080071d4 <USBD_LL_SetupStage>:
 80071d4:	b538      	push	{r3, r4, r5, lr}
 80071d6:	4604      	mov	r4, r0
 80071d8:	f500 752a 	add.w	r5, r0, #680	@ 0x2a8
 80071dc:	4628      	mov	r0, r5
 80071de:	f000 f935 	bl	800744c <USBD_ParseSetupRequest>
 80071e2:	2301      	movs	r3, #1
 80071e4:	f8c4 3294 	str.w	r3, [r4, #660]	@ 0x294
 80071e8:	f8b4 32ae 	ldrh.w	r3, [r4, #686]	@ 0x2ae
 80071ec:	f8c4 3298 	str.w	r3, [r4, #664]	@ 0x298
 80071f0:	f894 12a8 	ldrb.w	r1, [r4, #680]	@ 0x2a8
 80071f4:	f001 031f 	and.w	r3, r1, #31
 80071f8:	2b01      	cmp	r3, #1
 80071fa:	d008      	beq.n	800720e <USBD_LL_SetupStage+0x3a>
 80071fc:	2b02      	cmp	r3, #2
 80071fe:	d00b      	beq.n	8007218 <USBD_LL_SetupStage+0x44>
 8007200:	b97b      	cbnz	r3, 8007222 <USBD_LL_SetupStage+0x4e>
 8007202:	4629      	mov	r1, r5
 8007204:	4620      	mov	r0, r4
 8007206:	f000 facf 	bl	80077a8 <USBD_StdDevReq>
 800720a:	2000      	movs	r0, #0
 800720c:	bd38      	pop	{r3, r4, r5, pc}
 800720e:	4629      	mov	r1, r5
 8007210:	4620      	mov	r0, r4
 8007212:	f000 fafd 	bl	8007810 <USBD_StdItfReq>
 8007216:	e7f8      	b.n	800720a <USBD_LL_SetupStage+0x36>
 8007218:	4629      	mov	r1, r5
 800721a:	4620      	mov	r0, r4
 800721c:	f000 fb28 	bl	8007870 <USBD_StdEPReq>
 8007220:	e7f3      	b.n	800720a <USBD_LL_SetupStage+0x36>
 8007222:	f001 0180 	and.w	r1, r1, #128	@ 0x80
 8007226:	4620      	mov	r0, r4
 8007228:	f7ff ff53 	bl	80070d2 <USBD_LL_StallEP>
 800722c:	e7ed      	b.n	800720a <USBD_LL_SetupStage+0x36>

0800722e <USBD_LL_DataOutStage>:
 800722e:	b538      	push	{r3, r4, r5, lr}
 8007230:	4604      	mov	r4, r0
 8007232:	460d      	mov	r5, r1
 8007234:	bb91      	cbnz	r1, 800729c <USBD_LL_DataOutStage+0x6e>
 8007236:	4613      	mov	r3, r2
 8007238:	f8d0 2294 	ldr.w	r2, [r0, #660]	@ 0x294
 800723c:	2a03      	cmp	r2, #3
 800723e:	d003      	beq.n	8007248 <USBD_LL_DataOutStage+0x1a>
 8007240:	2a05      	cmp	r2, #5
 8007242:	d024      	beq.n	800728e <USBD_LL_DataOutStage+0x60>
 8007244:	4608      	mov	r0, r1
 8007246:	e033      	b.n	80072b0 <USBD_LL_DataOutStage+0x82>
 8007248:	f8d0 1160 	ldr.w	r1, [r0, #352]	@ 0x160
 800724c:	f8d0 2164 	ldr.w	r2, [r0, #356]	@ 0x164
 8007250:	4291      	cmp	r1, r2
 8007252:	d90d      	bls.n	8007270 <USBD_LL_DataOutStage+0x42>
 8007254:	1a89      	subs	r1, r1, r2
 8007256:	f8c0 1160 	str.w	r1, [r0, #352]	@ 0x160
 800725a:	428a      	cmp	r2, r1
 800725c:	d906      	bls.n	800726c <USBD_LL_DataOutStage+0x3e>
 800725e:	b28a      	uxth	r2, r1
 8007260:	4619      	mov	r1, r3
 8007262:	4620      	mov	r0, r4
 8007264:	f000 fcd0 	bl	8007c08 <USBD_CtlContinueRx>
 8007268:	4628      	mov	r0, r5
 800726a:	e021      	b.n	80072b0 <USBD_LL_DataOutStage+0x82>
 800726c:	b292      	uxth	r2, r2
 800726e:	e7f7      	b.n	8007260 <USBD_LL_DataOutStage+0x32>
 8007270:	f8d0 32b4 	ldr.w	r3, [r0, #692]	@ 0x2b4
 8007274:	691b      	ldr	r3, [r3, #16]
 8007276:	b11b      	cbz	r3, 8007280 <USBD_LL_DataOutStage+0x52>
 8007278:	f890 229c 	ldrb.w	r2, [r0, #668]	@ 0x29c
 800727c:	2a03      	cmp	r2, #3
 800727e:	d004      	beq.n	800728a <USBD_LL_DataOutStage+0x5c>
 8007280:	4620      	mov	r0, r4
 8007282:	f000 fcc9 	bl	8007c18 <USBD_CtlSendStatus>
 8007286:	4628      	mov	r0, r5
 8007288:	e012      	b.n	80072b0 <USBD_LL_DataOutStage+0x82>
 800728a:	4798      	blx	r3
 800728c:	e7f8      	b.n	8007280 <USBD_LL_DataOutStage+0x52>
 800728e:	2100      	movs	r1, #0
 8007290:	f8c0 1294 	str.w	r1, [r0, #660]	@ 0x294
 8007294:	f7ff ff1d 	bl	80070d2 <USBD_LL_StallEP>
 8007298:	4628      	mov	r0, r5
 800729a:	e009      	b.n	80072b0 <USBD_LL_DataOutStage+0x82>
 800729c:	f8d0 32b4 	ldr.w	r3, [r0, #692]	@ 0x2b4
 80072a0:	699b      	ldr	r3, [r3, #24]
 80072a2:	b133      	cbz	r3, 80072b2 <USBD_LL_DataOutStage+0x84>
 80072a4:	f890 229c 	ldrb.w	r2, [r0, #668]	@ 0x29c
 80072a8:	2a03      	cmp	r2, #3
 80072aa:	d104      	bne.n	80072b6 <USBD_LL_DataOutStage+0x88>
 80072ac:	4798      	blx	r3
 80072ae:	2000      	movs	r0, #0
 80072b0:	bd38      	pop	{r3, r4, r5, pc}
 80072b2:	2002      	movs	r0, #2
 80072b4:	e7fc      	b.n	80072b0 <USBD_LL_DataOutStage+0x82>
 80072b6:	2002      	movs	r0, #2
 80072b8:	e7fa      	b.n	80072b0 <USBD_LL_DataOutStage+0x82>

080072ba <USBD_LL_DataInStage>:
 80072ba:	b538      	push	{r3, r4, r5, lr}
 80072bc:	4604      	mov	r4, r0
 80072be:	460d      	mov	r5, r1
 80072c0:	2900      	cmp	r1, #0
 80072c2:	d153      	bne.n	800736c <USBD_LL_DataInStage+0xb2>
 80072c4:	4613      	mov	r3, r2
 80072c6:	f8d0 2294 	ldr.w	r2, [r0, #660]	@ 0x294
 80072ca:	2a02      	cmp	r2, #2
 80072cc:	d00c      	beq.n	80072e8 <USBD_LL_DataInStage+0x2e>
 80072ce:	2a04      	cmp	r2, #4
 80072d0:	d000      	beq.n	80072d4 <USBD_LL_DataInStage+0x1a>
 80072d2:	b91a      	cbnz	r2, 80072dc <USBD_LL_DataInStage+0x22>
 80072d4:	2180      	movs	r1, #128	@ 0x80
 80072d6:	4620      	mov	r0, r4
 80072d8:	f7ff fefb 	bl	80070d2 <USBD_LL_StallEP>
 80072dc:	f894 32a0 	ldrb.w	r3, [r4, #672]	@ 0x2a0
 80072e0:	2b01      	cmp	r3, #1
 80072e2:	d03e      	beq.n	8007362 <USBD_LL_DataInStage+0xa8>
 80072e4:	4628      	mov	r0, r5
 80072e6:	bd38      	pop	{r3, r4, r5, pc}
 80072e8:	6a02      	ldr	r2, [r0, #32]
 80072ea:	6a41      	ldr	r1, [r0, #36]	@ 0x24
 80072ec:	428a      	cmp	r2, r1
 80072ee:	d81b      	bhi.n	8007328 <USBD_LL_DataInStage+0x6e>
 80072f0:	69c2      	ldr	r2, [r0, #28]
 80072f2:	fbb2 f3f1 	udiv	r3, r2, r1
 80072f6:	fb01 2313 	mls	r3, r1, r3, r2
 80072fa:	b92b      	cbnz	r3, 8007308 <USBD_LL_DataInStage+0x4e>
 80072fc:	4291      	cmp	r1, r2
 80072fe:	d803      	bhi.n	8007308 <USBD_LL_DataInStage+0x4e>
 8007300:	f8d0 3298 	ldr.w	r3, [r0, #664]	@ 0x298
 8007304:	429a      	cmp	r2, r3
 8007306:	d31c      	bcc.n	8007342 <USBD_LL_DataInStage+0x88>
 8007308:	f8d4 32b4 	ldr.w	r3, [r4, #692]	@ 0x2b4
 800730c:	68db      	ldr	r3, [r3, #12]
 800730e:	b11b      	cbz	r3, 8007318 <USBD_LL_DataInStage+0x5e>
 8007310:	f894 229c 	ldrb.w	r2, [r4, #668]	@ 0x29c
 8007314:	2a03      	cmp	r2, #3
 8007316:	d021      	beq.n	800735c <USBD_LL_DataInStage+0xa2>
 8007318:	2180      	movs	r1, #128	@ 0x80
 800731a:	4620      	mov	r0, r4
 800731c:	f7ff fed9 	bl	80070d2 <USBD_LL_StallEP>
 8007320:	4620      	mov	r0, r4
 8007322:	f000 fc84 	bl	8007c2e <USBD_CtlReceiveStatus>
 8007326:	e7d9      	b.n	80072dc <USBD_LL_DataInStage+0x22>
 8007328:	1a52      	subs	r2, r2, r1
 800732a:	6202      	str	r2, [r0, #32]
 800732c:	b292      	uxth	r2, r2
 800732e:	4619      	mov	r1, r3
 8007330:	f000 fc53 	bl	8007bda <USBD_CtlContinueSendData>
 8007334:	2300      	movs	r3, #0
 8007336:	461a      	mov	r2, r3
 8007338:	4619      	mov	r1, r3
 800733a:	4620      	mov	r0, r4
 800733c:	f7ff feff 	bl	800713e <USBD_LL_PrepareReceive>
 8007340:	e7cc      	b.n	80072dc <USBD_LL_DataInStage+0x22>
 8007342:	2200      	movs	r2, #0
 8007344:	4611      	mov	r1, r2
 8007346:	f000 fc48 	bl	8007bda <USBD_CtlContinueSendData>
 800734a:	2100      	movs	r1, #0
 800734c:	f8c4 1298 	str.w	r1, [r4, #664]	@ 0x298
 8007350:	460b      	mov	r3, r1
 8007352:	460a      	mov	r2, r1
 8007354:	4620      	mov	r0, r4
 8007356:	f7ff fef2 	bl	800713e <USBD_LL_PrepareReceive>
 800735a:	e7bf      	b.n	80072dc <USBD_LL_DataInStage+0x22>
 800735c:	4620      	mov	r0, r4
 800735e:	4798      	blx	r3
 8007360:	e7da      	b.n	8007318 <USBD_LL_DataInStage+0x5e>
 8007362:	2300      	movs	r3, #0
 8007364:	f884 32a0 	strb.w	r3, [r4, #672]	@ 0x2a0
 8007368:	4628      	mov	r0, r5
 800736a:	e7bc      	b.n	80072e6 <USBD_LL_DataInStage+0x2c>
 800736c:	f8d0 32b4 	ldr.w	r3, [r0, #692]	@ 0x2b4
 8007370:	695b      	ldr	r3, [r3, #20]
 8007372:	b133      	cbz	r3, 8007382 <USBD_LL_DataInStage+0xc8>
 8007374:	f890 229c 	ldrb.w	r2, [r0, #668]	@ 0x29c
 8007378:	2a03      	cmp	r2, #3
 800737a:	d104      	bne.n	8007386 <USBD_LL_DataInStage+0xcc>
 800737c:	4798      	blx	r3
 800737e:	2000      	movs	r0, #0
 8007380:	e7b1      	b.n	80072e6 <USBD_LL_DataInStage+0x2c>
 8007382:	2002      	movs	r0, #2
 8007384:	e7af      	b.n	80072e6 <USBD_LL_DataInStage+0x2c>
 8007386:	2002      	movs	r0, #2
 8007388:	e7ad      	b.n	80072e6 <USBD_LL_DataInStage+0x2c>

0800738a <USBD_LL_Reset>:
 800738a:	b570      	push	{r4, r5, r6, lr}
 800738c:	4604      	mov	r4, r0
 800738e:	2340      	movs	r3, #64	@ 0x40
 8007390:	2200      	movs	r2, #0
 8007392:	4611      	mov	r1, r2
 8007394:	f7ff fe8a 	bl	80070ac <USBD_LL_OpenEP>
 8007398:	2501      	movs	r5, #1
 800739a:	f8c4 5158 	str.w	r5, [r4, #344]	@ 0x158
 800739e:	2640      	movs	r6, #64	@ 0x40
 80073a0:	f8c4 6164 	str.w	r6, [r4, #356]	@ 0x164
 80073a4:	4633      	mov	r3, r6
 80073a6:	2200      	movs	r2, #0
 80073a8:	2180      	movs	r1, #128	@ 0x80
 80073aa:	4620      	mov	r0, r4
 80073ac:	f7ff fe7e 	bl	80070ac <USBD_LL_OpenEP>
 80073b0:	61a5      	str	r5, [r4, #24]
 80073b2:	6266      	str	r6, [r4, #36]	@ 0x24
 80073b4:	f884 529c 	strb.w	r5, [r4, #668]	@ 0x29c
 80073b8:	2300      	movs	r3, #0
 80073ba:	f8c4 3294 	str.w	r3, [r4, #660]	@ 0x294
 80073be:	6063      	str	r3, [r4, #4]
 80073c0:	f8c4 32a4 	str.w	r3, [r4, #676]	@ 0x2a4
 80073c4:	f8d4 32b8 	ldr.w	r3, [r4, #696]	@ 0x2b8
 80073c8:	b12b      	cbz	r3, 80073d6 <USBD_LL_Reset+0x4c>
 80073ca:	f8d4 32b4 	ldr.w	r3, [r4, #692]	@ 0x2b4
 80073ce:	685b      	ldr	r3, [r3, #4]
 80073d0:	2100      	movs	r1, #0
 80073d2:	4620      	mov	r0, r4
 80073d4:	4798      	blx	r3
 80073d6:	2000      	movs	r0, #0
 80073d8:	bd70      	pop	{r4, r5, r6, pc}

080073da <USBD_LL_SetSpeed>:
 80073da:	7401      	strb	r1, [r0, #16]
 80073dc:	2000      	movs	r0, #0
 80073de:	4770      	bx	lr

080073e0 <USBD_LL_Suspend>:
 80073e0:	f890 329c 	ldrb.w	r3, [r0, #668]	@ 0x29c
 80073e4:	f880 329d 	strb.w	r3, [r0, #669]	@ 0x29d
 80073e8:	2304      	movs	r3, #4
 80073ea:	f880 329c 	strb.w	r3, [r0, #668]	@ 0x29c
 80073ee:	2000      	movs	r0, #0
 80073f0:	4770      	bx	lr

080073f2 <USBD_LL_Resume>:
 80073f2:	f890 329c 	ldrb.w	r3, [r0, #668]	@ 0x29c
 80073f6:	2b04      	cmp	r3, #4
 80073f8:	d001      	beq.n	80073fe <USBD_LL_Resume+0xc>
 80073fa:	2000      	movs	r0, #0
 80073fc:	4770      	bx	lr
 80073fe:	f890 329d 	ldrb.w	r3, [r0, #669]	@ 0x29d
 8007402:	f880 329c 	strb.w	r3, [r0, #668]	@ 0x29c
 8007406:	e7f8      	b.n	80073fa <USBD_LL_Resume+0x8>

08007408 <USBD_LL_SOF>:
 8007408:	b508      	push	{r3, lr}
 800740a:	f890 329c 	ldrb.w	r3, [r0, #668]	@ 0x29c
 800740e:	2b03      	cmp	r3, #3
 8007410:	d001      	beq.n	8007416 <USBD_LL_SOF+0xe>
 8007412:	2000      	movs	r0, #0
 8007414:	bd08      	pop	{r3, pc}
 8007416:	f8d0 32b4 	ldr.w	r3, [r0, #692]	@ 0x2b4
 800741a:	69db      	ldr	r3, [r3, #28]
 800741c:	2b00      	cmp	r3, #0
 800741e:	d0f8      	beq.n	8007412 <USBD_LL_SOF+0xa>
 8007420:	4798      	blx	r3
 8007422:	e7f6      	b.n	8007412 <USBD_LL_SOF+0xa>

08007424 <USBD_GetLen>:
 8007424:	4603      	mov	r3, r0
 8007426:	2000      	movs	r0, #0
 8007428:	e002      	b.n	8007430 <USBD_GetLen+0xc>
 800742a:	3001      	adds	r0, #1
 800742c:	b2c0      	uxtb	r0, r0
 800742e:	3301      	adds	r3, #1
 8007430:	781a      	ldrb	r2, [r3, #0]
 8007432:	2a00      	cmp	r2, #0
 8007434:	d1f9      	bne.n	800742a <USBD_GetLen+0x6>
 8007436:	4770      	bx	lr

08007438 <USBD_SetFeature>:
 8007438:	b508      	push	{r3, lr}
 800743a:	884b      	ldrh	r3, [r1, #2]
 800743c:	2b01      	cmp	r3, #1
 800743e:	d000      	beq.n	8007442 <USBD_SetFeature+0xa>
 8007440:	bd08      	pop	{r3, pc}
 8007442:	f8c0 32a4 	str.w	r3, [r0, #676]	@ 0x2a4
 8007446:	f000 fbe7 	bl	8007c18 <USBD_CtlSendStatus>
 800744a:	e7f9      	b.n	8007440 <USBD_SetFeature+0x8>

0800744c <USBD_ParseSetupRequest>:
 800744c:	780b      	ldrb	r3, [r1, #0]
 800744e:	7003      	strb	r3, [r0, #0]
 8007450:	784b      	ldrb	r3, [r1, #1]
 8007452:	7043      	strb	r3, [r0, #1]
 8007454:	788b      	ldrb	r3, [r1, #2]
 8007456:	78ca      	ldrb	r2, [r1, #3]
 8007458:	eb03 2302 	add.w	r3, r3, r2, lsl #8
 800745c:	8043      	strh	r3, [r0, #2]
 800745e:	790b      	ldrb	r3, [r1, #4]
 8007460:	794a      	ldrb	r2, [r1, #5]
 8007462:	eb03 2302 	add.w	r3, r3, r2, lsl #8
 8007466:	8083      	strh	r3, [r0, #4]
 8007468:	798b      	ldrb	r3, [r1, #6]
 800746a:	79ca      	ldrb	r2, [r1, #7]
 800746c:	eb03 2302 	add.w	r3, r3, r2, lsl #8
 8007470:	80c3      	strh	r3, [r0, #6]
 8007472:	4770      	bx	lr

08007474 <USBD_CtlError>:
 8007474:	b510      	push	{r4, lr}
 8007476:	4604      	mov	r4, r0
 8007478:	2180      	movs	r1, #128	@ 0x80
 800747a:	f7ff fe2a 	bl	80070d2 <USBD_LL_StallEP>
 800747e:	2100      	movs	r1, #0
 8007480:	4620      	mov	r0, r4
 8007482:	f7ff fe26 	bl	80070d2 <USBD_LL_StallEP>
 8007486:	bd10      	pop	{r4, pc}

08007488 <USBD_GetDescriptor>:
 8007488:	b530      	push	{r4, r5, lr}
 800748a:	b083      	sub	sp, #12
 800748c:	4605      	mov	r5, r0
 800748e:	460c      	mov	r4, r1
 8007490:	2300      	movs	r3, #0
 8007492:	f8ad 3006 	strh.w	r3, [sp, #6]
 8007496:	884a      	ldrh	r2, [r1, #2]
 8007498:	0a13      	lsrs	r3, r2, #8
 800749a:	3b01      	subs	r3, #1
 800749c:	2b06      	cmp	r3, #6
 800749e:	f200 80a4 	bhi.w	80075ea <USBD_GetDescriptor+0x162>
 80074a2:	e8df f003 	tbb	[pc, r3]
 80074a6:	1804      	.short	0x1804
 80074a8:	86a2a22c 	.word	0x86a2a22c
 80074ac:	93          	.byte	0x93
 80074ad:	00          	.byte	0x00
 80074ae:	f8d0 32b0 	ldr.w	r3, [r0, #688]	@ 0x2b0
 80074b2:	681b      	ldr	r3, [r3, #0]
 80074b4:	f10d 0106 	add.w	r1, sp, #6
 80074b8:	7c00      	ldrb	r0, [r0, #16]
 80074ba:	4798      	blx	r3
 80074bc:	f8bd 2006 	ldrh.w	r2, [sp, #6]
 80074c0:	b11a      	cbz	r2, 80074ca <USBD_GetDescriptor+0x42>
 80074c2:	88e3      	ldrh	r3, [r4, #6]
 80074c4:	2b00      	cmp	r3, #0
 80074c6:	f040 8094 	bne.w	80075f2 <USBD_GetDescriptor+0x16a>
 80074ca:	88e3      	ldrh	r3, [r4, #6]
 80074cc:	2b00      	cmp	r3, #0
 80074ce:	f000 809a 	beq.w	8007606 <USBD_GetDescriptor+0x17e>
 80074d2:	b003      	add	sp, #12
 80074d4:	bd30      	pop	{r4, r5, pc}
 80074d6:	7c03      	ldrb	r3, [r0, #16]
 80074d8:	b943      	cbnz	r3, 80074ec <USBD_GetDescriptor+0x64>
 80074da:	f8d0 32b4 	ldr.w	r3, [r0, #692]	@ 0x2b4
 80074de:	6a9b      	ldr	r3, [r3, #40]	@ 0x28
 80074e0:	f10d 0006 	add.w	r0, sp, #6
 80074e4:	4798      	blx	r3
 80074e6:	2302      	movs	r3, #2
 80074e8:	7043      	strb	r3, [r0, #1]
 80074ea:	e7e7      	b.n	80074bc <USBD_GetDescriptor+0x34>
 80074ec:	f8d0 32b4 	ldr.w	r3, [r0, #692]	@ 0x2b4
 80074f0:	6adb      	ldr	r3, [r3, #44]	@ 0x2c
 80074f2:	f10d 0006 	add.w	r0, sp, #6
 80074f6:	4798      	blx	r3
 80074f8:	2302      	movs	r3, #2
 80074fa:	7043      	strb	r3, [r0, #1]
 80074fc:	e7de      	b.n	80074bc <USBD_GetDescriptor+0x34>
 80074fe:	b2d2      	uxtb	r2, r2
 8007500:	2a05      	cmp	r2, #5
 8007502:	d852      	bhi.n	80075aa <USBD_GetDescriptor+0x122>
 8007504:	e8df f002 	tbb	[pc, r2]
 8007508:	2a1d1003 	.word	0x2a1d1003
 800750c:	4437      	.short	0x4437
 800750e:	f8d0 32b0 	ldr.w	r3, [r0, #688]	@ 0x2b0
 8007512:	685b      	ldr	r3, [r3, #4]
 8007514:	b123      	cbz	r3, 8007520 <USBD_GetDescriptor+0x98>
 8007516:	f10d 0106 	add.w	r1, sp, #6
 800751a:	7c00      	ldrb	r0, [r0, #16]
 800751c:	4798      	blx	r3
 800751e:	e7cd      	b.n	80074bc <USBD_GetDescriptor+0x34>
 8007520:	4621      	mov	r1, r4
 8007522:	f7ff ffa7 	bl	8007474 <USBD_CtlError>
 8007526:	e7d4      	b.n	80074d2 <USBD_GetDescriptor+0x4a>
 8007528:	f8d0 32b0 	ldr.w	r3, [r0, #688]	@ 0x2b0
 800752c:	689b      	ldr	r3, [r3, #8]
 800752e:	b123      	cbz	r3, 800753a <USBD_GetDescriptor+0xb2>
 8007530:	f10d 0106 	add.w	r1, sp, #6
 8007534:	7c00      	ldrb	r0, [r0, #16]
 8007536:	4798      	blx	r3
 8007538:	e7c0      	b.n	80074bc <USBD_GetDescriptor+0x34>
 800753a:	4621      	mov	r1, r4
 800753c:	f7ff ff9a 	bl	8007474 <USBD_CtlError>
 8007540:	e7c7      	b.n	80074d2 <USBD_GetDescriptor+0x4a>
 8007542:	f8d0 32b0 	ldr.w	r3, [r0, #688]	@ 0x2b0
 8007546:	68db      	ldr	r3, [r3, #12]
 8007548:	b123      	cbz	r3, 8007554 <USBD_GetDescriptor+0xcc>
 800754a:	f10d 0106 	add.w	r1, sp, #6
 800754e:	7c00      	ldrb	r0, [r0, #16]
 8007550:	4798      	blx	r3
 8007552:	e7b3      	b.n	80074bc <USBD_GetDescriptor+0x34>
 8007554:	4621      	mov	r1, r4
 8007556:	f7ff ff8d 	bl	8007474 <USBD_CtlError>
 800755a:	e7ba      	b.n	80074d2 <USBD_GetDescriptor+0x4a>
 800755c:	f8d0 32b0 	ldr.w	r3, [r0, #688]	@ 0x2b0
 8007560:	691b      	ldr	r3, [r3, #16]
 8007562:	b123      	cbz	r3, 800756e <USBD_GetDescriptor+0xe6>
 8007564:	f10d 0106 	add.w	r1, sp, #6
 8007568:	7c00      	ldrb	r0, [r0, #16]
 800756a:	4798      	blx	r3
 800756c:	e7a6      	b.n	80074bc <USBD_GetDescriptor+0x34>
 800756e:	4621      	mov	r1, r4
 8007570:	f7ff ff80 	bl	8007474 <USBD_CtlError>
 8007574:	e7ad      	b.n	80074d2 <USBD_GetDescriptor+0x4a>
 8007576:	f8d0 32b0 	ldr.w	r3, [r0, #688]	@ 0x2b0
 800757a:	695b      	ldr	r3, [r3, #20]
 800757c:	b123      	cbz	r3, 8007588 <USBD_GetDescriptor+0x100>
 800757e:	f10d 0106 	add.w	r1, sp, #6
 8007582:	7c00      	ldrb	r0, [r0, #16]
 8007584:	4798      	blx	r3
 8007586:	e799      	b.n	80074bc <USBD_GetDescriptor+0x34>
 8007588:	4621      	mov	r1, r4
 800758a:	f7ff ff73 	bl	8007474 <USBD_CtlError>
 800758e:	e7a0      	b.n	80074d2 <USBD_GetDescriptor+0x4a>
 8007590:	f8d0 32b0 	ldr.w	r3, [r0, #688]	@ 0x2b0
 8007594:	699b      	ldr	r3, [r3, #24]
 8007596:	b123      	cbz	r3, 80075a2 <USBD_GetDescriptor+0x11a>
 8007598:	f10d 0106 	add.w	r1, sp, #6
 800759c:	7c00      	ldrb	r0, [r0, #16]
 800759e:	4798      	blx	r3
 80075a0:	e78c      	b.n	80074bc <USBD_GetDescriptor+0x34>
 80075a2:	4621      	mov	r1, r4
 80075a4:	f7ff ff66 	bl	8007474 <USBD_CtlError>
 80075a8:	e793      	b.n	80074d2 <USBD_GetDescriptor+0x4a>
 80075aa:	4621      	mov	r1, r4
 80075ac:	f7ff ff62 	bl	8007474 <USBD_CtlError>
 80075b0:	e78f      	b.n	80074d2 <USBD_GetDescriptor+0x4a>
 80075b2:	7c03      	ldrb	r3, [r0, #16]
 80075b4:	b933      	cbnz	r3, 80075c4 <USBD_GetDescriptor+0x13c>
 80075b6:	f8d0 32b4 	ldr.w	r3, [r0, #692]	@ 0x2b4
 80075ba:	6b5b      	ldr	r3, [r3, #52]	@ 0x34
 80075bc:	f10d 0006 	add.w	r0, sp, #6
 80075c0:	4798      	blx	r3
 80075c2:	e77b      	b.n	80074bc <USBD_GetDescriptor+0x34>
 80075c4:	4621      	mov	r1, r4
 80075c6:	f7ff ff55 	bl	8007474 <USBD_CtlError>
 80075ca:	e782      	b.n	80074d2 <USBD_GetDescriptor+0x4a>
 80075cc:	7c03      	ldrb	r3, [r0, #16]
 80075ce:	b943      	cbnz	r3, 80075e2 <USBD_GetDescriptor+0x15a>
 80075d0:	f8d0 32b4 	ldr.w	r3, [r0, #692]	@ 0x2b4
 80075d4:	6b1b      	ldr	r3, [r3, #48]	@ 0x30
 80075d6:	f10d 0006 	add.w	r0, sp, #6
 80075da:	4798      	blx	r3
 80075dc:	2307      	movs	r3, #7
 80075de:	7043      	strb	r3, [r0, #1]
 80075e0:	e76c      	b.n	80074bc <USBD_GetDescriptor+0x34>
 80075e2:	4621      	mov	r1, r4
 80075e4:	f7ff ff46 	bl	8007474 <USBD_CtlError>
 80075e8:	e773      	b.n	80074d2 <USBD_GetDescriptor+0x4a>
 80075ea:	4621      	mov	r1, r4
 80075ec:	f7ff ff42 	bl	8007474 <USBD_CtlError>
 80075f0:	e76f      	b.n	80074d2 <USBD_GetDescriptor+0x4a>
 80075f2:	429a      	cmp	r2, r3
 80075f4:	bf28      	it	cs
 80075f6:	461a      	movcs	r2, r3
 80075f8:	f8ad 2006 	strh.w	r2, [sp, #6]
 80075fc:	4601      	mov	r1, r0
 80075fe:	4628      	mov	r0, r5
 8007600:	f000 fade 	bl	8007bc0 <USBD_CtlSendData>
 8007604:	e761      	b.n	80074ca <USBD_GetDescriptor+0x42>
 8007606:	4628      	mov	r0, r5
 8007608:	f000 fb06 	bl	8007c18 <USBD_CtlSendStatus>
 800760c:	e761      	b.n	80074d2 <USBD_GetDescriptor+0x4a>

0800760e <USBD_SetAddress>:
 800760e:	b538      	push	{r3, r4, r5, lr}
 8007610:	4604      	mov	r4, r0
 8007612:	888b      	ldrh	r3, [r1, #4]
 8007614:	b9f3      	cbnz	r3, 8007654 <USBD_SetAddress+0x46>
 8007616:	88cb      	ldrh	r3, [r1, #6]
 8007618:	b9e3      	cbnz	r3, 8007654 <USBD_SetAddress+0x46>
 800761a:	884b      	ldrh	r3, [r1, #2]
 800761c:	2b7f      	cmp	r3, #127	@ 0x7f
 800761e:	d819      	bhi.n	8007654 <USBD_SetAddress+0x46>
 8007620:	f003 057f 	and.w	r5, r3, #127	@ 0x7f
 8007624:	f890 329c 	ldrb.w	r3, [r0, #668]	@ 0x29c
 8007628:	2b03      	cmp	r3, #3
 800762a:	d00c      	beq.n	8007646 <USBD_SetAddress+0x38>
 800762c:	f880 529e 	strb.w	r5, [r0, #670]	@ 0x29e
 8007630:	4629      	mov	r1, r5
 8007632:	f7ff fd74 	bl	800711e <USBD_LL_SetUSBAddress>
 8007636:	4620      	mov	r0, r4
 8007638:	f000 faee 	bl	8007c18 <USBD_CtlSendStatus>
 800763c:	b135      	cbz	r5, 800764c <USBD_SetAddress+0x3e>
 800763e:	2302      	movs	r3, #2
 8007640:	f884 329c 	strb.w	r3, [r4, #668]	@ 0x29c
 8007644:	e009      	b.n	800765a <USBD_SetAddress+0x4c>
 8007646:	f7ff ff15 	bl	8007474 <USBD_CtlError>
 800764a:	e006      	b.n	800765a <USBD_SetAddress+0x4c>
 800764c:	2301      	movs	r3, #1
 800764e:	f884 329c 	strb.w	r3, [r4, #668]	@ 0x29c
 8007652:	e002      	b.n	800765a <USBD_SetAddress+0x4c>
 8007654:	4620      	mov	r0, r4
 8007656:	f7ff ff0d 	bl	8007474 <USBD_CtlError>
 800765a:	bd38      	pop	{r3, r4, r5, pc}

0800765c <USBD_SetConfig>:
 800765c:	b538      	push	{r3, r4, r5, lr}
 800765e:	4604      	mov	r4, r0
 8007660:	460d      	mov	r5, r1
 8007662:	7889      	ldrb	r1, [r1, #2]
 8007664:	4b28      	ldr	r3, [pc, #160]	@ (8007708 <USBD_SetConfig+0xac>)
 8007666:	7019      	strb	r1, [r3, #0]
 8007668:	2901      	cmp	r1, #1
 800766a:	d80e      	bhi.n	800768a <USBD_SetConfig+0x2e>
 800766c:	f890 329c 	ldrb.w	r3, [r0, #668]	@ 0x29c
 8007670:	2b02      	cmp	r3, #2
 8007672:	d00e      	beq.n	8007692 <USBD_SetConfig+0x36>
 8007674:	2b03      	cmp	r3, #3
 8007676:	d021      	beq.n	80076bc <USBD_SetConfig+0x60>
 8007678:	4629      	mov	r1, r5
 800767a:	f7ff fefb 	bl	8007474 <USBD_CtlError>
 800767e:	4b22      	ldr	r3, [pc, #136]	@ (8007708 <USBD_SetConfig+0xac>)
 8007680:	7819      	ldrb	r1, [r3, #0]
 8007682:	4620      	mov	r0, r4
 8007684:	f7ff fd9f 	bl	80071c6 <USBD_ClrClassConfig>
 8007688:	e002      	b.n	8007690 <USBD_SetConfig+0x34>
 800768a:	4629      	mov	r1, r5
 800768c:	f7ff fef2 	bl	8007474 <USBD_CtlError>
 8007690:	bd38      	pop	{r3, r4, r5, pc}
 8007692:	b181      	cbz	r1, 80076b6 <USBD_SetConfig+0x5a>
 8007694:	6041      	str	r1, [r0, #4]
 8007696:	2303      	movs	r3, #3
 8007698:	f880 329c 	strb.w	r3, [r0, #668]	@ 0x29c
 800769c:	f7ff fd87 	bl	80071ae <USBD_SetClassConfig>
 80076a0:	2802      	cmp	r0, #2
 80076a2:	d003      	beq.n	80076ac <USBD_SetConfig+0x50>
 80076a4:	4620      	mov	r0, r4
 80076a6:	f000 fab7 	bl	8007c18 <USBD_CtlSendStatus>
 80076aa:	e7f1      	b.n	8007690 <USBD_SetConfig+0x34>
 80076ac:	4629      	mov	r1, r5
 80076ae:	4620      	mov	r0, r4
 80076b0:	f7ff fee0 	bl	8007474 <USBD_CtlError>
 80076b4:	e7ec      	b.n	8007690 <USBD_SetConfig+0x34>
 80076b6:	f000 faaf 	bl	8007c18 <USBD_CtlSendStatus>
 80076ba:	e7e9      	b.n	8007690 <USBD_SetConfig+0x34>
 80076bc:	b189      	cbz	r1, 80076e2 <USBD_SetConfig+0x86>
 80076be:	6843      	ldr	r3, [r0, #4]
 80076c0:	4299      	cmp	r1, r3
 80076c2:	d01d      	beq.n	8007700 <USBD_SetConfig+0xa4>
 80076c4:	b2d9      	uxtb	r1, r3
 80076c6:	f7ff fd7e 	bl	80071c6 <USBD_ClrClassConfig>
 80076ca:	4b0f      	ldr	r3, [pc, #60]	@ (8007708 <USBD_SetConfig+0xac>)
 80076cc:	7819      	ldrb	r1, [r3, #0]
 80076ce:	6061      	str	r1, [r4, #4]
 80076d0:	4620      	mov	r0, r4
 80076d2:	f7ff fd6c 	bl	80071ae <USBD_SetClassConfig>
 80076d6:	2802      	cmp	r0, #2
 80076d8:	d00d      	beq.n	80076f6 <USBD_SetConfig+0x9a>
 80076da:	4620      	mov	r0, r4
 80076dc:	f000 fa9c 	bl	8007c18 <USBD_CtlSendStatus>
 80076e0:	e7d6      	b.n	8007690 <USBD_SetConfig+0x34>
 80076e2:	2302      	movs	r3, #2
 80076e4:	f880 329c 	strb.w	r3, [r0, #668]	@ 0x29c
 80076e8:	6041      	str	r1, [r0, #4]
 80076ea:	f7ff fd6c 	bl	80071c6 <USBD_ClrClassConfig>
 80076ee:	4620      	mov	r0, r4
 80076f0:	f000 fa92 	bl	8007c18 <USBD_CtlSendStatus>
 80076f4:	e7cc      	b.n	8007690 <USBD_SetConfig+0x34>
 80076f6:	4629      	mov	r1, r5
 80076f8:	4620      	mov	r0, r4
 80076fa:	f7ff febb 	bl	8007474 <USBD_CtlError>
 80076fe:	e7c7      	b.n	8007690 <USBD_SetConfig+0x34>
 8007700:	f000 fa8a 	bl	8007c18 <USBD_CtlSendStatus>
 8007704:	e7c4      	b.n	8007690 <USBD_SetConfig+0x34>
 8007706:	bf00      	nop
 8007708:	20001768 	.word	0x20001768

0800770c <USBD_GetConfig>:
 800770c:	b508      	push	{r3, lr}
 800770e:	88cb      	ldrh	r3, [r1, #6]
 8007710:	2b01      	cmp	r3, #1
 8007712:	d10a      	bne.n	800772a <USBD_GetConfig+0x1e>
 8007714:	f890 329c 	ldrb.w	r3, [r0, #668]	@ 0x29c
 8007718:	2b02      	cmp	r3, #2
 800771a:	d909      	bls.n	8007730 <USBD_GetConfig+0x24>
 800771c:	2b03      	cmp	r3, #3
 800771e:	d111      	bne.n	8007744 <USBD_GetConfig+0x38>
 8007720:	2201      	movs	r2, #1
 8007722:	1d01      	adds	r1, r0, #4
 8007724:	f000 fa4c 	bl	8007bc0 <USBD_CtlSendData>
 8007728:	e001      	b.n	800772e <USBD_GetConfig+0x22>
 800772a:	f7ff fea3 	bl	8007474 <USBD_CtlError>
 800772e:	bd08      	pop	{r3, pc}
 8007730:	b25b      	sxtb	r3, r3
 8007732:	b13b      	cbz	r3, 8007744 <USBD_GetConfig+0x38>
 8007734:	4601      	mov	r1, r0
 8007736:	2300      	movs	r3, #0
 8007738:	f841 3f08 	str.w	r3, [r1, #8]!
 800773c:	2201      	movs	r2, #1
 800773e:	f000 fa3f 	bl	8007bc0 <USBD_CtlSendData>
 8007742:	e7f4      	b.n	800772e <USBD_GetConfig+0x22>
 8007744:	f7ff fe96 	bl	8007474 <USBD_CtlError>
 8007748:	e7f1      	b.n	800772e <USBD_GetConfig+0x22>

0800774a <USBD_GetStatus>:
 800774a:	b508      	push	{r3, lr}
 800774c:	f890 329c 	ldrb.w	r3, [r0, #668]	@ 0x29c
 8007750:	3b01      	subs	r3, #1
 8007752:	2b02      	cmp	r3, #2
 8007754:	d812      	bhi.n	800777c <USBD_GetStatus+0x32>
 8007756:	88cb      	ldrh	r3, [r1, #6]
 8007758:	2b02      	cmp	r3, #2
 800775a:	d10c      	bne.n	8007776 <USBD_GetStatus+0x2c>
 800775c:	2300      	movs	r3, #0
 800775e:	60c3      	str	r3, [r0, #12]
 8007760:	f8d0 32a4 	ldr.w	r3, [r0, #676]	@ 0x2a4
 8007764:	b10b      	cbz	r3, 800776a <USBD_GetStatus+0x20>
 8007766:	2302      	movs	r3, #2
 8007768:	60c3      	str	r3, [r0, #12]
 800776a:	2202      	movs	r2, #2
 800776c:	f100 010c 	add.w	r1, r0, #12
 8007770:	f000 fa26 	bl	8007bc0 <USBD_CtlSendData>
 8007774:	bd08      	pop	{r3, pc}
 8007776:	f7ff fe7d 	bl	8007474 <USBD_CtlError>
 800777a:	e7fb      	b.n	8007774 <USBD_GetStatus+0x2a>
 800777c:	f7ff fe7a 	bl	8007474 <USBD_CtlError>
 8007780:	e7f8      	b.n	8007774 <USBD_GetStatus+0x2a>

08007782 <USBD_ClrFeature>:
 8007782:	b508      	push	{r3, lr}
 8007784:	f890 329c 	ldrb.w	r3, [r0, #668]	@ 0x29c
 8007788:	3b01      	subs	r3, #1
 800778a:	2b02      	cmp	r3, #2
 800778c:	d809      	bhi.n	80077a2 <USBD_ClrFeature+0x20>
 800778e:	884b      	ldrh	r3, [r1, #2]
 8007790:	2b01      	cmp	r3, #1
 8007792:	d000      	beq.n	8007796 <USBD_ClrFeature+0x14>
 8007794:	bd08      	pop	{r3, pc}
 8007796:	2300      	movs	r3, #0
 8007798:	f8c0 32a4 	str.w	r3, [r0, #676]	@ 0x2a4
 800779c:	f000 fa3c 	bl	8007c18 <USBD_CtlSendStatus>
 80077a0:	e7f8      	b.n	8007794 <USBD_ClrFeature+0x12>
 80077a2:	f7ff fe67 	bl	8007474 <USBD_CtlError>
 80077a6:	e7f5      	b.n	8007794 <USBD_ClrFeature+0x12>

080077a8 <USBD_StdDevReq>:
 80077a8:	b508      	push	{r3, lr}
 80077aa:	780b      	ldrb	r3, [r1, #0]
 80077ac:	f003 0360 	and.w	r3, r3, #96	@ 0x60
 80077b0:	2b20      	cmp	r3, #32
 80077b2:	d005      	beq.n	80077c0 <USBD_StdDevReq+0x18>
 80077b4:	2b40      	cmp	r3, #64	@ 0x40
 80077b6:	d003      	beq.n	80077c0 <USBD_StdDevReq+0x18>
 80077b8:	b143      	cbz	r3, 80077cc <USBD_StdDevReq+0x24>
 80077ba:	f7ff fe5b 	bl	8007474 <USBD_CtlError>
 80077be:	e003      	b.n	80077c8 <USBD_StdDevReq+0x20>
 80077c0:	f8d0 32b4 	ldr.w	r3, [r0, #692]	@ 0x2b4
 80077c4:	689b      	ldr	r3, [r3, #8]
 80077c6:	4798      	blx	r3
 80077c8:	2000      	movs	r0, #0
 80077ca:	bd08      	pop	{r3, pc}
 80077cc:	784b      	ldrb	r3, [r1, #1]
 80077ce:	2b09      	cmp	r3, #9
 80077d0:	d81b      	bhi.n	800780a <USBD_StdDevReq+0x62>
 80077d2:	e8df f003 	tbb	[pc, r3]
 80077d6:	1711      	.short	0x1711
 80077d8:	081a141a 	.word	0x081a141a
 80077dc:	0b0e1a05 	.word	0x0b0e1a05
 80077e0:	f7ff fe52 	bl	8007488 <USBD_GetDescriptor>
 80077e4:	e7f0      	b.n	80077c8 <USBD_StdDevReq+0x20>
 80077e6:	f7ff ff12 	bl	800760e <USBD_SetAddress>
 80077ea:	e7ed      	b.n	80077c8 <USBD_StdDevReq+0x20>
 80077ec:	f7ff ff36 	bl	800765c <USBD_SetConfig>
 80077f0:	e7ea      	b.n	80077c8 <USBD_StdDevReq+0x20>
 80077f2:	f7ff ff8b 	bl	800770c <USBD_GetConfig>
 80077f6:	e7e7      	b.n	80077c8 <USBD_StdDevReq+0x20>
 80077f8:	f7ff ffa7 	bl	800774a <USBD_GetStatus>
 80077fc:	e7e4      	b.n	80077c8 <USBD_StdDevReq+0x20>
 80077fe:	f7ff fe1b 	bl	8007438 <USBD_SetFeature>
 8007802:	e7e1      	b.n	80077c8 <USBD_StdDevReq+0x20>
 8007804:	f7ff ffbd 	bl	8007782 <USBD_ClrFeature>
 8007808:	e7de      	b.n	80077c8 <USBD_StdDevReq+0x20>
 800780a:	f7ff fe33 	bl	8007474 <USBD_CtlError>
 800780e:	e7db      	b.n	80077c8 <USBD_StdDevReq+0x20>

08007810 <USBD_StdItfReq>:
 8007810:	b538      	push	{r3, r4, r5, lr}
 8007812:	4605      	mov	r5, r0
 8007814:	460c      	mov	r4, r1
 8007816:	780b      	ldrb	r3, [r1, #0]
 8007818:	f003 0360 	and.w	r3, r3, #96	@ 0x60
 800781c:	2b20      	cmp	r3, #32
 800781e:	d006      	beq.n	800782e <USBD_StdItfReq+0x1e>
 8007820:	2b40      	cmp	r3, #64	@ 0x40
 8007822:	d004      	beq.n	800782e <USBD_StdItfReq+0x1e>
 8007824:	b11b      	cbz	r3, 800782e <USBD_StdItfReq+0x1e>
 8007826:	f7ff fe25 	bl	8007474 <USBD_CtlError>
 800782a:	2000      	movs	r0, #0
 800782c:	bd38      	pop	{r3, r4, r5, pc}
 800782e:	f895 329c 	ldrb.w	r3, [r5, #668]	@ 0x29c
 8007832:	3b01      	subs	r3, #1
 8007834:	2b02      	cmp	r3, #2
 8007836:	d816      	bhi.n	8007866 <USBD_StdItfReq+0x56>
 8007838:	7923      	ldrb	r3, [r4, #4]
 800783a:	2b01      	cmp	r3, #1
 800783c:	d80e      	bhi.n	800785c <USBD_StdItfReq+0x4c>
 800783e:	f8d5 32b4 	ldr.w	r3, [r5, #692]	@ 0x2b4
 8007842:	689b      	ldr	r3, [r3, #8]
 8007844:	4621      	mov	r1, r4
 8007846:	4628      	mov	r0, r5
 8007848:	4798      	blx	r3
 800784a:	88e3      	ldrh	r3, [r4, #6]
 800784c:	2b00      	cmp	r3, #0
 800784e:	d1ec      	bne.n	800782a <USBD_StdItfReq+0x1a>
 8007850:	2800      	cmp	r0, #0
 8007852:	d1ea      	bne.n	800782a <USBD_StdItfReq+0x1a>
 8007854:	4628      	mov	r0, r5
 8007856:	f000 f9df 	bl	8007c18 <USBD_CtlSendStatus>
 800785a:	e7e6      	b.n	800782a <USBD_StdItfReq+0x1a>
 800785c:	4621      	mov	r1, r4
 800785e:	4628      	mov	r0, r5
 8007860:	f7ff fe08 	bl	8007474 <USBD_CtlError>
 8007864:	e7e1      	b.n	800782a <USBD_StdItfReq+0x1a>
 8007866:	4621      	mov	r1, r4
 8007868:	4628      	mov	r0, r5
 800786a:	f7ff fe03 	bl	8007474 <USBD_CtlError>
 800786e:	e7dc      	b.n	800782a <USBD_StdItfReq+0x1a>

08007870 <USBD_StdEPReq>:
 8007870:	b570      	push	{r4, r5, r6, lr}
 8007872:	4605      	mov	r5, r0
 8007874:	888b      	ldrh	r3, [r1, #4]
 8007876:	780c      	ldrb	r4, [r1, #0]
 8007878:	f004 0460 	and.w	r4, r4, #96	@ 0x60
 800787c:	2c20      	cmp	r4, #32
 800787e:	d007      	beq.n	8007890 <USBD_StdEPReq+0x20>
 8007880:	b2da      	uxtb	r2, r3
 8007882:	2c40      	cmp	r4, #64	@ 0x40
 8007884:	d004      	beq.n	8007890 <USBD_StdEPReq+0x20>
 8007886:	b15c      	cbz	r4, 80078a0 <USBD_StdEPReq+0x30>
 8007888:	f7ff fdf4 	bl	8007474 <USBD_CtlError>
 800788c:	2400      	movs	r4, #0
 800788e:	e005      	b.n	800789c <USBD_StdEPReq+0x2c>
 8007890:	f8d5 32b4 	ldr.w	r3, [r5, #692]	@ 0x2b4
 8007894:	689b      	ldr	r3, [r3, #8]
 8007896:	4628      	mov	r0, r5
 8007898:	4798      	blx	r3
 800789a:	2400      	movs	r4, #0
 800789c:	4620      	mov	r0, r4
 800789e:	bd70      	pop	{r4, r5, r6, pc}
 80078a0:	2c20      	cmp	r4, #32
 80078a2:	d009      	beq.n	80078b8 <USBD_StdEPReq+0x48>
 80078a4:	784e      	ldrb	r6, [r1, #1]
 80078a6:	2e01      	cmp	r6, #1
 80078a8:	d033      	beq.n	8007912 <USBD_StdEPReq+0xa2>
 80078aa:	2e03      	cmp	r6, #3
 80078ac:	d00a      	beq.n	80078c4 <USBD_StdEPReq+0x54>
 80078ae:	2e00      	cmp	r6, #0
 80078b0:	d055      	beq.n	800795e <USBD_StdEPReq+0xee>
 80078b2:	f7ff fddf 	bl	8007474 <USBD_CtlError>
 80078b6:	e7f1      	b.n	800789c <USBD_StdEPReq+0x2c>
 80078b8:	f8d0 32b4 	ldr.w	r3, [r0, #692]	@ 0x2b4
 80078bc:	689b      	ldr	r3, [r3, #8]
 80078be:	4798      	blx	r3
 80078c0:	4604      	mov	r4, r0
 80078c2:	e7eb      	b.n	800789c <USBD_StdEPReq+0x2c>
 80078c4:	f890 329c 	ldrb.w	r3, [r0, #668]	@ 0x29c
 80078c8:	2b02      	cmp	r3, #2
 80078ca:	d004      	beq.n	80078d6 <USBD_StdEPReq+0x66>
 80078cc:	2b03      	cmp	r3, #3
 80078ce:	d011      	beq.n	80078f4 <USBD_StdEPReq+0x84>
 80078d0:	f7ff fdd0 	bl	8007474 <USBD_CtlError>
 80078d4:	e7e2      	b.n	800789c <USBD_StdEPReq+0x2c>
 80078d6:	b10a      	cbz	r2, 80078dc <USBD_StdEPReq+0x6c>
 80078d8:	2a80      	cmp	r2, #128	@ 0x80
 80078da:	d103      	bne.n	80078e4 <USBD_StdEPReq+0x74>
 80078dc:	4628      	mov	r0, r5
 80078de:	f7ff fdc9 	bl	8007474 <USBD_CtlError>
 80078e2:	e7db      	b.n	800789c <USBD_StdEPReq+0x2c>
 80078e4:	4611      	mov	r1, r2
 80078e6:	f7ff fbf4 	bl	80070d2 <USBD_LL_StallEP>
 80078ea:	2180      	movs	r1, #128	@ 0x80
 80078ec:	4628      	mov	r0, r5
 80078ee:	f7ff fbf0 	bl	80070d2 <USBD_LL_StallEP>
 80078f2:	e7d3      	b.n	800789c <USBD_StdEPReq+0x2c>
 80078f4:	884b      	ldrh	r3, [r1, #2]
 80078f6:	b923      	cbnz	r3, 8007902 <USBD_StdEPReq+0x92>
 80078f8:	b11a      	cbz	r2, 8007902 <USBD_StdEPReq+0x92>
 80078fa:	2a80      	cmp	r2, #128	@ 0x80
 80078fc:	d001      	beq.n	8007902 <USBD_StdEPReq+0x92>
 80078fe:	88cb      	ldrh	r3, [r1, #6]
 8007900:	b11b      	cbz	r3, 800790a <USBD_StdEPReq+0x9a>
 8007902:	4628      	mov	r0, r5
 8007904:	f000 f988 	bl	8007c18 <USBD_CtlSendStatus>
 8007908:	e7c8      	b.n	800789c <USBD_StdEPReq+0x2c>
 800790a:	4611      	mov	r1, r2
 800790c:	f7ff fbe1 	bl	80070d2 <USBD_LL_StallEP>
 8007910:	e7f7      	b.n	8007902 <USBD_StdEPReq+0x92>
 8007912:	f890 329c 	ldrb.w	r3, [r0, #668]	@ 0x29c
 8007916:	2b02      	cmp	r3, #2
 8007918:	d004      	beq.n	8007924 <USBD_StdEPReq+0xb4>
 800791a:	2b03      	cmp	r3, #3
 800791c:	d011      	beq.n	8007942 <USBD_StdEPReq+0xd2>
 800791e:	f7ff fda9 	bl	8007474 <USBD_CtlError>
 8007922:	e7bb      	b.n	800789c <USBD_StdEPReq+0x2c>
 8007924:	b10a      	cbz	r2, 800792a <USBD_StdEPReq+0xba>
 8007926:	2a80      	cmp	r2, #128	@ 0x80
 8007928:	d103      	bne.n	8007932 <USBD_StdEPReq+0xc2>
 800792a:	4628      	mov	r0, r5
 800792c:	f7ff fda2 	bl	8007474 <USBD_CtlError>
 8007930:	e7b4      	b.n	800789c <USBD_StdEPReq+0x2c>
 8007932:	4611      	mov	r1, r2
 8007934:	f7ff fbcd 	bl	80070d2 <USBD_LL_StallEP>
 8007938:	2180      	movs	r1, #128	@ 0x80
 800793a:	4628      	mov	r0, r5
 800793c:	f7ff fbc9 	bl	80070d2 <USBD_LL_StallEP>
 8007940:	e7ac      	b.n	800789c <USBD_StdEPReq+0x2c>
 8007942:	884b      	ldrh	r3, [r1, #2]
 8007944:	2b00      	cmp	r3, #0
 8007946:	d1a9      	bne.n	800789c <USBD_StdEPReq+0x2c>
 8007948:	f012 0f7f 	tst.w	r2, #127	@ 0x7f
 800794c:	d103      	bne.n	8007956 <USBD_StdEPReq+0xe6>
 800794e:	4628      	mov	r0, r5
 8007950:	f000 f962 	bl	8007c18 <USBD_CtlSendStatus>
 8007954:	e7a2      	b.n	800789c <USBD_StdEPReq+0x2c>
 8007956:	4611      	mov	r1, r2
 8007958:	f7ff fbc3 	bl	80070e2 <USBD_LL_ClearStallEP>
 800795c:	e7f7      	b.n	800794e <USBD_StdEPReq+0xde>
 800795e:	f890 029c 	ldrb.w	r0, [r0, #668]	@ 0x29c
 8007962:	2802      	cmp	r0, #2
 8007964:	d006      	beq.n	8007974 <USBD_StdEPReq+0x104>
 8007966:	2803      	cmp	r0, #3
 8007968:	d029      	beq.n	80079be <USBD_StdEPReq+0x14e>
 800796a:	4628      	mov	r0, r5
 800796c:	f7ff fd82 	bl	8007474 <USBD_CtlError>
 8007970:	4634      	mov	r4, r6
 8007972:	e793      	b.n	800789c <USBD_StdEPReq+0x2c>
 8007974:	b10a      	cbz	r2, 800797a <USBD_StdEPReq+0x10a>
 8007976:	2a80      	cmp	r2, #128	@ 0x80
 8007978:	d113      	bne.n	80079a2 <USBD_StdEPReq+0x132>
 800797a:	f013 0f80 	tst.w	r3, #128	@ 0x80
 800797e:	d115      	bne.n	80079ac <USBD_StdEPReq+0x13c>
 8007980:	f002 027f 	and.w	r2, r2, #127	@ 0x7f
 8007984:	eb02 0282 	add.w	r2, r2, r2, lsl #2
 8007988:	0091      	lsls	r1, r2, #2
 800798a:	f501 71a8 	add.w	r1, r1, #336	@ 0x150
 800798e:	4429      	add	r1, r5
 8007990:	3104      	adds	r1, #4
 8007992:	2300      	movs	r3, #0
 8007994:	600b      	str	r3, [r1, #0]
 8007996:	2202      	movs	r2, #2
 8007998:	4628      	mov	r0, r5
 800799a:	f000 f911 	bl	8007bc0 <USBD_CtlSendData>
 800799e:	4634      	mov	r4, r6
 80079a0:	e77c      	b.n	800789c <USBD_StdEPReq+0x2c>
 80079a2:	4628      	mov	r0, r5
 80079a4:	f7ff fd66 	bl	8007474 <USBD_CtlError>
 80079a8:	4634      	mov	r4, r6
 80079aa:	e777      	b.n	800789c <USBD_StdEPReq+0x2c>
 80079ac:	f002 027f 	and.w	r2, r2, #127	@ 0x7f
 80079b0:	eb02 0282 	add.w	r2, r2, r2, lsl #2
 80079b4:	0091      	lsls	r1, r2, #2
 80079b6:	3110      	adds	r1, #16
 80079b8:	4429      	add	r1, r5
 80079ba:	3104      	adds	r1, #4
 80079bc:	e7e9      	b.n	8007992 <USBD_StdEPReq+0x122>
 80079be:	b25b      	sxtb	r3, r3
 80079c0:	2b00      	cmp	r3, #0
 80079c2:	db1f      	blt.n	8007a04 <USBD_StdEPReq+0x194>
 80079c4:	f002 000f 	and.w	r0, r2, #15
 80079c8:	eb00 0080 	add.w	r0, r0, r0, lsl #2
 80079cc:	eb05 0080 	add.w	r0, r5, r0, lsl #2
 80079d0:	f8d0 0158 	ldr.w	r0, [r0, #344]	@ 0x158
 80079d4:	b320      	cbz	r0, 8007a20 <USBD_StdEPReq+0x1b0>
 80079d6:	2b00      	cmp	r3, #0
 80079d8:	db27      	blt.n	8007a2a <USBD_StdEPReq+0x1ba>
 80079da:	f002 037f 	and.w	r3, r2, #127	@ 0x7f
 80079de:	eb03 0383 	add.w	r3, r3, r3, lsl #2
 80079e2:	009c      	lsls	r4, r3, #2
 80079e4:	f504 74a8 	add.w	r4, r4, #336	@ 0x150
 80079e8:	442c      	add	r4, r5
 80079ea:	3404      	adds	r4, #4
 80079ec:	b10a      	cbz	r2, 80079f2 <USBD_StdEPReq+0x182>
 80079ee:	2a80      	cmp	r2, #128	@ 0x80
 80079f0:	d124      	bne.n	8007a3c <USBD_StdEPReq+0x1cc>
 80079f2:	2300      	movs	r3, #0
 80079f4:	6023      	str	r3, [r4, #0]
 80079f6:	2202      	movs	r2, #2
 80079f8:	4621      	mov	r1, r4
 80079fa:	4628      	mov	r0, r5
 80079fc:	f000 f8e0 	bl	8007bc0 <USBD_CtlSendData>
 8007a00:	4634      	mov	r4, r6
 8007a02:	e74b      	b.n	800789c <USBD_StdEPReq+0x2c>
 8007a04:	f002 000f 	and.w	r0, r2, #15
 8007a08:	eb00 0080 	add.w	r0, r0, r0, lsl #2
 8007a0c:	eb05 0080 	add.w	r0, r5, r0, lsl #2
 8007a10:	6980      	ldr	r0, [r0, #24]
 8007a12:	2800      	cmp	r0, #0
 8007a14:	d1df      	bne.n	80079d6 <USBD_StdEPReq+0x166>
 8007a16:	4628      	mov	r0, r5
 8007a18:	f7ff fd2c 	bl	8007474 <USBD_CtlError>
 8007a1c:	4634      	mov	r4, r6
 8007a1e:	e73d      	b.n	800789c <USBD_StdEPReq+0x2c>
 8007a20:	4628      	mov	r0, r5
 8007a22:	f7ff fd27 	bl	8007474 <USBD_CtlError>
 8007a26:	4634      	mov	r4, r6
 8007a28:	e738      	b.n	800789c <USBD_StdEPReq+0x2c>
 8007a2a:	f002 037f 	and.w	r3, r2, #127	@ 0x7f
 8007a2e:	eb03 0383 	add.w	r3, r3, r3, lsl #2
 8007a32:	009c      	lsls	r4, r3, #2
 8007a34:	3410      	adds	r4, #16
 8007a36:	442c      	add	r4, r5
 8007a38:	3404      	adds	r4, #4
 8007a3a:	e7d7      	b.n	80079ec <USBD_StdEPReq+0x17c>
 8007a3c:	4611      	mov	r1, r2
 8007a3e:	4628      	mov	r0, r5
 8007a40:	f7ff fb57 	bl	80070f2 <USBD_LL_IsStallEP>
 8007a44:	b110      	cbz	r0, 8007a4c <USBD_StdEPReq+0x1dc>
 8007a46:	2301      	movs	r3, #1
 8007a48:	6023      	str	r3, [r4, #0]
 8007a4a:	e7d4      	b.n	80079f6 <USBD_StdEPReq+0x186>
 8007a4c:	2300      	movs	r3, #0
 8007a4e:	6023      	str	r3, [r4, #0]
 8007a50:	e7d1      	b.n	80079f6 <USBD_StdEPReq+0x186>

08007a52 <USBD_GetString>:
 8007a52:	b1d0      	cbz	r0, 8007a8a <USBD_GetString+0x38>
 8007a54:	b570      	push	{r4, r5, r6, lr}
 8007a56:	460d      	mov	r5, r1
 8007a58:	4616      	mov	r6, r2
 8007a5a:	4604      	mov	r4, r0
 8007a5c:	f7ff fce2 	bl	8007424 <USBD_GetLen>
 8007a60:	1c43      	adds	r3, r0, #1
 8007a62:	005b      	lsls	r3, r3, #1
 8007a64:	b29b      	uxth	r3, r3
 8007a66:	8033      	strh	r3, [r6, #0]
 8007a68:	702b      	strb	r3, [r5, #0]
 8007a6a:	2303      	movs	r3, #3
 8007a6c:	706b      	strb	r3, [r5, #1]
 8007a6e:	2302      	movs	r3, #2
 8007a70:	e007      	b.n	8007a82 <USBD_GetString+0x30>
 8007a72:	3401      	adds	r4, #1
 8007a74:	1c5a      	adds	r2, r3, #1
 8007a76:	b2d2      	uxtb	r2, r2
 8007a78:	54e8      	strb	r0, [r5, r3]
 8007a7a:	3302      	adds	r3, #2
 8007a7c:	b2db      	uxtb	r3, r3
 8007a7e:	2100      	movs	r1, #0
 8007a80:	54a9      	strb	r1, [r5, r2]
 8007a82:	7820      	ldrb	r0, [r4, #0]
 8007a84:	2800      	cmp	r0, #0
 8007a86:	d1f4      	bne.n	8007a72 <USBD_GetString+0x20>
 8007a88:	bd70      	pop	{r4, r5, r6, pc}
 8007a8a:	4770      	bx	lr

08007a8c <USBD_FS_DeviceDescriptor>:
 8007a8c:	2312      	movs	r3, #18
 8007a8e:	800b      	strh	r3, [r1, #0]
 8007a90:	4800      	ldr	r0, [pc, #0]	@ (8007a94 <USBD_FS_DeviceDescriptor+0x8>)
 8007a92:	4770      	bx	lr
 8007a94:	200001ac 	.word	0x200001ac

08007a98 <USBD_FS_LangIDStrDescriptor>:
 8007a98:	2304      	movs	r3, #4
 8007a9a:	800b      	strh	r3, [r1, #0]
 8007a9c:	4800      	ldr	r0, [pc, #0]	@ (8007aa0 <USBD_FS_LangIDStrDescriptor+0x8>)
 8007a9e:	4770      	bx	lr
 8007aa0:	200001a8 	.word	0x200001a8

08007aa4 <IntToUnicode>:
 8007aa4:	2300      	movs	r3, #0
 8007aa6:	4293      	cmp	r3, r2
 8007aa8:	d21e      	bcs.n	8007ae8 <IntToUnicode+0x44>
 8007aaa:	b500      	push	{lr}
 8007aac:	e010      	b.n	8007ad0 <IntToUnicode+0x2c>
 8007aae:	f10c 0c37 	add.w	ip, ip, #55	@ 0x37
 8007ab2:	f801 c013 	strb.w	ip, [r1, r3, lsl #1]
 8007ab6:	0100      	lsls	r0, r0, #4
 8007ab8:	ea4f 0c43 	mov.w	ip, r3, lsl #1
 8007abc:	f10c 0c01 	add.w	ip, ip, #1
 8007ac0:	f04f 0e00 	mov.w	lr, #0
 8007ac4:	f801 e00c 	strb.w	lr, [r1, ip]
 8007ac8:	3301      	adds	r3, #1
 8007aca:	b2db      	uxtb	r3, r3
 8007acc:	4293      	cmp	r3, r2
 8007ace:	d209      	bcs.n	8007ae4 <IntToUnicode+0x40>
 8007ad0:	ea4f 7c10 	mov.w	ip, r0, lsr #28
 8007ad4:	f1b0 4f20 	cmp.w	r0, #2684354560	@ 0xa0000000
 8007ad8:	d2e9      	bcs.n	8007aae <IntToUnicode+0xa>
 8007ada:	f10c 0c30 	add.w	ip, ip, #48	@ 0x30
 8007ade:	f801 c013 	strb.w	ip, [r1, r3, lsl #1]
 8007ae2:	e7e8      	b.n	8007ab6 <IntToUnicode+0x12>
 8007ae4:	f85d fb04 	ldr.w	pc, [sp], #4
 8007ae8:	4770      	bx	lr
	...

08007aec <Get_SerialNum>:
 8007aec:	b538      	push	{r3, r4, r5, lr}
 8007aee:	4b0b      	ldr	r3, [pc, #44]	@ (8007b1c <Get_SerialNum+0x30>)
 8007af0:	f8d3 07e8 	ldr.w	r0, [r3, #2024]	@ 0x7e8
 8007af4:	f8d3 47ec 	ldr.w	r4, [r3, #2028]	@ 0x7ec
 8007af8:	f8d3 37f0 	ldr.w	r3, [r3, #2032]	@ 0x7f0
 8007afc:	18c0      	adds	r0, r0, r3
 8007afe:	d100      	bne.n	8007b02 <Get_SerialNum+0x16>
 8007b00:	bd38      	pop	{r3, r4, r5, pc}
 8007b02:	4d07      	ldr	r5, [pc, #28]	@ (8007b20 <Get_SerialNum+0x34>)
 8007b04:	2208      	movs	r2, #8
 8007b06:	4629      	mov	r1, r5
 8007b08:	f7ff ffcc 	bl	8007aa4 <IntToUnicode>
 8007b0c:	2204      	movs	r2, #4
 8007b0e:	f105 0110 	add.w	r1, r5, #16
 8007b12:	4620      	mov	r0, r4
 8007b14:	f7ff ffc6 	bl	8007aa4 <IntToUnicode>
 8007b18:	e7f2      	b.n	8007b00 <Get_SerialNum+0x14>
 8007b1a:	bf00      	nop
 8007b1c:	1ffff000 	.word	0x1ffff000
 8007b20:	2000018e 	.word	0x2000018e

08007b24 <USBD_FS_SerialStrDescriptor>:
 8007b24:	b508      	push	{r3, lr}
 8007b26:	231a      	movs	r3, #26
 8007b28:	800b      	strh	r3, [r1, #0]
 8007b2a:	f7ff ffdf 	bl	8007aec <Get_SerialNum>
 8007b2e:	4801      	ldr	r0, [pc, #4]	@ (8007b34 <USBD_FS_SerialStrDescriptor+0x10>)
 8007b30:	bd08      	pop	{r3, pc}
 8007b32:	bf00      	nop
 8007b34:	2000018c 	.word	0x2000018c

08007b38 <USBD_FS_ProductStrDescriptor>:
 8007b38:	b508      	push	{r3, lr}
 8007b3a:	460a      	mov	r2, r1
 8007b3c:	b928      	cbnz	r0, 8007b4a <USBD_FS_ProductStrDescriptor+0x12>
 8007b3e:	4905      	ldr	r1, [pc, #20]	@ (8007b54 <USBD_FS_ProductStrDescriptor+0x1c>)
 8007b40:	4805      	ldr	r0, [pc, #20]	@ (8007b58 <USBD_FS_ProductStrDescriptor+0x20>)
 8007b42:	f7ff ff86 	bl	8007a52 <USBD_GetString>
 8007b46:	4803      	ldr	r0, [pc, #12]	@ (8007b54 <USBD_FS_ProductStrDescriptor+0x1c>)
 8007b48:	bd08      	pop	{r3, pc}
 8007b4a:	4902      	ldr	r1, [pc, #8]	@ (8007b54 <USBD_FS_ProductStrDescriptor+0x1c>)
 8007b4c:	4802      	ldr	r0, [pc, #8]	@ (8007b58 <USBD_FS_ProductStrDescriptor+0x20>)
 8007b4e:	f7ff ff80 	bl	8007a52 <USBD_GetString>
 8007b52:	e7f8      	b.n	8007b46 <USBD_FS_ProductStrDescriptor+0xe>
 8007b54:	2000176c 	.word	0x2000176c
 8007b58:	08007ce4 	.word	0x08007ce4

08007b5c <USBD_FS_ManufacturerStrDescriptor>:
 8007b5c:	b510      	push	{r4, lr}
 8007b5e:	460a      	mov	r2, r1
 8007b60:	4c03      	ldr	r4, [pc, #12]	@ (8007b70 <USBD_FS_ManufacturerStrDescriptor+0x14>)
 8007b62:	4621      	mov	r1, r4
 8007b64:	4803      	ldr	r0, [pc, #12]	@ (8007b74 <USBD_FS_ManufacturerStrDescriptor+0x18>)
 8007b66:	f7ff ff74 	bl	8007a52 <USBD_GetString>
 8007b6a:	4620      	mov	r0, r4
 8007b6c:	bd10      	pop	{r4, pc}
 8007b6e:	bf00      	nop
 8007b70:	2000176c 	.word	0x2000176c
 8007b74:	08007cf4 	.word	0x08007cf4

08007b78 <USBD_FS_ConfigStrDescriptor>:
 8007b78:	b508      	push	{r3, lr}
 8007b7a:	460a      	mov	r2, r1
 8007b7c:	b928      	cbnz	r0, 8007b8a <USBD_FS_ConfigStrDescriptor+0x12>
 8007b7e:	4905      	ldr	r1, [pc, #20]	@ (8007b94 <USBD_FS_ConfigStrDescriptor+0x1c>)
 8007b80:	4805      	ldr	r0, [pc, #20]	@ (8007b98 <USBD_FS_ConfigStrDescriptor+0x20>)
 8007b82:	f7ff ff66 	bl	8007a52 <USBD_GetString>
 8007b86:	4803      	ldr	r0, [pc, #12]	@ (8007b94 <USBD_FS_ConfigStrDescriptor+0x1c>)
 8007b88:	bd08      	pop	{r3, pc}
 8007b8a:	4902      	ldr	r1, [pc, #8]	@ (8007b94 <USBD_FS_ConfigStrDescriptor+0x1c>)
 8007b8c:	4802      	ldr	r0, [pc, #8]	@ (8007b98 <USBD_FS_ConfigStrDescriptor+0x20>)
 8007b8e:	f7ff ff60 	bl	8007a52 <USBD_GetString>
 8007b92:	e7f8      	b.n	8007b86 <USBD_FS_ConfigStrDescriptor+0xe>
 8007b94:	2000176c 	.word	0x2000176c
 8007b98:	08007cfc 	.word	0x08007cfc

08007b9c <USBD_FS_InterfaceStrDescriptor>:
 8007b9c:	b508      	push	{r3, lr}
 8007b9e:	460a      	mov	r2, r1
 8007ba0:	b928      	cbnz	r0, 8007bae <USBD_FS_InterfaceStrDescriptor+0x12>
 8007ba2:	4905      	ldr	r1, [pc, #20]	@ (8007bb8 <USBD_FS_InterfaceStrDescriptor+0x1c>)
 8007ba4:	4805      	ldr	r0, [pc, #20]	@ (8007bbc <USBD_FS_InterfaceStrDescriptor+0x20>)
 8007ba6:	f7ff ff54 	bl	8007a52 <USBD_GetString>
 8007baa:	4803      	ldr	r0, [pc, #12]	@ (8007bb8 <USBD_FS_InterfaceStrDescriptor+0x1c>)
 8007bac:	bd08      	pop	{r3, pc}
 8007bae:	4902      	ldr	r1, [pc, #8]	@ (8007bb8 <USBD_FS_InterfaceStrDescriptor+0x1c>)
 8007bb0:	4802      	ldr	r0, [pc, #8]	@ (8007bbc <USBD_FS_InterfaceStrDescriptor+0x20>)
 8007bb2:	f7ff ff4e 	bl	8007a52 <USBD_GetString>
 8007bb6:	e7f8      	b.n	8007baa <USBD_FS_InterfaceStrDescriptor+0xe>
 8007bb8:	2000176c 	.word	0x2000176c
 8007bbc:	08007d08 	.word	0x08007d08

08007bc0 <USBD_CtlSendData>:
 8007bc0:	b508      	push	{r3, lr}
 8007bc2:	4613      	mov	r3, r2
 8007bc4:	2202      	movs	r2, #2
 8007bc6:	f8c0 2294 	str.w	r2, [r0, #660]	@ 0x294
 8007bca:	61c3      	str	r3, [r0, #28]
 8007bcc:	6203      	str	r3, [r0, #32]
 8007bce:	460a      	mov	r2, r1
 8007bd0:	2100      	movs	r1, #0
 8007bd2:	f7ff faac 	bl	800712e <USBD_LL_Transmit>
 8007bd6:	2000      	movs	r0, #0
 8007bd8:	bd08      	pop	{r3, pc}

08007bda <USBD_CtlContinueSendData>:
 8007bda:	b508      	push	{r3, lr}
 8007bdc:	4613      	mov	r3, r2
 8007bde:	460a      	mov	r2, r1
 8007be0:	2100      	movs	r1, #0
 8007be2:	f7ff faa4 	bl	800712e <USBD_LL_Transmit>
 8007be6:	2000      	movs	r0, #0
 8007be8:	bd08      	pop	{r3, pc}

08007bea <USBD_CtlPrepareRx>:
 8007bea:	b508      	push	{r3, lr}
 8007bec:	4613      	mov	r3, r2
 8007bee:	2203      	movs	r2, #3
 8007bf0:	f8c0 2294 	str.w	r2, [r0, #660]	@ 0x294
 8007bf4:	f8c0 315c 	str.w	r3, [r0, #348]	@ 0x15c
 8007bf8:	f8c0 3160 	str.w	r3, [r0, #352]	@ 0x160
 8007bfc:	460a      	mov	r2, r1
 8007bfe:	2100      	movs	r1, #0
 8007c00:	f7ff fa9d 	bl	800713e <USBD_LL_PrepareReceive>
 8007c04:	2000      	movs	r0, #0
 8007c06:	bd08      	pop	{r3, pc}

08007c08 <USBD_CtlContinueRx>:
 8007c08:	b508      	push	{r3, lr}
 8007c0a:	4613      	mov	r3, r2
 8007c0c:	460a      	mov	r2, r1
 8007c0e:	2100      	movs	r1, #0
 8007c10:	f7ff fa95 	bl	800713e <USBD_LL_PrepareReceive>
 8007c14:	2000      	movs	r0, #0
 8007c16:	bd08      	pop	{r3, pc}

08007c18 <USBD_CtlSendStatus>:
 8007c18:	b508      	push	{r3, lr}
 8007c1a:	2304      	movs	r3, #4
 8007c1c:	f8c0 3294 	str.w	r3, [r0, #660]	@ 0x294
 8007c20:	2300      	movs	r3, #0
 8007c22:	461a      	mov	r2, r3
 8007c24:	4619      	mov	r1, r3
 8007c26:	f7ff fa82 	bl	800712e <USBD_LL_Transmit>
 8007c2a:	2000      	movs	r0, #0
 8007c2c:	bd08      	pop	{r3, pc}

08007c2e <USBD_CtlReceiveStatus>:
 8007c2e:	b508      	push	{r3, lr}
 8007c30:	2305      	movs	r3, #5
 8007c32:	f8c0 3294 	str.w	r3, [r0, #660]	@ 0x294
 8007c36:	2300      	movs	r3, #0
 8007c38:	461a      	mov	r2, r3
 8007c3a:	4619      	mov	r1, r3
 8007c3c:	f7ff fa7f 	bl	800713e <USBD_LL_PrepareReceive>
 8007c40:	2000      	movs	r0, #0
 8007c42:	bd08      	pop	{r3, pc}

08007c44 <Reset_Handler>:
 8007c44:	f7fe fd92 	bl	800676c <SystemInit>
 8007c48:	480b      	ldr	r0, [pc, #44]	@ (8007c78 <LoopFillZerobss+0xe>)
 8007c4a:	490c      	ldr	r1, [pc, #48]	@ (8007c7c <LoopFillZerobss+0x12>)
 8007c4c:	4a0c      	ldr	r2, [pc, #48]	@ (8007c80 <LoopFillZerobss+0x16>)
 8007c4e:	2300      	movs	r3, #0
 8007c50:	e002      	b.n	8007c58 <LoopCopyDataInit>

08007c52 <CopyDataInit>:
 8007c52:	58d4      	ldr	r4, [r2, r3]
 8007c54:	50c4      	str	r4, [r0, r3]
 8007c56:	3304      	adds	r3, #4

08007c58 <LoopCopyDataInit>:
 8007c58:	18c4      	adds	r4, r0, r3
 8007c5a:	428c      	cmp	r4, r1
 8007c5c:	d3f9      	bcc.n	8007c52 <CopyDataInit>
 8007c5e:	4a09      	ldr	r2, [pc, #36]	@ (8007c84 <LoopFillZerobss+0x1a>)
 8007c60:	4c09      	ldr	r4, [pc, #36]	@ (8007c88 <LoopFillZerobss+0x1e>)
 8007c62:	2300      	movs	r3, #0
 8007c64:	e001      	b.n	8007c6a <LoopFillZerobss>

08007c66 <FillZerobss>:
 8007c66:	6013      	str	r3, [r2, #0]
 8007c68:	3204      	adds	r2, #4

08007c6a <LoopFillZerobss>:
 8007c6a:	42a2      	cmp	r2, r4
 8007c6c:	d3fb      	bcc.n	8007c66 <FillZerobss>
 8007c6e:	f7f8 fa99 	bl	80001a4 <__libc_init_array>
 8007c72:	f7fa faa1 	bl	80021b8 <main>
 8007c76:	4770      	bx	lr
 8007c78:	20000000 	.word	0x20000000
 8007c7c:	200001dc 	.word	0x200001dc
 8007c80:	08007d88 	.word	0x08007d88
 8007c84:	200001dc 	.word	0x200001dc
 8007c88:	2000196c 	.word	0x2000196c

08007c8c <ADC1_2_IRQHandler>:
 8007c8c:	e7fe      	b.n	8007c8c <ADC1_2_IRQHandler>
	...

08007c90 <_init>:
 8007c90:	b5f8      	push	{r3, r4, r5, r6, r7, lr}
 8007c92:	bf00      	nop
 8007c94:	bcf8      	pop	{r3, r4, r5, r6, r7}
 8007c96:	bc08      	pop	{r3}
 8007c98:	469e      	mov	lr, r3
 8007c9a:	4770      	bx	lr

08007c9c <_fini>:
 8007c9c:	b5f8      	push	{r3, r4, r5, r6, r7, lr}
 8007c9e:	bf00      	nop
 8007ca0:	bcf8      	pop	{r3, r4, r5, r6, r7}
 8007ca2:	bc08      	pop	{r3}
 8007ca4:	469e      	mov	lr, r3
 8007ca6:	4770      	bx	lr
