ARM GAS  /tmp/ccVb6Lps.s 			page 1


   1              		.cpu cortex-m3
   2              		.arch armv7-m
   3              		.fpu softvfp
   4              		.eabi_attribute 20, 1
   5              		.eabi_attribute 21, 1
   6              		.eabi_attribute 23, 3
   7              		.eabi_attribute 24, 1
   8              		.eabi_attribute 25, 1
   9              		.eabi_attribute 26, 1
  10              		.eabi_attribute 30, 1
  11              		.eabi_attribute 34, 1
  12              		.eabi_attribute 18, 4
  13              		.file	"old_value_hall.c"
  14              		.text
  15              		.section	.text.set_old_value,"ax",%progbits
  16              		.align	1
  17              		.global	set_old_value
  18              		.syntax unified
  19              		.thumb
  20              		.thumb_func
  22              	set_old_value:
  23              		@ args = 0, pretend = 0, frame = 0
  24              		@ frame_needed = 0, uses_anonymous_args = 0
  25              		@ link register save eliminated.
  26 0000 684B     		ldr	r3, .L38
  27 0002 1B78     		ldrb	r3, [r3]	@ zero_extendqisi2
  28 0004 002B     		cmp	r3, #0
  29 0006 40F0DB80 		bne	.L2
  30 000a 674B     		ldr	r3, .L38+4
  31 000c 1B78     		ldrb	r3, [r3]	@ zero_extendqisi2
  32 000e EBB1     		cbz	r3, .L3
  33 0010 664B     		ldr	r3, .L38+8
  34 0012 1B78     		ldrb	r3, [r3]	@ zero_extendqisi2
  35 0014 D3B9     		cbnz	r3, .L3
  36 0016 664B     		ldr	r3, .L38+12
  37 0018 1B78     		ldrb	r3, [r3]	@ zero_extendqisi2
  38 001a BBB1     		cbz	r3, .L3
  39 001c 654B     		ldr	r3, .L38+16
  40 001e 1B78     		ldrb	r3, [r3]	@ zero_extendqisi2
  41 0020 2BB1     		cbz	r3, .L4
  42 0022 644B     		ldr	r3, .L38+16
  43 0024 5B78     		ldrb	r3, [r3, #1]	@ zero_extendqisi2
  44 0026 13B9     		cbnz	r3, .L4
  45 0028 624B     		ldr	r3, .L38+16
  46 002a 9B78     		ldrb	r3, [r3, #2]	@ zero_extendqisi2
  47 002c 13B1     		cbz	r3, .L5
  48              	.L4:
  49 002e 624B     		ldr	r3, .L38+20
  50 0030 1B78     		ldrb	r3, [r3]	@ zero_extendqisi2
  51 0032 5BB1     		cbz	r3, .L3
  52              	.L5:
  53 0034 614B     		ldr	r3, .L38+24
  54 0036 0422     		movs	r2, #4
  55 0038 1A60     		str	r2, [r3]
  56 003a 5E4A     		ldr	r2, .L38+16
  57 003c 0123     		movs	r3, #1
  58 003e 1370     		strb	r3, [r2]
ARM GAS  /tmp/ccVb6Lps.s 			page 2


  59 0040 0021     		movs	r1, #0
  60 0042 5170     		strb	r1, [r2, #1]
  61 0044 9370     		strb	r3, [r2, #2]
  62 0046 5C4A     		ldr	r2, .L38+20
  63 0048 1370     		strb	r3, [r2]
  64 004a 7047     		bx	lr
  65              	.L3:
  66 004c 564B     		ldr	r3, .L38+4
  67 004e 1B78     		ldrb	r3, [r3]	@ zero_extendqisi2
  68 0050 EBB1     		cbz	r3, .L7
  69 0052 564B     		ldr	r3, .L38+8
  70 0054 1B78     		ldrb	r3, [r3]	@ zero_extendqisi2
  71 0056 D3B9     		cbnz	r3, .L7
  72 0058 554B     		ldr	r3, .L38+12
  73 005a 1B78     		ldrb	r3, [r3]	@ zero_extendqisi2
  74 005c BBB9     		cbnz	r3, .L7
  75 005e 554B     		ldr	r3, .L38+16
  76 0060 1B78     		ldrb	r3, [r3]	@ zero_extendqisi2
  77 0062 2BB1     		cbz	r3, .L8
  78 0064 534B     		ldr	r3, .L38+16
  79 0066 5B78     		ldrb	r3, [r3, #1]	@ zero_extendqisi2
  80 0068 13B1     		cbz	r3, .L8
  81 006a 524B     		ldr	r3, .L38+16
  82 006c 9B78     		ldrb	r3, [r3, #2]	@ zero_extendqisi2
  83 006e 13B1     		cbz	r3, .L9
  84              	.L8:
  85 0070 514B     		ldr	r3, .L38+20
  86 0072 1B78     		ldrb	r3, [r3]	@ zero_extendqisi2
  87 0074 5BB1     		cbz	r3, .L7
  88              	.L9:
  89 0076 514B     		ldr	r3, .L38+24
  90 0078 0522     		movs	r2, #5
  91 007a 1A60     		str	r2, [r3]
  92 007c 4D4B     		ldr	r3, .L38+16
  93 007e 0122     		movs	r2, #1
  94 0080 1A70     		strb	r2, [r3]
  95 0082 0021     		movs	r1, #0
  96 0084 5970     		strb	r1, [r3, #1]
  97 0086 9970     		strb	r1, [r3, #2]
  98 0088 4B4B     		ldr	r3, .L38+20
  99 008a 1A70     		strb	r2, [r3]
 100 008c 7047     		bx	lr
 101              	.L7:
 102 008e 464B     		ldr	r3, .L38+4
 103 0090 1B78     		ldrb	r3, [r3]	@ zero_extendqisi2
 104 0092 EBB1     		cbz	r3, .L10
 105 0094 454B     		ldr	r3, .L38+8
 106 0096 1B78     		ldrb	r3, [r3]	@ zero_extendqisi2
 107 0098 D3B1     		cbz	r3, .L10
 108 009a 454B     		ldr	r3, .L38+12
 109 009c 1B78     		ldrb	r3, [r3]	@ zero_extendqisi2
 110 009e BBB9     		cbnz	r3, .L10
 111 00a0 444B     		ldr	r3, .L38+16
 112 00a2 1B78     		ldrb	r3, [r3]	@ zero_extendqisi2
 113 00a4 2BB9     		cbnz	r3, .L11
 114 00a6 434B     		ldr	r3, .L38+16
 115 00a8 5B78     		ldrb	r3, [r3, #1]	@ zero_extendqisi2
ARM GAS  /tmp/ccVb6Lps.s 			page 3


 116 00aa 13B1     		cbz	r3, .L11
 117 00ac 414B     		ldr	r3, .L38+16
 118 00ae 9B78     		ldrb	r3, [r3, #2]	@ zero_extendqisi2
 119 00b0 13B1     		cbz	r3, .L12
 120              	.L11:
 121 00b2 414B     		ldr	r3, .L38+20
 122 00b4 1B78     		ldrb	r3, [r3]	@ zero_extendqisi2
 123 00b6 5BB1     		cbz	r3, .L10
 124              	.L12:
 125 00b8 404B     		ldr	r3, .L38+24
 126 00ba 0622     		movs	r2, #6
 127 00bc 1A60     		str	r2, [r3]
 128 00be 3D4A     		ldr	r2, .L38+16
 129 00c0 0123     		movs	r3, #1
 130 00c2 1370     		strb	r3, [r2]
 131 00c4 5370     		strb	r3, [r2, #1]
 132 00c6 0021     		movs	r1, #0
 133 00c8 9170     		strb	r1, [r2, #2]
 134 00ca 3B4A     		ldr	r2, .L38+20
 135 00cc 1370     		strb	r3, [r2]
 136 00ce 7047     		bx	lr
 137              	.L10:
 138 00d0 354B     		ldr	r3, .L38+4
 139 00d2 1B78     		ldrb	r3, [r3]	@ zero_extendqisi2
 140 00d4 E3B9     		cbnz	r3, .L13
 141 00d6 354B     		ldr	r3, .L38+8
 142 00d8 1B78     		ldrb	r3, [r3]	@ zero_extendqisi2
 143 00da CBB1     		cbz	r3, .L13
 144 00dc 344B     		ldr	r3, .L38+12
 145 00de 1B78     		ldrb	r3, [r3]	@ zero_extendqisi2
 146 00e0 B3B9     		cbnz	r3, .L13
 147 00e2 344B     		ldr	r3, .L38+16
 148 00e4 1B78     		ldrb	r3, [r3]	@ zero_extendqisi2
 149 00e6 2BB9     		cbnz	r3, .L14
 150 00e8 324B     		ldr	r3, .L38+16
 151 00ea 5B78     		ldrb	r3, [r3, #1]	@ zero_extendqisi2
 152 00ec 13B1     		cbz	r3, .L14
 153 00ee 314B     		ldr	r3, .L38+16
 154 00f0 9B78     		ldrb	r3, [r3, #2]	@ zero_extendqisi2
 155 00f2 13B9     		cbnz	r3, .L15
 156              	.L14:
 157 00f4 304B     		ldr	r3, .L38+20
 158 00f6 1B78     		ldrb	r3, [r3]	@ zero_extendqisi2
 159 00f8 53B1     		cbz	r3, .L13
 160              	.L15:
 161 00fa 0123     		movs	r3, #1
 162 00fc 2F4A     		ldr	r2, .L38+24
 163 00fe 1360     		str	r3, [r2]
 164 0100 2C4A     		ldr	r2, .L38+16
 165 0102 0021     		movs	r1, #0
 166 0104 1170     		strb	r1, [r2]
 167 0106 5370     		strb	r3, [r2, #1]
 168 0108 9170     		strb	r1, [r2, #2]
 169 010a 2B4A     		ldr	r2, .L38+20
 170 010c 1370     		strb	r3, [r2]
 171 010e 7047     		bx	lr
 172              	.L13:
ARM GAS  /tmp/ccVb6Lps.s 			page 4


 173 0110 254B     		ldr	r3, .L38+4
 174 0112 1B78     		ldrb	r3, [r3]	@ zero_extendqisi2
 175 0114 EBB9     		cbnz	r3, .L16
 176 0116 254B     		ldr	r3, .L38+8
 177 0118 1B78     		ldrb	r3, [r3]	@ zero_extendqisi2
 178 011a D3B1     		cbz	r3, .L16
 179 011c 244B     		ldr	r3, .L38+12
 180 011e 1B78     		ldrb	r3, [r3]	@ zero_extendqisi2
 181 0120 BBB1     		cbz	r3, .L16
 182 0122 244B     		ldr	r3, .L38+16
 183 0124 1B78     		ldrb	r3, [r3]	@ zero_extendqisi2
 184 0126 2BB9     		cbnz	r3, .L17
 185 0128 224B     		ldr	r3, .L38+16
 186 012a 5B78     		ldrb	r3, [r3, #1]	@ zero_extendqisi2
 187 012c 13B9     		cbnz	r3, .L17
 188 012e 214B     		ldr	r3, .L38+16
 189 0130 9B78     		ldrb	r3, [r3, #2]	@ zero_extendqisi2
 190 0132 13B9     		cbnz	r3, .L18
 191              	.L17:
 192 0134 204B     		ldr	r3, .L38+20
 193 0136 1B78     		ldrb	r3, [r3]	@ zero_extendqisi2
 194 0138 5BB1     		cbz	r3, .L16
 195              	.L18:
 196 013a 204B     		ldr	r3, .L38+24
 197 013c 0222     		movs	r2, #2
 198 013e 1A60     		str	r2, [r3]
 199 0140 1C4A     		ldr	r2, .L38+16
 200 0142 0023     		movs	r3, #0
 201 0144 1370     		strb	r3, [r2]
 202 0146 0123     		movs	r3, #1
 203 0148 5370     		strb	r3, [r2, #1]
 204 014a 9370     		strb	r3, [r2, #2]
 205 014c 1A4A     		ldr	r2, .L38+20
 206 014e 1370     		strb	r3, [r2]
 207 0150 7047     		bx	lr
 208              	.L16:
 209 0152 154B     		ldr	r3, .L38+4
 210 0154 1B78     		ldrb	r3, [r3]	@ zero_extendqisi2
 211 0156 002B     		cmp	r3, #0
 212 0158 40F0F180 		bne	.L1
 213 015c 134B     		ldr	r3, .L38+8
 214 015e 1B78     		ldrb	r3, [r3]	@ zero_extendqisi2
 215 0160 002B     		cmp	r3, #0
 216 0162 40F0EC80 		bne	.L1
 217 0166 124B     		ldr	r3, .L38+12
 218 0168 1B78     		ldrb	r3, [r3]	@ zero_extendqisi2
 219 016a 002B     		cmp	r3, #0
 220 016c 00F0E780 		beq	.L1
 221 0170 104B     		ldr	r3, .L38+16
 222 0172 1B78     		ldrb	r3, [r3]	@ zero_extendqisi2
 223 0174 2BB1     		cbz	r3, .L19
 224 0176 0F4B     		ldr	r3, .L38+16
 225 0178 5B78     		ldrb	r3, [r3, #1]	@ zero_extendqisi2
 226 017a 13B9     		cbnz	r3, .L19
 227 017c 0D4B     		ldr	r3, .L38+16
 228 017e 9B78     		ldrb	r3, [r3, #2]	@ zero_extendqisi2
 229 0180 23B9     		cbnz	r3, .L20
ARM GAS  /tmp/ccVb6Lps.s 			page 5


 230              	.L19:
 231 0182 0D4B     		ldr	r3, .L38+20
 232 0184 1B78     		ldrb	r3, [r3]	@ zero_extendqisi2
 233 0186 002B     		cmp	r3, #0
 234 0188 00F0D980 		beq	.L1
 235              	.L20:
 236 018c 0B4B     		ldr	r3, .L38+24
 237 018e 0322     		movs	r2, #3
 238 0190 1A60     		str	r2, [r3]
 239 0192 084B     		ldr	r3, .L38+16
 240 0194 0022     		movs	r2, #0
 241 0196 1A70     		strb	r2, [r3]
 242 0198 5A70     		strb	r2, [r3, #1]
 243 019a 0122     		movs	r2, #1
 244 019c 9A70     		strb	r2, [r3, #2]
 245 019e 064B     		ldr	r3, .L38+20
 246 01a0 1A70     		strb	r2, [r3]
 247 01a2 7047     		bx	lr
 248              	.L39:
 249              		.align	2
 250              	.L38:
 251 01a4 00000000 		.word	geri_vites
 252 01a8 00000000 		.word	hall_A
 253 01ac 00000000 		.word	hall_B
 254 01b0 00000000 		.word	hall_C
 255 01b4 00000000 		.word	oldValue
 256 01b8 00000000 		.word	flagg
 257 01bc 00000000 		.word	step
 258              	.L2:
 259 01c0 5F4B     		ldr	r3, .L40
 260 01c2 1B78     		ldrb	r3, [r3]	@ zero_extendqisi2
 261 01c4 DBB1     		cbz	r3, .L21
 262 01c6 5F4B     		ldr	r3, .L40+4
 263 01c8 1B78     		ldrb	r3, [r3]	@ zero_extendqisi2
 264 01ca C3B9     		cbnz	r3, .L21
 265 01cc 5E4B     		ldr	r3, .L40+8
 266 01ce 1B78     		ldrb	r3, [r3]	@ zero_extendqisi2
 267 01d0 ABB1     		cbz	r3, .L21
 268 01d2 5E4B     		ldr	r3, .L40+12
 269 01d4 1B78     		ldrb	r3, [r3]	@ zero_extendqisi2
 270 01d6 2BB9     		cbnz	r3, .L22
 271 01d8 5C4B     		ldr	r3, .L40+12
 272 01da 5B78     		ldrb	r3, [r3, #1]	@ zero_extendqisi2
 273 01dc 13B9     		cbnz	r3, .L22
 274 01de 5B4B     		ldr	r3, .L40+12
 275 01e0 9B78     		ldrb	r3, [r3, #2]	@ zero_extendqisi2
 276 01e2 13B9     		cbnz	r3, .L23
 277              	.L22:
 278 01e4 5A4B     		ldr	r3, .L40+16
 279 01e6 1B78     		ldrb	r3, [r3]	@ zero_extendqisi2
 280 01e8 4BB1     		cbz	r3, .L21
 281              	.L23:
 282 01ea 0123     		movs	r3, #1
 283 01ec 594A     		ldr	r2, .L40+20
 284 01ee 1360     		str	r3, [r2]
 285 01f0 564A     		ldr	r2, .L40+12
 286 01f2 1370     		strb	r3, [r2]
ARM GAS  /tmp/ccVb6Lps.s 			page 6


 287 01f4 0021     		movs	r1, #0
 288 01f6 5170     		strb	r1, [r2, #1]
 289 01f8 9370     		strb	r3, [r2, #2]
 290 01fa 554A     		ldr	r2, .L40+16
 291 01fc 1370     		strb	r3, [r2]
 292              	.L21:
 293 01fe 504B     		ldr	r3, .L40
 294 0200 1B78     		ldrb	r3, [r3]	@ zero_extendqisi2
 295 0202 E3B1     		cbz	r3, .L24
 296 0204 4F4B     		ldr	r3, .L40+4
 297 0206 1B78     		ldrb	r3, [r3]	@ zero_extendqisi2
 298 0208 CBB9     		cbnz	r3, .L24
 299 020a 4F4B     		ldr	r3, .L40+8
 300 020c 1B78     		ldrb	r3, [r3]	@ zero_extendqisi2
 301 020e B3B9     		cbnz	r3, .L24
 302 0210 4E4B     		ldr	r3, .L40+12
 303 0212 1B78     		ldrb	r3, [r3]	@ zero_extendqisi2
 304 0214 2BB1     		cbz	r3, .L25
 305 0216 4D4B     		ldr	r3, .L40+12
 306 0218 5B78     		ldrb	r3, [r3, #1]	@ zero_extendqisi2
 307 021a 13B9     		cbnz	r3, .L25
 308 021c 4B4B     		ldr	r3, .L40+12
 309 021e 9B78     		ldrb	r3, [r3, #2]	@ zero_extendqisi2
 310 0220 13B9     		cbnz	r3, .L26
 311              	.L25:
 312 0222 4B4B     		ldr	r3, .L40+16
 313 0224 1B78     		ldrb	r3, [r3]	@ zero_extendqisi2
 314 0226 53B1     		cbz	r3, .L24
 315              	.L26:
 316 0228 4A4B     		ldr	r3, .L40+20
 317 022a 0222     		movs	r2, #2
 318 022c 1A60     		str	r2, [r3]
 319 022e 474B     		ldr	r3, .L40+12
 320 0230 0122     		movs	r2, #1
 321 0232 1A70     		strb	r2, [r3]
 322 0234 0021     		movs	r1, #0
 323 0236 5970     		strb	r1, [r3, #1]
 324 0238 9970     		strb	r1, [r3, #2]
 325 023a 454B     		ldr	r3, .L40+16
 326 023c 1A70     		strb	r2, [r3]
 327              	.L24:
 328 023e 404B     		ldr	r3, .L40
 329 0240 1B78     		ldrb	r3, [r3]	@ zero_extendqisi2
 330 0242 E3B1     		cbz	r3, .L27
 331 0244 3F4B     		ldr	r3, .L40+4
 332 0246 1B78     		ldrb	r3, [r3]	@ zero_extendqisi2
 333 0248 CBB1     		cbz	r3, .L27
 334 024a 3F4B     		ldr	r3, .L40+8
 335 024c 1B78     		ldrb	r3, [r3]	@ zero_extendqisi2
 336 024e B3B9     		cbnz	r3, .L27
 337 0250 3E4B     		ldr	r3, .L40+12
 338 0252 1B78     		ldrb	r3, [r3]	@ zero_extendqisi2
 339 0254 2BB1     		cbz	r3, .L28
 340 0256 3D4B     		ldr	r3, .L40+12
 341 0258 5B78     		ldrb	r3, [r3, #1]	@ zero_extendqisi2
 342 025a 13B9     		cbnz	r3, .L28
 343 025c 3B4B     		ldr	r3, .L40+12
ARM GAS  /tmp/ccVb6Lps.s 			page 7


 344 025e 9B78     		ldrb	r3, [r3, #2]	@ zero_extendqisi2
 345 0260 13B1     		cbz	r3, .L29
 346              	.L28:
 347 0262 3B4B     		ldr	r3, .L40+16
 348 0264 1B78     		ldrb	r3, [r3]	@ zero_extendqisi2
 349 0266 53B1     		cbz	r3, .L27
 350              	.L29:
 351 0268 3A4B     		ldr	r3, .L40+20
 352 026a 0322     		movs	r2, #3
 353 026c 1A60     		str	r2, [r3]
 354 026e 374A     		ldr	r2, .L40+12
 355 0270 0123     		movs	r3, #1
 356 0272 1370     		strb	r3, [r2]
 357 0274 5370     		strb	r3, [r2, #1]
 358 0276 0021     		movs	r1, #0
 359 0278 9170     		strb	r1, [r2, #2]
 360 027a 354A     		ldr	r2, .L40+16
 361 027c 1370     		strb	r3, [r2]
 362              	.L27:
 363 027e 304B     		ldr	r3, .L40
 364 0280 1B78     		ldrb	r3, [r3]	@ zero_extendqisi2
 365 0282 E3B9     		cbnz	r3, .L30
 366 0284 2F4B     		ldr	r3, .L40+4
 367 0286 1B78     		ldrb	r3, [r3]	@ zero_extendqisi2
 368 0288 CBB1     		cbz	r3, .L30
 369 028a 2F4B     		ldr	r3, .L40+8
 370 028c 1B78     		ldrb	r3, [r3]	@ zero_extendqisi2
 371 028e B3B9     		cbnz	r3, .L30
 372 0290 2E4B     		ldr	r3, .L40+12
 373 0292 1B78     		ldrb	r3, [r3]	@ zero_extendqisi2
 374 0294 2BB1     		cbz	r3, .L31
 375 0296 2D4B     		ldr	r3, .L40+12
 376 0298 5B78     		ldrb	r3, [r3, #1]	@ zero_extendqisi2
 377 029a 13B1     		cbz	r3, .L31
 378 029c 2B4B     		ldr	r3, .L40+12
 379 029e 9B78     		ldrb	r3, [r3, #2]	@ zero_extendqisi2
 380 02a0 13B1     		cbz	r3, .L32
 381              	.L31:
 382 02a2 2B4B     		ldr	r3, .L40+16
 383 02a4 1B78     		ldrb	r3, [r3]	@ zero_extendqisi2
 384 02a6 53B1     		cbz	r3, .L30
 385              	.L32:
 386 02a8 2A4B     		ldr	r3, .L40+20
 387 02aa 0422     		movs	r2, #4
 388 02ac 1A60     		str	r2, [r3]
 389 02ae 274B     		ldr	r3, .L40+12
 390 02b0 0021     		movs	r1, #0
 391 02b2 1970     		strb	r1, [r3]
 392 02b4 0122     		movs	r2, #1
 393 02b6 5A70     		strb	r2, [r3, #1]
 394 02b8 9970     		strb	r1, [r3, #2]
 395 02ba 254B     		ldr	r3, .L40+16
 396 02bc 1A70     		strb	r2, [r3]
 397              	.L30:
 398 02be 204B     		ldr	r3, .L40
 399 02c0 1B78     		ldrb	r3, [r3]	@ zero_extendqisi2
 400 02c2 E3B9     		cbnz	r3, .L33
ARM GAS  /tmp/ccVb6Lps.s 			page 8


 401 02c4 1F4B     		ldr	r3, .L40+4
 402 02c6 1B78     		ldrb	r3, [r3]	@ zero_extendqisi2
 403 02c8 CBB1     		cbz	r3, .L33
 404 02ca 1F4B     		ldr	r3, .L40+8
 405 02cc 1B78     		ldrb	r3, [r3]	@ zero_extendqisi2
 406 02ce B3B1     		cbz	r3, .L33
 407 02d0 1E4B     		ldr	r3, .L40+12
 408 02d2 1B78     		ldrb	r3, [r3]	@ zero_extendqisi2
 409 02d4 2BB9     		cbnz	r3, .L34
 410 02d6 1D4B     		ldr	r3, .L40+12
 411 02d8 5B78     		ldrb	r3, [r3, #1]	@ zero_extendqisi2
 412 02da 13B1     		cbz	r3, .L34
 413 02dc 1B4B     		ldr	r3, .L40+12
 414 02de 9B78     		ldrb	r3, [r3, #2]	@ zero_extendqisi2
 415 02e0 13B1     		cbz	r3, .L35
 416              	.L34:
 417 02e2 1B4B     		ldr	r3, .L40+16
 418 02e4 1B78     		ldrb	r3, [r3]	@ zero_extendqisi2
 419 02e6 53B1     		cbz	r3, .L33
 420              	.L35:
 421 02e8 1A4B     		ldr	r3, .L40+20
 422 02ea 0522     		movs	r2, #5
 423 02ec 1A60     		str	r2, [r3]
 424 02ee 174A     		ldr	r2, .L40+12
 425 02f0 0023     		movs	r3, #0
 426 02f2 1370     		strb	r3, [r2]
 427 02f4 0123     		movs	r3, #1
 428 02f6 5370     		strb	r3, [r2, #1]
 429 02f8 9370     		strb	r3, [r2, #2]
 430 02fa 154A     		ldr	r2, .L40+16
 431 02fc 1370     		strb	r3, [r2]
 432              	.L33:
 433 02fe 104B     		ldr	r3, .L40
 434 0300 1B78     		ldrb	r3, [r3]	@ zero_extendqisi2
 435 0302 E3B9     		cbnz	r3, .L1
 436 0304 0F4B     		ldr	r3, .L40+4
 437 0306 1B78     		ldrb	r3, [r3]	@ zero_extendqisi2
 438 0308 CBB9     		cbnz	r3, .L1
 439 030a 0F4B     		ldr	r3, .L40+8
 440 030c 1B78     		ldrb	r3, [r3]	@ zero_extendqisi2
 441 030e B3B1     		cbz	r3, .L1
 442 0310 0E4B     		ldr	r3, .L40+12
 443 0312 1B78     		ldrb	r3, [r3]	@ zero_extendqisi2
 444 0314 2BB9     		cbnz	r3, .L36
 445 0316 0D4B     		ldr	r3, .L40+12
 446 0318 5B78     		ldrb	r3, [r3, #1]	@ zero_extendqisi2
 447 031a 13B1     		cbz	r3, .L36
 448 031c 0B4B     		ldr	r3, .L40+12
 449 031e 9B78     		ldrb	r3, [r3, #2]	@ zero_extendqisi2
 450 0320 13B9     		cbnz	r3, .L37
 451              	.L36:
 452 0322 0B4B     		ldr	r3, .L40+16
 453 0324 1B78     		ldrb	r3, [r3]	@ zero_extendqisi2
 454 0326 53B1     		cbz	r3, .L1
 455              	.L37:
 456 0328 0A4B     		ldr	r3, .L40+20
 457 032a 0622     		movs	r2, #6
ARM GAS  /tmp/ccVb6Lps.s 			page 9


 458 032c 1A60     		str	r2, [r3]
 459 032e 074B     		ldr	r3, .L40+12
 460 0330 0022     		movs	r2, #0
 461 0332 1A70     		strb	r2, [r3]
 462 0334 5A70     		strb	r2, [r3, #1]
 463 0336 0122     		movs	r2, #1
 464 0338 9A70     		strb	r2, [r3, #2]
 465 033a 054B     		ldr	r3, .L40+16
 466 033c 1A70     		strb	r2, [r3]
 467              	.L1:
 468 033e 7047     		bx	lr
 469              	.L41:
 470              		.align	2
 471              	.L40:
 472 0340 00000000 		.word	hall_A
 473 0344 00000000 		.word	hall_B
 474 0348 00000000 		.word	hall_C
 475 034c 00000000 		.word	oldValue
 476 0350 00000000 		.word	flagg
 477 0354 00000000 		.word	step
 479              		.section	.text.sample_phase_data,"ax",%progbits
 480              		.align	1
 481              		.global	sample_phase_data
 482              		.syntax unified
 483              		.thumb
 484              		.thumb_func
 486              	sample_phase_data:
 487              		@ args = 0, pretend = 0, frame = 0
 488              		@ frame_needed = 0, uses_anonymous_args = 0
 489              		@ link register save eliminated.
 490 0000 6328     		cmp	r0, #99
 491 0002 1BD9     		bls	.L45
 492 0004 0E48     		ldr	r0, .L49
 493 0006 0078     		ldrb	r0, [r0]	@ zero_extendqisi2
 494 0008 9F28     		cmp	r0, #159
 495 000a 17D8     		bhi	.L45
 496 000c 10B4     		push	{r4}
 497 000e 0D4C     		ldr	r4, .L49+4
 498 0010 24F81010 		strh	r1, [r4, r0, lsl #1]	@ movhi
 499 0014 00F1A001 		add	r1, r0, #160
 500 0018 24F81120 		strh	r2, [r4, r1, lsl #1]	@ movhi
 501 001c 00F5A072 		add	r2, r0, #320
 502 0020 24F81230 		strh	r3, [r4, r2, lsl #1]	@ movhi
 503 0024 0130     		adds	r0, r0, #1
 504 0026 C0B2     		uxtb	r0, r0
 505 0028 054B     		ldr	r3, .L49
 506 002a 1870     		strb	r0, [r3]
 507 002c A028     		cmp	r0, #160
 508 002e 01D0     		beq	.L48
 509              	.L42:
 510 0030 10BC     		pop	{r4}
 511 0032 7047     		bx	lr
 512              	.L48:
 513 0034 044B     		ldr	r3, .L49+8
 514 0036 0122     		movs	r2, #1
 515 0038 1A70     		strb	r2, [r3]
 516 003a F9E7     		b	.L42
ARM GAS  /tmp/ccVb6Lps.s 			page 10


 517              	.L45:
 518 003c 7047     		bx	lr
 519              	.L50:
 520 003e 00BF     		.align	2
 521              	.L49:
 522 0040 00000000 		.word	counter
 523 0044 00000000 		.word	analyze_data_1
 524 0048 00000000 		.word	sender_flag
 526              		.global	sender_flag
 527              		.section	.bss.sender_flag,"aw",%nobits
 530              	sender_flag:
 531 0000 00       		.space	1
 532              		.global	counter
 533              		.section	.bss.counter,"aw",%nobits
 536              	counter:
 537 0000 00       		.space	1
 538              		.ident	"GCC: (15:13.3.rel1-1) 13.3.1 20240614"
ARM GAS  /tmp/ccVb6Lps.s 			page 11


DEFINED SYMBOLS
                            *ABS*:00000000 old_value_hall.c
     /tmp/ccVb6Lps.s:16     .text.set_old_value:00000000 $t
     /tmp/ccVb6Lps.s:22     .text.set_old_value:00000000 set_old_value
     /tmp/ccVb6Lps.s:251    .text.set_old_value:000001a4 $d
     /tmp/ccVb6Lps.s:259    .text.set_old_value:000001c0 $t
     /tmp/ccVb6Lps.s:472    .text.set_old_value:00000340 $d
     /tmp/ccVb6Lps.s:480    .text.sample_phase_data:00000000 $t
     /tmp/ccVb6Lps.s:486    .text.sample_phase_data:00000000 sample_phase_data
     /tmp/ccVb6Lps.s:522    .text.sample_phase_data:00000040 $d
     /tmp/ccVb6Lps.s:536    .bss.counter:00000000 counter
     /tmp/ccVb6Lps.s:530    .bss.sender_flag:00000000 sender_flag
     /tmp/ccVb6Lps.s:531    .bss.sender_flag:00000000 $d
     /tmp/ccVb6Lps.s:537    .bss.counter:00000000 $d

UNDEFINED SYMBOLS
geri_vites
hall_A
hall_B
hall_C
oldValue
flagg
step
analyze_data_1
