ARM GAS  /tmp/ccCegBm9.s 			page 1


   1              		.cpu cortex-m3
   2              		.arch armv7-m
   3              		.fpu softvfp
   4              		.eabi_attribute 20, 1
   5              		.eabi_attribute 21, 1
   6              		.eabi_attribute 23, 3
   7              		.eabi_attribute 24, 1
   8              		.eabi_attribute 25, 1
   9              		.eabi_attribute 26, 1
  10              		.eabi_attribute 30, 1
  11              		.eabi_attribute 34, 1
  12              		.eabi_attribute 18, 4
  13              		.file	"steps.c"
  14              		.text
  15              		.section	.text.execute_step,"ax",%progbits
  16              		.align	1
  17              		.global	execute_step
  18              		.syntax unified
  19              		.thumb
  20              		.thumb_func
  22              	execute_step:
  23              		@ args = 0, pretend = 0, frame = 0
  24              		@ frame_needed = 0, uses_anonymous_args = 0
  25 0000 08B5     		push	{r3, lr}
  26 0002 374B     		ldr	r3, .L12
  27 0004 1B78     		ldrb	r3, [r3]	@ zero_extendqisi2
  28 0006 B3B1     		cbz	r3, .L1
  29 0008 0138     		subs	r0, r0, #1
  30 000a 0528     		cmp	r0, #5
  31 000c 13D8     		bhi	.L1
  32 000e DFE800F0 		tbb	[pc, r0]
  33              	.L4:
  34 0012 03       		.byte	(.L9-.L4)/2
  35 0013 13       		.byte	(.L8-.L4)/2
  36 0014 24       		.byte	(.L7-.L4)/2
  37 0015 35       		.byte	(.L6-.L4)/2
  38 0016 45       		.byte	(.L5-.L4)/2
  39 0017 56       		.byte	(.L3-.L4)/2
  40              		.p2align 1
  41              	.L9:
  42 0018 324B     		ldr	r3, .L12+4
  43 001a 1B68     		ldr	r3, [r3]
  44 001c 0022     		movs	r2, #0
  45 001e DA63     		str	r2, [r3, #60]
  46 0020 9A63     		str	r2, [r3, #56]
  47 0022 314A     		ldr	r2, .L12+8
  48 0024 C521     		movs	r1, #197
  49 0026 1162     		str	r1, [r2, #32]
  50 0028 304A     		ldr	r2, .L12+12
  51 002a 1268     		ldr	r2, [r2]
  52 002c 5A63     		str	r2, [r3, #52]
  53 002e FFF7FEFF 		bl	HAL_GetTick
  54 0032 2F4B     		ldr	r3, .L12+16
  55 0034 1860     		str	r0, [r3]
  56              	.L1:
  57 0036 08BD     		pop	{r3, pc}
  58              	.L8:
ARM GAS  /tmp/ccCegBm9.s 			page 2


  59 0038 2A4B     		ldr	r3, .L12+4
  60 003a 1B68     		ldr	r3, [r3]
  61 003c 0022     		movs	r2, #0
  62 003e DA63     		str	r2, [r3, #60]
  63 0040 9A63     		str	r2, [r3, #56]
  64 0042 294A     		ldr	r2, .L12+8
  65 0044 40F60541 		movw	r1, #3077
  66 0048 1162     		str	r1, [r2, #32]
  67 004a 284A     		ldr	r2, .L12+12
  68 004c 1268     		ldr	r2, [r2]
  69 004e 5A63     		str	r2, [r3, #52]
  70 0050 FFF7FEFF 		bl	HAL_GetTick
  71 0054 264B     		ldr	r3, .L12+16
  72 0056 1860     		str	r0, [r3]
  73 0058 EDE7     		b	.L1
  74              	.L7:
  75 005a 224B     		ldr	r3, .L12+4
  76 005c 1B68     		ldr	r3, [r3]
  77 005e 0022     		movs	r2, #0
  78 0060 5A63     		str	r2, [r3, #52]
  79 0062 DA63     		str	r2, [r3, #60]
  80 0064 204A     		ldr	r2, .L12+8
  81 0066 4FF44561 		mov	r1, #3152
  82 006a 1162     		str	r1, [r2, #32]
  83 006c 1F4A     		ldr	r2, .L12+12
  84 006e 1268     		ldr	r2, [r2]
  85 0070 9A63     		str	r2, [r3, #56]
  86 0072 FFF7FEFF 		bl	HAL_GetTick
  87 0076 1E4B     		ldr	r3, .L12+16
  88 0078 1860     		str	r0, [r3]
  89 007a DCE7     		b	.L1
  90              	.L6:
  91 007c 194B     		ldr	r3, .L12+4
  92 007e 1B68     		ldr	r3, [r3]
  93 0080 0022     		movs	r2, #0
  94 0082 5A63     		str	r2, [r3, #52]
  95 0084 DA63     		str	r2, [r3, #60]
  96 0086 184A     		ldr	r2, .L12+8
  97 0088 5C21     		movs	r1, #92
  98 008a 1162     		str	r1, [r2, #32]
  99 008c 174A     		ldr	r2, .L12+12
 100 008e 1268     		ldr	r2, [r2]
 101 0090 9A63     		str	r2, [r3, #56]
 102 0092 FFF7FEFF 		bl	HAL_GetTick
 103 0096 164B     		ldr	r3, .L12+16
 104 0098 1860     		str	r0, [r3]
 105 009a CCE7     		b	.L1
 106              	.L5:
 107 009c 114B     		ldr	r3, .L12+4
 108 009e 1B68     		ldr	r3, [r3]
 109 00a0 0022     		movs	r2, #0
 110 00a2 5A63     		str	r2, [r3, #52]
 111 00a4 9A63     		str	r2, [r3, #56]
 112 00a6 104A     		ldr	r2, .L12+8
 113 00a8 40F20C51 		movw	r1, #1292
 114 00ac 1162     		str	r1, [r2, #32]
 115 00ae 0F4A     		ldr	r2, .L12+12
ARM GAS  /tmp/ccCegBm9.s 			page 3


 116 00b0 1268     		ldr	r2, [r2]
 117 00b2 DA63     		str	r2, [r3, #60]
 118 00b4 FFF7FEFF 		bl	HAL_GetTick
 119 00b8 0D4B     		ldr	r3, .L12+16
 120 00ba 1860     		str	r0, [r3]
 121 00bc BBE7     		b	.L1
 122              	.L3:
 123 00be 094B     		ldr	r3, .L12+4
 124 00c0 1B68     		ldr	r3, [r3]
 125 00c2 0022     		movs	r2, #0
 126 00c4 5A63     		str	r2, [r3, #52]
 127 00c6 9A63     		str	r2, [r3, #56]
 128 00c8 074A     		ldr	r2, .L12+8
 129 00ca 4FF4B861 		mov	r1, #1472
 130 00ce 1162     		str	r1, [r2, #32]
 131 00d0 064A     		ldr	r2, .L12+12
 132 00d2 1268     		ldr	r2, [r2]
 133 00d4 DA63     		str	r2, [r3, #60]
 134 00d6 FFF7FEFF 		bl	HAL_GetTick
 135 00da 054B     		ldr	r3, .L12+16
 136 00dc 1860     		str	r0, [r3]
 137 00de AAE7     		b	.L1
 138              	.L13:
 139              		.align	2
 140              	.L12:
 141 00e0 00000000 		.word	run_status
 142 00e4 00000000 		.word	htim1
 143 00e8 002C0140 		.word	1073818624
 144 00ec 00000000 		.word	pwm_value
 145 00f0 00000000 		.word	previousTime2
 147              		.ident	"GCC: (15:13.3.rel1-1) 13.3.1 20240614"
ARM GAS  /tmp/ccCegBm9.s 			page 4


DEFINED SYMBOLS
                            *ABS*:00000000 steps.c
     /tmp/ccCegBm9.s:16     .text.execute_step:00000000 $t
     /tmp/ccCegBm9.s:22     .text.execute_step:00000000 execute_step
     /tmp/ccCegBm9.s:34     .text.execute_step:00000012 $d
     /tmp/ccCegBm9.s:40     .text.execute_step:00000018 $t
     /tmp/ccCegBm9.s:141    .text.execute_step:000000e0 $d

UNDEFINED SYMBOLS
HAL_GetTick
run_status
htim1
pwm_value
previousTime2
