ARM GAS  /tmp/cc9MapqM.s 			page 1


   1              		.cpu cortex-m3
   2              		.arch armv7-m
   3              		.fpu softvfp
   4              		.eabi_attribute 20, 1
   5              		.eabi_attribute 21, 1
   6              		.eabi_attribute 23, 3
   7              		.eabi_attribute 24, 1
   8              		.eabi_attribute 25, 1
   9              		.eabi_attribute 26, 1
  10              		.eabi_attribute 30, 1
  11              		.eabi_attribute 34, 1
  12              		.eabi_attribute 18, 4
  13              		.file	"stm32f1xx_hal_pcd_ex.c"
  14              		.text
  15              		.section	.text.HAL_PCDEx_PMAConfig,"ax",%progbits
  16              		.align	1
  17              		.global	HAL_PCDEx_PMAConfig
  18              		.syntax unified
  19              		.thumb
  20              		.thumb_func
  22              	HAL_PCDEx_PMAConfig:
  23              		@ args = 0, pretend = 0, frame = 0
  24              		@ frame_needed = 0, uses_anonymous_args = 0
  25              		@ link register save eliminated.
  26 0000 11F0800F 		tst	r1, #128
  27 0004 0BD0     		beq	.L2
  28 0006 01F00701 		and	r1, r1, #7
  29 000a 01EB8101 		add	r1, r1, r1, lsl #2
  30 000e C900     		lsls	r1, r1, #3
  31 0010 1031     		adds	r1, r1, #16
  32 0012 0844     		add	r0, r0, r1
  33              	.L3:
  34 0014 52B9     		cbnz	r2, .L4
  35 0016 0273     		strb	r2, [r0, #12]
  36 0018 C380     		strh	r3, [r0, #6]	@ movhi
  37              	.L5:
  38 001a 0020     		movs	r0, #0
  39 001c 7047     		bx	lr
  40              	.L2:
  41 001e 01EB8101 		add	r1, r1, r1, lsl #2
  42 0022 C900     		lsls	r1, r1, #3
  43 0024 01F5A871 		add	r1, r1, #336
  44 0028 0844     		add	r0, r0, r1
  45 002a F3E7     		b	.L3
  46              	.L4:
  47 002c 0122     		movs	r2, #1
  48 002e 0273     		strb	r2, [r0, #12]
  49 0030 0381     		strh	r3, [r0, #8]	@ movhi
  50 0032 1B0C     		lsrs	r3, r3, #16
  51 0034 4381     		strh	r3, [r0, #10]	@ movhi
  52 0036 F0E7     		b	.L5
  54              		.section	.text.HAL_PCDEx_SetConnectionState,"ax",%progbits
  55              		.align	1
  56              		.weak	HAL_PCDEx_SetConnectionState
  57              		.syntax unified
  58              		.thumb
  59              		.thumb_func
ARM GAS  /tmp/cc9MapqM.s 			page 2


  61              	HAL_PCDEx_SetConnectionState:
  62              		@ args = 0, pretend = 0, frame = 0
  63              		@ frame_needed = 0, uses_anonymous_args = 0
  64              		@ link register save eliminated.
  65 0000 7047     		bx	lr
  67              		.section	.text.HAL_PCDEx_LPM_Callback,"ax",%progbits
  68              		.align	1
  69              		.weak	HAL_PCDEx_LPM_Callback
  70              		.syntax unified
  71              		.thumb
  72              		.thumb_func
  74              	HAL_PCDEx_LPM_Callback:
  75              		@ args = 0, pretend = 0, frame = 0
  76              		@ frame_needed = 0, uses_anonymous_args = 0
  77              		@ link register save eliminated.
  78 0000 7047     		bx	lr
  80              		.section	.text.HAL_PCDEx_BCD_Callback,"ax",%progbits
  81              		.align	1
  82              		.weak	HAL_PCDEx_BCD_Callback
  83              		.syntax unified
  84              		.thumb
  85              		.thumb_func
  87              	HAL_PCDEx_BCD_Callback:
  88              		@ args = 0, pretend = 0, frame = 0
  89              		@ frame_needed = 0, uses_anonymous_args = 0
  90              		@ link register save eliminated.
  91 0000 7047     		bx	lr
  93              		.ident	"GCC: (15:13.3.rel1-1) 13.3.1 20240614"
ARM GAS  /tmp/cc9MapqM.s 			page 3


DEFINED SYMBOLS
                            *ABS*:00000000 stm32f1xx_hal_pcd_ex.c
     /tmp/cc9MapqM.s:16     .text.HAL_PCDEx_PMAConfig:00000000 $t
     /tmp/cc9MapqM.s:22     .text.HAL_PCDEx_PMAConfig:00000000 HAL_PCDEx_PMAConfig
     /tmp/cc9MapqM.s:55     .text.HAL_PCDEx_SetConnectionState:00000000 $t
     /tmp/cc9MapqM.s:61     .text.HAL_PCDEx_SetConnectionState:00000000 HAL_PCDEx_SetConnectionState
     /tmp/cc9MapqM.s:68     .text.HAL_PCDEx_LPM_Callback:00000000 $t
     /tmp/cc9MapqM.s:74     .text.HAL_PCDEx_LPM_Callback:00000000 HAL_PCDEx_LPM_Callback
     /tmp/cc9MapqM.s:81     .text.HAL_PCDEx_BCD_Callback:00000000 $t
     /tmp/cc9MapqM.s:87     .text.HAL_PCDEx_BCD_Callback:00000000 HAL_PCDEx_BCD_Callback

NO UNDEFINED SYMBOLS
