ARM GAS  /tmp/ccFXPNNl.s 			page 1


   1              		.cpu cortex-m3
   2              		.arch armv7-m
   3              		.fpu softvfp
   4              		.eabi_attribute 20, 1
   5              		.eabi_attribute 21, 1
   6              		.eabi_attribute 23, 3
   7              		.eabi_attribute 24, 1
   8              		.eabi_attribute 25, 1
   9              		.eabi_attribute 26, 1
  10              		.eabi_attribute 30, 1
  11              		.eabi_attribute 34, 1
  12              		.eabi_attribute 18, 4
  13              		.file	"stm32f1xx_hal_rcc.c"
  14              		.text
  15              		.section	.text.RCC_Delay,"ax",%progbits
  16              		.align	1
  17              		.syntax unified
  18              		.thumb
  19              		.thumb_func
  21              	RCC_Delay:
  22              		@ args = 0, pretend = 0, frame = 8
  23              		@ frame_needed = 0, uses_anonymous_args = 0
  24              		@ link register save eliminated.
  25 0000 82B0     		sub	sp, sp, #8
  26 0002 084B     		ldr	r3, .L4
  27 0004 1B68     		ldr	r3, [r3]
  28 0006 084A     		ldr	r2, .L4+4
  29 0008 A2FB0323 		umull	r2, r3, r2, r3
  30 000c 5B0A     		lsrs	r3, r3, #9
  31 000e 00FB03F3 		mul	r3, r0, r3
  32 0012 0193     		str	r3, [sp, #4]
  33              	.L2:
  34              		.syntax unified
  35              	@ 1368 "Drivers/STM32F1xx_HAL_Driver/Src/stm32f1xx_hal_rcc.c" 1
  36 0014 00BF     		nop
  37              	@ 0 "" 2
  38              		.thumb
  39              		.syntax unified
  40 0016 019B     		ldr	r3, [sp, #4]
  41 0018 5A1E     		subs	r2, r3, #1
  42 001a 0192     		str	r2, [sp, #4]
  43 001c 002B     		cmp	r3, #0
  44 001e F9D1     		bne	.L2
  45 0020 02B0     		add	sp, sp, #8
  46              		@ sp needed
  47 0022 7047     		bx	lr
  48              	.L5:
  49              		.align	2
  50              	.L4:
  51 0024 00000000 		.word	SystemCoreClock
  52 0028 D34D6210 		.word	274877907
  54              		.section	.text.HAL_RCC_DeInit,"ax",%progbits
  55              		.align	1
  56              		.global	HAL_RCC_DeInit
  57              		.syntax unified
  58              		.thumb
  59              		.thumb_func
ARM GAS  /tmp/ccFXPNNl.s 			page 2


  61              	HAL_RCC_DeInit:
  62              		@ args = 0, pretend = 0, frame = 0
  63              		@ frame_needed = 0, uses_anonymous_args = 0
  64 0000 70B5     		push	{r4, r5, r6, lr}
  65 0002 FFF7FEFF 		bl	HAL_GetTick
  66 0006 0446     		mov	r4, r0
  67 0008 364A     		ldr	r2, .L27
  68 000a 1368     		ldr	r3, [r2]
  69 000c 43F00103 		orr	r3, r3, #1
  70 0010 1360     		str	r3, [r2]
  71              	.L7:
  72 0012 344B     		ldr	r3, .L27
  73 0014 1B68     		ldr	r3, [r3]
  74 0016 13F0020F 		tst	r3, #2
  75 001a 07D1     		bne	.L22
  76 001c FFF7FEFF 		bl	HAL_GetTick
  77 0020 001B     		subs	r0, r0, r4
  78 0022 0228     		cmp	r0, #2
  79 0024 F5D9     		bls	.L7
  80 0026 0324     		movs	r4, #3
  81              	.L8:
  82 0028 2046     		mov	r0, r4
  83 002a 70BD     		pop	{r4, r5, r6, pc}
  84              	.L22:
  85 002c 2D4D     		ldr	r5, .L27
  86 002e 2B68     		ldr	r3, [r5]
  87 0030 23F0F803 		bic	r3, r3, #248
  88 0034 43F08003 		orr	r3, r3, #128
  89 0038 2B60     		str	r3, [r5]
  90 003a FFF7FEFF 		bl	HAL_GetTick
  91 003e 0446     		mov	r4, r0
  92 0040 0023     		movs	r3, #0
  93 0042 6B60     		str	r3, [r5, #4]
  94              	.L10:
  95 0044 274B     		ldr	r3, .L27
  96 0046 5B68     		ldr	r3, [r3, #4]
  97 0048 13F00C0F 		tst	r3, #12
  98 004c 08D0     		beq	.L23
  99 004e FFF7FEFF 		bl	HAL_GetTick
 100 0052 001B     		subs	r0, r0, r4
 101 0054 41F28833 		movw	r3, #5000
 102 0058 9842     		cmp	r0, r3
 103 005a F3D9     		bls	.L10
 104 005c 0324     		movs	r4, #3
 105 005e E3E7     		b	.L8
 106              	.L23:
 107 0060 214B     		ldr	r3, .L27+4
 108 0062 224A     		ldr	r2, .L27+8
 109 0064 1A60     		str	r2, [r3]
 110 0066 224B     		ldr	r3, .L27+12
 111 0068 1868     		ldr	r0, [r3]
 112 006a FFF7FEFF 		bl	HAL_InitTick
 113 006e 0446     		mov	r4, r0
 114 0070 08B1     		cbz	r0, .L24
 115 0072 0124     		movs	r4, #1
 116 0074 D8E7     		b	.L8
 117              	.L24:
ARM GAS  /tmp/ccFXPNNl.s 			page 3


 118 0076 FFF7FEFF 		bl	HAL_GetTick
 119 007a 0546     		mov	r5, r0
 120 007c 194A     		ldr	r2, .L27
 121 007e 1368     		ldr	r3, [r2]
 122 0080 23F08073 		bic	r3, r3, #16777216
 123 0084 1360     		str	r3, [r2]
 124              	.L12:
 125 0086 174B     		ldr	r3, .L27
 126 0088 1B68     		ldr	r3, [r3]
 127 008a 13F0007F 		tst	r3, #33554432
 128 008e 06D0     		beq	.L25
 129 0090 FFF7FEFF 		bl	HAL_GetTick
 130 0094 401B     		subs	r0, r0, r5
 131 0096 0228     		cmp	r0, #2
 132 0098 F5D9     		bls	.L12
 133 009a 0324     		movs	r4, #3
 134 009c C4E7     		b	.L8
 135              	.L25:
 136 009e 114E     		ldr	r6, .L27
 137 00a0 0023     		movs	r3, #0
 138 00a2 7360     		str	r3, [r6, #4]
 139 00a4 FFF7FEFF 		bl	HAL_GetTick
 140 00a8 0546     		mov	r5, r0
 141 00aa 3368     		ldr	r3, [r6]
 142 00ac 23F41023 		bic	r3, r3, #589824
 143 00b0 3360     		str	r3, [r6]
 144              	.L14:
 145 00b2 0C4B     		ldr	r3, .L27
 146 00b4 1B68     		ldr	r3, [r3]
 147 00b6 13F4003F 		tst	r3, #131072
 148 00ba 06D0     		beq	.L26
 149 00bc FFF7FEFF 		bl	HAL_GetTick
 150 00c0 401B     		subs	r0, r0, r5
 151 00c2 6428     		cmp	r0, #100
 152 00c4 F5D9     		bls	.L14
 153 00c6 0324     		movs	r4, #3
 154 00c8 AEE7     		b	.L8
 155              	.L26:
 156 00ca 064B     		ldr	r3, .L27
 157 00cc 1A68     		ldr	r2, [r3]
 158 00ce 22F48022 		bic	r2, r2, #262144
 159 00d2 1A60     		str	r2, [r3]
 160 00d4 5A6A     		ldr	r2, [r3, #36]
 161 00d6 42F08072 		orr	r2, r2, #16777216
 162 00da 5A62     		str	r2, [r3, #36]
 163 00dc 0022     		movs	r2, #0
 164 00de 9A60     		str	r2, [r3, #8]
 165 00e0 A2E7     		b	.L8
 166              	.L28:
 167 00e2 00BF     		.align	2
 168              	.L27:
 169 00e4 00100240 		.word	1073876992
 170 00e8 00000000 		.word	SystemCoreClock
 171 00ec 00127A00 		.word	8000000
 172 00f0 00000000 		.word	uwTickPrio
 174              		.section	.text.HAL_RCC_OscConfig,"ax",%progbits
 175              		.align	1
ARM GAS  /tmp/ccFXPNNl.s 			page 4


 176              		.global	HAL_RCC_OscConfig
 177              		.syntax unified
 178              		.thumb
 179              		.thumb_func
 181              	HAL_RCC_OscConfig:
 182              		@ args = 0, pretend = 0, frame = 8
 183              		@ frame_needed = 0, uses_anonymous_args = 0
 184 0000 0028     		cmp	r0, #0
 185 0002 00F0F181 		beq	.L82
 186 0006 70B5     		push	{r4, r5, r6, lr}
 187 0008 82B0     		sub	sp, sp, #8
 188 000a 0446     		mov	r4, r0
 189 000c 0368     		ldr	r3, [r0]
 190 000e 13F0010F 		tst	r3, #1
 191 0012 2CD0     		beq	.L31
 192 0014 994B     		ldr	r3, .L122
 193 0016 5B68     		ldr	r3, [r3, #4]
 194 0018 03F00C03 		and	r3, r3, #12
 195 001c 042B     		cmp	r3, #4
 196 001e 1DD0     		beq	.L32
 197 0020 964B     		ldr	r3, .L122
 198 0022 5B68     		ldr	r3, [r3, #4]
 199 0024 03F00C03 		and	r3, r3, #12
 200 0028 082B     		cmp	r3, #8
 201 002a 12D0     		beq	.L106
 202              	.L33:
 203 002c 6368     		ldr	r3, [r4, #4]
 204 002e B3F5803F 		cmp	r3, #65536
 205 0032 41D0     		beq	.L107
 206 0034 002B     		cmp	r3, #0
 207 0036 55D1     		bne	.L36
 208 0038 03F18043 		add	r3, r3, #1073741824
 209 003c 03F50433 		add	r3, r3, #135168
 210 0040 1A68     		ldr	r2, [r3]
 211 0042 22F48032 		bic	r2, r2, #65536
 212 0046 1A60     		str	r2, [r3]
 213 0048 1A68     		ldr	r2, [r3]
 214 004a 22F48022 		bic	r2, r2, #262144
 215 004e 1A60     		str	r2, [r3]
 216 0050 37E0     		b	.L35
 217              	.L106:
 218 0052 8A4B     		ldr	r3, .L122
 219 0054 5B68     		ldr	r3, [r3, #4]
 220 0056 13F4803F 		tst	r3, #65536
 221 005a E7D0     		beq	.L33
 222              	.L32:
 223 005c 874B     		ldr	r3, .L122
 224 005e 1B68     		ldr	r3, [r3]
 225 0060 13F4003F 		tst	r3, #131072
 226 0064 03D0     		beq	.L31
 227 0066 6368     		ldr	r3, [r4, #4]
 228 0068 002B     		cmp	r3, #0
 229 006a 00F0BF81 		beq	.L108
 230              	.L31:
 231 006e 2368     		ldr	r3, [r4]
 232 0070 13F0020F 		tst	r3, #2
 233 0074 75D0     		beq	.L43
ARM GAS  /tmp/ccFXPNNl.s 			page 5


 234 0076 814B     		ldr	r3, .L122
 235 0078 5B68     		ldr	r3, [r3, #4]
 236 007a 13F00C0F 		tst	r3, #12
 237 007e 5FD0     		beq	.L44
 238 0080 7E4B     		ldr	r3, .L122
 239 0082 5B68     		ldr	r3, [r3, #4]
 240 0084 03F00C03 		and	r3, r3, #12
 241 0088 082B     		cmp	r3, #8
 242 008a 54D0     		beq	.L109
 243              	.L45:
 244 008c 2369     		ldr	r3, [r4, #16]
 245 008e 002B     		cmp	r3, #0
 246 0090 00F08A80 		beq	.L47
 247 0094 7A4B     		ldr	r3, .L122+4
 248 0096 0122     		movs	r2, #1
 249 0098 1A60     		str	r2, [r3]
 250 009a FFF7FEFF 		bl	HAL_GetTick
 251 009e 0546     		mov	r5, r0
 252              	.L48:
 253 00a0 764B     		ldr	r3, .L122
 254 00a2 1B68     		ldr	r3, [r3]
 255 00a4 13F0020F 		tst	r3, #2
 256 00a8 75D1     		bne	.L110
 257 00aa FFF7FEFF 		bl	HAL_GetTick
 258 00ae 401B     		subs	r0, r0, r5
 259 00b0 0228     		cmp	r0, #2
 260 00b2 F5D9     		bls	.L48
 261 00b4 0320     		movs	r0, #3
 262 00b6 9EE1     		b	.L30
 263              	.L107:
 264 00b8 704A     		ldr	r2, .L122
 265 00ba 1368     		ldr	r3, [r2]
 266 00bc 43F48033 		orr	r3, r3, #65536
 267 00c0 1360     		str	r3, [r2]
 268              	.L35:
 269 00c2 6368     		ldr	r3, [r4, #4]
 270 00c4 43B3     		cbz	r3, .L38
 271 00c6 FFF7FEFF 		bl	HAL_GetTick
 272 00ca 0546     		mov	r5, r0
 273              	.L39:
 274 00cc 6B4B     		ldr	r3, .L122
 275 00ce 1B68     		ldr	r3, [r3]
 276 00d0 13F4003F 		tst	r3, #131072
 277 00d4 CBD1     		bne	.L31
 278 00d6 FFF7FEFF 		bl	HAL_GetTick
 279 00da 401B     		subs	r0, r0, r5
 280 00dc 6428     		cmp	r0, #100
 281 00de F5D9     		bls	.L39
 282 00e0 0320     		movs	r0, #3
 283 00e2 88E1     		b	.L30
 284              	.L36:
 285 00e4 B3F5A02F 		cmp	r3, #327680
 286 00e8 09D0     		beq	.L111
 287 00ea 644B     		ldr	r3, .L122
 288 00ec 1A68     		ldr	r2, [r3]
 289 00ee 22F48032 		bic	r2, r2, #65536
 290 00f2 1A60     		str	r2, [r3]
ARM GAS  /tmp/ccFXPNNl.s 			page 6


 291 00f4 1A68     		ldr	r2, [r3]
 292 00f6 22F48022 		bic	r2, r2, #262144
 293 00fa 1A60     		str	r2, [r3]
 294 00fc E1E7     		b	.L35
 295              	.L111:
 296 00fe 03F18043 		add	r3, r3, #1073741824
 297 0102 A3F53C33 		sub	r3, r3, #192512
 298 0106 1A68     		ldr	r2, [r3]
 299 0108 42F48022 		orr	r2, r2, #262144
 300 010c 1A60     		str	r2, [r3]
 301 010e 1A68     		ldr	r2, [r3]
 302 0110 42F48032 		orr	r2, r2, #65536
 303 0114 1A60     		str	r2, [r3]
 304 0116 D4E7     		b	.L35
 305              	.L38:
 306 0118 FFF7FEFF 		bl	HAL_GetTick
 307 011c 0546     		mov	r5, r0
 308              	.L41:
 309 011e 574B     		ldr	r3, .L122
 310 0120 1B68     		ldr	r3, [r3]
 311 0122 13F4003F 		tst	r3, #131072
 312 0126 A2D0     		beq	.L31
 313 0128 FFF7FEFF 		bl	HAL_GetTick
 314 012c 401B     		subs	r0, r0, r5
 315 012e 6428     		cmp	r0, #100
 316 0130 F5D9     		bls	.L41
 317 0132 0320     		movs	r0, #3
 318 0134 5FE1     		b	.L30
 319              	.L109:
 320 0136 514B     		ldr	r3, .L122
 321 0138 5B68     		ldr	r3, [r3, #4]
 322 013a 13F4803F 		tst	r3, #65536
 323 013e A5D1     		bne	.L45
 324              	.L44:
 325 0140 4E4B     		ldr	r3, .L122
 326 0142 1B68     		ldr	r3, [r3]
 327 0144 13F0020F 		tst	r3, #2
 328 0148 03D0     		beq	.L46
 329 014a 2369     		ldr	r3, [r4, #16]
 330 014c 012B     		cmp	r3, #1
 331 014e 40F04F81 		bne	.L86
 332              	.L46:
 333 0152 4A4A     		ldr	r2, .L122
 334 0154 1368     		ldr	r3, [r2]
 335 0156 23F0F803 		bic	r3, r3, #248
 336 015a 6169     		ldr	r1, [r4, #20]
 337 015c 43EAC103 		orr	r3, r3, r1, lsl #3
 338 0160 1360     		str	r3, [r2]
 339              	.L43:
 340 0162 2368     		ldr	r3, [r4]
 341 0164 13F0080F 		tst	r3, #8
 342 0168 33D0     		beq	.L52
 343 016a A369     		ldr	r3, [r4, #24]
 344 016c 002B     		cmp	r3, #0
 345 016e 5CD0     		beq	.L53
 346 0170 434B     		ldr	r3, .L122+4
 347 0172 0122     		movs	r2, #1
ARM GAS  /tmp/ccFXPNNl.s 			page 7


 348 0174 C3F88024 		str	r2, [r3, #1152]
 349 0178 FFF7FEFF 		bl	HAL_GetTick
 350 017c 0546     		mov	r5, r0
 351              	.L54:
 352 017e 3F4B     		ldr	r3, .L122
 353 0180 5B6A     		ldr	r3, [r3, #36]
 354 0182 13F0020F 		tst	r3, #2
 355 0186 21D1     		bne	.L112
 356 0188 FFF7FEFF 		bl	HAL_GetTick
 357 018c 401B     		subs	r0, r0, r5
 358 018e 0228     		cmp	r0, #2
 359 0190 F5D9     		bls	.L54
 360 0192 0320     		movs	r0, #3
 361 0194 2FE1     		b	.L30
 362              	.L110:
 363 0196 394A     		ldr	r2, .L122
 364 0198 1368     		ldr	r3, [r2]
 365 019a 23F0F803 		bic	r3, r3, #248
 366 019e 6169     		ldr	r1, [r4, #20]
 367 01a0 43EAC103 		orr	r3, r3, r1, lsl #3
 368 01a4 1360     		str	r3, [r2]
 369 01a6 DCE7     		b	.L43
 370              	.L47:
 371 01a8 354B     		ldr	r3, .L122+4
 372 01aa 0022     		movs	r2, #0
 373 01ac 1A60     		str	r2, [r3]
 374 01ae FFF7FEFF 		bl	HAL_GetTick
 375 01b2 0546     		mov	r5, r0
 376              	.L50:
 377 01b4 314B     		ldr	r3, .L122
 378 01b6 1B68     		ldr	r3, [r3]
 379 01b8 13F0020F 		tst	r3, #2
 380 01bc D1D0     		beq	.L43
 381 01be FFF7FEFF 		bl	HAL_GetTick
 382 01c2 401B     		subs	r0, r0, r5
 383 01c4 0228     		cmp	r0, #2
 384 01c6 F5D9     		bls	.L50
 385 01c8 0320     		movs	r0, #3
 386 01ca 14E1     		b	.L30
 387              	.L112:
 388 01cc 0120     		movs	r0, #1
 389 01ce FFF7FEFF 		bl	RCC_Delay
 390              	.L52:
 391 01d2 2368     		ldr	r3, [r4]
 392 01d4 13F0040F 		tst	r3, #4
 393 01d8 00F09680 		beq	.L58
 394 01dc 274B     		ldr	r3, .L122
 395 01de DB69     		ldr	r3, [r3, #28]
 396 01e0 13F0805F 		tst	r3, #268435456
 397 01e4 34D1     		bne	.L91
 398 01e6 254B     		ldr	r3, .L122
 399 01e8 DA69     		ldr	r2, [r3, #28]
 400 01ea 42F08052 		orr	r2, r2, #268435456
 401 01ee DA61     		str	r2, [r3, #28]
 402 01f0 DB69     		ldr	r3, [r3, #28]
 403 01f2 03F08053 		and	r3, r3, #268435456
 404 01f6 0193     		str	r3, [sp, #4]
ARM GAS  /tmp/ccFXPNNl.s 			page 8


 405 01f8 019B     		ldr	r3, [sp, #4]
 406 01fa 0125     		movs	r5, #1
 407              	.L59:
 408 01fc 214B     		ldr	r3, .L122+8
 409 01fe 1B68     		ldr	r3, [r3]
 410 0200 13F4807F 		tst	r3, #256
 411 0204 26D0     		beq	.L113
 412              	.L60:
 413 0206 E368     		ldr	r3, [r4, #12]
 414 0208 012B     		cmp	r3, #1
 415 020a 3DD0     		beq	.L114
 416 020c 002B     		cmp	r3, #0
 417 020e 53D1     		bne	.L65
 418 0210 03F18043 		add	r3, r3, #1073741824
 419 0214 03F50433 		add	r3, r3, #135168
 420 0218 1A6A     		ldr	r2, [r3, #32]
 421 021a 22F00102 		bic	r2, r2, #1
 422 021e 1A62     		str	r2, [r3, #32]
 423 0220 1A6A     		ldr	r2, [r3, #32]
 424 0222 22F00402 		bic	r2, r2, #4
 425 0226 1A62     		str	r2, [r3, #32]
 426 0228 33E0     		b	.L64
 427              	.L53:
 428 022a 154B     		ldr	r3, .L122+4
 429 022c 0022     		movs	r2, #0
 430 022e C3F88024 		str	r2, [r3, #1152]
 431 0232 FFF7FEFF 		bl	HAL_GetTick
 432 0236 0546     		mov	r5, r0
 433              	.L56:
 434 0238 104B     		ldr	r3, .L122
 435 023a 5B6A     		ldr	r3, [r3, #36]
 436 023c 13F0020F 		tst	r3, #2
 437 0240 C7D0     		beq	.L52
 438 0242 FFF7FEFF 		bl	HAL_GetTick
 439 0246 401B     		subs	r0, r0, r5
 440 0248 0228     		cmp	r0, #2
 441 024a F5D9     		bls	.L56
 442 024c 0320     		movs	r0, #3
 443 024e D2E0     		b	.L30
 444              	.L91:
 445 0250 0025     		movs	r5, #0
 446 0252 D3E7     		b	.L59
 447              	.L113:
 448 0254 0B4A     		ldr	r2, .L122+8
 449 0256 1368     		ldr	r3, [r2]
 450 0258 43F48073 		orr	r3, r3, #256
 451 025c 1360     		str	r3, [r2]
 452 025e FFF7FEFF 		bl	HAL_GetTick
 453 0262 0646     		mov	r6, r0
 454              	.L61:
 455 0264 074B     		ldr	r3, .L122+8
 456 0266 1B68     		ldr	r3, [r3]
 457 0268 13F4807F 		tst	r3, #256
 458 026c CBD1     		bne	.L60
 459 026e FFF7FEFF 		bl	HAL_GetTick
 460 0272 801B     		subs	r0, r0, r6
 461 0274 6428     		cmp	r0, #100
ARM GAS  /tmp/ccFXPNNl.s 			page 9


 462 0276 F5D9     		bls	.L61
 463 0278 0320     		movs	r0, #3
 464 027a BCE0     		b	.L30
 465              	.L123:
 466              		.align	2
 467              	.L122:
 468 027c 00100240 		.word	1073876992
 469 0280 00004242 		.word	1111621632
 470 0284 00700040 		.word	1073770496
 471              	.L114:
 472 0288 5F4A     		ldr	r2, .L124
 473 028a 136A     		ldr	r3, [r2, #32]
 474 028c 43F00103 		orr	r3, r3, #1
 475 0290 1362     		str	r3, [r2, #32]
 476              	.L64:
 477 0292 E368     		ldr	r3, [r4, #12]
 478 0294 33B3     		cbz	r3, .L67
 479 0296 FFF7FEFF 		bl	HAL_GetTick
 480 029a 0646     		mov	r6, r0
 481              	.L68:
 482 029c 5A4B     		ldr	r3, .L124
 483 029e 1B6A     		ldr	r3, [r3, #32]
 484 02a0 13F0020F 		tst	r3, #2
 485 02a4 2FD1     		bne	.L70
 486 02a6 FFF7FEFF 		bl	HAL_GetTick
 487 02aa 801B     		subs	r0, r0, r6
 488 02ac 41F28833 		movw	r3, #5000
 489 02b0 9842     		cmp	r0, r3
 490 02b2 F3D9     		bls	.L68
 491 02b4 0320     		movs	r0, #3
 492 02b6 9EE0     		b	.L30
 493              	.L65:
 494 02b8 052B     		cmp	r3, #5
 495 02ba 09D0     		beq	.L115
 496 02bc 524B     		ldr	r3, .L124
 497 02be 1A6A     		ldr	r2, [r3, #32]
 498 02c0 22F00102 		bic	r2, r2, #1
 499 02c4 1A62     		str	r2, [r3, #32]
 500 02c6 1A6A     		ldr	r2, [r3, #32]
 501 02c8 22F00402 		bic	r2, r2, #4
 502 02cc 1A62     		str	r2, [r3, #32]
 503 02ce E0E7     		b	.L64
 504              	.L115:
 505 02d0 4D4B     		ldr	r3, .L124
 506 02d2 1A6A     		ldr	r2, [r3, #32]
 507 02d4 42F00402 		orr	r2, r2, #4
 508 02d8 1A62     		str	r2, [r3, #32]
 509 02da 1A6A     		ldr	r2, [r3, #32]
 510 02dc 42F00102 		orr	r2, r2, #1
 511 02e0 1A62     		str	r2, [r3, #32]
 512 02e2 D6E7     		b	.L64
 513              	.L67:
 514 02e4 FFF7FEFF 		bl	HAL_GetTick
 515 02e8 0646     		mov	r6, r0
 516              	.L71:
 517 02ea 474B     		ldr	r3, .L124
 518 02ec 1B6A     		ldr	r3, [r3, #32]
ARM GAS  /tmp/ccFXPNNl.s 			page 10


 519 02ee 13F0020F 		tst	r3, #2
 520 02f2 08D0     		beq	.L70
 521 02f4 FFF7FEFF 		bl	HAL_GetTick
 522 02f8 801B     		subs	r0, r0, r6
 523 02fa 41F28833 		movw	r3, #5000
 524 02fe 9842     		cmp	r0, r3
 525 0300 F3D9     		bls	.L71
 526 0302 0320     		movs	r0, #3
 527 0304 77E0     		b	.L30
 528              	.L70:
 529 0306 E5B9     		cbnz	r5, .L116
 530              	.L58:
 531 0308 E369     		ldr	r3, [r4, #28]
 532 030a 002B     		cmp	r3, #0
 533 030c 72D0     		beq	.L95
 534 030e 3E4A     		ldr	r2, .L124
 535 0310 5268     		ldr	r2, [r2, #4]
 536 0312 02F00C02 		and	r2, r2, #12
 537 0316 082A     		cmp	r2, #8
 538 0318 56D0     		beq	.L73
 539 031a 022B     		cmp	r3, #2
 540 031c 17D0     		beq	.L117
 541 031e 3B4B     		ldr	r3, .L124+4
 542 0320 0022     		movs	r2, #0
 543 0322 1A66     		str	r2, [r3, #96]
 544 0324 FFF7FEFF 		bl	HAL_GetTick
 545 0328 0446     		mov	r4, r0
 546              	.L80:
 547 032a 374B     		ldr	r3, .L124
 548 032c 1B68     		ldr	r3, [r3]
 549 032e 13F0007F 		tst	r3, #33554432
 550 0332 47D0     		beq	.L118
 551 0334 FFF7FEFF 		bl	HAL_GetTick
 552 0338 001B     		subs	r0, r0, r4
 553 033a 0228     		cmp	r0, #2
 554 033c F5D9     		bls	.L80
 555 033e 0320     		movs	r0, #3
 556 0340 59E0     		b	.L30
 557              	.L116:
 558 0342 314A     		ldr	r2, .L124
 559 0344 D369     		ldr	r3, [r2, #28]
 560 0346 23F08053 		bic	r3, r3, #268435456
 561 034a D361     		str	r3, [r2, #28]
 562 034c DCE7     		b	.L58
 563              	.L117:
 564 034e 2F4B     		ldr	r3, .L124+4
 565 0350 0022     		movs	r2, #0
 566 0352 1A66     		str	r2, [r3, #96]
 567 0354 FFF7FEFF 		bl	HAL_GetTick
 568 0358 0546     		mov	r5, r0
 569              	.L75:
 570 035a 2B4B     		ldr	r3, .L124
 571 035c 1B68     		ldr	r3, [r3]
 572 035e 13F0007F 		tst	r3, #33554432
 573 0362 06D0     		beq	.L119
 574 0364 FFF7FEFF 		bl	HAL_GetTick
 575 0368 401B     		subs	r0, r0, r5
ARM GAS  /tmp/ccFXPNNl.s 			page 11


 576 036a 0228     		cmp	r0, #2
 577 036c F5D9     		bls	.L75
 578 036e 0320     		movs	r0, #3
 579 0370 41E0     		b	.L30
 580              	.L119:
 581 0372 236A     		ldr	r3, [r4, #32]
 582 0374 B3F5803F 		cmp	r3, #65536
 583 0378 1AD0     		beq	.L120
 584              	.L77:
 585 037a 2349     		ldr	r1, .L124
 586 037c 4B68     		ldr	r3, [r1, #4]
 587 037e 23F47413 		bic	r3, r3, #3997696
 588 0382 226A     		ldr	r2, [r4, #32]
 589 0384 606A     		ldr	r0, [r4, #36]
 590 0386 0243     		orrs	r2, r2, r0
 591 0388 1343     		orrs	r3, r3, r2
 592 038a 4B60     		str	r3, [r1, #4]
 593 038c 1F4B     		ldr	r3, .L124+4
 594 038e 0122     		movs	r2, #1
 595 0390 1A66     		str	r2, [r3, #96]
 596 0392 FFF7FEFF 		bl	HAL_GetTick
 597 0396 0446     		mov	r4, r0
 598              	.L78:
 599 0398 1B4B     		ldr	r3, .L124
 600 039a 1B68     		ldr	r3, [r3]
 601 039c 13F0007F 		tst	r3, #33554432
 602 03a0 0ED1     		bne	.L121
 603 03a2 FFF7FEFF 		bl	HAL_GetTick
 604 03a6 001B     		subs	r0, r0, r4
 605 03a8 0228     		cmp	r0, #2
 606 03aa F5D9     		bls	.L78
 607 03ac 0320     		movs	r0, #3
 608 03ae 22E0     		b	.L30
 609              	.L120:
 610 03b0 154A     		ldr	r2, .L124
 611 03b2 5368     		ldr	r3, [r2, #4]
 612 03b4 23F40033 		bic	r3, r3, #131072
 613 03b8 A168     		ldr	r1, [r4, #8]
 614 03ba 0B43     		orrs	r3, r3, r1
 615 03bc 5360     		str	r3, [r2, #4]
 616 03be DCE7     		b	.L77
 617              	.L121:
 618 03c0 0020     		movs	r0, #0
 619 03c2 18E0     		b	.L30
 620              	.L118:
 621 03c4 0020     		movs	r0, #0
 622 03c6 16E0     		b	.L30
 623              	.L73:
 624 03c8 012B     		cmp	r3, #1
 625 03ca 16D0     		beq	.L99
 626 03cc 0E4B     		ldr	r3, .L124
 627 03ce 5B68     		ldr	r3, [r3, #4]
 628 03d0 03F48031 		and	r1, r3, #65536
 629 03d4 226A     		ldr	r2, [r4, #32]
 630 03d6 9142     		cmp	r1, r2
 631 03d8 11D1     		bne	.L100
 632 03da 03F47013 		and	r3, r3, #3932160
ARM GAS  /tmp/ccFXPNNl.s 			page 12


 633 03de 626A     		ldr	r2, [r4, #36]
 634 03e0 9342     		cmp	r3, r2
 635 03e2 0ED1     		bne	.L101
 636 03e4 0020     		movs	r0, #0
 637 03e6 06E0     		b	.L30
 638              	.L82:
 639 03e8 0120     		movs	r0, #1
 640 03ea 7047     		bx	lr
 641              	.L108:
 642 03ec 0120     		movs	r0, #1
 643 03ee 02E0     		b	.L30
 644              	.L86:
 645 03f0 0120     		movs	r0, #1
 646 03f2 00E0     		b	.L30
 647              	.L95:
 648 03f4 0020     		movs	r0, #0
 649              	.L30:
 650 03f6 02B0     		add	sp, sp, #8
 651              		@ sp needed
 652 03f8 70BD     		pop	{r4, r5, r6, pc}
 653              	.L99:
 654 03fa 0120     		movs	r0, #1
 655 03fc FBE7     		b	.L30
 656              	.L100:
 657 03fe 0120     		movs	r0, #1
 658 0400 F9E7     		b	.L30
 659              	.L101:
 660 0402 0120     		movs	r0, #1
 661 0404 F7E7     		b	.L30
 662              	.L125:
 663 0406 00BF     		.align	2
 664              	.L124:
 665 0408 00100240 		.word	1073876992
 666 040c 00004242 		.word	1111621632
 668              		.section	.text.HAL_RCC_MCOConfig,"ax",%progbits
 669              		.align	1
 670              		.global	HAL_RCC_MCOConfig
 671              		.syntax unified
 672              		.thumb
 673              		.thumb_func
 675              	HAL_RCC_MCOConfig:
 676              		@ args = 0, pretend = 0, frame = 24
 677              		@ frame_needed = 0, uses_anonymous_args = 0
 678 0000 30B5     		push	{r4, r5, lr}
 679 0002 87B0     		sub	sp, sp, #28
 680 0004 0D46     		mov	r5, r1
 681 0006 0023     		movs	r3, #0
 682 0008 0293     		str	r3, [sp, #8]
 683 000a 0393     		str	r3, [sp, #12]
 684 000c 0493     		str	r3, [sp, #16]
 685 000e 0593     		str	r3, [sp, #20]
 686 0010 0223     		movs	r3, #2
 687 0012 0393     		str	r3, [sp, #12]
 688 0014 0323     		movs	r3, #3
 689 0016 0593     		str	r3, [sp, #20]
 690 0018 4FF48073 		mov	r3, #256
 691 001c 0293     		str	r3, [sp, #8]
ARM GAS  /tmp/ccFXPNNl.s 			page 13


 692 001e 0A4C     		ldr	r4, .L128
 693 0020 A369     		ldr	r3, [r4, #24]
 694 0022 43F00403 		orr	r3, r3, #4
 695 0026 A361     		str	r3, [r4, #24]
 696 0028 A369     		ldr	r3, [r4, #24]
 697 002a 03F00403 		and	r3, r3, #4
 698 002e 0193     		str	r3, [sp, #4]
 699 0030 019B     		ldr	r3, [sp, #4]
 700 0032 02A9     		add	r1, sp, #8
 701 0034 0548     		ldr	r0, .L128+4
 702 0036 FFF7FEFF 		bl	HAL_GPIO_Init
 703 003a 6368     		ldr	r3, [r4, #4]
 704 003c 23F0E063 		bic	r3, r3, #117440512
 705 0040 2B43     		orrs	r3, r3, r5
 706 0042 6360     		str	r3, [r4, #4]
 707 0044 07B0     		add	sp, sp, #28
 708              		@ sp needed
 709 0046 30BD     		pop	{r4, r5, pc}
 710              	.L129:
 711              		.align	2
 712              	.L128:
 713 0048 00100240 		.word	1073876992
 714 004c 00080140 		.word	1073809408
 716              		.section	.text.HAL_RCC_EnableCSS,"ax",%progbits
 717              		.align	1
 718              		.global	HAL_RCC_EnableCSS
 719              		.syntax unified
 720              		.thumb
 721              		.thumb_func
 723              	HAL_RCC_EnableCSS:
 724              		@ args = 0, pretend = 0, frame = 0
 725              		@ frame_needed = 0, uses_anonymous_args = 0
 726              		@ link register save eliminated.
 727 0000 014B     		ldr	r3, .L131
 728 0002 0122     		movs	r2, #1
 729 0004 DA64     		str	r2, [r3, #76]
 730 0006 7047     		bx	lr
 731              	.L132:
 732              		.align	2
 733              	.L131:
 734 0008 00004242 		.word	1111621632
 736              		.section	.text.HAL_RCC_DisableCSS,"ax",%progbits
 737              		.align	1
 738              		.global	HAL_RCC_DisableCSS
 739              		.syntax unified
 740              		.thumb
 741              		.thumb_func
 743              	HAL_RCC_DisableCSS:
 744              		@ args = 0, pretend = 0, frame = 0
 745              		@ frame_needed = 0, uses_anonymous_args = 0
 746              		@ link register save eliminated.
 747 0000 014B     		ldr	r3, .L134
 748 0002 0022     		movs	r2, #0
 749 0004 DA64     		str	r2, [r3, #76]
 750 0006 7047     		bx	lr
 751              	.L135:
 752              		.align	2
ARM GAS  /tmp/ccFXPNNl.s 			page 14


 753              	.L134:
 754 0008 00004242 		.word	1111621632
 756              		.section	.text.HAL_RCC_GetSysClockFreq,"ax",%progbits
 757              		.align	1
 758              		.global	HAL_RCC_GetSysClockFreq
 759              		.syntax unified
 760              		.thumb
 761              		.thumb_func
 763              	HAL_RCC_GetSysClockFreq:
 764              		@ args = 0, pretend = 0, frame = 0
 765              		@ frame_needed = 0, uses_anonymous_args = 0
 766              		@ link register save eliminated.
 767 0000 0F4B     		ldr	r3, .L141
 768 0002 5B68     		ldr	r3, [r3, #4]
 769 0004 03F00C02 		and	r2, r3, #12
 770 0008 082A     		cmp	r2, #8
 771 000a 01D0     		beq	.L140
 772 000c 0D48     		ldr	r0, .L141+4
 773 000e 7047     		bx	lr
 774              	.L140:
 775 0010 C3F38342 		ubfx	r2, r3, #18, #4
 776 0014 0C49     		ldr	r1, .L141+8
 777 0016 885C     		ldrb	r0, [r1, r2]	@ zero_extendqisi2
 778 0018 13F4803F 		tst	r3, #65536
 779 001c 0BD0     		beq	.L138
 780 001e 084B     		ldr	r3, .L141
 781 0020 5B68     		ldr	r3, [r3, #4]
 782 0022 C3F34043 		ubfx	r3, r3, #17, #1
 783 0026 094A     		ldr	r2, .L141+12
 784 0028 D35C     		ldrb	r3, [r2, r3]	@ zero_extendqisi2
 785 002a 064A     		ldr	r2, .L141+4
 786 002c 02FB00F0 		mul	r0, r2, r0
 787 0030 B0FBF3F0 		udiv	r0, r0, r3
 788 0034 7047     		bx	lr
 789              	.L138:
 790 0036 064B     		ldr	r3, .L141+16
 791 0038 03FB00F0 		mul	r0, r3, r0
 792 003c 7047     		bx	lr
 793              	.L142:
 794 003e 00BF     		.align	2
 795              	.L141:
 796 0040 00100240 		.word	1073876992
 797 0044 00127A00 		.word	8000000
 798 0048 00000000 		.word	aPLLMULFactorTable.1
 799 004c 00000000 		.word	aPredivFactorTable.0
 800 0050 00093D00 		.word	4000000
 802              		.section	.text.HAL_RCC_ClockConfig,"ax",%progbits
 803              		.align	1
 804              		.global	HAL_RCC_ClockConfig
 805              		.syntax unified
 806              		.thumb
 807              		.thumb_func
 809              	HAL_RCC_ClockConfig:
 810              		@ args = 0, pretend = 0, frame = 0
 811              		@ frame_needed = 0, uses_anonymous_args = 0
 812 0000 0028     		cmp	r0, #0
 813 0002 00F0A080 		beq	.L158
ARM GAS  /tmp/ccFXPNNl.s 			page 15


 814 0006 70B5     		push	{r4, r5, r6, lr}
 815 0008 0D46     		mov	r5, r1
 816 000a 0446     		mov	r4, r0
 817 000c 524B     		ldr	r3, .L171
 818 000e 1B68     		ldr	r3, [r3]
 819 0010 03F00703 		and	r3, r3, #7
 820 0014 8B42     		cmp	r3, r1
 821 0016 0BD2     		bcs	.L145
 822 0018 4F4A     		ldr	r2, .L171
 823 001a 1368     		ldr	r3, [r2]
 824 001c 23F00703 		bic	r3, r3, #7
 825 0020 0B43     		orrs	r3, r3, r1
 826 0022 1360     		str	r3, [r2]
 827 0024 1368     		ldr	r3, [r2]
 828 0026 03F00703 		and	r3, r3, #7
 829 002a 8B42     		cmp	r3, r1
 830 002c 40F08D80 		bne	.L159
 831              	.L145:
 832 0030 2368     		ldr	r3, [r4]
 833 0032 13F0020F 		tst	r3, #2
 834 0036 17D0     		beq	.L146
 835 0038 13F0040F 		tst	r3, #4
 836 003c 04D0     		beq	.L147
 837 003e 474A     		ldr	r2, .L171+4
 838 0040 5368     		ldr	r3, [r2, #4]
 839 0042 43F4E063 		orr	r3, r3, #1792
 840 0046 5360     		str	r3, [r2, #4]
 841              	.L147:
 842 0048 2368     		ldr	r3, [r4]
 843 004a 13F0080F 		tst	r3, #8
 844 004e 04D0     		beq	.L148
 845 0050 424A     		ldr	r2, .L171+4
 846 0052 5368     		ldr	r3, [r2, #4]
 847 0054 43F46053 		orr	r3, r3, #14336
 848 0058 5360     		str	r3, [r2, #4]
 849              	.L148:
 850 005a 404A     		ldr	r2, .L171+4
 851 005c 5368     		ldr	r3, [r2, #4]
 852 005e 23F0F003 		bic	r3, r3, #240
 853 0062 A168     		ldr	r1, [r4, #8]
 854 0064 0B43     		orrs	r3, r3, r1
 855 0066 5360     		str	r3, [r2, #4]
 856              	.L146:
 857 0068 2368     		ldr	r3, [r4]
 858 006a 13F0010F 		tst	r3, #1
 859 006e 31D0     		beq	.L149
 860 0070 6368     		ldr	r3, [r4, #4]
 861 0072 012B     		cmp	r3, #1
 862 0074 20D0     		beq	.L169
 863 0076 022B     		cmp	r3, #2
 864 0078 25D0     		beq	.L170
 865 007a 384A     		ldr	r2, .L171+4
 866 007c 1268     		ldr	r2, [r2]
 867 007e 12F0020F 		tst	r2, #2
 868 0082 64D0     		beq	.L162
 869              	.L151:
 870 0084 3549     		ldr	r1, .L171+4
ARM GAS  /tmp/ccFXPNNl.s 			page 16


 871 0086 4A68     		ldr	r2, [r1, #4]
 872 0088 22F00302 		bic	r2, r2, #3
 873 008c 1343     		orrs	r3, r3, r2
 874 008e 4B60     		str	r3, [r1, #4]
 875 0090 FFF7FEFF 		bl	HAL_GetTick
 876 0094 0646     		mov	r6, r0
 877              	.L153:
 878 0096 314B     		ldr	r3, .L171+4
 879 0098 5B68     		ldr	r3, [r3, #4]
 880 009a 03F00C03 		and	r3, r3, #12
 881 009e 6268     		ldr	r2, [r4, #4]
 882 00a0 B3EB820F 		cmp	r3, r2, lsl #2
 883 00a4 16D0     		beq	.L149
 884 00a6 FFF7FEFF 		bl	HAL_GetTick
 885 00aa 801B     		subs	r0, r0, r6
 886 00ac 41F28833 		movw	r3, #5000
 887 00b0 9842     		cmp	r0, r3
 888 00b2 F0D9     		bls	.L153
 889 00b4 0320     		movs	r0, #3
 890 00b6 45E0     		b	.L144
 891              	.L169:
 892 00b8 284A     		ldr	r2, .L171+4
 893 00ba 1268     		ldr	r2, [r2]
 894 00bc 12F4003F 		tst	r2, #131072
 895 00c0 E0D1     		bne	.L151
 896 00c2 0120     		movs	r0, #1
 897 00c4 3EE0     		b	.L144
 898              	.L170:
 899 00c6 254A     		ldr	r2, .L171+4
 900 00c8 1268     		ldr	r2, [r2]
 901 00ca 12F0007F 		tst	r2, #33554432
 902 00ce D9D1     		bne	.L151
 903 00d0 0120     		movs	r0, #1
 904 00d2 37E0     		b	.L144
 905              	.L149:
 906 00d4 204B     		ldr	r3, .L171
 907 00d6 1B68     		ldr	r3, [r3]
 908 00d8 03F00703 		and	r3, r3, #7
 909 00dc AB42     		cmp	r3, r5
 910 00de 0AD9     		bls	.L155
 911 00e0 1D4A     		ldr	r2, .L171
 912 00e2 1368     		ldr	r3, [r2]
 913 00e4 23F00703 		bic	r3, r3, #7
 914 00e8 2B43     		orrs	r3, r3, r5
 915 00ea 1360     		str	r3, [r2]
 916 00ec 1368     		ldr	r3, [r2]
 917 00ee 03F00703 		and	r3, r3, #7
 918 00f2 AB42     		cmp	r3, r5
 919 00f4 2DD1     		bne	.L164
 920              	.L155:
 921 00f6 2368     		ldr	r3, [r4]
 922 00f8 13F0040F 		tst	r3, #4
 923 00fc 06D0     		beq	.L156
 924 00fe 174A     		ldr	r2, .L171+4
 925 0100 5368     		ldr	r3, [r2, #4]
 926 0102 23F4E063 		bic	r3, r3, #1792
 927 0106 E168     		ldr	r1, [r4, #12]
ARM GAS  /tmp/ccFXPNNl.s 			page 17


 928 0108 0B43     		orrs	r3, r3, r1
 929 010a 5360     		str	r3, [r2, #4]
 930              	.L156:
 931 010c 2368     		ldr	r3, [r4]
 932 010e 13F0080F 		tst	r3, #8
 933 0112 07D0     		beq	.L157
 934 0114 114A     		ldr	r2, .L171+4
 935 0116 5368     		ldr	r3, [r2, #4]
 936 0118 23F46053 		bic	r3, r3, #14336
 937 011c 2169     		ldr	r1, [r4, #16]
 938 011e 43EAC103 		orr	r3, r3, r1, lsl #3
 939 0122 5360     		str	r3, [r2, #4]
 940              	.L157:
 941 0124 FFF7FEFF 		bl	HAL_RCC_GetSysClockFreq
 942 0128 0C4B     		ldr	r3, .L171+4
 943 012a 5B68     		ldr	r3, [r3, #4]
 944 012c C3F30313 		ubfx	r3, r3, #4, #4
 945 0130 0B4A     		ldr	r2, .L171+8
 946 0132 D35C     		ldrb	r3, [r2, r3]	@ zero_extendqisi2
 947 0134 D840     		lsrs	r0, r0, r3
 948 0136 0B4B     		ldr	r3, .L171+12
 949 0138 1860     		str	r0, [r3]
 950 013a 0B4B     		ldr	r3, .L171+16
 951 013c 1868     		ldr	r0, [r3]
 952 013e FFF7FEFF 		bl	HAL_InitTick
 953 0142 0020     		movs	r0, #0
 954              	.L144:
 955 0144 70BD     		pop	{r4, r5, r6, pc}
 956              	.L158:
 957 0146 0120     		movs	r0, #1
 958 0148 7047     		bx	lr
 959              	.L159:
 960 014a 0120     		movs	r0, #1
 961 014c FAE7     		b	.L144
 962              	.L162:
 963 014e 0120     		movs	r0, #1
 964 0150 F8E7     		b	.L144
 965              	.L164:
 966 0152 0120     		movs	r0, #1
 967 0154 F6E7     		b	.L144
 968              	.L172:
 969 0156 00BF     		.align	2
 970              	.L171:
 971 0158 00200240 		.word	1073881088
 972 015c 00100240 		.word	1073876992
 973 0160 00000000 		.word	AHBPrescTable
 974 0164 00000000 		.word	SystemCoreClock
 975 0168 00000000 		.word	uwTickPrio
 977              		.section	.text.HAL_RCC_GetHCLKFreq,"ax",%progbits
 978              		.align	1
 979              		.global	HAL_RCC_GetHCLKFreq
 980              		.syntax unified
 981              		.thumb
 982              		.thumb_func
 984              	HAL_RCC_GetHCLKFreq:
 985              		@ args = 0, pretend = 0, frame = 0
 986              		@ frame_needed = 0, uses_anonymous_args = 0
ARM GAS  /tmp/ccFXPNNl.s 			page 18


 987              		@ link register save eliminated.
 988 0000 014B     		ldr	r3, .L174
 989 0002 1868     		ldr	r0, [r3]
 990 0004 7047     		bx	lr
 991              	.L175:
 992 0006 00BF     		.align	2
 993              	.L174:
 994 0008 00000000 		.word	SystemCoreClock
 996              		.section	.text.HAL_RCC_GetPCLK1Freq,"ax",%progbits
 997              		.align	1
 998              		.global	HAL_RCC_GetPCLK1Freq
 999              		.syntax unified
 1000              		.thumb
 1001              		.thumb_func
 1003              	HAL_RCC_GetPCLK1Freq:
 1004              		@ args = 0, pretend = 0, frame = 0
 1005              		@ frame_needed = 0, uses_anonymous_args = 0
 1006 0000 08B5     		push	{r3, lr}
 1007 0002 FFF7FEFF 		bl	HAL_RCC_GetHCLKFreq
 1008 0006 044B     		ldr	r3, .L178
 1009 0008 5B68     		ldr	r3, [r3, #4]
 1010 000a C3F30223 		ubfx	r3, r3, #8, #3
 1011 000e 034A     		ldr	r2, .L178+4
 1012 0010 D35C     		ldrb	r3, [r2, r3]	@ zero_extendqisi2
 1013 0012 D840     		lsrs	r0, r0, r3
 1014 0014 08BD     		pop	{r3, pc}
 1015              	.L179:
 1016 0016 00BF     		.align	2
 1017              	.L178:
 1018 0018 00100240 		.word	1073876992
 1019 001c 00000000 		.word	APBPrescTable
 1021              		.section	.text.HAL_RCC_GetPCLK2Freq,"ax",%progbits
 1022              		.align	1
 1023              		.global	HAL_RCC_GetPCLK2Freq
 1024              		.syntax unified
 1025              		.thumb
 1026              		.thumb_func
 1028              	HAL_RCC_GetPCLK2Freq:
 1029              		@ args = 0, pretend = 0, frame = 0
 1030              		@ frame_needed = 0, uses_anonymous_args = 0
 1031 0000 08B5     		push	{r3, lr}
 1032 0002 FFF7FEFF 		bl	HAL_RCC_GetHCLKFreq
 1033 0006 044B     		ldr	r3, .L182
 1034 0008 5B68     		ldr	r3, [r3, #4]
 1035 000a C3F3C223 		ubfx	r3, r3, #11, #3
 1036 000e 034A     		ldr	r2, .L182+4
 1037 0010 D35C     		ldrb	r3, [r2, r3]	@ zero_extendqisi2
 1038 0012 D840     		lsrs	r0, r0, r3
 1039 0014 08BD     		pop	{r3, pc}
 1040              	.L183:
 1041 0016 00BF     		.align	2
 1042              	.L182:
 1043 0018 00100240 		.word	1073876992
 1044 001c 00000000 		.word	APBPrescTable
 1046              		.section	.text.HAL_RCC_GetOscConfig,"ax",%progbits
 1047              		.align	1
 1048              		.global	HAL_RCC_GetOscConfig
ARM GAS  /tmp/ccFXPNNl.s 			page 19


 1049              		.syntax unified
 1050              		.thumb
 1051              		.thumb_func
 1053              	HAL_RCC_GetOscConfig:
 1054              		@ args = 0, pretend = 0, frame = 0
 1055              		@ frame_needed = 0, uses_anonymous_args = 0
 1056              		@ link register save eliminated.
 1057 0000 0F23     		movs	r3, #15
 1058 0002 0360     		str	r3, [r0]
 1059 0004 2A4B     		ldr	r3, .L197
 1060 0006 1B68     		ldr	r3, [r3]
 1061 0008 13F4802F 		tst	r3, #262144
 1062 000c 30D0     		beq	.L185
 1063 000e 4FF4A023 		mov	r3, #327680
 1064 0012 4360     		str	r3, [r0, #4]
 1065              	.L186:
 1066 0014 264A     		ldr	r2, .L197
 1067 0016 5368     		ldr	r3, [r2, #4]
 1068 0018 03F40033 		and	r3, r3, #131072
 1069 001c 8360     		str	r3, [r0, #8]
 1070 001e 1368     		ldr	r3, [r2]
 1071 0020 13F0010F 		tst	r3, #1
 1072 0024 30D0     		beq	.L188
 1073 0026 0123     		movs	r3, #1
 1074 0028 0361     		str	r3, [r0, #16]
 1075              	.L189:
 1076 002a 214A     		ldr	r2, .L197
 1077 002c 1368     		ldr	r3, [r2]
 1078 002e C3F3C403 		ubfx	r3, r3, #3, #5
 1079 0032 4361     		str	r3, [r0, #20]
 1080 0034 136A     		ldr	r3, [r2, #32]
 1081 0036 13F0040F 		tst	r3, #4
 1082 003a 28D0     		beq	.L190
 1083 003c 0523     		movs	r3, #5
 1084 003e C360     		str	r3, [r0, #12]
 1085              	.L191:
 1086 0040 1B4B     		ldr	r3, .L197
 1087 0042 5B6A     		ldr	r3, [r3, #36]
 1088 0044 13F0010F 		tst	r3, #1
 1089 0048 2CD0     		beq	.L193
 1090 004a 0123     		movs	r3, #1
 1091 004c 8361     		str	r3, [r0, #24]
 1092              	.L194:
 1093 004e 184B     		ldr	r3, .L197
 1094 0050 1B68     		ldr	r3, [r3]
 1095 0052 13F0807F 		tst	r3, #16777216
 1096 0056 28D0     		beq	.L195
 1097 0058 0223     		movs	r3, #2
 1098 005a C361     		str	r3, [r0, #28]
 1099              	.L196:
 1100 005c 144A     		ldr	r2, .L197
 1101 005e 5368     		ldr	r3, [r2, #4]
 1102 0060 03F48033 		and	r3, r3, #65536
 1103 0064 0362     		str	r3, [r0, #32]
 1104 0066 5368     		ldr	r3, [r2, #4]
 1105 0068 03F47013 		and	r3, r3, #3932160
 1106 006c 4362     		str	r3, [r0, #36]
ARM GAS  /tmp/ccFXPNNl.s 			page 20


 1107 006e 7047     		bx	lr
 1108              	.L185:
 1109 0070 0F4B     		ldr	r3, .L197
 1110 0072 1B68     		ldr	r3, [r3]
 1111 0074 13F4803F 		tst	r3, #65536
 1112 0078 03D0     		beq	.L187
 1113 007a 4FF48033 		mov	r3, #65536
 1114 007e 4360     		str	r3, [r0, #4]
 1115 0080 C8E7     		b	.L186
 1116              	.L187:
 1117 0082 0023     		movs	r3, #0
 1118 0084 4360     		str	r3, [r0, #4]
 1119 0086 C5E7     		b	.L186
 1120              	.L188:
 1121 0088 0023     		movs	r3, #0
 1122 008a 0361     		str	r3, [r0, #16]
 1123 008c CDE7     		b	.L189
 1124              	.L190:
 1125 008e 084B     		ldr	r3, .L197
 1126 0090 1B6A     		ldr	r3, [r3, #32]
 1127 0092 13F0010F 		tst	r3, #1
 1128 0096 02D0     		beq	.L192
 1129 0098 0123     		movs	r3, #1
 1130 009a C360     		str	r3, [r0, #12]
 1131 009c D0E7     		b	.L191
 1132              	.L192:
 1133 009e 0023     		movs	r3, #0
 1134 00a0 C360     		str	r3, [r0, #12]
 1135 00a2 CDE7     		b	.L191
 1136              	.L193:
 1137 00a4 0023     		movs	r3, #0
 1138 00a6 8361     		str	r3, [r0, #24]
 1139 00a8 D1E7     		b	.L194
 1140              	.L195:
 1141 00aa 0123     		movs	r3, #1
 1142 00ac C361     		str	r3, [r0, #28]
 1143 00ae D5E7     		b	.L196
 1144              	.L198:
 1145              		.align	2
 1146              	.L197:
 1147 00b0 00100240 		.word	1073876992
 1149              		.section	.text.HAL_RCC_GetClockConfig,"ax",%progbits
 1150              		.align	1
 1151              		.global	HAL_RCC_GetClockConfig
 1152              		.syntax unified
 1153              		.thumb
 1154              		.thumb_func
 1156              	HAL_RCC_GetClockConfig:
 1157              		@ args = 0, pretend = 0, frame = 0
 1158              		@ frame_needed = 0, uses_anonymous_args = 0
 1159              		@ link register save eliminated.
 1160 0000 0F23     		movs	r3, #15
 1161 0002 0360     		str	r3, [r0]
 1162 0004 0B4B     		ldr	r3, .L200
 1163 0006 5A68     		ldr	r2, [r3, #4]
 1164 0008 02F00302 		and	r2, r2, #3
 1165 000c 4260     		str	r2, [r0, #4]
ARM GAS  /tmp/ccFXPNNl.s 			page 21


 1166 000e 5A68     		ldr	r2, [r3, #4]
 1167 0010 02F0F002 		and	r2, r2, #240
 1168 0014 8260     		str	r2, [r0, #8]
 1169 0016 5A68     		ldr	r2, [r3, #4]
 1170 0018 02F4E062 		and	r2, r2, #1792
 1171 001c C260     		str	r2, [r0, #12]
 1172 001e 5B68     		ldr	r3, [r3, #4]
 1173 0020 DB08     		lsrs	r3, r3, #3
 1174 0022 03F4E063 		and	r3, r3, #1792
 1175 0026 0361     		str	r3, [r0, #16]
 1176 0028 034B     		ldr	r3, .L200+4
 1177 002a 1B68     		ldr	r3, [r3]
 1178 002c 03F00703 		and	r3, r3, #7
 1179 0030 0B60     		str	r3, [r1]
 1180 0032 7047     		bx	lr
 1181              	.L201:
 1182              		.align	2
 1183              	.L200:
 1184 0034 00100240 		.word	1073876992
 1185 0038 00200240 		.word	1073881088
 1187              		.section	.text.HAL_RCC_CSSCallback,"ax",%progbits
 1188              		.align	1
 1189              		.weak	HAL_RCC_CSSCallback
 1190              		.syntax unified
 1191              		.thumb
 1192              		.thumb_func
 1194              	HAL_RCC_CSSCallback:
 1195              		@ args = 0, pretend = 0, frame = 0
 1196              		@ frame_needed = 0, uses_anonymous_args = 0
 1197              		@ link register save eliminated.
 1198 0000 7047     		bx	lr
 1200              		.section	.text.HAL_RCC_NMI_IRQHandler,"ax",%progbits
 1201              		.align	1
 1202              		.global	HAL_RCC_NMI_IRQHandler
 1203              		.syntax unified
 1204              		.thumb
 1205              		.thumb_func
 1207              	HAL_RCC_NMI_IRQHandler:
 1208              		@ args = 0, pretend = 0, frame = 0
 1209              		@ frame_needed = 0, uses_anonymous_args = 0
 1210 0000 08B5     		push	{r3, lr}
 1211 0002 064B     		ldr	r3, .L207
 1212 0004 9B68     		ldr	r3, [r3, #8]
 1213 0006 13F0800F 		tst	r3, #128
 1214 000a 00D1     		bne	.L206
 1215              	.L203:
 1216 000c 08BD     		pop	{r3, pc}
 1217              	.L206:
 1218 000e FFF7FEFF 		bl	HAL_RCC_CSSCallback
 1219 0012 024B     		ldr	r3, .L207
 1220 0014 8022     		movs	r2, #128
 1221 0016 9A72     		strb	r2, [r3, #10]
 1222 0018 F8E7     		b	.L203
 1223              	.L208:
 1224 001a 00BF     		.align	2
 1225              	.L207:
 1226 001c 00100240 		.word	1073876992
ARM GAS  /tmp/ccFXPNNl.s 			page 22


 1228              		.section	.rodata.aPredivFactorTable.0,"a"
 1229              		.align	2
 1232              	aPredivFactorTable.0:
 1233 0000 0102     		.ascii	"\001\002"
 1234              		.section	.rodata.aPLLMULFactorTable.1,"a"
 1235              		.align	2
 1238              	aPLLMULFactorTable.1:
 1239 0000 02030405 		.ascii	"\002\003\004\005\006\007\010\011\012\013\014\015\016"
 1239      06070809 
 1239      0A0B0C0D 
 1239      0E
 1240 000d 0F1010   		.ascii	"\017\020\020"
 1241              		.ident	"GCC: (15:13.3.rel1-1) 13.3.1 20240614"
ARM GAS  /tmp/ccFXPNNl.s 			page 23

