ARM GAS  /tmp/ccB1whAW.s 			page 1


   1              		.cpu cortex-m3
   2              		.arch armv7-m
   3              		.fpu softvfp
   4              		.eabi_attribute 20, 1
   5              		.eabi_attribute 21, 1
   6              		.eabi_attribute 23, 3
   7              		.eabi_attribute 24, 1
   8              		.eabi_attribute 25, 1
   9              		.eabi_attribute 26, 1
  10              		.eabi_attribute 30, 1
  11              		.eabi_attribute 34, 1
  12              		.eabi_attribute 18, 4
  13              		.file	"stm32f1xx_hal_pcd.c"
  14              		.text
  15              		.section	.text.HAL_PCD_EP_DB_Receive,"ax",%progbits
  16              		.align	1
  17              		.syntax unified
  18              		.thumb
  19              		.thumb_func
  21              	HAL_PCD_EP_DB_Receive:
  22              		@ args = 0, pretend = 0, frame = 0
  23              		@ frame_needed = 0, uses_anonymous_args = 0
  24 0000 38B5     		push	{r3, r4, r5, lr}
  25 0002 12F4804F 		tst	r2, #16384
  26 0006 44D0     		beq	.L2
  27 0008 0468     		ldr	r4, [r0]
  28 000a B4F85030 		ldrh	r3, [r4, #80]
  29 000e 9BB2     		uxth	r3, r3
  30 0010 91F800C0 		ldrb	ip, [r1]	@ zero_extendqisi2
  31 0014 03EBCC03 		add	r3, r3, ip, lsl #3
  32 0018 0233     		adds	r3, r3, #2
  33 001a 04EB4304 		add	r4, r4, r3, lsl #1
  34 001e B4F80044 		ldrh	r4, [r4, #1024]
  35 0022 C4F30904 		ubfx	r4, r4, #0, #10
  36 0026 8B69     		ldr	r3, [r1, #24]
  37 0028 A342     		cmp	r3, r4
  38 002a 28D3     		bcc	.L3
  39 002c 1B1B     		subs	r3, r3, r4
  40 002e 8B61     		str	r3, [r1, #24]
  41              	.L4:
  42 0030 8B69     		ldr	r3, [r1, #24]
  43 0032 7BB9     		cbnz	r3, .L5
  44 0034 0568     		ldr	r5, [r0]
  45 0036 35F82C30 		ldrh	r3, [r5, ip, lsl #2]
  46 003a 9BB2     		uxth	r3, r3
  47 003c 23F48043 		bic	r3, r3, #16384
  48 0040 23F07003 		bic	r3, r3, #112
  49 0044 83F40053 		eor	r3, r3, #8192
  50 0048 43F40043 		orr	r3, r3, #32768
  51 004c 43F08003 		orr	r3, r3, #128
  52 0050 25F82C30 		strh	r3, [r5, ip, lsl #2]	@ movhi
  53              	.L5:
  54 0054 12F0400F 		tst	r2, #64
  55 0058 0ED0     		beq	.L6
  56 005a 0268     		ldr	r2, [r0]
  57 005c 0D78     		ldrb	r5, [r1]	@ zero_extendqisi2
  58 005e 32F82530 		ldrh	r3, [r2, r5, lsl #2]
ARM GAS  /tmp/ccB1whAW.s 			page 2


  59 0062 9BB2     		uxth	r3, r3
  60 0064 23F4E043 		bic	r3, r3, #28672
  61 0068 23F07003 		bic	r3, r3, #112
  62 006c 43F40043 		orr	r3, r3, #32768
  63 0070 43F0C003 		orr	r3, r3, #192
  64 0074 22F82530 		strh	r3, [r2, r5, lsl #2]	@ movhi
  65              	.L6:
  66 0078 24B9     		cbnz	r4, .L13
  67              	.L7:
  68 007a 2046     		mov	r0, r4
  69 007c 38BD     		pop	{r3, r4, r5, pc}
  70              	.L3:
  71 007e 0023     		movs	r3, #0
  72 0080 8B61     		str	r3, [r1, #24]
  73 0082 D5E7     		b	.L4
  74              	.L13:
  75 0084 2346     		mov	r3, r4
  76 0086 0A89     		ldrh	r2, [r1, #8]
  77 0088 4969     		ldr	r1, [r1, #20]
  78 008a 0068     		ldr	r0, [r0]
  79 008c FFF7FEFF 		bl	USB_ReadPMA
  80 0090 F3E7     		b	.L7
  81              	.L2:
  82 0092 0468     		ldr	r4, [r0]
  83 0094 B4F85030 		ldrh	r3, [r4, #80]
  84 0098 9BB2     		uxth	r3, r3
  85 009a 91F800C0 		ldrb	ip, [r1]	@ zero_extendqisi2
  86 009e 03EBCC03 		add	r3, r3, ip, lsl #3
  87 00a2 0633     		adds	r3, r3, #6
  88 00a4 04EB4304 		add	r4, r4, r3, lsl #1
  89 00a8 B4F80044 		ldrh	r4, [r4, #1024]
  90 00ac C4F30904 		ubfx	r4, r4, #0, #10
  91 00b0 8B69     		ldr	r3, [r1, #24]
  92 00b2 A342     		cmp	r3, r4
  93 00b4 2FD3     		bcc	.L8
  94 00b6 1B1B     		subs	r3, r3, r4
  95 00b8 8B61     		str	r3, [r1, #24]
  96              	.L9:
  97 00ba 8B69     		ldr	r3, [r1, #24]
  98 00bc 7BB9     		cbnz	r3, .L10
  99 00be 0568     		ldr	r5, [r0]
 100 00c0 35F82C30 		ldrh	r3, [r5, ip, lsl #2]
 101 00c4 9BB2     		uxth	r3, r3
 102 00c6 23F48043 		bic	r3, r3, #16384
 103 00ca 23F07003 		bic	r3, r3, #112
 104 00ce 83F40053 		eor	r3, r3, #8192
 105 00d2 43F40043 		orr	r3, r3, #32768
 106 00d6 43F08003 		orr	r3, r3, #128
 107 00da 25F82C30 		strh	r3, [r5, ip, lsl #2]	@ movhi
 108              	.L10:
 109 00de 12F0400F 		tst	r2, #64
 110 00e2 0FD1     		bne	.L11
 111 00e4 0268     		ldr	r2, [r0]
 112 00e6 91F800C0 		ldrb	ip, [r1]	@ zero_extendqisi2
 113 00ea 32F82C30 		ldrh	r3, [r2, ip, lsl #2]
 114 00ee 9BB2     		uxth	r3, r3
 115 00f0 23F4E043 		bic	r3, r3, #28672
ARM GAS  /tmp/ccB1whAW.s 			page 3


 116 00f4 23F07003 		bic	r3, r3, #112
 117 00f8 43F40043 		orr	r3, r3, #32768
 118 00fc 43F0C003 		orr	r3, r3, #192
 119 0100 22F82C30 		strh	r3, [r2, ip, lsl #2]	@ movhi
 120              	.L11:
 121 0104 002C     		cmp	r4, #0
 122 0106 B8D0     		beq	.L7
 123 0108 2346     		mov	r3, r4
 124 010a 4A89     		ldrh	r2, [r1, #10]
 125 010c 4969     		ldr	r1, [r1, #20]
 126 010e 0068     		ldr	r0, [r0]
 127 0110 FFF7FEFF 		bl	USB_ReadPMA
 128 0114 B1E7     		b	.L7
 129              	.L8:
 130 0116 0023     		movs	r3, #0
 131 0118 8B61     		str	r3, [r1, #24]
 132 011a CEE7     		b	.L9
 134              		.section	.text.HAL_PCD_MspInit,"ax",%progbits
 135              		.align	1
 136              		.weak	HAL_PCD_MspInit
 137              		.syntax unified
 138              		.thumb
 139              		.thumb_func
 141              	HAL_PCD_MspInit:
 142              		@ args = 0, pretend = 0, frame = 0
 143              		@ frame_needed = 0, uses_anonymous_args = 0
 144              		@ link register save eliminated.
 145 0000 7047     		bx	lr
 147              		.section	.text.HAL_PCD_Init,"ax",%progbits
 148              		.align	1
 149              		.global	HAL_PCD_Init
 150              		.syntax unified
 151              		.thumb
 152              		.thumb_func
 154              	HAL_PCD_Init:
 155              		@ args = 0, pretend = 0, frame = 0
 156              		@ frame_needed = 0, uses_anonymous_args = 0
 157 0000 38B5     		push	{r3, r4, r5, lr}
 158 0002 0028     		cmp	r0, #0
 159 0004 6ED0     		beq	.L24
 160 0006 0446     		mov	r4, r0
 161 0008 90F89132 		ldrb	r3, [r0, #657]	@ zero_extendqisi2
 162 000c A3B1     		cbz	r3, .L27
 163              	.L17:
 164 000e 0323     		movs	r3, #3
 165 0010 84F89132 		strb	r3, [r4, #657]
 166 0014 0023     		movs	r3, #0
 167 0016 6371     		strb	r3, [r4, #5]
 168 0018 2068     		ldr	r0, [r4]
 169 001a FFF7FEFF 		bl	USB_DisableGlobalInt
 170 001e 2346     		mov	r3, r4
 171 0020 53F8040B 		ldr	r0, [r3], #4
 172 0024 0ECB     		ldm	r3, {r1, r2, r3}
 173 0026 FFF7FEFF 		bl	USB_CoreInit
 174 002a 50B1     		cbz	r0, .L18
 175 002c 0223     		movs	r3, #2
 176 002e 84F89132 		strb	r3, [r4, #657]
ARM GAS  /tmp/ccB1whAW.s 			page 4


 177 0032 0125     		movs	r5, #1
 178              	.L16:
 179 0034 2846     		mov	r0, r5
 180 0036 38BD     		pop	{r3, r4, r5, pc}
 181              	.L27:
 182 0038 80F89032 		strb	r3, [r0, #656]
 183 003c FFF7FEFF 		bl	HAL_PCD_MspInit
 184 0040 E5E7     		b	.L17
 185              	.L18:
 186 0042 0021     		movs	r1, #0
 187 0044 2068     		ldr	r0, [r4]
 188 0046 FFF7FEFF 		bl	USB_SetCurrentMode
 189 004a 0346     		mov	r3, r0
 190 004c 08B9     		cbnz	r0, .L28
 191 004e 0246     		mov	r2, r0
 192 0050 15E0     		b	.L19
 193              	.L28:
 194 0052 0223     		movs	r3, #2
 195 0054 84F89132 		strb	r3, [r4, #657]
 196 0058 0125     		movs	r5, #1
 197 005a EBE7     		b	.L16
 198              	.L20:
 199 005c 02EB8201 		add	r1, r2, r2, lsl #2
 200 0060 04EBC101 		add	r1, r4, r1, lsl #3
 201 0064 0120     		movs	r0, #1
 202 0066 4874     		strb	r0, [r1, #17]
 203 0068 0A74     		strb	r2, [r1, #16]
 204 006a 0020     		movs	r0, #0
 205 006c C874     		strb	r0, [r1, #19]
 206 006e 0862     		str	r0, [r1, #32]
 207 0070 4862     		str	r0, [r1, #36]
 208 0072 0132     		adds	r2, r2, #1
 209 0074 02EB8201 		add	r1, r2, r2, lsl #2
 210 0078 C900     		lsls	r1, r1, #3
 211 007a 6050     		str	r0, [r4, r1]
 212 007c D2B2     		uxtb	r2, r2
 213              	.L19:
 214 007e 2079     		ldrb	r0, [r4, #4]	@ zero_extendqisi2
 215 0080 9042     		cmp	r0, r2
 216 0082 EBD8     		bhi	.L20
 217 0084 16E0     		b	.L21
 218              	.L22:
 219 0086 03EB8302 		add	r2, r3, r3, lsl #2
 220 008a 04EBC202 		add	r2, r4, r2, lsl #3
 221 008e 0021     		movs	r1, #0
 222 0090 82F85111 		strb	r1, [r2, #337]
 223 0094 82F85031 		strb	r3, [r2, #336]
 224 0098 82F85311 		strb	r1, [r2, #339]
 225 009c C2F86011 		str	r1, [r2, #352]
 226 00a0 C2F86411 		str	r1, [r2, #356]
 227 00a4 03EB8302 		add	r2, r3, r3, lsl #2
 228 00a8 04EBC202 		add	r2, r4, r2, lsl #3
 229 00ac C2F86811 		str	r1, [r2, #360]
 230 00b0 0133     		adds	r3, r3, #1
 231 00b2 DBB2     		uxtb	r3, r3
 232              	.L21:
 233 00b4 9842     		cmp	r0, r3
ARM GAS  /tmp/ccB1whAW.s 			page 5


 234 00b6 E6D8     		bhi	.L22
 235 00b8 2346     		mov	r3, r4
 236 00ba 53F8040B 		ldr	r0, [r3], #4
 237 00be 0ECB     		ldm	r3, {r1, r2, r3}
 238 00c0 FFF7FEFF 		bl	USB_DevInit
 239 00c4 0546     		mov	r5, r0
 240 00c6 20B1     		cbz	r0, .L23
 241 00c8 0223     		movs	r3, #2
 242 00ca 84F89132 		strb	r3, [r4, #657]
 243 00ce 0125     		movs	r5, #1
 244 00d0 B0E7     		b	.L16
 245              	.L23:
 246 00d2 0023     		movs	r3, #0
 247 00d4 6373     		strb	r3, [r4, #13]
 248 00d6 0123     		movs	r3, #1
 249 00d8 84F89132 		strb	r3, [r4, #657]
 250 00dc 2068     		ldr	r0, [r4]
 251 00de FFF7FEFF 		bl	USB_DevDisconnect
 252 00e2 A7E7     		b	.L16
 253              	.L24:
 254 00e4 0125     		movs	r5, #1
 255 00e6 A5E7     		b	.L16
 257              		.section	.text.HAL_PCD_MspDeInit,"ax",%progbits
 258              		.align	1
 259              		.weak	HAL_PCD_MspDeInit
 260              		.syntax unified
 261              		.thumb
 262              		.thumb_func
 264              	HAL_PCD_MspDeInit:
 265              		@ args = 0, pretend = 0, frame = 0
 266              		@ frame_needed = 0, uses_anonymous_args = 0
 267              		@ link register save eliminated.
 268 0000 7047     		bx	lr
 270              		.section	.text.HAL_PCD_DeInit,"ax",%progbits
 271              		.align	1
 272              		.global	HAL_PCD_DeInit
 273              		.syntax unified
 274              		.thumb
 275              		.thumb_func
 277              	HAL_PCD_DeInit:
 278              		@ args = 0, pretend = 0, frame = 0
 279              		@ frame_needed = 0, uses_anonymous_args = 0
 280 0000 38B5     		push	{r3, r4, r5, lr}
 281 0002 90B1     		cbz	r0, .L32
 282 0004 0446     		mov	r4, r0
 283 0006 0323     		movs	r3, #3
 284 0008 80F89132 		strb	r3, [r0, #657]
 285 000c 0068     		ldr	r0, [r0]
 286 000e FFF7FEFF 		bl	USB_StopDevice
 287 0012 0546     		mov	r5, r0
 288 0014 10B1     		cbz	r0, .L35
 289 0016 0125     		movs	r5, #1
 290              	.L31:
 291 0018 2846     		mov	r0, r5
 292 001a 38BD     		pop	{r3, r4, r5, pc}
 293              	.L35:
 294 001c 2046     		mov	r0, r4
ARM GAS  /tmp/ccB1whAW.s 			page 6


 295 001e FFF7FEFF 		bl	HAL_PCD_MspDeInit
 296 0022 0023     		movs	r3, #0
 297 0024 84F89132 		strb	r3, [r4, #657]
 298 0028 F6E7     		b	.L31
 299              	.L32:
 300 002a 0125     		movs	r5, #1
 301 002c F4E7     		b	.L31
 303              		.section	.text.HAL_PCD_Start,"ax",%progbits
 304              		.align	1
 305              		.global	HAL_PCD_Start
 306              		.syntax unified
 307              		.thumb
 308              		.thumb_func
 310              	HAL_PCD_Start:
 311              		@ args = 0, pretend = 0, frame = 0
 312              		@ frame_needed = 0, uses_anonymous_args = 0
 313 0000 38B5     		push	{r3, r4, r5, lr}
 314 0002 90F89032 		ldrb	r3, [r0, #656]	@ zero_extendqisi2
 315 0006 012B     		cmp	r3, #1
 316 0008 11D0     		beq	.L38
 317 000a 0446     		mov	r4, r0
 318 000c 0125     		movs	r5, #1
 319 000e 80F89052 		strb	r5, [r0, #656]
 320 0012 0068     		ldr	r0, [r0]
 321 0014 FFF7FEFF 		bl	USB_EnableGlobalInt
 322 0018 2946     		mov	r1, r5
 323 001a 2046     		mov	r0, r4
 324 001c FFF7FEFF 		bl	HAL_PCDEx_SetConnectionState
 325 0020 2068     		ldr	r0, [r4]
 326 0022 FFF7FEFF 		bl	USB_DevConnect
 327 0026 0020     		movs	r0, #0
 328 0028 84F89002 		strb	r0, [r4, #656]
 329              	.L37:
 330 002c 38BD     		pop	{r3, r4, r5, pc}
 331              	.L38:
 332 002e 0220     		movs	r0, #2
 333 0030 FCE7     		b	.L37
 335              		.section	.text.HAL_PCD_Stop,"ax",%progbits
 336              		.align	1
 337              		.global	HAL_PCD_Stop
 338              		.syntax unified
 339              		.thumb
 340              		.thumb_func
 342              	HAL_PCD_Stop:
 343              		@ args = 0, pretend = 0, frame = 0
 344              		@ frame_needed = 0, uses_anonymous_args = 0
 345 0000 90F89032 		ldrb	r3, [r0, #656]	@ zero_extendqisi2
 346 0004 012B     		cmp	r3, #1
 347 0006 12D0     		beq	.L42
 348 0008 10B5     		push	{r4, lr}
 349 000a 0446     		mov	r4, r0
 350 000c 0123     		movs	r3, #1
 351 000e 80F89032 		strb	r3, [r0, #656]
 352 0012 0068     		ldr	r0, [r0]
 353 0014 FFF7FEFF 		bl	USB_DisableGlobalInt
 354 0018 0021     		movs	r1, #0
 355 001a 2046     		mov	r0, r4
ARM GAS  /tmp/ccB1whAW.s 			page 7


 356 001c FFF7FEFF 		bl	HAL_PCDEx_SetConnectionState
 357 0020 2068     		ldr	r0, [r4]
 358 0022 FFF7FEFF 		bl	USB_DevDisconnect
 359 0026 0020     		movs	r0, #0
 360 0028 84F89002 		strb	r0, [r4, #656]
 361 002c 10BD     		pop	{r4, pc}
 362              	.L42:
 363 002e 0220     		movs	r0, #2
 364 0030 7047     		bx	lr
 366              		.section	.text.HAL_PCD_WKUP_IRQHandler,"ax",%progbits
 367              		.align	1
 368              		.global	HAL_PCD_WKUP_IRQHandler
 369              		.syntax unified
 370              		.thumb
 371              		.thumb_func
 373              	HAL_PCD_WKUP_IRQHandler:
 374              		@ args = 0, pretend = 0, frame = 0
 375              		@ frame_needed = 0, uses_anonymous_args = 0
 376              		@ link register save eliminated.
 377 0000 024B     		ldr	r3, .L48
 378 0002 4FF48022 		mov	r2, #262144
 379 0006 5A61     		str	r2, [r3, #20]
 380 0008 7047     		bx	lr
 381              	.L49:
 382 000a 00BF     		.align	2
 383              	.L48:
 384 000c 00040140 		.word	1073808384
 386              		.section	.text.HAL_PCD_DataOutStageCallback,"ax",%progbits
 387              		.align	1
 388              		.weak	HAL_PCD_DataOutStageCallback
 389              		.syntax unified
 390              		.thumb
 391              		.thumb_func
 393              	HAL_PCD_DataOutStageCallback:
 394              		@ args = 0, pretend = 0, frame = 0
 395              		@ frame_needed = 0, uses_anonymous_args = 0
 396              		@ link register save eliminated.
 397 0000 7047     		bx	lr
 399              		.section	.text.HAL_PCD_DataInStageCallback,"ax",%progbits
 400              		.align	1
 401              		.weak	HAL_PCD_DataInStageCallback
 402              		.syntax unified
 403              		.thumb
 404              		.thumb_func
 406              	HAL_PCD_DataInStageCallback:
 407              		@ args = 0, pretend = 0, frame = 0
 408              		@ frame_needed = 0, uses_anonymous_args = 0
 409              		@ link register save eliminated.
 410 0000 7047     		bx	lr
 412              		.section	.text.HAL_PCD_EP_DB_Transmit,"ax",%progbits
 413              		.align	1
 414              		.syntax unified
 415              		.thumb
 416              		.thumb_func
 418              	HAL_PCD_EP_DB_Transmit:
 419              		@ args = 0, pretend = 0, frame = 0
 420              		@ frame_needed = 0, uses_anonymous_args = 0
ARM GAS  /tmp/ccB1whAW.s 			page 8


 421 0000 70B5     		push	{r4, r5, r6, lr}
 422 0002 0546     		mov	r5, r0
 423 0004 0C46     		mov	r4, r1
 424 0006 1646     		mov	r6, r2
 425 0008 12F0400F 		tst	r2, #64
 426 000c 00F00E81 		beq	.L53
 427 0010 0268     		ldr	r2, [r0]
 428 0012 B2F85030 		ldrh	r3, [r2, #80]
 429 0016 9BB2     		uxth	r3, r3
 430 0018 0978     		ldrb	r1, [r1]	@ zero_extendqisi2
 431 001a 03EBC103 		add	r3, r3, r1, lsl #3
 432 001e 0233     		adds	r3, r3, #2
 433 0020 02EB4302 		add	r2, r2, r3, lsl #1
 434 0024 B2F80024 		ldrh	r2, [r2, #1024]
 435 0028 C2F30902 		ubfx	r2, r2, #0, #10
 436 002c A369     		ldr	r3, [r4, #24]
 437 002e 9342     		cmp	r3, r2
 438 0030 4ED9     		bls	.L54
 439 0032 9B1A     		subs	r3, r3, r2
 440 0034 A361     		str	r3, [r4, #24]
 441              	.L55:
 442 0036 A369     		ldr	r3, [r4, #24]
 443 0038 002B     		cmp	r3, #0
 444 003a 66D1     		bne	.L56
 445 003c 6378     		ldrb	r3, [r4, #1]	@ zero_extendqisi2
 446 003e 002B     		cmp	r3, #0
 447 0040 49D1     		bne	.L57
 448 0042 2B68     		ldr	r3, [r5]
 449 0044 B3F85020 		ldrh	r2, [r3, #80]
 450 0048 92B2     		uxth	r2, r2
 451 004a 1344     		add	r3, r3, r2
 452 004c 03EB0113 		add	r3, r3, r1, lsl #4
 453 0050 B3F80424 		ldrh	r2, [r3, #1028]
 454 0054 C2F30902 		ubfx	r2, r2, #0, #10
 455 0058 A3F80424 		strh	r2, [r3, #1028]	@ movhi
 456 005c B3F80424 		ldrh	r2, [r3, #1028]
 457 0060 6FEA4242 		mvn	r2, r2, lsl #17
 458 0064 6FEA5242 		mvn	r2, r2, lsr #17
 459 0068 92B2     		uxth	r2, r2
 460 006a A3F80424 		strh	r2, [r3, #1028]	@ movhi
 461              	.L58:
 462 006e 2B68     		ldr	r3, [r5]
 463 0070 6278     		ldrb	r2, [r4, #1]	@ zero_extendqisi2
 464 0072 002A     		cmp	r2, #0
 465 0074 3CD1     		bne	.L59
 466 0076 B3F85020 		ldrh	r2, [r3, #80]
 467 007a 92B2     		uxth	r2, r2
 468 007c 1344     		add	r3, r3, r2
 469 007e 2278     		ldrb	r2, [r4]	@ zero_extendqisi2
 470 0080 03EB0213 		add	r3, r3, r2, lsl #4
 471 0084 B3F80C24 		ldrh	r2, [r3, #1036]
 472 0088 C2F30902 		ubfx	r2, r2, #0, #10
 473 008c A3F80C24 		strh	r2, [r3, #1036]	@ movhi
 474 0090 B3F80C24 		ldrh	r2, [r3, #1036]
 475 0094 6FEA4242 		mvn	r2, r2, lsl #17
 476 0098 6FEA5242 		mvn	r2, r2, lsr #17
 477 009c 92B2     		uxth	r2, r2
ARM GAS  /tmp/ccB1whAW.s 			page 9


 478 009e A3F80C24 		strh	r2, [r3, #1036]	@ movhi
 479              	.L60:
 480 00a2 2178     		ldrb	r1, [r4]	@ zero_extendqisi2
 481 00a4 2846     		mov	r0, r5
 482 00a6 FFF7FEFF 		bl	HAL_PCD_DataInStageCallback
 483 00aa 16F4804F 		tst	r6, #16384
 484 00ae 41D0     		beq	.L61
 485 00b0 2A68     		ldr	r2, [r5]
 486 00b2 2178     		ldrb	r1, [r4]	@ zero_extendqisi2
 487 00b4 32F82130 		ldrh	r3, [r2, r1, lsl #2]
 488 00b8 9BB2     		uxth	r3, r3
 489 00ba 23F4E043 		bic	r3, r3, #28672
 490 00be 23F07003 		bic	r3, r3, #112
 491 00c2 43F44043 		orr	r3, r3, #49152
 492 00c6 43F08003 		orr	r3, r3, #128
 493 00ca 22F82130 		strh	r3, [r2, r1, lsl #2]	@ movhi
 494 00ce 31E0     		b	.L61
 495              	.L54:
 496 00d0 0023     		movs	r3, #0
 497 00d2 A361     		str	r3, [r4, #24]
 498 00d4 AFE7     		b	.L55
 499              	.L57:
 500 00d6 012B     		cmp	r3, #1
 501 00d8 C9D1     		bne	.L58
 502 00da 2B68     		ldr	r3, [r5]
 503 00dc B3F85020 		ldrh	r2, [r3, #80]
 504 00e0 92B2     		uxth	r2, r2
 505 00e2 1344     		add	r3, r3, r2
 506 00e4 03EB0113 		add	r3, r3, r1, lsl #4
 507 00e8 0022     		movs	r2, #0
 508 00ea A3F80424 		strh	r2, [r3, #1028]	@ movhi
 509 00ee BEE7     		b	.L58
 510              	.L59:
 511 00f0 012A     		cmp	r2, #1
 512 00f2 D6D1     		bne	.L60
 513 00f4 B3F85020 		ldrh	r2, [r3, #80]
 514 00f8 92B2     		uxth	r2, r2
 515 00fa 1344     		add	r3, r3, r2
 516 00fc 2278     		ldrb	r2, [r4]	@ zero_extendqisi2
 517 00fe 03EB0213 		add	r3, r3, r2, lsl #4
 518 0102 0022     		movs	r2, #0
 519 0104 A3F80C24 		strh	r2, [r3, #1036]	@ movhi
 520 0108 CBE7     		b	.L60
 521              	.L56:
 522 010a 16F4804F 		tst	r6, #16384
 523 010e 0DD0     		beq	.L62
 524 0110 2868     		ldr	r0, [r5]
 525 0112 30F82130 		ldrh	r3, [r0, r1, lsl #2]
 526 0116 9BB2     		uxth	r3, r3
 527 0118 23F4E043 		bic	r3, r3, #28672
 528 011c 23F07003 		bic	r3, r3, #112
 529 0120 43F44043 		orr	r3, r3, #49152
 530 0124 43F08003 		orr	r3, r3, #128
 531 0128 20F82130 		strh	r3, [r0, r1, lsl #2]	@ movhi
 532              	.L62:
 533 012c 94F82430 		ldrb	r3, [r4, #36]	@ zero_extendqisi2
 534 0130 012B     		cmp	r3, #1
ARM GAS  /tmp/ccB1whAW.s 			page 10


 535 0132 12D0     		beq	.L90
 536              	.L61:
 537 0134 2A68     		ldr	r2, [r5]
 538 0136 2178     		ldrb	r1, [r4]	@ zero_extendqisi2
 539 0138 32F82130 		ldrh	r3, [r2, r1, lsl #2]
 540 013c 9BB2     		uxth	r3, r3
 541 013e 23F4E043 		bic	r3, r3, #28672
 542 0142 23F04003 		bic	r3, r3, #64
 543 0146 83F03003 		eor	r3, r3, #48
 544 014a 43F40043 		orr	r3, r3, #32768
 545 014e 43F08003 		orr	r3, r3, #128
 546 0152 22F82130 		strh	r3, [r2, r1, lsl #2]	@ movhi
 547 0156 0020     		movs	r0, #0
 548 0158 70BD     		pop	{r4, r5, r6, pc}
 549              	.L90:
 550 015a 6369     		ldr	r3, [r4, #20]
 551 015c 1344     		add	r3, r3, r2
 552 015e 6361     		str	r3, [r4, #20]
 553 0160 E369     		ldr	r3, [r4, #28]
 554 0162 1344     		add	r3, r3, r2
 555 0164 E361     		str	r3, [r4, #28]
 556 0166 216A     		ldr	r1, [r4, #32]
 557 0168 2369     		ldr	r3, [r4, #16]
 558 016a 9942     		cmp	r1, r3
 559 016c 24D3     		bcc	.L63
 560 016e C91A     		subs	r1, r1, r3
 561 0170 2162     		str	r1, [r4, #32]
 562              	.L64:
 563 0172 6278     		ldrb	r2, [r4, #1]	@ zero_extendqisi2
 564 0174 002A     		cmp	r2, #0
 565 0176 44D1     		bne	.L66
 566 0178 2A68     		ldr	r2, [r5]
 567 017a B2F85010 		ldrh	r1, [r2, #80]
 568 017e 89B2     		uxth	r1, r1
 569 0180 0A44     		add	r2, r2, r1
 570 0182 2178     		ldrb	r1, [r4]	@ zero_extendqisi2
 571 0184 02EB0112 		add	r2, r2, r1, lsl #4
 572 0188 B2F80414 		ldrh	r1, [r2, #1028]
 573 018c C1F30901 		ubfx	r1, r1, #0, #10
 574 0190 A2F80414 		strh	r1, [r2, #1028]	@ movhi
 575 0194 3E2B     		cmp	r3, #62
 576 0196 1BD9     		bls	.L67
 577 0198 5809     		lsrs	r0, r3, #5
 578 019a 13F01F0F 		tst	r3, #31
 579 019e 00D1     		bne	.L68
 580 01a0 0138     		subs	r0, r0, #1
 581              	.L68:
 582 01a2 B2F80414 		ldrh	r1, [r2, #1028]
 583 01a6 89B2     		uxth	r1, r1
 584 01a8 8002     		lsls	r0, r0, #10
 585 01aa 80B2     		uxth	r0, r0
 586 01ac 0143     		orrs	r1, r1, r0
 587 01ae 41F40041 		orr	r1, r1, #32768
 588 01b2 A2F80414 		strh	r1, [r2, #1028]	@ movhi
 589 01b6 26E0     		b	.L69
 590              	.L63:
 591 01b8 21B9     		cbnz	r1, .L65
ARM GAS  /tmp/ccB1whAW.s 			page 11


 592 01ba 0023     		movs	r3, #0
 593 01bc 84F82430 		strb	r3, [r4, #36]
 594 01c0 1346     		mov	r3, r2
 595 01c2 D6E7     		b	.L64
 596              	.L65:
 597 01c4 0023     		movs	r3, #0
 598 01c6 84F82430 		strb	r3, [r4, #36]
 599 01ca 2362     		str	r3, [r4, #32]
 600 01cc 0B46     		mov	r3, r1
 601 01ce D0E7     		b	.L64
 602              	.L67:
 603 01d0 4BB9     		cbnz	r3, .L70
 604 01d2 B2F80414 		ldrh	r1, [r2, #1028]
 605 01d6 6FEA4141 		mvn	r1, r1, lsl #17
 606 01da 6FEA5141 		mvn	r1, r1, lsr #17
 607 01de 89B2     		uxth	r1, r1
 608 01e0 A2F80414 		strh	r1, [r2, #1028]	@ movhi
 609 01e4 0FE0     		b	.L69
 610              	.L70:
 611 01e6 5908     		lsrs	r1, r3, #1
 612 01e8 13F0010F 		tst	r3, #1
 613 01ec 00D0     		beq	.L71
 614 01ee 0131     		adds	r1, r1, #1
 615              	.L71:
 616 01f0 B2F80404 		ldrh	r0, [r2, #1028]
 617 01f4 80B2     		uxth	r0, r0
 618 01f6 8902     		lsls	r1, r1, #10
 619 01f8 89B2     		uxth	r1, r1
 620 01fa 0143     		orrs	r1, r1, r0
 621 01fc A2F80414 		strh	r1, [r2, #1028]	@ movhi
 622 0200 01E0     		b	.L69
 623              	.L66:
 624 0202 012A     		cmp	r2, #1
 625 0204 06D0     		beq	.L91
 626              	.L69:
 627 0206 9BB2     		uxth	r3, r3
 628 0208 2289     		ldrh	r2, [r4, #8]
 629 020a 6169     		ldr	r1, [r4, #20]
 630 020c 2868     		ldr	r0, [r5]
 631 020e FFF7FEFF 		bl	USB_WritePMA
 632 0212 8FE7     		b	.L61
 633              	.L91:
 634 0214 2A68     		ldr	r2, [r5]
 635 0216 B2F85010 		ldrh	r1, [r2, #80]
 636 021a 89B2     		uxth	r1, r1
 637 021c 0A44     		add	r2, r2, r1
 638 021e 2178     		ldrb	r1, [r4]	@ zero_extendqisi2
 639 0220 02EB0112 		add	r2, r2, r1, lsl #4
 640 0224 99B2     		uxth	r1, r3
 641 0226 A2F80414 		strh	r1, [r2, #1028]	@ movhi
 642 022a ECE7     		b	.L69
 643              	.L53:
 644 022c 0268     		ldr	r2, [r0]
 645 022e B2F85030 		ldrh	r3, [r2, #80]
 646 0232 9BB2     		uxth	r3, r3
 647 0234 0978     		ldrb	r1, [r1]	@ zero_extendqisi2
 648 0236 03EBC103 		add	r3, r3, r1, lsl #3
ARM GAS  /tmp/ccB1whAW.s 			page 12


 649 023a 0633     		adds	r3, r3, #6
 650 023c 02EB4302 		add	r2, r2, r3, lsl #1
 651 0240 B2F80024 		ldrh	r2, [r2, #1024]
 652 0244 C2F30902 		ubfx	r2, r2, #0, #10
 653 0248 A369     		ldr	r3, [r4, #24]
 654 024a 9342     		cmp	r3, r2
 655 024c 4FD3     		bcc	.L72
 656 024e 9B1A     		subs	r3, r3, r2
 657 0250 A361     		str	r3, [r4, #24]
 658              	.L73:
 659 0252 A369     		ldr	r3, [r4, #24]
 660 0254 002B     		cmp	r3, #0
 661 0256 67D1     		bne	.L74
 662 0258 6378     		ldrb	r3, [r4, #1]	@ zero_extendqisi2
 663 025a 002B     		cmp	r3, #0
 664 025c 4AD1     		bne	.L75
 665 025e 2B68     		ldr	r3, [r5]
 666 0260 B3F85020 		ldrh	r2, [r3, #80]
 667 0264 92B2     		uxth	r2, r2
 668 0266 1344     		add	r3, r3, r2
 669 0268 03EB0113 		add	r3, r3, r1, lsl #4
 670 026c B3F80424 		ldrh	r2, [r3, #1028]
 671 0270 C2F30902 		ubfx	r2, r2, #0, #10
 672 0274 A3F80424 		strh	r2, [r3, #1028]	@ movhi
 673 0278 B3F80424 		ldrh	r2, [r3, #1028]
 674 027c 6FEA4242 		mvn	r2, r2, lsl #17
 675 0280 6FEA5242 		mvn	r2, r2, lsr #17
 676 0284 92B2     		uxth	r2, r2
 677 0286 A3F80424 		strh	r2, [r3, #1028]	@ movhi
 678              	.L76:
 679 028a 2B68     		ldr	r3, [r5]
 680 028c 6278     		ldrb	r2, [r4, #1]	@ zero_extendqisi2
 681 028e 002A     		cmp	r2, #0
 682 0290 3DD1     		bne	.L77
 683 0292 B3F85020 		ldrh	r2, [r3, #80]
 684 0296 92B2     		uxth	r2, r2
 685 0298 1344     		add	r3, r3, r2
 686 029a 2278     		ldrb	r2, [r4]	@ zero_extendqisi2
 687 029c 03EB0213 		add	r3, r3, r2, lsl #4
 688 02a0 B3F80C24 		ldrh	r2, [r3, #1036]
 689 02a4 C2F30902 		ubfx	r2, r2, #0, #10
 690 02a8 A3F80C24 		strh	r2, [r3, #1036]	@ movhi
 691 02ac B3F80C24 		ldrh	r2, [r3, #1036]
 692 02b0 6FEA4242 		mvn	r2, r2, lsl #17
 693 02b4 6FEA5242 		mvn	r2, r2, lsr #17
 694 02b8 92B2     		uxth	r2, r2
 695 02ba A3F80C24 		strh	r2, [r3, #1036]	@ movhi
 696              	.L78:
 697 02be 2178     		ldrb	r1, [r4]	@ zero_extendqisi2
 698 02c0 2846     		mov	r0, r5
 699 02c2 FFF7FEFF 		bl	HAL_PCD_DataInStageCallback
 700 02c6 16F4804F 		tst	r6, #16384
 701 02ca 7FF433AF 		bne	.L61
 702 02ce 2A68     		ldr	r2, [r5]
 703 02d0 2178     		ldrb	r1, [r4]	@ zero_extendqisi2
 704 02d2 32F82130 		ldrh	r3, [r2, r1, lsl #2]
 705 02d6 9BB2     		uxth	r3, r3
ARM GAS  /tmp/ccB1whAW.s 			page 13


 706 02d8 23F4E043 		bic	r3, r3, #28672
 707 02dc 23F07003 		bic	r3, r3, #112
 708 02e0 43F44043 		orr	r3, r3, #49152
 709 02e4 43F08003 		orr	r3, r3, #128
 710 02e8 22F82130 		strh	r3, [r2, r1, lsl #2]	@ movhi
 711 02ec 22E7     		b	.L61
 712              	.L72:
 713 02ee 0023     		movs	r3, #0
 714 02f0 A361     		str	r3, [r4, #24]
 715 02f2 AEE7     		b	.L73
 716              	.L75:
 717 02f4 012B     		cmp	r3, #1
 718 02f6 C8D1     		bne	.L76
 719 02f8 2B68     		ldr	r3, [r5]
 720 02fa B3F85020 		ldrh	r2, [r3, #80]
 721 02fe 92B2     		uxth	r2, r2
 722 0300 1344     		add	r3, r3, r2
 723 0302 03EB0113 		add	r3, r3, r1, lsl #4
 724 0306 0022     		movs	r2, #0
 725 0308 A3F80424 		strh	r2, [r3, #1028]	@ movhi
 726 030c BDE7     		b	.L76
 727              	.L77:
 728 030e 012A     		cmp	r2, #1
 729 0310 D5D1     		bne	.L78
 730 0312 B3F85020 		ldrh	r2, [r3, #80]
 731 0316 92B2     		uxth	r2, r2
 732 0318 1344     		add	r3, r3, r2
 733 031a 2278     		ldrb	r2, [r4]	@ zero_extendqisi2
 734 031c 03EB0213 		add	r3, r3, r2, lsl #4
 735 0320 0022     		movs	r2, #0
 736 0322 A3F80C24 		strh	r2, [r3, #1036]	@ movhi
 737 0326 CAE7     		b	.L78
 738              	.L74:
 739 0328 16F4804F 		tst	r6, #16384
 740 032c 0DD1     		bne	.L79
 741 032e 2868     		ldr	r0, [r5]
 742 0330 30F82130 		ldrh	r3, [r0, r1, lsl #2]
 743 0334 9BB2     		uxth	r3, r3
 744 0336 23F4E043 		bic	r3, r3, #28672
 745 033a 23F07003 		bic	r3, r3, #112
 746 033e 43F44043 		orr	r3, r3, #49152
 747 0342 43F08003 		orr	r3, r3, #128
 748 0346 20F82130 		strh	r3, [r0, r1, lsl #2]	@ movhi
 749              	.L79:
 750 034a 94F82430 		ldrb	r3, [r4, #36]	@ zero_extendqisi2
 751 034e 012B     		cmp	r3, #1
 752 0350 7FF4F0AE 		bne	.L61
 753 0354 6369     		ldr	r3, [r4, #20]
 754 0356 1344     		add	r3, r3, r2
 755 0358 6361     		str	r3, [r4, #20]
 756 035a E369     		ldr	r3, [r4, #28]
 757 035c 1344     		add	r3, r3, r2
 758 035e E361     		str	r3, [r4, #28]
 759 0360 216A     		ldr	r1, [r4, #32]
 760 0362 2369     		ldr	r3, [r4, #16]
 761 0364 9942     		cmp	r1, r3
 762 0366 24D3     		bcc	.L80
ARM GAS  /tmp/ccB1whAW.s 			page 14


 763 0368 C91A     		subs	r1, r1, r3
 764 036a 2162     		str	r1, [r4, #32]
 765              	.L81:
 766 036c 2A68     		ldr	r2, [r5]
 767 036e 6178     		ldrb	r1, [r4, #1]	@ zero_extendqisi2
 768 0370 0029     		cmp	r1, #0
 769 0372 43D1     		bne	.L83
 770 0374 B2F85010 		ldrh	r1, [r2, #80]
 771 0378 89B2     		uxth	r1, r1
 772 037a 0A44     		add	r2, r2, r1
 773 037c 2178     		ldrb	r1, [r4]	@ zero_extendqisi2
 774 037e 02EB0112 		add	r2, r2, r1, lsl #4
 775 0382 B2F80C14 		ldrh	r1, [r2, #1036]
 776 0386 C1F30901 		ubfx	r1, r1, #0, #10
 777 038a A2F80C14 		strh	r1, [r2, #1036]	@ movhi
 778 038e 3E2B     		cmp	r3, #62
 779 0390 1BD9     		bls	.L84
 780 0392 5809     		lsrs	r0, r3, #5
 781 0394 13F01F0F 		tst	r3, #31
 782 0398 00D1     		bne	.L85
 783 039a 0138     		subs	r0, r0, #1
 784              	.L85:
 785 039c B2F80C14 		ldrh	r1, [r2, #1036]
 786 03a0 89B2     		uxth	r1, r1
 787 03a2 8002     		lsls	r0, r0, #10
 788 03a4 80B2     		uxth	r0, r0
 789 03a6 0143     		orrs	r1, r1, r0
 790 03a8 41F40041 		orr	r1, r1, #32768
 791 03ac A2F80C14 		strh	r1, [r2, #1036]	@ movhi
 792 03b0 26E0     		b	.L86
 793              	.L80:
 794 03b2 21B9     		cbnz	r1, .L82
 795 03b4 0023     		movs	r3, #0
 796 03b6 84F82430 		strb	r3, [r4, #36]
 797 03ba 1346     		mov	r3, r2
 798 03bc D6E7     		b	.L81
 799              	.L82:
 800 03be 0023     		movs	r3, #0
 801 03c0 2362     		str	r3, [r4, #32]
 802 03c2 84F82430 		strb	r3, [r4, #36]
 803 03c6 0B46     		mov	r3, r1
 804 03c8 D0E7     		b	.L81
 805              	.L84:
 806 03ca 4BB9     		cbnz	r3, .L87
 807 03cc B2F80C14 		ldrh	r1, [r2, #1036]
 808 03d0 6FEA4141 		mvn	r1, r1, lsl #17
 809 03d4 6FEA5141 		mvn	r1, r1, lsr #17
 810 03d8 89B2     		uxth	r1, r1
 811 03da A2F80C14 		strh	r1, [r2, #1036]	@ movhi
 812 03de 0FE0     		b	.L86
 813              	.L87:
 814 03e0 5908     		lsrs	r1, r3, #1
 815 03e2 13F0010F 		tst	r3, #1
 816 03e6 00D0     		beq	.L88
 817 03e8 0131     		adds	r1, r1, #1
 818              	.L88:
 819 03ea B2F80C04 		ldrh	r0, [r2, #1036]
ARM GAS  /tmp/ccB1whAW.s 			page 15


 820 03ee 80B2     		uxth	r0, r0
 821 03f0 8902     		lsls	r1, r1, #10
 822 03f2 89B2     		uxth	r1, r1
 823 03f4 0143     		orrs	r1, r1, r0
 824 03f6 A2F80C14 		strh	r1, [r2, #1036]	@ movhi
 825 03fa 01E0     		b	.L86
 826              	.L83:
 827 03fc 0129     		cmp	r1, #1
 828 03fe 06D0     		beq	.L92
 829              	.L86:
 830 0400 9BB2     		uxth	r3, r3
 831 0402 6289     		ldrh	r2, [r4, #10]
 832 0404 6169     		ldr	r1, [r4, #20]
 833 0406 2868     		ldr	r0, [r5]
 834 0408 FFF7FEFF 		bl	USB_WritePMA
 835 040c 92E6     		b	.L61
 836              	.L92:
 837 040e B2F85010 		ldrh	r1, [r2, #80]
 838 0412 89B2     		uxth	r1, r1
 839 0414 0A44     		add	r2, r2, r1
 840 0416 2178     		ldrb	r1, [r4]	@ zero_extendqisi2
 841 0418 02EB0112 		add	r2, r2, r1, lsl #4
 842 041c 99B2     		uxth	r1, r3
 843 041e A2F80C14 		strh	r1, [r2, #1036]	@ movhi
 844 0422 EDE7     		b	.L86
 846              		.section	.text.HAL_PCD_SetupStageCallback,"ax",%progbits
 847              		.align	1
 848              		.weak	HAL_PCD_SetupStageCallback
 849              		.syntax unified
 850              		.thumb
 851              		.thumb_func
 853              	HAL_PCD_SetupStageCallback:
 854              		@ args = 0, pretend = 0, frame = 0
 855              		@ frame_needed = 0, uses_anonymous_args = 0
 856              		@ link register save eliminated.
 857 0000 7047     		bx	lr
 859              		.section	.text.PCD_EP_ISR_Handler,"ax",%progbits
 860              		.align	1
 861              		.syntax unified
 862              		.thumb
 863              		.thumb_func
 865              	PCD_EP_ISR_Handler:
 866              		@ args = 0, pretend = 0, frame = 0
 867              		@ frame_needed = 0, uses_anonymous_args = 0
 868 0000 2DE9F041 		push	{r4, r5, r6, r7, r8, lr}
 869 0004 0546     		mov	r5, r0
 870              	.L95:
 871 0006 2868     		ldr	r0, [r5]
 872 0008 B0F84430 		ldrh	r3, [r0, #68]
 873 000c 13F4004F 		tst	r3, #32768
 874 0010 00F09D82 		beq	.L124
 875 0014 B0F84440 		ldrh	r4, [r0, #68]
 876 0018 A3B2     		uxth	r3, r4
 877 001a 14F00F04 		ands	r4, r4, #15
 878 001e 40F0DE80 		bne	.L96
 879 0022 13F0100F 		tst	r3, #16
 880 0026 6BD0     		beq	.L125
ARM GAS  /tmp/ccB1whAW.s 			page 16


 881 0028 0388     		ldrh	r3, [r0]
 882 002a 9AB2     		uxth	r2, r3
 883 002c 13F4006F 		tst	r3, #2048
 884 0030 40F09980 		bne	.L126
 885 0034 12F4004F 		tst	r2, #32768
 886 0038 E5D0     		beq	.L95
 887 003a 0388     		ldrh	r3, [r0]
 888 003c 23F07003 		bic	r3, r3, #112
 889 0040 1B05     		lsls	r3, r3, #20
 890 0042 1B0D     		lsrs	r3, r3, #20
 891 0044 43F08003 		orr	r3, r3, #128
 892 0048 0380     		strh	r3, [r0]	@ movhi
 893 004a 2868     		ldr	r0, [r5]
 894 004c B0F85030 		ldrh	r3, [r0, #80]
 895 0050 9BB2     		uxth	r3, r3
 896 0052 95F85021 		ldrb	r2, [r5, #336]	@ zero_extendqisi2
 897 0056 03EBC203 		add	r3, r3, r2, lsl #3
 898 005a 0633     		adds	r3, r3, #6
 899 005c 00EB4303 		add	r3, r0, r3, lsl #1
 900 0060 B3F80034 		ldrh	r3, [r3, #1024]
 901 0064 C3F30903 		ubfx	r3, r3, #0, #10
 902 0068 C5F86C31 		str	r3, [r5, #364]
 903 006c 8BB1     		cbz	r3, .L100
 904 006e D5F86411 		ldr	r1, [r5, #356]
 905 0072 71B1     		cbz	r1, .L100
 906 0074 B5F85621 		ldrh	r2, [r5, #342]
 907 0078 FFF7FEFF 		bl	USB_ReadPMA
 908 007c D5F86431 		ldr	r3, [r5, #356]
 909 0080 D5F86C21 		ldr	r2, [r5, #364]
 910 0084 1344     		add	r3, r3, r2
 911 0086 C5F86431 		str	r3, [r5, #356]
 912 008a 0021     		movs	r1, #0
 913 008c 2846     		mov	r0, r5
 914 008e FFF7FEFF 		bl	HAL_PCD_DataOutStageCallback
 915              	.L100:
 916 0092 2A68     		ldr	r2, [r5]
 917 0094 1388     		ldrh	r3, [r2]
 918 0096 99B2     		uxth	r1, r3
 919 0098 13F4006F 		tst	r3, #2048
 920 009c B3D1     		bne	.L95
 921 009e 01F44051 		and	r1, r1, #12288
 922 00a2 B1F5405F 		cmp	r1, #12288
 923 00a6 AED0     		beq	.L95
 924 00a8 B2F85030 		ldrh	r3, [r2, #80]
 925 00ac 9BB2     		uxth	r3, r3
 926 00ae 1A44     		add	r2, r2, r3
 927 00b0 B2F80C34 		ldrh	r3, [r2, #1036]
 928 00b4 C3F30903 		ubfx	r3, r3, #0, #10
 929 00b8 A2F80C34 		strh	r3, [r2, #1036]	@ movhi
 930 00bc D5F86031 		ldr	r3, [r5, #352]
 931 00c0 3E2B     		cmp	r3, #62
 932 00c2 73D9     		bls	.L101
 933 00c4 5909     		lsrs	r1, r3, #5
 934 00c6 13F01F0F 		tst	r3, #31
 935 00ca 00D1     		bne	.L102
 936 00cc 0139     		subs	r1, r1, #1
 937              	.L102:
ARM GAS  /tmp/ccB1whAW.s 			page 17


 938 00ce B2F80C34 		ldrh	r3, [r2, #1036]
 939 00d2 9BB2     		uxth	r3, r3
 940 00d4 8902     		lsls	r1, r1, #10
 941 00d6 89B2     		uxth	r1, r1
 942 00d8 0B43     		orrs	r3, r3, r1
 943 00da 43F40043 		orr	r3, r3, #32768
 944 00de A2F80C34 		strh	r3, [r2, #1036]	@ movhi
 945              	.L103:
 946 00e2 2A68     		ldr	r2, [r5]
 947 00e4 1388     		ldrh	r3, [r2]
 948 00e6 9BB2     		uxth	r3, r3
 949 00e8 23F48043 		bic	r3, r3, #16384
 950 00ec 23F07003 		bic	r3, r3, #112
 951 00f0 83F44053 		eor	r3, r3, #12288
 952 00f4 43F40043 		orr	r3, r3, #32768
 953 00f8 43F08003 		orr	r3, r3, #128
 954 00fc 1380     		strh	r3, [r2]	@ movhi
 955 00fe 82E7     		b	.L95
 956              	.L125:
 957 0100 0388     		ldrh	r3, [r0]
 958 0102 9BB2     		uxth	r3, r3
 959 0104 23F4E143 		bic	r3, r3, #28800
 960 0108 23F07003 		bic	r3, r3, #112
 961 010c 6FEA4343 		mvn	r3, r3, lsl #17
 962 0110 6FEA5343 		mvn	r3, r3, lsr #17
 963 0114 9BB2     		uxth	r3, r3
 964 0116 0380     		strh	r3, [r0]	@ movhi
 965 0118 2A68     		ldr	r2, [r5]
 966 011a B2F85030 		ldrh	r3, [r2, #80]
 967 011e 9BB2     		uxth	r3, r3
 968 0120 297C     		ldrb	r1, [r5, #16]	@ zero_extendqisi2
 969 0122 03EBC103 		add	r3, r3, r1, lsl #3
 970 0126 0233     		adds	r3, r3, #2
 971 0128 02EB4302 		add	r2, r2, r3, lsl #1
 972 012c B2F80034 		ldrh	r3, [r2, #1024]
 973 0130 C3F30903 		ubfx	r3, r3, #0, #10
 974 0134 EB62     		str	r3, [r5, #44]
 975 0136 6A6A     		ldr	r2, [r5, #36]
 976 0138 1A44     		add	r2, r2, r3
 977 013a 6A62     		str	r2, [r5, #36]
 978 013c 0021     		movs	r1, #0
 979 013e 2846     		mov	r0, r5
 980 0140 FFF7FEFF 		bl	HAL_PCD_DataInStageCallback
 981 0144 6B7B     		ldrb	r3, [r5, #13]	@ zero_extendqisi2
 982 0146 002B     		cmp	r3, #0
 983 0148 3FF45DAF 		beq	.L95
 984 014c AB6A     		ldr	r3, [r5, #40]
 985 014e 002B     		cmp	r3, #0
 986 0150 7FF459AF 		bne	.L95
 987 0154 6B7B     		ldrb	r3, [r5, #13]	@ zero_extendqisi2
 988 0156 2A68     		ldr	r2, [r5]
 989 0158 43F08003 		orr	r3, r3, #128
 990 015c A2F84C30 		strh	r3, [r2, #76]	@ movhi
 991 0160 0023     		movs	r3, #0
 992 0162 6B73     		strb	r3, [r5, #13]
 993 0164 4FE7     		b	.L95
 994              	.L126:
ARM GAS  /tmp/ccB1whAW.s 			page 18


 995 0166 B0F85030 		ldrh	r3, [r0, #80]
 996 016a 9BB2     		uxth	r3, r3
 997 016c 95F85021 		ldrb	r2, [r5, #336]	@ zero_extendqisi2
 998 0170 03EBC203 		add	r3, r3, r2, lsl #3
 999 0174 0633     		adds	r3, r3, #6
 1000 0176 00EB4303 		add	r3, r0, r3, lsl #1
 1001 017a B3F80034 		ldrh	r3, [r3, #1024]
 1002 017e C3F30903 		ubfx	r3, r3, #0, #10
 1003 0182 C5F86C31 		str	r3, [r5, #364]
 1004 0186 B5F85621 		ldrh	r2, [r5, #342]
 1005 018a 05F52671 		add	r1, r5, #664
 1006 018e FFF7FEFF 		bl	USB_ReadPMA
 1007 0192 2A68     		ldr	r2, [r5]
 1008 0194 1388     		ldrh	r3, [r2]
 1009 0196 23F07003 		bic	r3, r3, #112
 1010 019a 1B05     		lsls	r3, r3, #20
 1011 019c 1B0D     		lsrs	r3, r3, #20
 1012 019e 43F08003 		orr	r3, r3, #128
 1013 01a2 1380     		strh	r3, [r2]	@ movhi
 1014 01a4 2846     		mov	r0, r5
 1015 01a6 FFF7FEFF 		bl	HAL_PCD_SetupStageCallback
 1016 01aa 2CE7     		b	.L95
 1017              	.L101:
 1018 01ac 4BB9     		cbnz	r3, .L104
 1019 01ae B2F80C34 		ldrh	r3, [r2, #1036]
 1020 01b2 6FEA4343 		mvn	r3, r3, lsl #17
 1021 01b6 6FEA5343 		mvn	r3, r3, lsr #17
 1022 01ba 9BB2     		uxth	r3, r3
 1023 01bc A2F80C34 		strh	r3, [r2, #1036]	@ movhi
 1024 01c0 8FE7     		b	.L103
 1025              	.L104:
 1026 01c2 5908     		lsrs	r1, r3, #1
 1027 01c4 13F0010F 		tst	r3, #1
 1028 01c8 00D0     		beq	.L105
 1029 01ca 0131     		adds	r1, r1, #1
 1030              	.L105:
 1031 01cc B2F80C34 		ldrh	r3, [r2, #1036]
 1032 01d0 98B2     		uxth	r0, r3
 1033 01d2 8B02     		lsls	r3, r1, #10
 1034 01d4 9BB2     		uxth	r3, r3
 1035 01d6 0343     		orrs	r3, r3, r0
 1036 01d8 A2F80C34 		strh	r3, [r2, #1036]	@ movhi
 1037 01dc 81E7     		b	.L103
 1038              	.L96:
 1039 01de 30F82430 		ldrh	r3, [r0, r4, lsl #2]
 1040 01e2 9EB2     		uxth	r6, r3
 1041 01e4 13F4004F 		tst	r3, #32768
 1042 01e8 50D1     		bne	.L127
 1043              	.L106:
 1044 01ea 16F0800F 		tst	r6, #128
 1045 01ee 3FF40AAF 		beq	.L95
 1046 01f2 04EB8401 		add	r1, r4, r4, lsl #2
 1047 01f6 C900     		lsls	r1, r1, #3
 1048 01f8 1031     		adds	r1, r1, #16
 1049 01fa 2944     		add	r1, r1, r5
 1050 01fc 2A68     		ldr	r2, [r5]
 1051 01fe 32F82430 		ldrh	r3, [r2, r4, lsl #2]
ARM GAS  /tmp/ccB1whAW.s 			page 19


 1052 0202 9BB2     		uxth	r3, r3
 1053 0204 23F4E143 		bic	r3, r3, #28800
 1054 0208 23F07003 		bic	r3, r3, #112
 1055 020c 6FEA4343 		mvn	r3, r3, lsl #17
 1056 0210 6FEA5343 		mvn	r3, r3, lsr #17
 1057 0214 9BB2     		uxth	r3, r3
 1058 0216 22F82430 		strh	r3, [r2, r4, lsl #2]	@ movhi
 1059 021a 04EB8403 		add	r3, r4, r4, lsl #2
 1060 021e 05EBC303 		add	r3, r5, r3, lsl #3
 1061 0222 DB7C     		ldrb	r3, [r3, #19]	@ zero_extendqisi2
 1062 0224 012B     		cmp	r3, #1
 1063 0226 00F0F280 		beq	.L128
 1064 022a 16F4807F 		tst	r6, #256
 1065 022e 40F08981 		bne	.L118
 1066 0232 2868     		ldr	r0, [r5]
 1067 0234 B0F85030 		ldrh	r3, [r0, #80]
 1068 0238 9BB2     		uxth	r3, r3
 1069 023a 04EB8402 		add	r2, r4, r4, lsl #2
 1070 023e 05EBC202 		add	r2, r5, r2, lsl #3
 1071 0242 167C     		ldrb	r6, [r2, #16]	@ zero_extendqisi2
 1072 0244 03EBC603 		add	r3, r3, r6, lsl #3
 1073 0248 0233     		adds	r3, r3, #2
 1074 024a 00EB4303 		add	r3, r0, r3, lsl #1
 1075 024e B3F80034 		ldrh	r3, [r3, #1024]
 1076 0252 C3F30903 		ubfx	r3, r3, #0, #10
 1077 0256 621C     		adds	r2, r4, #1
 1078 0258 02EB8202 		add	r2, r2, r2, lsl #2
 1079 025c 55F83220 		ldr	r2, [r5, r2, lsl #3]
 1080 0260 9A42     		cmp	r2, r3
 1081 0262 40F25281 		bls	.L119
 1082 0266 671C     		adds	r7, r4, #1
 1083 0268 07EB8707 		add	r7, r7, r7, lsl #2
 1084 026c D21A     		subs	r2, r2, r3
 1085 026e 45F83720 		str	r2, [r5, r7, lsl #3]
 1086              	.L120:
 1087 0272 621C     		adds	r2, r4, #1
 1088 0274 02EB8202 		add	r2, r2, r2, lsl #2
 1089 0278 55F83220 		ldr	r2, [r5, r2, lsl #3]
 1090 027c 002A     		cmp	r2, #0
 1091 027e 40F04B81 		bne	.L121
 1092 0282 3146     		mov	r1, r6
 1093 0284 2846     		mov	r0, r5
 1094 0286 FFF7FEFF 		bl	HAL_PCD_DataInStageCallback
 1095 028a BCE6     		b	.L95
 1096              	.L127:
 1097 028c 30F82430 		ldrh	r3, [r0, r4, lsl #2]
 1098 0290 23F07003 		bic	r3, r3, #112
 1099 0294 1B05     		lsls	r3, r3, #20
 1100 0296 1B0D     		lsrs	r3, r3, #20
 1101 0298 43F08003 		orr	r3, r3, #128
 1102 029c 20F82430 		strh	r3, [r0, r4, lsl #2]	@ movhi
 1103 02a0 04EB8401 		add	r1, r4, r4, lsl #2
 1104 02a4 C900     		lsls	r1, r1, #3
 1105 02a6 01F5A871 		add	r1, r1, #336
 1106 02aa 05EB0108 		add	r8, r5, r1
 1107 02ae 04EB8403 		add	r3, r4, r4, lsl #2
 1108 02b2 05EBC303 		add	r3, r5, r3, lsl #3
ARM GAS  /tmp/ccB1whAW.s 			page 20


 1109 02b6 93F85C31 		ldrb	r3, [r3, #348]	@ zero_extendqisi2
 1110 02ba 002B     		cmp	r3, #0
 1111 02bc 42D1     		bne	.L107
 1112 02be 2868     		ldr	r0, [r5]
 1113 02c0 B0F85030 		ldrh	r3, [r0, #80]
 1114 02c4 9BB2     		uxth	r3, r3
 1115 02c6 04EB8402 		add	r2, r4, r4, lsl #2
 1116 02ca 05EBC202 		add	r2, r5, r2, lsl #3
 1117 02ce 92F85021 		ldrb	r2, [r2, #336]	@ zero_extendqisi2
 1118 02d2 03EBC203 		add	r3, r3, r2, lsl #3
 1119 02d6 0633     		adds	r3, r3, #6
 1120 02d8 00EB4303 		add	r3, r0, r3, lsl #1
 1121 02dc B3F80074 		ldrh	r7, [r3, #1024]
 1122 02e0 C7F30907 		ubfx	r7, r7, #0, #10
 1123 02e4 17BB     		cbnz	r7, .L129
 1124              	.L108:
 1125 02e6 04EB8403 		add	r3, r4, r4, lsl #2
 1126 02ea 05EBC303 		add	r3, r5, r3, lsl #3
 1127 02ee D3F86C21 		ldr	r2, [r3, #364]
 1128 02f2 3A44     		add	r2, r2, r7
 1129 02f4 C3F86C21 		str	r2, [r3, #364]
 1130 02f8 D3F86421 		ldr	r2, [r3, #356]
 1131 02fc 3A44     		add	r2, r2, r7
 1132 02fe C3F86421 		str	r2, [r3, #356]
 1133 0302 D3F86831 		ldr	r3, [r3, #360]
 1134 0306 3BB1     		cbz	r3, .L111
 1135 0308 04EB8403 		add	r3, r4, r4, lsl #2
 1136 030c 05EBC303 		add	r3, r5, r3, lsl #3
 1137 0310 D3F86031 		ldr	r3, [r3, #352]
 1138 0314 9F42     		cmp	r7, r3
 1139 0316 75D2     		bcs	.L112
 1140              	.L111:
 1141 0318 04EB8403 		add	r3, r4, r4, lsl #2
 1142 031c 05EBC303 		add	r3, r5, r3, lsl #3
 1143 0320 93F85011 		ldrb	r1, [r3, #336]	@ zero_extendqisi2
 1144 0324 2846     		mov	r0, r5
 1145 0326 FFF7FEFF 		bl	HAL_PCD_DataOutStageCallback
 1146 032a 5EE7     		b	.L106
 1147              	.L129:
 1148 032c 04EB8401 		add	r1, r4, r4, lsl #2
 1149 0330 05EBC101 		add	r1, r5, r1, lsl #3
 1150 0334 3B46     		mov	r3, r7
 1151 0336 B1F85621 		ldrh	r2, [r1, #342]
 1152 033a D1F86411 		ldr	r1, [r1, #356]
 1153 033e FFF7FEFF 		bl	USB_ReadPMA
 1154 0342 D0E7     		b	.L108
 1155              	.L107:
 1156 0344 04EB8403 		add	r3, r4, r4, lsl #2
 1157 0348 05EBC303 		add	r3, r5, r3, lsl #3
 1158 034c 93F85331 		ldrb	r3, [r3, #339]	@ zero_extendqisi2
 1159 0350 022B     		cmp	r3, #2
 1160 0352 35D0     		beq	.L130
 1161 0354 2968     		ldr	r1, [r5]
 1162 0356 04EB8402 		add	r2, r4, r4, lsl #2
 1163 035a 05EBC202 		add	r2, r5, r2, lsl #3
 1164 035e 92F85001 		ldrb	r0, [r2, #336]	@ zero_extendqisi2
 1165 0362 31F82030 		ldrh	r3, [r1, r0, lsl #2]
ARM GAS  /tmp/ccB1whAW.s 			page 21


 1166 0366 9BB2     		uxth	r3, r3
 1167 0368 23F4E043 		bic	r3, r3, #28672
 1168 036c 23F07003 		bic	r3, r3, #112
 1169 0370 43F40043 		orr	r3, r3, #32768
 1170 0374 43F0C003 		orr	r3, r3, #192
 1171 0378 21F82030 		strh	r3, [r1, r0, lsl #2]	@ movhi
 1172 037c 2868     		ldr	r0, [r5]
 1173 037e 92F85021 		ldrb	r2, [r2, #336]	@ zero_extendqisi2
 1174 0382 30F82230 		ldrh	r3, [r0, r2, lsl #2]
 1175 0386 13F4804F 		tst	r3, #16384
 1176 038a 20D0     		beq	.L110
 1177 038c B0F85030 		ldrh	r3, [r0, #80]
 1178 0390 9BB2     		uxth	r3, r3
 1179 0392 03EBC203 		add	r3, r3, r2, lsl #3
 1180 0396 0233     		adds	r3, r3, #2
 1181 0398 00EB4303 		add	r3, r0, r3, lsl #1
 1182 039c B3F80074 		ldrh	r7, [r3, #1024]
 1183 03a0 C7F30907 		ubfx	r7, r7, #0, #10
 1184 03a4 002F     		cmp	r7, #0
 1185 03a6 9ED0     		beq	.L108
 1186 03a8 04EB8401 		add	r1, r4, r4, lsl #2
 1187 03ac 05EBC101 		add	r1, r5, r1, lsl #3
 1188 03b0 3B46     		mov	r3, r7
 1189 03b2 B1F85821 		ldrh	r2, [r1, #344]
 1190 03b6 D1F86411 		ldr	r1, [r1, #356]
 1191 03ba FFF7FEFF 		bl	USB_ReadPMA
 1192 03be 92E7     		b	.L108
 1193              	.L130:
 1194 03c0 3246     		mov	r2, r6
 1195 03c2 4146     		mov	r1, r8
 1196 03c4 2846     		mov	r0, r5
 1197 03c6 FFF7FEFF 		bl	HAL_PCD_EP_DB_Receive
 1198 03ca 0746     		mov	r7, r0
 1199 03cc 8BE7     		b	.L108
 1200              	.L110:
 1201 03ce B0F85030 		ldrh	r3, [r0, #80]
 1202 03d2 9BB2     		uxth	r3, r3
 1203 03d4 03EBC203 		add	r3, r3, r2, lsl #3
 1204 03d8 0633     		adds	r3, r3, #6
 1205 03da 00EB4303 		add	r3, r0, r3, lsl #1
 1206 03de B3F80074 		ldrh	r7, [r3, #1024]
 1207 03e2 C7F30907 		ubfx	r7, r7, #0, #10
 1208 03e6 002F     		cmp	r7, #0
 1209 03e8 3FF47DAF 		beq	.L108
 1210 03ec 04EB8401 		add	r1, r4, r4, lsl #2
 1211 03f0 05EBC101 		add	r1, r5, r1, lsl #3
 1212 03f4 3B46     		mov	r3, r7
 1213 03f6 B1F85A21 		ldrh	r2, [r1, #346]
 1214 03fa D1F86411 		ldr	r1, [r1, #356]
 1215 03fe FFF7FEFF 		bl	USB_ReadPMA
 1216 0402 70E7     		b	.L108
 1217              	.L112:
 1218 0404 4146     		mov	r1, r8
 1219 0406 2868     		ldr	r0, [r5]
 1220 0408 FFF7FEFF 		bl	USB_EPStartXfer
 1221 040c EDE6     		b	.L106
 1222              	.L128:
ARM GAS  /tmp/ccB1whAW.s 			page 22


 1223 040e 631C     		adds	r3, r4, #1
 1224 0410 03EB8303 		add	r3, r3, r3, lsl #2
 1225 0414 DB00     		lsls	r3, r3, #3
 1226 0416 0022     		movs	r2, #0
 1227 0418 EA50     		str	r2, [r5, r3]
 1228 041a 04EB8403 		add	r3, r4, r4, lsl #2
 1229 041e 05EBC303 		add	r3, r5, r3, lsl #3
 1230 0422 1B7F     		ldrb	r3, [r3, #28]	@ zero_extendqisi2
 1231 0424 1BB3     		cbz	r3, .L114
 1232 0426 16F0400F 		tst	r6, #64
 1233 042a 3BD0     		beq	.L115
 1234 042c 04EB8403 		add	r3, r4, r4, lsl #2
 1235 0430 05EBC303 		add	r3, r5, r3, lsl #3
 1236 0434 5B7C     		ldrb	r3, [r3, #17]	@ zero_extendqisi2
 1237 0436 1BBB     		cbnz	r3, .L116
 1238 0438 2B68     		ldr	r3, [r5]
 1239 043a B3F85020 		ldrh	r2, [r3, #80]
 1240 043e 92B2     		uxth	r2, r2
 1241 0440 1344     		add	r3, r3, r2
 1242 0442 04EB8402 		add	r2, r4, r4, lsl #2
 1243 0446 05EBC202 		add	r2, r5, r2, lsl #3
 1244 044a 127C     		ldrb	r2, [r2, #16]	@ zero_extendqisi2
 1245 044c 03EB0213 		add	r3, r3, r2, lsl #4
 1246 0450 B3F80424 		ldrh	r2, [r3, #1028]
 1247 0454 C2F30902 		ubfx	r2, r2, #0, #10
 1248 0458 A3F80424 		strh	r2, [r3, #1028]	@ movhi
 1249 045c B3F80424 		ldrh	r2, [r3, #1028]
 1250 0460 6FEA4242 		mvn	r2, r2, lsl #17
 1251 0464 6FEA5242 		mvn	r2, r2, lsr #17
 1252 0468 92B2     		uxth	r2, r2
 1253 046a A3F80424 		strh	r2, [r3, #1028]	@ movhi
 1254              	.L114:
 1255 046e 04EB8404 		add	r4, r4, r4, lsl #2
 1256 0472 05EBC404 		add	r4, r5, r4, lsl #3
 1257 0476 217C     		ldrb	r1, [r4, #16]	@ zero_extendqisi2
 1258 0478 2846     		mov	r0, r5
 1259 047a FFF7FEFF 		bl	HAL_PCD_DataInStageCallback
 1260 047e C2E5     		b	.L95
 1261              	.L116:
 1262 0480 012B     		cmp	r3, #1
 1263 0482 F4D1     		bne	.L114
 1264 0484 2B68     		ldr	r3, [r5]
 1265 0486 B3F85020 		ldrh	r2, [r3, #80]
 1266 048a 92B2     		uxth	r2, r2
 1267 048c 1344     		add	r3, r3, r2
 1268 048e 04EB8402 		add	r2, r4, r4, lsl #2
 1269 0492 05EBC202 		add	r2, r5, r2, lsl #3
 1270 0496 127C     		ldrb	r2, [r2, #16]	@ zero_extendqisi2
 1271 0498 03EB0213 		add	r3, r3, r2, lsl #4
 1272 049c 0022     		movs	r2, #0
 1273 049e A3F80424 		strh	r2, [r3, #1028]	@ movhi
 1274 04a2 E4E7     		b	.L114
 1275              	.L115:
 1276 04a4 2B68     		ldr	r3, [r5]
 1277 04a6 04EB8402 		add	r2, r4, r4, lsl #2
 1278 04aa 05EBC202 		add	r2, r5, r2, lsl #3
 1279 04ae 527C     		ldrb	r2, [r2, #17]	@ zero_extendqisi2
ARM GAS  /tmp/ccB1whAW.s 			page 23


 1280 04b0 D2B9     		cbnz	r2, .L117
 1281 04b2 B3F85020 		ldrh	r2, [r3, #80]
 1282 04b6 92B2     		uxth	r2, r2
 1283 04b8 1344     		add	r3, r3, r2
 1284 04ba 04EB8402 		add	r2, r4, r4, lsl #2
 1285 04be 05EBC202 		add	r2, r5, r2, lsl #3
 1286 04c2 127C     		ldrb	r2, [r2, #16]	@ zero_extendqisi2
 1287 04c4 03EB0213 		add	r3, r3, r2, lsl #4
 1288 04c8 B3F80C24 		ldrh	r2, [r3, #1036]
 1289 04cc C2F30902 		ubfx	r2, r2, #0, #10
 1290 04d0 A3F80C24 		strh	r2, [r3, #1036]	@ movhi
 1291 04d4 B3F80C24 		ldrh	r2, [r3, #1036]
 1292 04d8 6FEA4242 		mvn	r2, r2, lsl #17
 1293 04dc 6FEA5242 		mvn	r2, r2, lsr #17
 1294 04e0 92B2     		uxth	r2, r2
 1295 04e2 A3F80C24 		strh	r2, [r3, #1036]	@ movhi
 1296 04e6 C2E7     		b	.L114
 1297              	.L117:
 1298 04e8 012A     		cmp	r2, #1
 1299 04ea C0D1     		bne	.L114
 1300 04ec B3F85020 		ldrh	r2, [r3, #80]
 1301 04f0 92B2     		uxth	r2, r2
 1302 04f2 1344     		add	r3, r3, r2
 1303 04f4 04EB8402 		add	r2, r4, r4, lsl #2
 1304 04f8 05EBC202 		add	r2, r5, r2, lsl #3
 1305 04fc 127C     		ldrb	r2, [r2, #16]	@ zero_extendqisi2
 1306 04fe 03EB0213 		add	r3, r3, r2, lsl #4
 1307 0502 0022     		movs	r2, #0
 1308 0504 A3F80C24 		strh	r2, [r3, #1036]	@ movhi
 1309 0508 B1E7     		b	.L114
 1310              	.L119:
 1311 050a 621C     		adds	r2, r4, #1
 1312 050c 02EB8202 		add	r2, r2, r2, lsl #2
 1313 0510 D200     		lsls	r2, r2, #3
 1314 0512 0027     		movs	r7, #0
 1315 0514 AF50     		str	r7, [r5, r2]
 1316 0516 ACE6     		b	.L120
 1317              	.L121:
 1318 0518 04EB8402 		add	r2, r4, r4, lsl #2
 1319 051c 05EBC202 		add	r2, r5, r2, lsl #3
 1320 0520 566A     		ldr	r6, [r2, #36]
 1321 0522 1E44     		add	r6, r6, r3
 1322 0524 5662     		str	r6, [r2, #36]
 1323 0526 0134     		adds	r4, r4, #1
 1324 0528 04EB8402 		add	r2, r4, r4, lsl #2
 1325 052c 05EBC202 		add	r2, r5, r2, lsl #3
 1326 0530 5268     		ldr	r2, [r2, #4]
 1327 0532 04EB8404 		add	r4, r4, r4, lsl #2
 1328 0536 05EBC404 		add	r4, r5, r4, lsl #3
 1329 053a 1344     		add	r3, r3, r2
 1330 053c 6360     		str	r3, [r4, #4]
 1331 053e FFF7FEFF 		bl	USB_EPStartXfer
 1332 0542 60E5     		b	.L95
 1333              	.L118:
 1334 0544 3246     		mov	r2, r6
 1335 0546 2846     		mov	r0, r5
 1336 0548 FFF7FEFF 		bl	HAL_PCD_EP_DB_Transmit
ARM GAS  /tmp/ccB1whAW.s 			page 24


 1337 054c 5BE5     		b	.L95
 1338              	.L124:
 1339 054e 0020     		movs	r0, #0
 1340 0550 BDE8F081 		pop	{r4, r5, r6, r7, r8, pc}
 1342              		.section	.text.HAL_PCD_SOFCallback,"ax",%progbits
 1343              		.align	1
 1344              		.weak	HAL_PCD_SOFCallback
 1345              		.syntax unified
 1346              		.thumb
 1347              		.thumb_func
 1349              	HAL_PCD_SOFCallback:
 1350              		@ args = 0, pretend = 0, frame = 0
 1351              		@ frame_needed = 0, uses_anonymous_args = 0
 1352              		@ link register save eliminated.
 1353 0000 7047     		bx	lr
 1355              		.section	.text.HAL_PCD_ResetCallback,"ax",%progbits
 1356              		.align	1
 1357              		.weak	HAL_PCD_ResetCallback
 1358              		.syntax unified
 1359              		.thumb
 1360              		.thumb_func
 1362              	HAL_PCD_ResetCallback:
 1363              		@ args = 0, pretend = 0, frame = 0
 1364              		@ frame_needed = 0, uses_anonymous_args = 0
 1365              		@ link register save eliminated.
 1366 0000 7047     		bx	lr
 1368              		.section	.text.HAL_PCD_SuspendCallback,"ax",%progbits
 1369              		.align	1
 1370              		.weak	HAL_PCD_SuspendCallback
 1371              		.syntax unified
 1372              		.thumb
 1373              		.thumb_func
 1375              	HAL_PCD_SuspendCallback:
 1376              		@ args = 0, pretend = 0, frame = 0
 1377              		@ frame_needed = 0, uses_anonymous_args = 0
 1378              		@ link register save eliminated.
 1379 0000 7047     		bx	lr
 1381              		.section	.text.HAL_PCD_ResumeCallback,"ax",%progbits
 1382              		.align	1
 1383              		.weak	HAL_PCD_ResumeCallback
 1384              		.syntax unified
 1385              		.thumb
 1386              		.thumb_func
 1388              	HAL_PCD_ResumeCallback:
 1389              		@ args = 0, pretend = 0, frame = 0
 1390              		@ frame_needed = 0, uses_anonymous_args = 0
 1391              		@ link register save eliminated.
 1392 0000 7047     		bx	lr
 1394              		.section	.text.HAL_PCD_ISOOUTIncompleteCallback,"ax",%progbits
 1395              		.align	1
 1396              		.weak	HAL_PCD_ISOOUTIncompleteCallback
 1397              		.syntax unified
 1398              		.thumb
 1399              		.thumb_func
 1401              	HAL_PCD_ISOOUTIncompleteCallback:
 1402              		@ args = 0, pretend = 0, frame = 0
 1403              		@ frame_needed = 0, uses_anonymous_args = 0
ARM GAS  /tmp/ccB1whAW.s 			page 25


 1404              		@ link register save eliminated.
 1405 0000 7047     		bx	lr
 1407              		.section	.text.HAL_PCD_ISOINIncompleteCallback,"ax",%progbits
 1408              		.align	1
 1409              		.weak	HAL_PCD_ISOINIncompleteCallback
 1410              		.syntax unified
 1411              		.thumb
 1412              		.thumb_func
 1414              	HAL_PCD_ISOINIncompleteCallback:
 1415              		@ args = 0, pretend = 0, frame = 0
 1416              		@ frame_needed = 0, uses_anonymous_args = 0
 1417              		@ link register save eliminated.
 1418 0000 7047     		bx	lr
 1420              		.section	.text.HAL_PCD_ConnectCallback,"ax",%progbits
 1421              		.align	1
 1422              		.weak	HAL_PCD_ConnectCallback
 1423              		.syntax unified
 1424              		.thumb
 1425              		.thumb_func
 1427              	HAL_PCD_ConnectCallback:
 1428              		@ args = 0, pretend = 0, frame = 0
 1429              		@ frame_needed = 0, uses_anonymous_args = 0
 1430              		@ link register save eliminated.
 1431 0000 7047     		bx	lr
 1433              		.section	.text.HAL_PCD_DisconnectCallback,"ax",%progbits
 1434              		.align	1
 1435              		.weak	HAL_PCD_DisconnectCallback
 1436              		.syntax unified
 1437              		.thumb
 1438              		.thumb_func
 1440              	HAL_PCD_DisconnectCallback:
 1441              		@ args = 0, pretend = 0, frame = 0
 1442              		@ frame_needed = 0, uses_anonymous_args = 0
 1443              		@ link register save eliminated.
 1444 0000 7047     		bx	lr
 1446              		.section	.text.HAL_PCD_DevConnect,"ax",%progbits
 1447              		.align	1
 1448              		.global	HAL_PCD_DevConnect
 1449              		.syntax unified
 1450              		.thumb
 1451              		.thumb_func
 1453              	HAL_PCD_DevConnect:
 1454              		@ args = 0, pretend = 0, frame = 0
 1455              		@ frame_needed = 0, uses_anonymous_args = 0
 1456 0000 90F89032 		ldrb	r3, [r0, #656]	@ zero_extendqisi2
 1457 0004 012B     		cmp	r3, #1
 1458 0006 0DD0     		beq	.L141
 1459 0008 10B5     		push	{r4, lr}
 1460 000a 0446     		mov	r4, r0
 1461 000c 0121     		movs	r1, #1
 1462 000e 80F89012 		strb	r1, [r0, #656]
 1463 0012 FFF7FEFF 		bl	HAL_PCDEx_SetConnectionState
 1464 0016 2068     		ldr	r0, [r4]
 1465 0018 FFF7FEFF 		bl	USB_DevConnect
 1466 001c 0020     		movs	r0, #0
 1467 001e 84F89002 		strb	r0, [r4, #656]
 1468 0022 10BD     		pop	{r4, pc}
ARM GAS  /tmp/ccB1whAW.s 			page 26


 1469              	.L141:
 1470 0024 0220     		movs	r0, #2
 1471 0026 7047     		bx	lr
 1473              		.section	.text.HAL_PCD_DevDisconnect,"ax",%progbits
 1474              		.align	1
 1475              		.global	HAL_PCD_DevDisconnect
 1476              		.syntax unified
 1477              		.thumb
 1478              		.thumb_func
 1480              	HAL_PCD_DevDisconnect:
 1481              		@ args = 0, pretend = 0, frame = 0
 1482              		@ frame_needed = 0, uses_anonymous_args = 0
 1483 0000 90F89032 		ldrb	r3, [r0, #656]	@ zero_extendqisi2
 1484 0004 012B     		cmp	r3, #1
 1485 0006 0ED0     		beq	.L148
 1486 0008 10B5     		push	{r4, lr}
 1487 000a 0446     		mov	r4, r0
 1488 000c 0123     		movs	r3, #1
 1489 000e 80F89032 		strb	r3, [r0, #656]
 1490 0012 0021     		movs	r1, #0
 1491 0014 FFF7FEFF 		bl	HAL_PCDEx_SetConnectionState
 1492 0018 2068     		ldr	r0, [r4]
 1493 001a FFF7FEFF 		bl	USB_DevDisconnect
 1494 001e 0020     		movs	r0, #0
 1495 0020 84F89002 		strb	r0, [r4, #656]
 1496 0024 10BD     		pop	{r4, pc}
 1497              	.L148:
 1498 0026 0220     		movs	r0, #2
 1499 0028 7047     		bx	lr
 1501              		.section	.text.HAL_PCD_SetAddress,"ax",%progbits
 1502              		.align	1
 1503              		.global	HAL_PCD_SetAddress
 1504              		.syntax unified
 1505              		.thumb
 1506              		.thumb_func
 1508              	HAL_PCD_SetAddress:
 1509              		@ args = 0, pretend = 0, frame = 0
 1510              		@ frame_needed = 0, uses_anonymous_args = 0
 1511 0000 90F89032 		ldrb	r3, [r0, #656]	@ zero_extendqisi2
 1512 0004 012B     		cmp	r3, #1
 1513 0006 0CD0     		beq	.L155
 1514 0008 10B5     		push	{r4, lr}
 1515 000a 0446     		mov	r4, r0
 1516 000c 0123     		movs	r3, #1
 1517 000e 80F89032 		strb	r3, [r0, #656]
 1518 0012 4173     		strb	r1, [r0, #13]
 1519 0014 0068     		ldr	r0, [r0]
 1520 0016 FFF7FEFF 		bl	USB_SetDevAddress
 1521 001a 0020     		movs	r0, #0
 1522 001c 84F89002 		strb	r0, [r4, #656]
 1523 0020 10BD     		pop	{r4, pc}
 1524              	.L155:
 1525 0022 0220     		movs	r0, #2
 1526 0024 7047     		bx	lr
 1528              		.section	.text.HAL_PCD_IRQHandler,"ax",%progbits
 1529              		.align	1
 1530              		.global	HAL_PCD_IRQHandler
ARM GAS  /tmp/ccB1whAW.s 			page 27


 1531              		.syntax unified
 1532              		.thumb
 1533              		.thumb_func
 1535              	HAL_PCD_IRQHandler:
 1536              		@ args = 0, pretend = 0, frame = 16
 1537              		@ frame_needed = 0, uses_anonymous_args = 0
 1538 0000 10B5     		push	{r4, lr}
 1539 0002 84B0     		sub	sp, sp, #16
 1540 0004 0446     		mov	r4, r0
 1541 0006 0068     		ldr	r0, [r0]
 1542 0008 FFF7FEFF 		bl	USB_ReadInterrupts
 1543 000c 10F4004F 		tst	r0, #32768
 1544 0010 20D1     		bne	.L179
 1545 0012 10F4806F 		tst	r0, #1024
 1546 0016 21D1     		bne	.L180
 1547 0018 10F4804F 		tst	r0, #16384
 1548 001c 2FD1     		bne	.L181
 1549 001e 10F4005F 		tst	r0, #8192
 1550 0022 37D1     		bne	.L182
 1551 0024 10F4805F 		tst	r0, #4096
 1552 0028 3ED1     		bne	.L183
 1553 002a 10F4006F 		tst	r0, #2048
 1554 002e 40F08780 		bne	.L184
 1555 0032 10F4007F 		tst	r0, #512
 1556 0036 40F0AE80 		bne	.L185
 1557 003a 10F4807F 		tst	r0, #256
 1558 003e 27D0     		beq	.L160
 1559 0040 2268     		ldr	r2, [r4]
 1560 0042 B2F84430 		ldrh	r3, [r2, #68]
 1561 0046 9BB2     		uxth	r3, r3
 1562 0048 23F48073 		bic	r3, r3, #256
 1563 004c 9BB2     		uxth	r3, r3
 1564 004e A2F84430 		strh	r3, [r2, #68]	@ movhi
 1565 0052 1DE0     		b	.L160
 1566              	.L179:
 1567 0054 2046     		mov	r0, r4
 1568 0056 FFF7FEFF 		bl	PCD_EP_ISR_Handler
 1569 005a 19E0     		b	.L160
 1570              	.L180:
 1571 005c 2268     		ldr	r2, [r4]
 1572 005e B2F84430 		ldrh	r3, [r2, #68]
 1573 0062 9BB2     		uxth	r3, r3
 1574 0064 23F48063 		bic	r3, r3, #1024
 1575 0068 9BB2     		uxth	r3, r3
 1576 006a A2F84430 		strh	r3, [r2, #68]	@ movhi
 1577 006e 2046     		mov	r0, r4
 1578 0070 FFF7FEFF 		bl	HAL_PCD_ResetCallback
 1579 0074 0021     		movs	r1, #0
 1580 0076 2046     		mov	r0, r4
 1581 0078 FFF7FEFF 		bl	HAL_PCD_SetAddress
 1582 007c 08E0     		b	.L160
 1583              	.L181:
 1584 007e 2268     		ldr	r2, [r4]
 1585 0080 B2F84430 		ldrh	r3, [r2, #68]
 1586 0084 9BB2     		uxth	r3, r3
 1587 0086 23F48043 		bic	r3, r3, #16384
 1588 008a 9BB2     		uxth	r3, r3
ARM GAS  /tmp/ccB1whAW.s 			page 28


 1589 008c A2F84430 		strh	r3, [r2, #68]	@ movhi
 1590              	.L160:
 1591 0090 04B0     		add	sp, sp, #16
 1592              		@ sp needed
 1593 0092 10BD     		pop	{r4, pc}
 1594              	.L182:
 1595 0094 2268     		ldr	r2, [r4]
 1596 0096 B2F84430 		ldrh	r3, [r2, #68]
 1597 009a 9BB2     		uxth	r3, r3
 1598 009c 23F40053 		bic	r3, r3, #8192
 1599 00a0 9BB2     		uxth	r3, r3
 1600 00a2 A2F84430 		strh	r3, [r2, #68]	@ movhi
 1601 00a6 F3E7     		b	.L160
 1602              	.L183:
 1603 00a8 2268     		ldr	r2, [r4]
 1604 00aa B2F84030 		ldrh	r3, [r2, #64]
 1605 00ae 9BB2     		uxth	r3, r3
 1606 00b0 23F00403 		bic	r3, r3, #4
 1607 00b4 9BB2     		uxth	r3, r3
 1608 00b6 A2F84030 		strh	r3, [r2, #64]	@ movhi
 1609 00ba 2268     		ldr	r2, [r4]
 1610 00bc B2F84030 		ldrh	r3, [r2, #64]
 1611 00c0 9BB2     		uxth	r3, r3
 1612 00c2 23F00803 		bic	r3, r3, #8
 1613 00c6 9BB2     		uxth	r3, r3
 1614 00c8 A2F84030 		strh	r3, [r2, #64]	@ movhi
 1615 00cc 2046     		mov	r0, r4
 1616 00ce FFF7FEFF 		bl	HAL_PCD_ResumeCallback
 1617 00d2 2268     		ldr	r2, [r4]
 1618 00d4 B2F84430 		ldrh	r3, [r2, #68]
 1619 00d8 9BB2     		uxth	r3, r3
 1620 00da 23F48053 		bic	r3, r3, #4096
 1621 00de 9BB2     		uxth	r3, r3
 1622 00e0 A2F84430 		strh	r3, [r2, #68]	@ movhi
 1623 00e4 D4E7     		b	.L160
 1624              	.L169:
 1625 00e6 2268     		ldr	r2, [r4]
 1626 00e8 32F82310 		ldrh	r1, [r2, r3, lsl #2]
 1627 00ec 04AA     		add	r2, sp, #16
 1628 00ee 02EB4302 		add	r2, r2, r3, lsl #1
 1629 00f2 22F8101C 		strh	r1, [r2, #-16]	@ movhi
 1630 00f6 0133     		adds	r3, r3, #1
 1631 00f8 DBB2     		uxtb	r3, r3
 1632              	.L167:
 1633 00fa 072B     		cmp	r3, #7
 1634 00fc F3D9     		bls	.L169
 1635 00fe 2268     		ldr	r2, [r4]
 1636 0100 B2F84030 		ldrh	r3, [r2, #64]
 1637 0104 9BB2     		uxth	r3, r3
 1638 0106 43F00103 		orr	r3, r3, #1
 1639 010a A2F84030 		strh	r3, [r2, #64]	@ movhi
 1640 010e 2268     		ldr	r2, [r4]
 1641 0110 B2F84030 		ldrh	r3, [r2, #64]
 1642 0114 9BB2     		uxth	r3, r3
 1643 0116 23F00103 		bic	r3, r3, #1
 1644 011a 9BB2     		uxth	r3, r3
 1645 011c A2F84030 		strh	r3, [r2, #64]	@ movhi
ARM GAS  /tmp/ccB1whAW.s 			page 29


 1646              	.L170:
 1647 0120 2368     		ldr	r3, [r4]
 1648 0122 B3F84420 		ldrh	r2, [r3, #68]
 1649 0126 12F4806F 		tst	r2, #1024
 1650 012a F9D0     		beq	.L170
 1651 012c B3F84420 		ldrh	r2, [r3, #68]
 1652 0130 92B2     		uxth	r2, r2
 1653 0132 22F48062 		bic	r2, r2, #1024
 1654 0136 92B2     		uxth	r2, r2
 1655 0138 A3F84420 		strh	r2, [r3, #68]	@ movhi
 1656 013c 0023     		movs	r3, #0
 1657 013e 0BE0     		b	.L171
 1658              	.L184:
 1659 0140 0023     		movs	r3, #0
 1660 0142 DAE7     		b	.L167
 1661              	.L172:
 1662 0144 2268     		ldr	r2, [r4]
 1663 0146 04A9     		add	r1, sp, #16
 1664 0148 01EB4301 		add	r1, r1, r3, lsl #1
 1665 014c 31F8101C 		ldrh	r1, [r1, #-16]
 1666 0150 22F82310 		strh	r1, [r2, r3, lsl #2]	@ movhi
 1667 0154 0133     		adds	r3, r3, #1
 1668 0156 DBB2     		uxtb	r3, r3
 1669              	.L171:
 1670 0158 072B     		cmp	r3, #7
 1671 015a F3D9     		bls	.L172
 1672 015c 2268     		ldr	r2, [r4]
 1673 015e B2F84030 		ldrh	r3, [r2, #64]
 1674 0162 9BB2     		uxth	r3, r3
 1675 0164 43F00803 		orr	r3, r3, #8
 1676 0168 A2F84030 		strh	r3, [r2, #64]	@ movhi
 1677 016c 2268     		ldr	r2, [r4]
 1678 016e B2F84430 		ldrh	r3, [r2, #68]
 1679 0172 9BB2     		uxth	r3, r3
 1680 0174 23F40063 		bic	r3, r3, #2048
 1681 0178 9BB2     		uxth	r3, r3
 1682 017a A2F84430 		strh	r3, [r2, #68]	@ movhi
 1683 017e 2268     		ldr	r2, [r4]
 1684 0180 B2F84030 		ldrh	r3, [r2, #64]
 1685 0184 9BB2     		uxth	r3, r3
 1686 0186 43F00403 		orr	r3, r3, #4
 1687 018a A2F84030 		strh	r3, [r2, #64]	@ movhi
 1688 018e 2046     		mov	r0, r4
 1689 0190 FFF7FEFF 		bl	HAL_PCD_SuspendCallback
 1690 0194 7CE7     		b	.L160
 1691              	.L185:
 1692 0196 2268     		ldr	r2, [r4]
 1693 0198 B2F84430 		ldrh	r3, [r2, #68]
 1694 019c 9BB2     		uxth	r3, r3
 1695 019e 23F40073 		bic	r3, r3, #512
 1696 01a2 9BB2     		uxth	r3, r3
 1697 01a4 A2F84430 		strh	r3, [r2, #68]	@ movhi
 1698 01a8 2046     		mov	r0, r4
 1699 01aa FFF7FEFF 		bl	HAL_PCD_SOFCallback
 1700 01ae 6FE7     		b	.L160
 1702              		.section	.text.HAL_PCD_EP_Open,"ax",%progbits
 1703              		.align	1
ARM GAS  /tmp/ccB1whAW.s 			page 30


 1704              		.global	HAL_PCD_EP_Open
 1705              		.syntax unified
 1706              		.thumb
 1707              		.thumb_func
 1709              	HAL_PCD_EP_Open:
 1710              		@ args = 0, pretend = 0, frame = 0
 1711              		@ frame_needed = 0, uses_anonymous_args = 0
 1712 0000 10B5     		push	{r4, lr}
 1713 0002 0446     		mov	r4, r0
 1714 0004 0846     		mov	r0, r1
 1715 0006 11F0800F 		tst	r1, #128
 1716 000a 26D1     		bne	.L193
 1717 000c 01F0070C 		and	ip, r1, #7
 1718 0010 0CEB8C0E 		add	lr, ip, ip, lsl #2
 1719 0014 4FEACE0E 		lsl	lr, lr, #3
 1720 0018 0EF5A87E 		add	lr, lr, #336
 1721 001c 04EB0E01 		add	r1, r4, lr
 1722 0020 0CEB8C0C 		add	ip, ip, ip, lsl #2
 1723 0024 04EBCC0C 		add	ip, r4, ip, lsl #3
 1724 0028 4FF0000E 		mov	lr, #0
 1725 002c 8CF851E1 		strb	lr, [ip, #337]
 1726              	.L188:
 1727 0030 00F00700 		and	r0, r0, #7
 1728 0034 0870     		strb	r0, [r1]
 1729 0036 0A61     		str	r2, [r1, #16]
 1730 0038 CB70     		strb	r3, [r1, #3]
 1731 003a 022B     		cmp	r3, #2
 1732 003c 1DD0     		beq	.L194
 1733              	.L189:
 1734 003e 94F89032 		ldrb	r3, [r4, #656]	@ zero_extendqisi2
 1735 0042 012B     		cmp	r3, #1
 1736 0044 1CD0     		beq	.L191
 1737 0046 0123     		movs	r3, #1
 1738 0048 84F89032 		strb	r3, [r4, #656]
 1739 004c 2068     		ldr	r0, [r4]
 1740 004e FFF7FEFF 		bl	USB_ActivateEndpoint
 1741 0052 0020     		movs	r0, #0
 1742 0054 84F89002 		strb	r0, [r4, #656]
 1743              	.L190:
 1744 0058 10BD     		pop	{r4, pc}
 1745              	.L193:
 1746 005a 01F0070C 		and	ip, r1, #7
 1747 005e 0CEB8C01 		add	r1, ip, ip, lsl #2
 1748 0062 C900     		lsls	r1, r1, #3
 1749 0064 1031     		adds	r1, r1, #16
 1750 0066 2144     		add	r1, r1, r4
 1751 0068 0CEB8C0C 		add	ip, ip, ip, lsl #2
 1752 006c 04EBCC0C 		add	ip, r4, ip, lsl #3
 1753 0070 4FF0010E 		mov	lr, #1
 1754 0074 8CF811E0 		strb	lr, [ip, #17]
 1755 0078 DAE7     		b	.L188
 1756              	.L194:
 1757 007a 0023     		movs	r3, #0
 1758 007c 0B71     		strb	r3, [r1, #4]
 1759 007e DEE7     		b	.L189
 1760              	.L191:
 1761 0080 0220     		movs	r0, #2
ARM GAS  /tmp/ccB1whAW.s 			page 31


 1762 0082 E9E7     		b	.L190
 1764              		.section	.text.HAL_PCD_EP_Close,"ax",%progbits
 1765              		.align	1
 1766              		.global	HAL_PCD_EP_Close
 1767              		.syntax unified
 1768              		.thumb
 1769              		.thumb_func
 1771              	HAL_PCD_EP_Close:
 1772              		@ args = 0, pretend = 0, frame = 0
 1773              		@ frame_needed = 0, uses_anonymous_args = 0
 1774 0000 10B5     		push	{r4, lr}
 1775 0002 0446     		mov	r4, r0
 1776 0004 0A46     		mov	r2, r1
 1777 0006 11F0800F 		tst	r1, #128
 1778 000a 1FD1     		bne	.L201
 1779 000c 01F00700 		and	r0, r1, #7
 1780 0010 00EB8003 		add	r3, r0, r0, lsl #2
 1781 0014 DB00     		lsls	r3, r3, #3
 1782 0016 03F5A873 		add	r3, r3, #336
 1783 001a E118     		adds	r1, r4, r3
 1784 001c 00EB8000 		add	r0, r0, r0, lsl #2
 1785 0020 04EBC000 		add	r0, r4, r0, lsl #3
 1786 0024 0023     		movs	r3, #0
 1787 0026 80F85131 		strb	r3, [r0, #337]
 1788              	.L197:
 1789 002a 02F00702 		and	r2, r2, #7
 1790 002e 0A70     		strb	r2, [r1]
 1791 0030 94F89032 		ldrb	r3, [r4, #656]	@ zero_extendqisi2
 1792 0034 012B     		cmp	r3, #1
 1793 0036 17D0     		beq	.L199
 1794 0038 0123     		movs	r3, #1
 1795 003a 84F89032 		strb	r3, [r4, #656]
 1796 003e 2068     		ldr	r0, [r4]
 1797 0040 FFF7FEFF 		bl	USB_DeactivateEndpoint
 1798 0044 0020     		movs	r0, #0
 1799 0046 84F89002 		strb	r0, [r4, #656]
 1800              	.L198:
 1801 004a 10BD     		pop	{r4, pc}
 1802              	.L201:
 1803 004c 01F00700 		and	r0, r1, #7
 1804 0050 00EB8003 		add	r3, r0, r0, lsl #2
 1805 0054 DB00     		lsls	r3, r3, #3
 1806 0056 1033     		adds	r3, r3, #16
 1807 0058 E118     		adds	r1, r4, r3
 1808 005a 00EB8000 		add	r0, r0, r0, lsl #2
 1809 005e 04EBC000 		add	r0, r4, r0, lsl #3
 1810 0062 0123     		movs	r3, #1
 1811 0064 4374     		strb	r3, [r0, #17]
 1812 0066 E0E7     		b	.L197
 1813              	.L199:
 1814 0068 0220     		movs	r0, #2
 1815 006a EEE7     		b	.L198
 1817              		.section	.text.HAL_PCD_EP_Receive,"ax",%progbits
 1818              		.align	1
 1819              		.global	HAL_PCD_EP_Receive
 1820              		.syntax unified
 1821              		.thumb
ARM GAS  /tmp/ccB1whAW.s 			page 32


 1822              		.thumb_func
 1824              	HAL_PCD_EP_Receive:
 1825              		@ args = 0, pretend = 0, frame = 0
 1826              		@ frame_needed = 0, uses_anonymous_args = 0
 1827 0000 10B5     		push	{r4, lr}
 1828 0002 01F0070C 		and	ip, r1, #7
 1829 0006 0CEB8C01 		add	r1, ip, ip, lsl #2
 1830 000a C900     		lsls	r1, r1, #3
 1831 000c 01F5A871 		add	r1, r1, #336
 1832 0010 0CEB8C0E 		add	lr, ip, ip, lsl #2
 1833 0014 00EBCE0E 		add	lr, r0, lr, lsl #3
 1834 0018 CEF86421 		str	r2, [lr, #356]
 1835 001c CEF86831 		str	r3, [lr, #360]
 1836 0020 0024     		movs	r4, #0
 1837 0022 CEF86C41 		str	r4, [lr, #364]
 1838 0026 8EF85141 		strb	r4, [lr, #337]
 1839 002a 8EF850C1 		strb	ip, [lr, #336]
 1840 002e 0144     		add	r1, r1, r0
 1841 0030 0068     		ldr	r0, [r0]
 1842 0032 FFF7FEFF 		bl	USB_EPStartXfer
 1843 0036 2046     		mov	r0, r4
 1844 0038 10BD     		pop	{r4, pc}
 1846              		.section	.text.HAL_PCD_EP_GetRxCount,"ax",%progbits
 1847              		.align	1
 1848              		.global	HAL_PCD_EP_GetRxCount
 1849              		.syntax unified
 1850              		.thumb
 1851              		.thumb_func
 1853              	HAL_PCD_EP_GetRxCount:
 1854              		@ args = 0, pretend = 0, frame = 0
 1855              		@ frame_needed = 0, uses_anonymous_args = 0
 1856              		@ link register save eliminated.
 1857 0000 01F00701 		and	r1, r1, #7
 1858 0004 01EB8101 		add	r1, r1, r1, lsl #2
 1859 0008 00EBC100 		add	r0, r0, r1, lsl #3
 1860 000c D0F86C01 		ldr	r0, [r0, #364]
 1861 0010 7047     		bx	lr
 1863              		.section	.text.HAL_PCD_EP_Transmit,"ax",%progbits
 1864              		.align	1
 1865              		.global	HAL_PCD_EP_Transmit
 1866              		.syntax unified
 1867              		.thumb
 1868              		.thumb_func
 1870              	HAL_PCD_EP_Transmit:
 1871              		@ args = 0, pretend = 0, frame = 0
 1872              		@ frame_needed = 0, uses_anonymous_args = 0
 1873 0000 38B5     		push	{r3, r4, r5, lr}
 1874 0002 01F0070C 		and	ip, r1, #7
 1875 0006 0CEB8C01 		add	r1, ip, ip, lsl #2
 1876 000a C900     		lsls	r1, r1, #3
 1877 000c 1031     		adds	r1, r1, #16
 1878 000e 0CEB8C0E 		add	lr, ip, ip, lsl #2
 1879 0012 00EBCE0E 		add	lr, r0, lr, lsl #3
 1880 0016 CEF82420 		str	r2, [lr, #36]
 1881 001a 0CF10102 		add	r2, ip, #1
 1882 001e 02EB8204 		add	r4, r2, r2, lsl #2
 1883 0022 40F83430 		str	r3, [r0, r4, lsl #3]
ARM GAS  /tmp/ccB1whAW.s 			page 33


 1884 0026 0125     		movs	r5, #1
 1885 0028 8EF83450 		strb	r5, [lr, #52]
 1886 002c CEF83030 		str	r3, [lr, #48]
 1887 0030 00EBC402 		add	r2, r0, r4, lsl #3
 1888 0034 0024     		movs	r4, #0
 1889 0036 5460     		str	r4, [r2, #4]
 1890 0038 8EF81150 		strb	r5, [lr, #17]
 1891 003c 8EF810C0 		strb	ip, [lr, #16]
 1892 0040 0144     		add	r1, r1, r0
 1893 0042 0068     		ldr	r0, [r0]
 1894 0044 FFF7FEFF 		bl	USB_EPStartXfer
 1895 0048 2046     		mov	r0, r4
 1896 004a 38BD     		pop	{r3, r4, r5, pc}
 1898              		.section	.text.HAL_PCD_EP_SetStall,"ax",%progbits
 1899              		.align	1
 1900              		.global	HAL_PCD_EP_SetStall
 1901              		.syntax unified
 1902              		.thumb
 1903              		.thumb_func
 1905              	HAL_PCD_EP_SetStall:
 1906              		@ args = 0, pretend = 0, frame = 0
 1907              		@ frame_needed = 0, uses_anonymous_args = 0
 1908 0000 38B5     		push	{r3, r4, r5, lr}
 1909 0002 01F00705 		and	r5, r1, #7
 1910 0006 0279     		ldrb	r2, [r0, #4]	@ zero_extendqisi2
 1911 0008 AA42     		cmp	r2, r5
 1912 000a 35D3     		bcc	.L212
 1913 000c 0446     		mov	r4, r0
 1914 000e 0B46     		mov	r3, r1
 1915 0010 11F0800F 		tst	r1, #128
 1916 0014 1ED1     		bne	.L215
 1917 0016 01EB8101 		add	r1, r1, r1, lsl #2
 1918 001a C900     		lsls	r1, r1, #3
 1919 001c 01F5A871 		add	r1, r1, #336
 1920 0020 0144     		add	r1, r1, r0
 1921 0022 03EB8303 		add	r3, r3, r3, lsl #2
 1922 0026 00EBC303 		add	r3, r0, r3, lsl #3
 1923 002a 0022     		movs	r2, #0
 1924 002c 83F85121 		strb	r2, [r3, #337]
 1925              	.L210:
 1926 0030 0123     		movs	r3, #1
 1927 0032 8B70     		strb	r3, [r1, #2]
 1928 0034 0D70     		strb	r5, [r1]
 1929 0036 94F89032 		ldrb	r3, [r4, #656]	@ zero_extendqisi2
 1930 003a 012B     		cmp	r3, #1
 1931 003c 1ED0     		beq	.L213
 1932 003e 0123     		movs	r3, #1
 1933 0040 84F89032 		strb	r3, [r4, #656]
 1934 0044 2068     		ldr	r0, [r4]
 1935 0046 FFF7FEFF 		bl	USB_EPSetStall
 1936 004a 7DB1     		cbz	r5, .L216
 1937              	.L211:
 1938 004c 0020     		movs	r0, #0
 1939 004e 84F89002 		strb	r0, [r4, #656]
 1940              	.L208:
 1941 0052 38BD     		pop	{r3, r4, r5, pc}
 1942              	.L215:
ARM GAS  /tmp/ccB1whAW.s 			page 34


 1943 0054 05EB8501 		add	r1, r5, r5, lsl #2
 1944 0058 C900     		lsls	r1, r1, #3
 1945 005a 1031     		adds	r1, r1, #16
 1946 005c 0144     		add	r1, r1, r0
 1947 005e 05EB8503 		add	r3, r5, r5, lsl #2
 1948 0062 00EBC303 		add	r3, r0, r3, lsl #3
 1949 0066 0122     		movs	r2, #1
 1950 0068 5A74     		strb	r2, [r3, #17]
 1951 006a E1E7     		b	.L210
 1952              	.L216:
 1953 006c 04F52671 		add	r1, r4, #664
 1954 0070 2068     		ldr	r0, [r4]
 1955 0072 FFF7FEFF 		bl	USB_EP0_OutStart
 1956 0076 E9E7     		b	.L211
 1957              	.L212:
 1958 0078 0120     		movs	r0, #1
 1959 007a EAE7     		b	.L208
 1960              	.L213:
 1961 007c 0220     		movs	r0, #2
 1962 007e E8E7     		b	.L208
 1964              		.section	.text.HAL_PCD_EP_ClrStall,"ax",%progbits
 1965              		.align	1
 1966              		.global	HAL_PCD_EP_ClrStall
 1967              		.syntax unified
 1968              		.thumb
 1969              		.thumb_func
 1971              	HAL_PCD_EP_ClrStall:
 1972              		@ args = 0, pretend = 0, frame = 0
 1973              		@ frame_needed = 0, uses_anonymous_args = 0
 1974 0000 0B46     		mov	r3, r1
 1975 0002 0179     		ldrb	r1, [r0, #4]	@ zero_extendqisi2
 1976 0004 03F00F02 		and	r2, r3, #15
 1977 0008 9142     		cmp	r1, r2
 1978 000a 34D3     		bcc	.L221
 1979 000c 10B5     		push	{r4, lr}
 1980 000e 0446     		mov	r4, r0
 1981 0010 13F0800F 		tst	r3, #128
 1982 0014 21D1     		bne	.L227
 1983 0016 03F00702 		and	r2, r3, #7
 1984 001a 02EB8201 		add	r1, r2, r2, lsl #2
 1985 001e C900     		lsls	r1, r1, #3
 1986 0020 01F5A871 		add	r1, r1, #336
 1987 0024 0144     		add	r1, r1, r0
 1988 0026 02EB8202 		add	r2, r2, r2, lsl #2
 1989 002a 00EBC202 		add	r2, r0, r2, lsl #3
 1990 002e 0020     		movs	r0, #0
 1991 0030 82F85101 		strb	r0, [r2, #337]
 1992              	.L220:
 1993 0034 0022     		movs	r2, #0
 1994 0036 8A70     		strb	r2, [r1, #2]
 1995 0038 03F00703 		and	r3, r3, #7
 1996 003c 0B70     		strb	r3, [r1]
 1997 003e 94F89032 		ldrb	r3, [r4, #656]	@ zero_extendqisi2
 1998 0042 012B     		cmp	r3, #1
 1999 0044 19D0     		beq	.L222
 2000 0046 0123     		movs	r3, #1
 2001 0048 84F89032 		strb	r3, [r4, #656]
ARM GAS  /tmp/ccB1whAW.s 			page 35


 2002 004c 2068     		ldr	r0, [r4]
 2003 004e FFF7FEFF 		bl	USB_EPClearStall
 2004 0052 0020     		movs	r0, #0
 2005 0054 84F89002 		strb	r0, [r4, #656]
 2006              	.L218:
 2007 0058 10BD     		pop	{r4, pc}
 2008              	.L227:
 2009 005a 03F00702 		and	r2, r3, #7
 2010 005e 02EB8201 		add	r1, r2, r2, lsl #2
 2011 0062 C900     		lsls	r1, r1, #3
 2012 0064 1031     		adds	r1, r1, #16
 2013 0066 0144     		add	r1, r1, r0
 2014 0068 02EB8202 		add	r2, r2, r2, lsl #2
 2015 006c 00EBC202 		add	r2, r0, r2, lsl #3
 2016 0070 0120     		movs	r0, #1
 2017 0072 5074     		strb	r0, [r2, #17]
 2018 0074 DEE7     		b	.L220
 2019              	.L221:
 2020 0076 0120     		movs	r0, #1
 2021 0078 7047     		bx	lr
 2022              	.L222:
 2023 007a 0220     		movs	r0, #2
 2024 007c ECE7     		b	.L218
 2026              		.section	.text.HAL_PCD_EP_Abort,"ax",%progbits
 2027              		.align	1
 2028              		.global	HAL_PCD_EP_Abort
 2029              		.syntax unified
 2030              		.thumb
 2031              		.thumb_func
 2033              	HAL_PCD_EP_Abort:
 2034              		@ args = 0, pretend = 0, frame = 0
 2035              		@ frame_needed = 0, uses_anonymous_args = 0
 2036 0000 08B5     		push	{r3, lr}
 2037 0002 11F0800F 		tst	r1, #128
 2038 0006 0BD1     		bne	.L232
 2039 0008 01F00701 		and	r1, r1, #7
 2040 000c 01EB8101 		add	r1, r1, r1, lsl #2
 2041 0010 C900     		lsls	r1, r1, #3
 2042 0012 01F5A871 		add	r1, r1, #336
 2043 0016 0144     		add	r1, r1, r0
 2044              	.L230:
 2045 0018 0068     		ldr	r0, [r0]
 2046 001a FFF7FEFF 		bl	USB_EPStopXfer
 2047 001e 08BD     		pop	{r3, pc}
 2048              	.L232:
 2049 0020 01F00701 		and	r1, r1, #7
 2050 0024 01EB8101 		add	r1, r1, r1, lsl #2
 2051 0028 C900     		lsls	r1, r1, #3
 2052 002a 1031     		adds	r1, r1, #16
 2053 002c 0144     		add	r1, r1, r0
 2054 002e F3E7     		b	.L230
 2056              		.section	.text.HAL_PCD_EP_Flush,"ax",%progbits
 2057              		.align	1
 2058              		.global	HAL_PCD_EP_Flush
 2059              		.syntax unified
 2060              		.thumb
 2061              		.thumb_func
ARM GAS  /tmp/ccB1whAW.s 			page 36


 2063              	HAL_PCD_EP_Flush:
 2064              		@ args = 0, pretend = 0, frame = 0
 2065              		@ frame_needed = 0, uses_anonymous_args = 0
 2066 0000 90F89032 		ldrb	r3, [r0, #656]	@ zero_extendqisi2
 2067 0004 012B     		cmp	r3, #1
 2068 0006 14D0     		beq	.L237
 2069 0008 10B5     		push	{r4, lr}
 2070 000a 0446     		mov	r4, r0
 2071 000c 0123     		movs	r3, #1
 2072 000e 80F89032 		strb	r3, [r0, #656]
 2073 0012 11F0800F 		tst	r1, #128
 2074 0016 06D1     		bne	.L242
 2075 0018 0068     		ldr	r0, [r0]
 2076 001a FFF7FEFF 		bl	USB_FlushRxFifo
 2077              	.L236:
 2078 001e 0020     		movs	r0, #0
 2079 0020 84F89002 		strb	r0, [r4, #656]
 2080 0024 10BD     		pop	{r4, pc}
 2081              	.L242:
 2082 0026 01F00701 		and	r1, r1, #7
 2083 002a 0068     		ldr	r0, [r0]
 2084 002c FFF7FEFF 		bl	USB_FlushTxFifo
 2085 0030 F5E7     		b	.L236
 2086              	.L237:
 2087 0032 0220     		movs	r0, #2
 2088 0034 7047     		bx	lr
 2090              		.section	.text.HAL_PCD_ActivateRemoteWakeup,"ax",%progbits
 2091              		.align	1
 2092              		.global	HAL_PCD_ActivateRemoteWakeup
 2093              		.syntax unified
 2094              		.thumb
 2095              		.thumb_func
 2097              	HAL_PCD_ActivateRemoteWakeup:
 2098              		@ args = 0, pretend = 0, frame = 0
 2099              		@ frame_needed = 0, uses_anonymous_args = 0
 2100 0000 08B5     		push	{r3, lr}
 2101 0002 0068     		ldr	r0, [r0]
 2102 0004 FFF7FEFF 		bl	USB_ActivateRemoteWakeup
 2103 0008 08BD     		pop	{r3, pc}
 2105              		.section	.text.HAL_PCD_DeActivateRemoteWakeup,"ax",%progbits
 2106              		.align	1
 2107              		.global	HAL_PCD_DeActivateRemoteWakeup
 2108              		.syntax unified
 2109              		.thumb
 2110              		.thumb_func
 2112              	HAL_PCD_DeActivateRemoteWakeup:
 2113              		@ args = 0, pretend = 0, frame = 0
 2114              		@ frame_needed = 0, uses_anonymous_args = 0
 2115 0000 08B5     		push	{r3, lr}
 2116 0002 0068     		ldr	r0, [r0]
 2117 0004 FFF7FEFF 		bl	USB_DeActivateRemoteWakeup
 2118 0008 08BD     		pop	{r3, pc}
 2120              		.section	.text.HAL_PCD_GetState,"ax",%progbits
 2121              		.align	1
 2122              		.global	HAL_PCD_GetState
 2123              		.syntax unified
 2124              		.thumb
ARM GAS  /tmp/ccB1whAW.s 			page 37


 2125              		.thumb_func
 2127              	HAL_PCD_GetState:
 2128              		@ args = 0, pretend = 0, frame = 0
 2129              		@ frame_needed = 0, uses_anonymous_args = 0
 2130              		@ link register save eliminated.
 2131 0000 90F89102 		ldrb	r0, [r0, #657]	@ zero_extendqisi2
 2132 0004 7047     		bx	lr
 2134              		.ident	"GCC: (15:13.3.rel1-1) 13.3.1 20240614"
ARM GAS  /tmp/ccB1whAW.s 			page 38

