ARM GAS  /tmp/cc4J0GLX.s 			page 1


   1              		.cpu cortex-m3
   2              		.arch armv7-m
   3              		.fpu softvfp
   4              		.eabi_attribute 20, 1
   5              		.eabi_attribute 21, 1
   6              		.eabi_attribute 23, 3
   7              		.eabi_attribute 24, 1
   8              		.eabi_attribute 25, 1
   9              		.eabi_attribute 26, 1
  10              		.eabi_attribute 30, 1
  11              		.eabi_attribute 34, 1
  12              		.eabi_attribute 18, 4
  13              		.file	"stm32f1xx_hal_adc_ex.c"
  14              		.text
  15              		.section	.text.HAL_ADCEx_Calibration_Start,"ax",%progbits
  16              		.align	1
  17              		.global	HAL_ADCEx_Calibration_Start
  18              		.syntax unified
  19              		.thumb
  20              		.thumb_func
  22              	HAL_ADCEx_Calibration_Start:
  23              		@ args = 0, pretend = 0, frame = 8
  24              		@ frame_needed = 0, uses_anonymous_args = 0
  25 0000 70B5     		push	{r4, r5, r6, lr}
  26 0002 82B0     		sub	sp, sp, #8
  27 0004 0023     		movs	r3, #0
  28 0006 0193     		str	r3, [sp, #4]
  29 0008 90F82430 		ldrb	r3, [r0, #36]	@ zero_extendqisi2
  30 000c 012B     		cmp	r3, #1
  31 000e 72D0     		beq	.L10
  32 0010 0446     		mov	r4, r0
  33 0012 0123     		movs	r3, #1
  34 0014 80F82430 		strb	r3, [r0, #36]
  35 0018 FFF7FEFF 		bl	ADC_ConversionStop_Disable
  36 001c 2046     		mov	r0, r4
  37 001e FFF7FEFF 		bl	ADC_Enable
  38 0022 0546     		mov	r5, r0
  39 0024 28B1     		cbz	r0, .L12
  40              	.L3:
  41 0026 0023     		movs	r3, #0
  42 0028 84F82430 		strb	r3, [r4, #36]
  43              	.L2:
  44 002c 2846     		mov	r0, r5
  45 002e 02B0     		add	sp, sp, #8
  46              		@ sp needed
  47 0030 70BD     		pop	{r4, r5, r6, pc}
  48              	.L12:
  49 0032 A36A     		ldr	r3, [r4, #40]
  50 0034 23F48853 		bic	r3, r3, #4352
  51 0038 23F00203 		bic	r3, r3, #2
  52 003c 43F00203 		orr	r3, r3, #2
  53 0040 A362     		str	r3, [r4, #40]
  54 0042 2E4B     		ldr	r3, .L15
  55 0044 1E68     		ldr	r6, [r3]
  56 0046 0220     		movs	r0, #2
  57 0048 FFF7FEFF 		bl	HAL_RCCEx_GetPeriphCLKFreq
  58 004c B6FBF0F6 		udiv	r6, r6, r0
ARM GAS  /tmp/cc4J0GLX.s 			page 2


  59 0050 7600     		lsls	r6, r6, #1
  60 0052 0196     		str	r6, [sp, #4]
  61 0054 02E0     		b	.L4
  62              	.L5:
  63 0056 019B     		ldr	r3, [sp, #4]
  64 0058 013B     		subs	r3, r3, #1
  65 005a 0193     		str	r3, [sp, #4]
  66              	.L4:
  67 005c 019B     		ldr	r3, [sp, #4]
  68 005e 002B     		cmp	r3, #0
  69 0060 F9D1     		bne	.L5
  70 0062 2268     		ldr	r2, [r4]
  71 0064 9368     		ldr	r3, [r2, #8]
  72 0066 43F00803 		orr	r3, r3, #8
  73 006a 9360     		str	r3, [r2, #8]
  74 006c FFF7FEFF 		bl	HAL_GetTick
  75 0070 0646     		mov	r6, r0
  76              	.L6:
  77 0072 2368     		ldr	r3, [r4]
  78 0074 9A68     		ldr	r2, [r3, #8]
  79 0076 12F0080F 		tst	r2, #8
  80 007a 14D0     		beq	.L13
  81 007c FFF7FEFF 		bl	HAL_GetTick
  82 0080 801B     		subs	r0, r0, r6
  83 0082 0A28     		cmp	r0, #10
  84 0084 F5D9     		bls	.L6
  85 0086 2368     		ldr	r3, [r4]
  86 0088 9B68     		ldr	r3, [r3, #8]
  87 008a 13F0080F 		tst	r3, #8
  88 008e F0D0     		beq	.L6
  89 0090 A36A     		ldr	r3, [r4, #40]
  90 0092 23F01203 		bic	r3, r3, #18
  91 0096 43F01003 		orr	r3, r3, #16
  92 009a A362     		str	r3, [r4, #40]
  93 009c 0023     		movs	r3, #0
  94 009e 84F82430 		strb	r3, [r4, #36]
  95 00a2 0125     		movs	r5, #1
  96 00a4 C2E7     		b	.L2
  97              	.L13:
  98 00a6 9A68     		ldr	r2, [r3, #8]
  99 00a8 42F00402 		orr	r2, r2, #4
 100 00ac 9A60     		str	r2, [r3, #8]
 101 00ae FFF7FEFF 		bl	HAL_GetTick
 102 00b2 0646     		mov	r6, r0
 103              	.L8:
 104 00b4 2368     		ldr	r3, [r4]
 105 00b6 9B68     		ldr	r3, [r3, #8]
 106 00b8 13F0040F 		tst	r3, #4
 107 00bc 14D0     		beq	.L14
 108 00be FFF7FEFF 		bl	HAL_GetTick
 109 00c2 801B     		subs	r0, r0, r6
 110 00c4 0A28     		cmp	r0, #10
 111 00c6 F5D9     		bls	.L8
 112 00c8 2368     		ldr	r3, [r4]
 113 00ca 9B68     		ldr	r3, [r3, #8]
 114 00cc 13F0040F 		tst	r3, #4
 115 00d0 F0D0     		beq	.L8
ARM GAS  /tmp/cc4J0GLX.s 			page 3


 116 00d2 A36A     		ldr	r3, [r4, #40]
 117 00d4 23F01203 		bic	r3, r3, #18
 118 00d8 43F01003 		orr	r3, r3, #16
 119 00dc A362     		str	r3, [r4, #40]
 120 00de 0023     		movs	r3, #0
 121 00e0 84F82430 		strb	r3, [r4, #36]
 122 00e4 0125     		movs	r5, #1
 123 00e6 A1E7     		b	.L2
 124              	.L14:
 125 00e8 A36A     		ldr	r3, [r4, #40]
 126 00ea 23F00303 		bic	r3, r3, #3
 127 00ee 43F00103 		orr	r3, r3, #1
 128 00f2 A362     		str	r3, [r4, #40]
 129 00f4 97E7     		b	.L3
 130              	.L10:
 131 00f6 0225     		movs	r5, #2
 132 00f8 98E7     		b	.L2
 133              	.L16:
 134 00fa 00BF     		.align	2
 135              	.L15:
 136 00fc 00000000 		.word	SystemCoreClock
 138              		.section	.text.HAL_ADCEx_InjectedStart,"ax",%progbits
 139              		.align	1
 140              		.global	HAL_ADCEx_InjectedStart
 141              		.syntax unified
 142              		.thumb
 143              		.thumb_func
 145              	HAL_ADCEx_InjectedStart:
 146              		@ args = 0, pretend = 0, frame = 0
 147              		@ frame_needed = 0, uses_anonymous_args = 0
 148 0000 90F82430 		ldrb	r3, [r0, #36]	@ zero_extendqisi2
 149 0004 012B     		cmp	r3, #1
 150 0006 52D0     		beq	.L26
 151 0008 10B5     		push	{r4, lr}
 152 000a 0446     		mov	r4, r0
 153 000c 0123     		movs	r3, #1
 154 000e 80F82430 		strb	r3, [r0, #36]
 155 0012 FFF7FEFF 		bl	ADC_Enable
 156 0016 0028     		cmp	r0, #0
 157 0018 45D1     		bne	.L19
 158 001a A36A     		ldr	r3, [r4, #40]
 159 001c 23F44053 		bic	r3, r3, #12288
 160 0020 23F00103 		bic	r3, r3, #1
 161 0024 43F48053 		orr	r3, r3, #4096
 162 0028 A362     		str	r3, [r4, #40]
 163 002a 2268     		ldr	r2, [r4]
 164 002c 214B     		ldr	r3, .L34
 165 002e 9A42     		cmp	r2, r3
 166 0030 1FD0     		beq	.L31
 167              	.L20:
 168 0032 A36A     		ldr	r3, [r4, #40]
 169 0034 23F48013 		bic	r3, r3, #1048576
 170 0038 A362     		str	r3, [r4, #40]
 171              	.L22:
 172 003a A36A     		ldr	r3, [r4, #40]
 173 003c 13F4807F 		tst	r3, #256
 174 0040 01D1     		bne	.L23
ARM GAS  /tmp/cc4J0GLX.s 			page 4


 175 0042 0023     		movs	r3, #0
 176 0044 E362     		str	r3, [r4, #44]
 177              	.L23:
 178 0046 0023     		movs	r3, #0
 179 0048 84F82430 		strb	r3, [r4, #36]
 180 004c 6FF00403 		mvn	r3, #4
 181 0050 1360     		str	r3, [r2]
 182 0052 2368     		ldr	r3, [r4]
 183 0054 5A68     		ldr	r2, [r3, #4]
 184 0056 12F4806F 		tst	r2, #1024
 185 005a 27D1     		bne	.L18
 186 005c 9A68     		ldr	r2, [r3, #8]
 187 005e 02F4E042 		and	r2, r2, #28672
 188 0062 B2F5E04F 		cmp	r2, #28672
 189 0066 0FD0     		beq	.L32
 190              	.L24:
 191 0068 9A68     		ldr	r2, [r3, #8]
 192 006a 42F40042 		orr	r2, r2, #32768
 193 006e 9A60     		str	r2, [r3, #8]
 194 0070 1CE0     		b	.L18
 195              	.L31:
 196 0072 A3F58063 		sub	r3, r3, #1024
 197 0076 5B68     		ldr	r3, [r3, #4]
 198 0078 13F4702F 		tst	r3, #983040
 199 007c D9D0     		beq	.L20
 200 007e A36A     		ldr	r3, [r4, #40]
 201 0080 43F48013 		orr	r3, r3, #1048576
 202 0084 A362     		str	r3, [r4, #40]
 203 0086 D8E7     		b	.L22
 204              	.L32:
 205 0088 0A4A     		ldr	r2, .L34
 206 008a 9342     		cmp	r3, r2
 207 008c 04D0     		beq	.L33
 208              	.L25:
 209 008e 9A68     		ldr	r2, [r3, #8]
 210 0090 42F40212 		orr	r2, r2, #2129920
 211 0094 9A60     		str	r2, [r3, #8]
 212 0096 09E0     		b	.L18
 213              	.L33:
 214 0098 A2F58062 		sub	r2, r2, #1024
 215 009c 5268     		ldr	r2, [r2, #4]
 216 009e 12F4702F 		tst	r2, #983040
 217 00a2 E1D1     		bne	.L24
 218 00a4 F3E7     		b	.L25
 219              	.L19:
 220 00a6 0023     		movs	r3, #0
 221 00a8 84F82430 		strb	r3, [r4, #36]
 222              	.L18:
 223 00ac 10BD     		pop	{r4, pc}
 224              	.L26:
 225 00ae 0220     		movs	r0, #2
 226 00b0 7047     		bx	lr
 227              	.L35:
 228 00b2 00BF     		.align	2
 229              	.L34:
 230 00b4 00280140 		.word	1073817600
 232              		.section	.text.HAL_ADCEx_InjectedStop,"ax",%progbits
ARM GAS  /tmp/cc4J0GLX.s 			page 5


 233              		.align	1
 234              		.global	HAL_ADCEx_InjectedStop
 235              		.syntax unified
 236              		.thumb
 237              		.thumb_func
 239              	HAL_ADCEx_InjectedStop:
 240              		@ args = 0, pretend = 0, frame = 0
 241              		@ frame_needed = 0, uses_anonymous_args = 0
 242 0000 90F82430 		ldrb	r3, [r0, #36]	@ zero_extendqisi2
 243 0004 012B     		cmp	r3, #1
 244 0006 23D0     		beq	.L40
 245 0008 10B5     		push	{r4, lr}
 246 000a 0446     		mov	r4, r0
 247 000c 0123     		movs	r3, #1
 248 000e 80F82430 		strb	r3, [r0, #36]
 249 0012 836A     		ldr	r3, [r0, #40]
 250 0014 13F4807F 		tst	r3, #256
 251 0018 04D1     		bne	.L38
 252 001a 0368     		ldr	r3, [r0]
 253 001c 5B68     		ldr	r3, [r3, #4]
 254 001e 13F4806F 		tst	r3, #1024
 255 0022 08D0     		beq	.L45
 256              	.L38:
 257 0024 A36A     		ldr	r3, [r4, #40]
 258 0026 43F02003 		orr	r3, r3, #32
 259 002a A362     		str	r3, [r4, #40]
 260 002c 0120     		movs	r0, #1
 261              	.L39:
 262 002e 0023     		movs	r3, #0
 263 0030 84F82430 		strb	r3, [r4, #36]
 264 0034 10BD     		pop	{r4, pc}
 265              	.L45:
 266 0036 FFF7FEFF 		bl	ADC_ConversionStop_Disable
 267 003a 0028     		cmp	r0, #0
 268 003c F7D1     		bne	.L39
 269 003e A36A     		ldr	r3, [r4, #40]
 270 0040 23F48853 		bic	r3, r3, #4352
 271 0044 23F00103 		bic	r3, r3, #1
 272 0048 43F00103 		orr	r3, r3, #1
 273 004c A362     		str	r3, [r4, #40]
 274 004e EEE7     		b	.L39
 275              	.L40:
 276 0050 0220     		movs	r0, #2
 277 0052 7047     		bx	lr
 279              		.section	.text.HAL_ADCEx_InjectedPollForConversion,"ax",%progbits
 280              		.align	1
 281              		.global	HAL_ADCEx_InjectedPollForConversion
 282              		.syntax unified
 283              		.thumb
 284              		.thumb_func
 286              	HAL_ADCEx_InjectedPollForConversion:
 287              		@ args = 0, pretend = 0, frame = 8
 288              		@ frame_needed = 0, uses_anonymous_args = 0
 289 0000 F0B5     		push	{r4, r5, r6, r7, lr}
 290 0002 83B0     		sub	sp, sp, #12
 291 0004 0546     		mov	r5, r0
 292 0006 0C46     		mov	r4, r1
ARM GAS  /tmp/cc4J0GLX.s 			page 6


 293 0008 0023     		movs	r3, #0
 294 000a 0193     		str	r3, [sp, #4]
 295 000c FFF7FEFF 		bl	HAL_GetTick
 296 0010 0646     		mov	r6, r0
 297 0012 2B68     		ldr	r3, [r5]
 298 0014 9B6B     		ldr	r3, [r3, #56]
 299 0016 13F4401F 		tst	r3, #3145728
 300 001a 1CD1     		bne	.L74
 301              	.L49:
 302 001c 2B68     		ldr	r3, [r5]
 303 001e 1B68     		ldr	r3, [r3]
 304 0020 13F0040F 		tst	r3, #4
 305 0024 6ED1     		bne	.L54
 306 0026 B4F1FF3F 		cmp	r4, #-1
 307 002a F7D0     		beq	.L49
 308 002c 6CB9     		cbnz	r4, .L75
 309              	.L50:
 310 002e 2B68     		ldr	r3, [r5]
 311 0030 1B68     		ldr	r3, [r3]
 312 0032 13F0040F 		tst	r3, #4
 313 0036 F1D1     		bne	.L49
 314 0038 AB6A     		ldr	r3, [r5, #40]
 315 003a 43F00403 		orr	r3, r3, #4
 316 003e AB62     		str	r3, [r5, #40]
 317 0040 0023     		movs	r3, #0
 318 0042 85F82430 		strb	r3, [r5, #36]
 319 0046 0320     		movs	r0, #3
 320 0048 88E0     		b	.L52
 321              	.L75:
 322 004a FFF7FEFF 		bl	HAL_GetTick
 323 004e 801B     		subs	r0, r0, r6
 324 0050 A042     		cmp	r0, r4
 325 0052 E3D9     		bls	.L49
 326 0054 EBE7     		b	.L50
 327              	.L74:
 328 0056 444B     		ldr	r3, .L78
 329 0058 1F68     		ldr	r7, [r3]
 330 005a 0220     		movs	r0, #2
 331 005c FFF7FEFF 		bl	HAL_RCCEx_GetPeriphCLKFreq
 332 0060 B7FBF0F7 		udiv	r7, r7, r0
 333 0064 2B68     		ldr	r3, [r5]
 334 0066 1969     		ldr	r1, [r3, #16]
 335 0068 404A     		ldr	r2, .L78+4
 336 006a 1142     		tst	r1, r2
 337 006c 0ED1     		bne	.L55
 338 006e D968     		ldr	r1, [r3, #12]
 339 0070 02F15C42 		add	r2, r2, #-603979776
 340 0074 1142     		tst	r1, r2
 341 0076 09D1     		bne	.L55
 342 0078 1969     		ldr	r1, [r3, #16]
 343 007a 3D4A     		ldr	r2, .L78+8
 344 007c 1142     		tst	r1, r2
 345 007e 18D1     		bne	.L63
 346 0080 DA68     		ldr	r2, [r3, #12]
 347 0082 3C4B     		ldr	r3, .L78+12
 348 0084 1A42     		tst	r2, r3
 349 0086 16D0     		beq	.L64
ARM GAS  /tmp/cc4J0GLX.s 			page 7


 350 0088 2923     		movs	r3, #41
 351 008a 19E0     		b	.L56
 352              	.L55:
 353 008c 1969     		ldr	r1, [r3, #16]
 354 008e 384A     		ldr	r2, .L78+8
 355 0090 1142     		tst	r1, r2
 356 0092 04D1     		bne	.L57
 357 0094 D968     		ldr	r1, [r3, #12]
 358 0096 02F16E42 		add	r2, r2, #-301989888
 359 009a 1142     		tst	r1, r2
 360 009c 0DD0     		beq	.L65
 361              	.L57:
 362 009e 1969     		ldr	r1, [r3, #16]
 363 00a0 354A     		ldr	r2, .L78+16
 364 00a2 0A40     		ands	r2, r2, r1
 365 00a4 5AB9     		cbnz	r2, .L66
 366 00a6 DA68     		ldr	r2, [r3, #12]
 367 00a8 334B     		ldr	r3, .L78+16
 368 00aa 1340     		ands	r3, r3, r2
 369 00ac 5BB1     		cbz	r3, .L67
 370 00ae FC23     		movs	r3, #252
 371 00b0 06E0     		b	.L56
 372              	.L63:
 373 00b2 2923     		movs	r3, #41
 374 00b4 04E0     		b	.L56
 375              	.L64:
 376 00b6 1423     		movs	r3, #20
 377 00b8 02E0     		b	.L56
 378              	.L65:
 379 00ba 5423     		movs	r3, #84
 380 00bc 00E0     		b	.L56
 381              	.L66:
 382 00be FC23     		movs	r3, #252
 383              	.L56:
 384 00c0 03FB07F7 		mul	r7, r3, r7
 385 00c4 07E0     		b	.L58
 386              	.L67:
 387 00c6 5423     		movs	r3, #84
 388 00c8 FAE7     		b	.L56
 389              	.L60:
 390 00ca 019B     		ldr	r3, [sp, #4]
 391 00cc BB42     		cmp	r3, r7
 392 00ce 10D3     		bcc	.L76
 393              	.L59:
 394 00d0 019B     		ldr	r3, [sp, #4]
 395 00d2 0133     		adds	r3, r3, #1
 396 00d4 0193     		str	r3, [sp, #4]
 397              	.L58:
 398 00d6 019B     		ldr	r3, [sp, #4]
 399 00d8 BB42     		cmp	r3, r7
 400 00da 13D2     		bcs	.L54
 401 00dc B4F1FF3F 		cmp	r4, #-1
 402 00e0 F6D0     		beq	.L59
 403 00e2 002C     		cmp	r4, #0
 404 00e4 F1D0     		beq	.L60
 405 00e6 FFF7FEFF 		bl	HAL_GetTick
 406 00ea 801B     		subs	r0, r0, r6
ARM GAS  /tmp/cc4J0GLX.s 			page 8


 407 00ec A042     		cmp	r0, r4
 408 00ee EFD9     		bls	.L59
 409 00f0 EBE7     		b	.L60
 410              	.L76:
 411 00f2 AB6A     		ldr	r3, [r5, #40]
 412 00f4 43F00403 		orr	r3, r3, #4
 413 00f8 AB62     		str	r3, [r5, #40]
 414 00fa 0023     		movs	r3, #0
 415 00fc 85F82430 		strb	r3, [r5, #36]
 416 0100 0320     		movs	r0, #3
 417 0102 2BE0     		b	.L52
 418              	.L54:
 419 0104 2B68     		ldr	r3, [r5]
 420 0106 6FF00E02 		mvn	r2, #14
 421 010a 1A60     		str	r2, [r3]
 422 010c AB6A     		ldr	r3, [r5, #40]
 423 010e 43F40053 		orr	r3, r3, #8192
 424 0112 AB62     		str	r3, [r5, #40]
 425 0114 2A68     		ldr	r2, [r5]
 426 0116 9368     		ldr	r3, [r2, #8]
 427 0118 03F4E043 		and	r3, r3, #28672
 428 011c B3F5E04F 		cmp	r3, #28672
 429 0120 0DD0     		beq	.L62
 430 0122 5368     		ldr	r3, [r2, #4]
 431 0124 13F4806F 		tst	r3, #1024
 432 0128 17D1     		bne	.L68
 433 012a 9368     		ldr	r3, [r2, #8]
 434 012c 03F46023 		and	r3, r3, #917504
 435 0130 B3F5602F 		cmp	r3, #917504
 436 0134 01D0     		beq	.L77
 437 0136 0020     		movs	r0, #0
 438 0138 10E0     		b	.L52
 439              	.L77:
 440 013a 2B7B     		ldrb	r3, [r5, #12]	@ zero_extendqisi2
 441 013c 83B9     		cbnz	r3, .L70
 442              	.L62:
 443 013e AB6A     		ldr	r3, [r5, #40]
 444 0140 23F48053 		bic	r3, r3, #4096
 445 0144 AB62     		str	r3, [r5, #40]
 446 0146 AB6A     		ldr	r3, [r5, #40]
 447 0148 13F4807F 		tst	r3, #256
 448 014c 0AD1     		bne	.L71
 449 014e AB6A     		ldr	r3, [r5, #40]
 450 0150 43F00103 		orr	r3, r3, #1
 451 0154 AB62     		str	r3, [r5, #40]
 452 0156 0020     		movs	r0, #0
 453 0158 00E0     		b	.L52
 454              	.L68:
 455 015a 0020     		movs	r0, #0
 456              	.L52:
 457 015c 03B0     		add	sp, sp, #12
 458              		@ sp needed
 459 015e F0BD     		pop	{r4, r5, r6, r7, pc}
 460              	.L70:
 461 0160 0020     		movs	r0, #0
 462 0162 FBE7     		b	.L52
 463              	.L71:
ARM GAS  /tmp/cc4J0GLX.s 			page 9


 464 0164 0020     		movs	r0, #0
 465 0166 F9E7     		b	.L52
 466              	.L79:
 467              		.align	2
 468              	.L78:
 469 0168 00000000 		.word	SystemCoreClock
 470 016c 24499224 		.word	613566756
 471 0170 92244912 		.word	306783378
 472 0174 92244900 		.word	4793490
 473 0178 49922400 		.word	2396745
 475              		.section	.text.HAL_ADCEx_InjectedStart_IT,"ax",%progbits
 476              		.align	1
 477              		.global	HAL_ADCEx_InjectedStart_IT
 478              		.syntax unified
 479              		.thumb
 480              		.thumb_func
 482              	HAL_ADCEx_InjectedStart_IT:
 483              		@ args = 0, pretend = 0, frame = 0
 484              		@ frame_needed = 0, uses_anonymous_args = 0
 485 0000 90F82430 		ldrb	r3, [r0, #36]	@ zero_extendqisi2
 486 0004 012B     		cmp	r3, #1
 487 0006 57D0     		beq	.L89
 488 0008 10B5     		push	{r4, lr}
 489 000a 0446     		mov	r4, r0
 490 000c 0123     		movs	r3, #1
 491 000e 80F82430 		strb	r3, [r0, #36]
 492 0012 FFF7FEFF 		bl	ADC_Enable
 493 0016 0028     		cmp	r0, #0
 494 0018 4AD1     		bne	.L82
 495 001a A36A     		ldr	r3, [r4, #40]
 496 001c 23F44053 		bic	r3, r3, #12288
 497 0020 23F00103 		bic	r3, r3, #1
 498 0024 43F48053 		orr	r3, r3, #4096
 499 0028 A362     		str	r3, [r4, #40]
 500 002a 2268     		ldr	r2, [r4]
 501 002c 234B     		ldr	r3, .L97
 502 002e 9A42     		cmp	r2, r3
 503 0030 24D0     		beq	.L94
 504              	.L83:
 505 0032 A36A     		ldr	r3, [r4, #40]
 506 0034 23F48013 		bic	r3, r3, #1048576
 507 0038 A362     		str	r3, [r4, #40]
 508              	.L85:
 509 003a A36A     		ldr	r3, [r4, #40]
 510 003c 13F4807F 		tst	r3, #256
 511 0040 01D1     		bne	.L86
 512 0042 0023     		movs	r3, #0
 513 0044 E362     		str	r3, [r4, #44]
 514              	.L86:
 515 0046 0023     		movs	r3, #0
 516 0048 84F82430 		strb	r3, [r4, #36]
 517 004c 6FF00403 		mvn	r3, #4
 518 0050 1360     		str	r3, [r2]
 519 0052 2268     		ldr	r2, [r4]
 520 0054 5368     		ldr	r3, [r2, #4]
 521 0056 43F08003 		orr	r3, r3, #128
 522 005a 5360     		str	r3, [r2, #4]
ARM GAS  /tmp/cc4J0GLX.s 			page 10


 523 005c 2368     		ldr	r3, [r4]
 524 005e 5A68     		ldr	r2, [r3, #4]
 525 0060 12F4806F 		tst	r2, #1024
 526 0064 27D1     		bne	.L81
 527 0066 9A68     		ldr	r2, [r3, #8]
 528 0068 02F4E042 		and	r2, r2, #28672
 529 006c B2F5E04F 		cmp	r2, #28672
 530 0070 0FD0     		beq	.L95
 531              	.L87:
 532 0072 9A68     		ldr	r2, [r3, #8]
 533 0074 42F40042 		orr	r2, r2, #32768
 534 0078 9A60     		str	r2, [r3, #8]
 535 007a 1CE0     		b	.L81
 536              	.L94:
 537 007c A3F58063 		sub	r3, r3, #1024
 538 0080 5B68     		ldr	r3, [r3, #4]
 539 0082 13F4702F 		tst	r3, #983040
 540 0086 D4D0     		beq	.L83
 541 0088 A36A     		ldr	r3, [r4, #40]
 542 008a 43F48013 		orr	r3, r3, #1048576
 543 008e A362     		str	r3, [r4, #40]
 544 0090 D3E7     		b	.L85
 545              	.L95:
 546 0092 0A4A     		ldr	r2, .L97
 547 0094 9342     		cmp	r3, r2
 548 0096 04D0     		beq	.L96
 549              	.L88:
 550 0098 9A68     		ldr	r2, [r3, #8]
 551 009a 42F40212 		orr	r2, r2, #2129920
 552 009e 9A60     		str	r2, [r3, #8]
 553 00a0 09E0     		b	.L81
 554              	.L96:
 555 00a2 A2F58062 		sub	r2, r2, #1024
 556 00a6 5268     		ldr	r2, [r2, #4]
 557 00a8 12F4702F 		tst	r2, #983040
 558 00ac E1D1     		bne	.L87
 559 00ae F3E7     		b	.L88
 560              	.L82:
 561 00b0 0023     		movs	r3, #0
 562 00b2 84F82430 		strb	r3, [r4, #36]
 563              	.L81:
 564 00b6 10BD     		pop	{r4, pc}
 565              	.L89:
 566 00b8 0220     		movs	r0, #2
 567 00ba 7047     		bx	lr
 568              	.L98:
 569              		.align	2
 570              	.L97:
 571 00bc 00280140 		.word	1073817600
 573              		.section	.text.HAL_ADCEx_InjectedStop_IT,"ax",%progbits
 574              		.align	1
 575              		.global	HAL_ADCEx_InjectedStop_IT
 576              		.syntax unified
 577              		.thumb
 578              		.thumb_func
 580              	HAL_ADCEx_InjectedStop_IT:
 581              		@ args = 0, pretend = 0, frame = 0
ARM GAS  /tmp/cc4J0GLX.s 			page 11


 582              		@ frame_needed = 0, uses_anonymous_args = 0
 583 0000 90F82430 		ldrb	r3, [r0, #36]	@ zero_extendqisi2
 584 0004 012B     		cmp	r3, #1
 585 0006 28D0     		beq	.L103
 586 0008 10B5     		push	{r4, lr}
 587 000a 0446     		mov	r4, r0
 588 000c 0123     		movs	r3, #1
 589 000e 80F82430 		strb	r3, [r0, #36]
 590 0012 836A     		ldr	r3, [r0, #40]
 591 0014 13F4807F 		tst	r3, #256
 592 0018 04D1     		bne	.L101
 593 001a 0368     		ldr	r3, [r0]
 594 001c 5B68     		ldr	r3, [r3, #4]
 595 001e 13F4806F 		tst	r3, #1024
 596 0022 08D0     		beq	.L108
 597              	.L101:
 598 0024 A36A     		ldr	r3, [r4, #40]
 599 0026 43F02003 		orr	r3, r3, #32
 600 002a A362     		str	r3, [r4, #40]
 601 002c 0120     		movs	r0, #1
 602              	.L102:
 603 002e 0023     		movs	r3, #0
 604 0030 84F82430 		strb	r3, [r4, #36]
 605 0034 10BD     		pop	{r4, pc}
 606              	.L108:
 607 0036 FFF7FEFF 		bl	ADC_ConversionStop_Disable
 608 003a 0028     		cmp	r0, #0
 609 003c F7D1     		bne	.L102
 610 003e 2268     		ldr	r2, [r4]
 611 0040 5368     		ldr	r3, [r2, #4]
 612 0042 23F08003 		bic	r3, r3, #128
 613 0046 5360     		str	r3, [r2, #4]
 614 0048 A36A     		ldr	r3, [r4, #40]
 615 004a 23F48853 		bic	r3, r3, #4352
 616 004e 23F00103 		bic	r3, r3, #1
 617 0052 43F00103 		orr	r3, r3, #1
 618 0056 A362     		str	r3, [r4, #40]
 619 0058 E9E7     		b	.L102
 620              	.L103:
 621 005a 0220     		movs	r0, #2
 622 005c 7047     		bx	lr
 624              		.section	.text.HAL_ADCEx_MultiModeStart_DMA,"ax",%progbits
 625              		.align	1
 626              		.global	HAL_ADCEx_MultiModeStart_DMA
 627              		.syntax unified
 628              		.thumb
 629              		.thumb_func
 631              	HAL_ADCEx_MultiModeStart_DMA:
 632              		@ args = 0, pretend = 0, frame = 48
 633              		@ frame_needed = 0, uses_anonymous_args = 0
 634 0000 F0B5     		push	{r4, r5, r6, r7, lr}
 635 0002 8DB0     		sub	sp, sp, #52
 636 0004 0446     		mov	r4, r0
 637 0006 0D46     		mov	r5, r1
 638 0008 1746     		mov	r7, r2
 639 000a 3022     		movs	r2, #48
 640 000c 0021     		movs	r1, #0
ARM GAS  /tmp/cc4J0GLX.s 			page 12


 641 000e 6846     		mov	r0, sp
 642 0010 FFF7FEFF 		bl	memset
 643 0014 94F82410 		ldrb	r1, [r4, #36]	@ zero_extendqisi2
 644 0018 0129     		cmp	r1, #1
 645 001a 63D0     		beq	.L115
 646 001c 0123     		movs	r3, #1
 647 001e 84F82430 		strb	r3, [r4, #36]
 648 0022 3149     		ldr	r1, .L119
 649 0024 0091     		str	r1, [sp]
 650 0026 8868     		ldr	r0, [r1, #8]
 651 0028 00F46020 		and	r0, r0, #917504
 652 002c B0F5602F 		cmp	r0, #917504
 653 0030 0AD0     		beq	.L111
 654 0032 A36A     		ldr	r3, [r4, #40]
 655 0034 43F02003 		orr	r3, r3, #32
 656 0038 A362     		str	r3, [r4, #40]
 657 003a 0023     		movs	r3, #0
 658 003c 84F82430 		strb	r3, [r4, #36]
 659 0040 0126     		movs	r6, #1
 660              	.L110:
 661 0042 3046     		mov	r0, r6
 662 0044 0DB0     		add	sp, sp, #52
 663              		@ sp needed
 664 0046 F0BD     		pop	{r4, r5, r6, r7, pc}
 665              	.L111:
 666 0048 2046     		mov	r0, r4
 667 004a FFF7FEFF 		bl	ADC_Enable
 668 004e 0646     		mov	r6, r0
 669 0050 18B1     		cbz	r0, .L117
 670              	.L112:
 671 0052 0023     		movs	r3, #0
 672 0054 84F82430 		strb	r3, [r4, #36]
 673 0058 F3E7     		b	.L110
 674              	.L117:
 675 005a 6846     		mov	r0, sp
 676 005c FFF7FEFF 		bl	ADC_Enable
 677 0060 0646     		mov	r6, r0
 678 0062 0028     		cmp	r0, #0
 679 0064 F5D1     		bne	.L112
 680 0066 A26A     		ldr	r2, [r4, #40]
 681 0068 204B     		ldr	r3, .L119+4
 682 006a 1340     		ands	r3, r3, r2
 683 006c 43F48073 		orr	r3, r3, #256
 684 0070 A362     		str	r3, [r4, #40]
 685 0072 2368     		ldr	r3, [r4]
 686 0074 5B68     		ldr	r3, [r3, #4]
 687 0076 13F4806F 		tst	r3, #1024
 688 007a 05D0     		beq	.L113
 689 007c A36A     		ldr	r3, [r4, #40]
 690 007e 23F44053 		bic	r3, r3, #12288
 691 0082 43F48053 		orr	r3, r3, #4096
 692 0086 A362     		str	r3, [r4, #40]
 693              	.L113:
 694 0088 0023     		movs	r3, #0
 695 008a 84F82430 		strb	r3, [r4, #36]
 696 008e E362     		str	r3, [r4, #44]
 697 0090 236A     		ldr	r3, [r4, #32]
ARM GAS  /tmp/cc4J0GLX.s 			page 13


 698 0092 174A     		ldr	r2, .L119+8
 699 0094 9A62     		str	r2, [r3, #40]
 700 0096 236A     		ldr	r3, [r4, #32]
 701 0098 164A     		ldr	r2, .L119+12
 702 009a DA62     		str	r2, [r3, #44]
 703 009c 236A     		ldr	r3, [r4, #32]
 704 009e 164A     		ldr	r2, .L119+16
 705 00a0 1A63     		str	r2, [r3, #48]
 706 00a2 2368     		ldr	r3, [r4]
 707 00a4 6FF00202 		mvn	r2, #2
 708 00a8 1A60     		str	r2, [r3]
 709 00aa 2268     		ldr	r2, [r4]
 710 00ac 9368     		ldr	r3, [r2, #8]
 711 00ae 43F48073 		orr	r3, r3, #256
 712 00b2 9360     		str	r3, [r2, #8]
 713 00b4 2168     		ldr	r1, [r4]
 714 00b6 3B46     		mov	r3, r7
 715 00b8 2A46     		mov	r2, r5
 716 00ba 4C31     		adds	r1, r1, #76
 717 00bc 206A     		ldr	r0, [r4, #32]
 718 00be FFF7FEFF 		bl	HAL_DMA_Start_IT
 719 00c2 2368     		ldr	r3, [r4]
 720 00c4 9A68     		ldr	r2, [r3, #8]
 721 00c6 02F46022 		and	r2, r2, #917504
 722 00ca B2F5602F 		cmp	r2, #917504
 723 00ce 04D0     		beq	.L118
 724 00d0 9A68     		ldr	r2, [r3, #8]
 725 00d2 42F48012 		orr	r2, r2, #1048576
 726 00d6 9A60     		str	r2, [r3, #8]
 727 00d8 B3E7     		b	.L110
 728              	.L118:
 729 00da 9A68     		ldr	r2, [r3, #8]
 730 00dc 42F4A002 		orr	r2, r2, #5242880
 731 00e0 9A60     		str	r2, [r3, #8]
 732 00e2 AEE7     		b	.L110
 733              	.L115:
 734 00e4 0226     		movs	r6, #2
 735 00e6 ACE7     		b	.L110
 736              	.L120:
 737              		.align	2
 738              	.L119:
 739 00e8 00280140 		.word	1073817600
 740 00ec FEFCEFFF 		.word	-1049346
 741 00f0 00000000 		.word	ADC_DMAConvCplt
 742 00f4 00000000 		.word	ADC_DMAHalfConvCplt
 743 00f8 00000000 		.word	ADC_DMAError
 745              		.section	.text.HAL_ADCEx_MultiModeStop_DMA,"ax",%progbits
 746              		.align	1
 747              		.global	HAL_ADCEx_MultiModeStop_DMA
 748              		.syntax unified
 749              		.thumb
 750              		.thumb_func
 752              	HAL_ADCEx_MultiModeStop_DMA:
 753              		@ args = 0, pretend = 0, frame = 48
 754              		@ frame_needed = 0, uses_anonymous_args = 0
 755 0000 10B5     		push	{r4, lr}
 756 0002 8CB0     		sub	sp, sp, #48
ARM GAS  /tmp/cc4J0GLX.s 			page 14


 757 0004 0446     		mov	r4, r0
 758 0006 3022     		movs	r2, #48
 759 0008 0021     		movs	r1, #0
 760 000a 6846     		mov	r0, sp
 761 000c FFF7FEFF 		bl	memset
 762 0010 94F82430 		ldrb	r3, [r4, #36]	@ zero_extendqisi2
 763 0014 012B     		cmp	r3, #1
 764 0016 30D0     		beq	.L125
 765 0018 0123     		movs	r3, #1
 766 001a 84F82430 		strb	r3, [r4, #36]
 767 001e 2046     		mov	r0, r4
 768 0020 FFF7FEFF 		bl	ADC_ConversionStop_Disable
 769 0024 20B1     		cbz	r0, .L127
 770              	.L123:
 771 0026 0023     		movs	r3, #0
 772 0028 84F82430 		strb	r3, [r4, #36]
 773              	.L122:
 774 002c 0CB0     		add	sp, sp, #48
 775              		@ sp needed
 776 002e 10BD     		pop	{r4, pc}
 777              	.L127:
 778 0030 134B     		ldr	r3, .L128
 779 0032 0093     		str	r3, [sp]
 780 0034 6846     		mov	r0, sp
 781 0036 FFF7FEFF 		bl	ADC_ConversionStop_Disable
 782 003a 40B1     		cbz	r0, .L124
 783 003c A36A     		ldr	r3, [r4, #40]
 784 003e 43F01003 		orr	r3, r3, #16
 785 0042 A362     		str	r3, [r4, #40]
 786 0044 0023     		movs	r3, #0
 787 0046 84F82430 		strb	r3, [r4, #36]
 788 004a 0120     		movs	r0, #1
 789 004c EEE7     		b	.L122
 790              	.L124:
 791 004e 2268     		ldr	r2, [r4]
 792 0050 9368     		ldr	r3, [r2, #8]
 793 0052 23F48073 		bic	r3, r3, #256
 794 0056 9360     		str	r3, [r2, #8]
 795 0058 2268     		ldr	r2, [r4]
 796 005a 5368     		ldr	r3, [r2, #4]
 797 005c 23F47023 		bic	r3, r3, #983040
 798 0060 5360     		str	r3, [r2, #4]
 799 0062 206A     		ldr	r0, [r4, #32]
 800 0064 FFF7FEFF 		bl	HAL_DMA_Abort
 801 0068 A36A     		ldr	r3, [r4, #40]
 802 006a 23F48853 		bic	r3, r3, #4352
 803 006e 23F00103 		bic	r3, r3, #1
 804 0072 43F00103 		orr	r3, r3, #1
 805 0076 A362     		str	r3, [r4, #40]
 806 0078 D5E7     		b	.L123
 807              	.L125:
 808 007a 0220     		movs	r0, #2
 809 007c D6E7     		b	.L122
 810              	.L129:
 811 007e 00BF     		.align	2
 812              	.L128:
 813 0080 00280140 		.word	1073817600
ARM GAS  /tmp/cc4J0GLX.s 			page 15


 815              		.section	.text.HAL_ADCEx_InjectedGetValue,"ax",%progbits
 816              		.align	1
 817              		.global	HAL_ADCEx_InjectedGetValue
 818              		.syntax unified
 819              		.thumb
 820              		.thumb_func
 822              	HAL_ADCEx_InjectedGetValue:
 823              		@ args = 0, pretend = 0, frame = 0
 824              		@ frame_needed = 0, uses_anonymous_args = 0
 825              		@ link register save eliminated.
 826 0000 0329     		cmp	r1, #3
 827 0002 09D0     		beq	.L131
 828 0004 0429     		cmp	r1, #4
 829 0006 04D0     		beq	.L132
 830 0008 0229     		cmp	r1, #2
 831 000a 08D0     		beq	.L133
 832 000c 0368     		ldr	r3, [r0]
 833 000e D86B     		ldr	r0, [r3, #60]
 834 0010 7047     		bx	lr
 835              	.L132:
 836 0012 0368     		ldr	r3, [r0]
 837 0014 986C     		ldr	r0, [r3, #72]
 838 0016 7047     		bx	lr
 839              	.L131:
 840 0018 0368     		ldr	r3, [r0]
 841 001a 586C     		ldr	r0, [r3, #68]
 842 001c 7047     		bx	lr
 843              	.L133:
 844 001e 0368     		ldr	r3, [r0]
 845 0020 186C     		ldr	r0, [r3, #64]
 846 0022 7047     		bx	lr
 848              		.section	.text.HAL_ADCEx_MultiModeGetValue,"ax",%progbits
 849              		.align	1
 850              		.global	HAL_ADCEx_MultiModeGetValue
 851              		.syntax unified
 852              		.thumb
 853              		.thumb_func
 855              	HAL_ADCEx_MultiModeGetValue:
 856              		@ args = 0, pretend = 0, frame = 0
 857              		@ frame_needed = 0, uses_anonymous_args = 0
 858              		@ link register save eliminated.
 859 0000 0368     		ldr	r3, [r0]
 860 0002 D86C     		ldr	r0, [r3, #76]
 861 0004 044B     		ldr	r3, .L139
 862 0006 9B68     		ldr	r3, [r3, #8]
 863 0008 13F4807F 		tst	r3, #256
 864 000c 03D1     		bne	.L137
 865 000e 034B     		ldr	r3, .L139+4
 866 0010 DB6C     		ldr	r3, [r3, #76]
 867 0012 40EA0340 		orr	r0, r0, r3, lsl #16
 868              	.L137:
 869 0016 7047     		bx	lr
 870              	.L140:
 871              		.align	2
 872              	.L139:
 873 0018 00240140 		.word	1073816576
 874 001c 00280140 		.word	1073817600
ARM GAS  /tmp/cc4J0GLX.s 			page 16


 876              		.section	.text.HAL_ADCEx_InjectedConvCpltCallback,"ax",%progbits
 877              		.align	1
 878              		.weak	HAL_ADCEx_InjectedConvCpltCallback
 879              		.syntax unified
 880              		.thumb
 881              		.thumb_func
 883              	HAL_ADCEx_InjectedConvCpltCallback:
 884              		@ args = 0, pretend = 0, frame = 0
 885              		@ frame_needed = 0, uses_anonymous_args = 0
 886              		@ link register save eliminated.
 887 0000 7047     		bx	lr
 889              		.section	.text.HAL_ADCEx_InjectedConfigChannel,"ax",%progbits
 890              		.align	1
 891              		.global	HAL_ADCEx_InjectedConfigChannel
 892              		.syntax unified
 893              		.thumb
 894              		.thumb_func
 896              	HAL_ADCEx_InjectedConfigChannel:
 897              		@ args = 0, pretend = 0, frame = 8
 898              		@ frame_needed = 0, uses_anonymous_args = 0
 899              		@ link register save eliminated.
 900 0000 70B4     		push	{r4, r5, r6}
 901 0002 83B0     		sub	sp, sp, #12
 902 0004 0022     		movs	r2, #0
 903 0006 0192     		str	r2, [sp, #4]
 904 0008 90F82420 		ldrb	r2, [r0, #36]	@ zero_extendqisi2
 905 000c 012A     		cmp	r2, #1
 906 000e 00F0FC80 		beq	.L164
 907 0012 0346     		mov	r3, r0
 908 0014 0122     		movs	r2, #1
 909 0016 80F82420 		strb	r2, [r0, #36]
 910 001a 8268     		ldr	r2, [r0, #8]
 911 001c 002A     		cmp	r2, #0
 912 001e 56D1     		bne	.L144
 913 0020 4A68     		ldr	r2, [r1, #4]
 914 0022 012A     		cmp	r2, #1
 915 0024 49D0     		beq	.L166
 916 0026 826A     		ldr	r2, [r0, #40]
 917 0028 42F02002 		orr	r2, r2, #32
 918 002c 8262     		str	r2, [r0, #40]
 919 002e 0120     		movs	r0, #1
 920              	.L146:
 921 0030 1C68     		ldr	r4, [r3]
 922 0032 A268     		ldr	r2, [r4, #8]
 923 0034 12F0010F 		tst	r2, #1
 924 0038 07D1     		bne	.L148
 925 003a A268     		ldr	r2, [r4, #8]
 926 003c 22F4E042 		bic	r2, r2, #28672
 927 0040 22F00102 		bic	r2, r2, #1
 928 0044 8D69     		ldr	r5, [r1, #24]
 929 0046 2A43     		orrs	r2, r2, r5
 930 0048 A260     		str	r2, [r4, #8]
 931              	.L148:
 932 004a 4A7D     		ldrb	r2, [r1, #21]	@ zero_extendqisi2
 933 004c 012A     		cmp	r2, #1
 934 004e 67D0     		beq	.L167
 935              	.L149:
ARM GAS  /tmp/cc4J0GLX.s 			page 17


 936 0050 0A7D     		ldrb	r2, [r1, #20]	@ zero_extendqisi2
 937 0052 012A     		cmp	r2, #1
 938 0054 74D0     		beq	.L168
 939              	.L151:
 940 0056 0A68     		ldr	r2, [r1]
 941 0058 092A     		cmp	r2, #9
 942 005a 7FD9     		bls	.L153
 943 005c 1D68     		ldr	r5, [r3]
 944 005e EC68     		ldr	r4, [r5, #12]
 945 0060 02EB4202 		add	r2, r2, r2, lsl #1
 946 0064 1E3A     		subs	r2, r2, #30
 947 0066 4FF0070C 		mov	ip, #7
 948 006a 0CFA02FC 		lsl	ip, ip, r2
 949 006e 24EA0C04 		bic	r4, r4, ip
 950 0072 8E68     		ldr	r6, [r1, #8]
 951 0074 06FA02F2 		lsl	r2, r6, r2
 952 0078 2243     		orrs	r2, r2, r4
 953 007a EA60     		str	r2, [r5, #12]
 954              	.L154:
 955 007c 0A68     		ldr	r2, [r1]
 956 007e 103A     		subs	r2, r2, #16
 957 0080 012A     		cmp	r2, #1
 958 0082 7BD9     		bls	.L169
 959              	.L155:
 960 0084 4A68     		ldr	r2, [r1, #4]
 961 0086 022A     		cmp	r2, #2
 962 0088 7ED0     		beq	.L156
 963 008a 032A     		cmp	r2, #3
 964 008c 00F08480 		beq	.L157
 965 0090 012A     		cmp	r2, #1
 966 0092 40F08980 		bne	.L158
 967 0096 1C68     		ldr	r4, [r3]
 968 0098 6269     		ldr	r2, [r4, #20]
 969 009a 6FF30B02 		bfc	r2, #0, #12
 970 009e CD68     		ldr	r5, [r1, #12]
 971 00a0 2A43     		orrs	r2, r2, r5
 972 00a2 6261     		str	r2, [r4, #20]
 973              	.L159:
 974 00a4 0A68     		ldr	r2, [r1]
 975 00a6 103A     		subs	r2, r2, #16
 976 00a8 012A     		cmp	r2, #1
 977 00aa 40F28580 		bls	.L170
 978              	.L160:
 979 00ae 0022     		movs	r2, #0
 980 00b0 83F82420 		strb	r2, [r3, #36]
 981              	.L143:
 982 00b4 03B0     		add	sp, sp, #12
 983              		@ sp needed
 984 00b6 70BC     		pop	{r4, r5, r6}
 985 00b8 7047     		bx	lr
 986              	.L166:
 987 00ba 0068     		ldr	r0, [r0]
 988 00bc 826B     		ldr	r2, [r0, #56]
 989 00be 6FF31502 		bfc	r2, #0, #22
 990 00c2 0C68     		ldr	r4, [r1]
 991 00c4 42EAC432 		orr	r2, r2, r4, lsl #15
 992 00c8 8263     		str	r2, [r0, #56]
ARM GAS  /tmp/cc4J0GLX.s 			page 18


 993 00ca 0020     		movs	r0, #0
 994 00cc B0E7     		b	.L146
 995              	.L144:
 996 00ce 4A68     		ldr	r2, [r1, #4]
 997 00d0 0869     		ldr	r0, [r1, #16]
 998 00d2 8242     		cmp	r2, r0
 999 00d4 14D8     		bhi	.L147
 1000 00d6 1E68     		ldr	r6, [r3]
 1001 00d8 B46B     		ldr	r4, [r6, #56]
 1002 00da 121A     		subs	r2, r2, r0
 1003 00dc 02EB8202 		add	r2, r2, r2, lsl #2
 1004 00e0 0F32     		adds	r2, r2, #15
 1005 00e2 1F25     		movs	r5, #31
 1006 00e4 9540     		lsls	r5, r5, r2
 1007 00e6 45F44015 		orr	r5, r5, #3145728
 1008 00ea 24EA0504 		bic	r4, r4, r5
 1009 00ee 0138     		subs	r0, r0, #1
 1010 00f0 0D68     		ldr	r5, [r1]
 1011 00f2 9540     		lsls	r5, r5, r2
 1012 00f4 45EA0055 		orr	r5, r5, r0, lsl #20
 1013 00f8 2C43     		orrs	r4, r4, r5
 1014 00fa B463     		str	r4, [r6, #56]
 1015 00fc 0020     		movs	r0, #0
 1016 00fe 97E7     		b	.L146
 1017              	.L147:
 1018 0100 1D68     		ldr	r5, [r3]
 1019 0102 AC6B     		ldr	r4, [r5, #56]
 1020 0104 121A     		subs	r2, r2, r0
 1021 0106 02EB8202 		add	r2, r2, r2, lsl #2
 1022 010a 0F32     		adds	r2, r2, #15
 1023 010c 1F20     		movs	r0, #31
 1024 010e 00FA02F2 		lsl	r2, r0, r2
 1025 0112 42F44012 		orr	r2, r2, #3145728
 1026 0116 24EA0202 		bic	r2, r4, r2
 1027 011a AA63     		str	r2, [r5, #56]
 1028 011c 0020     		movs	r0, #0
 1029 011e 87E7     		b	.L146
 1030              	.L167:
 1031 0120 8C69     		ldr	r4, [r1, #24]
 1032 0122 B4F5E04F 		cmp	r4, #28672
 1033 0126 05D0     		beq	.L171
 1034 0128 986A     		ldr	r0, [r3, #40]
 1035 012a 40F02000 		orr	r0, r0, #32
 1036 012e 9862     		str	r0, [r3, #40]
 1037 0130 1046     		mov	r0, r2
 1038 0132 8DE7     		b	.L149
 1039              	.L171:
 1040 0134 1C68     		ldr	r4, [r3]
 1041 0136 6268     		ldr	r2, [r4, #4]
 1042 0138 42F48062 		orr	r2, r2, #1024
 1043 013c 6260     		str	r2, [r4, #4]
 1044 013e 87E7     		b	.L149
 1045              	.L168:
 1046 0140 4C7D     		ldrb	r4, [r1, #21]	@ zero_extendqisi2
 1047 0142 2CB9     		cbnz	r4, .L152
 1048 0144 1C68     		ldr	r4, [r3]
 1049 0146 6268     		ldr	r2, [r4, #4]
ARM GAS  /tmp/cc4J0GLX.s 			page 19


 1050 0148 42F48052 		orr	r2, r2, #4096
 1051 014c 6260     		str	r2, [r4, #4]
 1052 014e 82E7     		b	.L151
 1053              	.L152:
 1054 0150 986A     		ldr	r0, [r3, #40]
 1055 0152 40F02000 		orr	r0, r0, #32
 1056 0156 9862     		str	r0, [r3, #40]
 1057 0158 1046     		mov	r0, r2
 1058 015a 7CE7     		b	.L151
 1059              	.L153:
 1060 015c 1D68     		ldr	r5, [r3]
 1061 015e 2C69     		ldr	r4, [r5, #16]
 1062 0160 02EB4202 		add	r2, r2, r2, lsl #1
 1063 0164 4FF0070C 		mov	ip, #7
 1064 0168 0CFA02FC 		lsl	ip, ip, r2
 1065 016c 24EA0C04 		bic	r4, r4, ip
 1066 0170 8E68     		ldr	r6, [r1, #8]
 1067 0172 06FA02F2 		lsl	r2, r6, r2
 1068 0176 2243     		orrs	r2, r2, r4
 1069 0178 2A61     		str	r2, [r5, #16]
 1070 017a 7FE7     		b	.L154
 1071              	.L169:
 1072 017c 1C68     		ldr	r4, [r3]
 1073 017e A268     		ldr	r2, [r4, #8]
 1074 0180 42F40002 		orr	r2, r2, #8388608
 1075 0184 A260     		str	r2, [r4, #8]
 1076 0186 7DE7     		b	.L155
 1077              	.L156:
 1078 0188 1C68     		ldr	r4, [r3]
 1079 018a A269     		ldr	r2, [r4, #24]
 1080 018c 6FF30B02 		bfc	r2, #0, #12
 1081 0190 CD68     		ldr	r5, [r1, #12]
 1082 0192 2A43     		orrs	r2, r2, r5
 1083 0194 A261     		str	r2, [r4, #24]
 1084 0196 85E7     		b	.L159
 1085              	.L157:
 1086 0198 1C68     		ldr	r4, [r3]
 1087 019a E269     		ldr	r2, [r4, #28]
 1088 019c 6FF30B02 		bfc	r2, #0, #12
 1089 01a0 CD68     		ldr	r5, [r1, #12]
 1090 01a2 2A43     		orrs	r2, r2, r5
 1091 01a4 E261     		str	r2, [r4, #28]
 1092 01a6 7DE7     		b	.L159
 1093              	.L158:
 1094 01a8 1C68     		ldr	r4, [r3]
 1095 01aa 226A     		ldr	r2, [r4, #32]
 1096 01ac 6FF30B02 		bfc	r2, #0, #12
 1097 01b0 CD68     		ldr	r5, [r1, #12]
 1098 01b2 2A43     		orrs	r2, r2, r5
 1099 01b4 2262     		str	r2, [r4, #32]
 1100 01b6 75E7     		b	.L159
 1101              	.L170:
 1102 01b8 1A68     		ldr	r2, [r3]
 1103 01ba 154C     		ldr	r4, .L173
 1104 01bc A242     		cmp	r2, r4
 1105 01be 05D0     		beq	.L172
 1106 01c0 9A6A     		ldr	r2, [r3, #40]
ARM GAS  /tmp/cc4J0GLX.s 			page 20


 1107 01c2 42F02002 		orr	r2, r2, #32
 1108 01c6 9A62     		str	r2, [r3, #40]
 1109 01c8 0120     		movs	r0, #1
 1110 01ca 70E7     		b	.L160
 1111              	.L172:
 1112 01cc 9468     		ldr	r4, [r2, #8]
 1113 01ce 14F4000F 		tst	r4, #8388608
 1114 01d2 7FF46CAF 		bne	.L160
 1115 01d6 9468     		ldr	r4, [r2, #8]
 1116 01d8 44F40004 		orr	r4, r4, #8388608
 1117 01dc 9460     		str	r4, [r2, #8]
 1118 01de 0A68     		ldr	r2, [r1]
 1119 01e0 102A     		cmp	r2, #16
 1120 01e2 7FF464AF 		bne	.L160
 1121 01e6 0B4A     		ldr	r2, .L173+4
 1122 01e8 1268     		ldr	r2, [r2]
 1123 01ea 0B49     		ldr	r1, .L173+8
 1124 01ec A1FB0212 		umull	r1, r2, r1, r2
 1125 01f0 920C     		lsrs	r2, r2, #18
 1126 01f2 02EB8202 		add	r2, r2, r2, lsl #2
 1127 01f6 5200     		lsls	r2, r2, #1
 1128 01f8 0192     		str	r2, [sp, #4]
 1129 01fa 02E0     		b	.L162
 1130              	.L163:
 1131 01fc 019A     		ldr	r2, [sp, #4]
 1132 01fe 013A     		subs	r2, r2, #1
 1133 0200 0192     		str	r2, [sp, #4]
 1134              	.L162:
 1135 0202 019A     		ldr	r2, [sp, #4]
 1136 0204 002A     		cmp	r2, #0
 1137 0206 F9D1     		bne	.L163
 1138 0208 51E7     		b	.L160
 1139              	.L164:
 1140 020a 0220     		movs	r0, #2
 1141 020c 52E7     		b	.L143
 1142              	.L174:
 1143 020e 00BF     		.align	2
 1144              	.L173:
 1145 0210 00240140 		.word	1073816576
 1146 0214 00000000 		.word	SystemCoreClock
 1147 0218 83DE1B43 		.word	1125899907
 1149              		.section	.text.HAL_ADCEx_MultiModeConfigChannel,"ax",%progbits
 1150              		.align	1
 1151              		.global	HAL_ADCEx_MultiModeConfigChannel
 1152              		.syntax unified
 1153              		.thumb
 1154              		.thumb_func
 1156              	HAL_ADCEx_MultiModeConfigChannel:
 1157              		@ args = 0, pretend = 0, frame = 48
 1158              		@ frame_needed = 0, uses_anonymous_args = 0
 1159 0000 30B5     		push	{r4, r5, lr}
 1160 0002 8DB0     		sub	sp, sp, #52
 1161 0004 0446     		mov	r4, r0
 1162 0006 0D46     		mov	r5, r1
 1163 0008 3022     		movs	r2, #48
 1164 000a 0021     		movs	r1, #0
 1165 000c 6846     		mov	r0, sp
ARM GAS  /tmp/cc4J0GLX.s 			page 21


 1166 000e FFF7FEFF 		bl	memset
 1167 0012 94F82430 		ldrb	r3, [r4, #36]	@ zero_extendqisi2
 1168 0016 012B     		cmp	r3, #1
 1169 0018 23D0     		beq	.L179
 1170 001a 0123     		movs	r3, #1
 1171 001c 84F82430 		strb	r3, [r4, #36]
 1172 0020 114B     		ldr	r3, .L182
 1173 0022 0093     		str	r3, [sp]
 1174 0024 2368     		ldr	r3, [r4]
 1175 0026 9A68     		ldr	r2, [r3, #8]
 1176 0028 12F0010F 		tst	r2, #1
 1177 002c 07D1     		bne	.L177
 1178 002e 0E4A     		ldr	r2, .L182
 1179 0030 9268     		ldr	r2, [r2, #8]
 1180 0032 12F0010F 		tst	r2, #1
 1181 0036 02D1     		bne	.L177
 1182 0038 0C4A     		ldr	r2, .L182+4
 1183 003a 9342     		cmp	r3, r2
 1184 003c 09D0     		beq	.L181
 1185              	.L177:
 1186 003e A36A     		ldr	r3, [r4, #40]
 1187 0040 43F02003 		orr	r3, r3, #32
 1188 0044 A362     		str	r3, [r4, #40]
 1189 0046 0120     		movs	r0, #1
 1190              	.L178:
 1191 0048 0023     		movs	r3, #0
 1192 004a 84F82430 		strb	r3, [r4, #36]
 1193              	.L176:
 1194 004e 0DB0     		add	sp, sp, #52
 1195              		@ sp needed
 1196 0050 30BD     		pop	{r4, r5, pc}
 1197              	.L181:
 1198 0052 5A68     		ldr	r2, [r3, #4]
 1199 0054 22F47022 		bic	r2, r2, #983040
 1200 0058 2968     		ldr	r1, [r5]
 1201 005a 0A43     		orrs	r2, r2, r1
 1202 005c 5A60     		str	r2, [r3, #4]
 1203 005e 0020     		movs	r0, #0
 1204 0060 F2E7     		b	.L178
 1205              	.L179:
 1206 0062 0220     		movs	r0, #2
 1207 0064 F3E7     		b	.L176
 1208              	.L183:
 1209 0066 00BF     		.align	2
 1210              	.L182:
 1211 0068 00280140 		.word	1073817600
 1212 006c 00240140 		.word	1073816576
 1214              		.ident	"GCC: (15:13.3.rel1-1) 13.3.1 20240614"
ARM GAS  /tmp/cc4J0GLX.s 			page 22

