ARM GAS  /tmp/ccJhWMjo.s 			page 1


   1              		.cpu cortex-m3
   2              		.arch armv7-m
   3              		.fpu softvfp
   4              		.eabi_attribute 20, 1
   5              		.eabi_attribute 21, 1
   6              		.eabi_attribute 23, 3
   7              		.eabi_attribute 24, 1
   8              		.eabi_attribute 25, 1
   9              		.eabi_attribute 26, 1
  10              		.eabi_attribute 30, 1
  11              		.eabi_attribute 34, 1
  12              		.eabi_attribute 18, 4
  13              		.file	"stm32f1xx_hal_tim.c"
  14              		.text
  15              		.section	.text.TIM_OC1_SetConfig,"ax",%progbits
  16              		.align	1
  17              		.syntax unified
  18              		.thumb
  19              		.thumb_func
  21              	TIM_OC1_SetConfig:
  22              		@ args = 0, pretend = 0, frame = 0
  23              		@ frame_needed = 0, uses_anonymous_args = 0
  24              		@ link register save eliminated.
  25 0000 30B4     		push	{r4, r5}
  26 0002 026A     		ldr	r2, [r0, #32]
  27 0004 036A     		ldr	r3, [r0, #32]
  28 0006 23F00103 		bic	r3, r3, #1
  29 000a 0362     		str	r3, [r0, #32]
  30 000c 4568     		ldr	r5, [r0, #4]
  31 000e 8369     		ldr	r3, [r0, #24]
  32 0010 23F07303 		bic	r3, r3, #115
  33 0014 0C68     		ldr	r4, [r1]
  34 0016 1C43     		orrs	r4, r4, r3
  35 0018 22F00202 		bic	r2, r2, #2
  36 001c 8B68     		ldr	r3, [r1, #8]
  37 001e 1343     		orrs	r3, r3, r2
  38 0020 0B4A     		ldr	r2, .L5
  39 0022 9042     		cmp	r0, r2
  40 0024 06D0     		beq	.L4
  41              	.L2:
  42 0026 4560     		str	r5, [r0, #4]
  43 0028 8461     		str	r4, [r0, #24]
  44 002a 4A68     		ldr	r2, [r1, #4]
  45 002c 4263     		str	r2, [r0, #52]
  46 002e 0362     		str	r3, [r0, #32]
  47 0030 30BC     		pop	{r4, r5}
  48 0032 7047     		bx	lr
  49              	.L4:
  50 0034 23F00803 		bic	r3, r3, #8
  51 0038 CA68     		ldr	r2, [r1, #12]
  52 003a 1A43     		orrs	r2, r2, r3
  53 003c 22F00403 		bic	r3, r2, #4
  54 0040 25F44075 		bic	r5, r5, #768
  55 0044 4A69     		ldr	r2, [r1, #20]
  56 0046 2A43     		orrs	r2, r2, r5
  57 0048 8D69     		ldr	r5, [r1, #24]
  58 004a 1543     		orrs	r5, r5, r2
ARM GAS  /tmp/ccJhWMjo.s 			page 2


  59 004c EBE7     		b	.L2
  60              	.L6:
  61 004e 00BF     		.align	2
  62              	.L5:
  63 0050 002C0140 		.word	1073818624
  65              		.section	.text.TIM_OC3_SetConfig,"ax",%progbits
  66              		.align	1
  67              		.syntax unified
  68              		.thumb
  69              		.thumb_func
  71              	TIM_OC3_SetConfig:
  72              		@ args = 0, pretend = 0, frame = 0
  73              		@ frame_needed = 0, uses_anonymous_args = 0
  74              		@ link register save eliminated.
  75 0000 30B4     		push	{r4, r5}
  76 0002 036A     		ldr	r3, [r0, #32]
  77 0004 026A     		ldr	r2, [r0, #32]
  78 0006 22F48072 		bic	r2, r2, #256
  79 000a 0262     		str	r2, [r0, #32]
  80 000c 4468     		ldr	r4, [r0, #4]
  81 000e C269     		ldr	r2, [r0, #28]
  82 0010 22F07302 		bic	r2, r2, #115
  83 0014 0D68     		ldr	r5, [r1]
  84 0016 1543     		orrs	r5, r5, r2
  85 0018 23F40073 		bic	r3, r3, #512
  86 001c 8A68     		ldr	r2, [r1, #8]
  87 001e 43EA0223 		orr	r3, r3, r2, lsl #8
  88 0022 0D4A     		ldr	r2, .L11
  89 0024 9042     		cmp	r0, r2
  90 0026 06D0     		beq	.L10
  91              	.L8:
  92 0028 4460     		str	r4, [r0, #4]
  93 002a C561     		str	r5, [r0, #28]
  94 002c 4A68     		ldr	r2, [r1, #4]
  95 002e C263     		str	r2, [r0, #60]
  96 0030 0362     		str	r3, [r0, #32]
  97 0032 30BC     		pop	{r4, r5}
  98 0034 7047     		bx	lr
  99              	.L10:
 100 0036 23F40063 		bic	r3, r3, #2048
 101 003a CA68     		ldr	r2, [r1, #12]
 102 003c 43EA0223 		orr	r3, r3, r2, lsl #8
 103 0040 23F48063 		bic	r3, r3, #1024
 104 0044 24F44054 		bic	r4, r4, #12288
 105 0048 4A69     		ldr	r2, [r1, #20]
 106 004a 44EA0214 		orr	r4, r4, r2, lsl #4
 107 004e 8A69     		ldr	r2, [r1, #24]
 108 0050 44EA0214 		orr	r4, r4, r2, lsl #4
 109 0054 E8E7     		b	.L8
 110              	.L12:
 111 0056 00BF     		.align	2
 112              	.L11:
 113 0058 002C0140 		.word	1073818624
 115              		.section	.text.TIM_OC4_SetConfig,"ax",%progbits
 116              		.align	1
 117              		.syntax unified
 118              		.thumb
ARM GAS  /tmp/ccJhWMjo.s 			page 3


 119              		.thumb_func
 121              	TIM_OC4_SetConfig:
 122              		@ args = 0, pretend = 0, frame = 0
 123              		@ frame_needed = 0, uses_anonymous_args = 0
 124              		@ link register save eliminated.
 125 0000 30B4     		push	{r4, r5}
 126 0002 036A     		ldr	r3, [r0, #32]
 127 0004 026A     		ldr	r2, [r0, #32]
 128 0006 22F48052 		bic	r2, r2, #4096
 129 000a 0262     		str	r2, [r0, #32]
 130 000c 4468     		ldr	r4, [r0, #4]
 131 000e C269     		ldr	r2, [r0, #28]
 132 0010 22F4E642 		bic	r2, r2, #29440
 133 0014 0D68     		ldr	r5, [r1]
 134 0016 42EA0522 		orr	r2, r2, r5, lsl #8
 135 001a 23F40053 		bic	r3, r3, #8192
 136 001e 8D68     		ldr	r5, [r1, #8]
 137 0020 43EA0533 		orr	r3, r3, r5, lsl #12
 138 0024 074D     		ldr	r5, .L17
 139 0026 A842     		cmp	r0, r5
 140 0028 06D0     		beq	.L16
 141              	.L14:
 142 002a 4460     		str	r4, [r0, #4]
 143 002c C261     		str	r2, [r0, #28]
 144 002e 4A68     		ldr	r2, [r1, #4]
 145 0030 0264     		str	r2, [r0, #64]
 146 0032 0362     		str	r3, [r0, #32]
 147 0034 30BC     		pop	{r4, r5}
 148 0036 7047     		bx	lr
 149              	.L16:
 150 0038 24F48044 		bic	r4, r4, #16384
 151 003c 4D69     		ldr	r5, [r1, #20]
 152 003e 44EA8514 		orr	r4, r4, r5, lsl #6
 153 0042 F2E7     		b	.L14
 154              	.L18:
 155              		.align	2
 156              	.L17:
 157 0044 002C0140 		.word	1073818624
 159              		.section	.text.TIM_TI1_ConfigInputStage,"ax",%progbits
 160              		.align	1
 161              		.syntax unified
 162              		.thumb
 163              		.thumb_func
 165              	TIM_TI1_ConfigInputStage:
 166              		@ args = 0, pretend = 0, frame = 0
 167              		@ frame_needed = 0, uses_anonymous_args = 0
 168              		@ link register save eliminated.
 169 0000 10B4     		push	{r4}
 170 0002 036A     		ldr	r3, [r0, #32]
 171 0004 046A     		ldr	r4, [r0, #32]
 172 0006 24F00104 		bic	r4, r4, #1
 173 000a 0462     		str	r4, [r0, #32]
 174 000c 8469     		ldr	r4, [r0, #24]
 175 000e 24F0F00C 		bic	ip, r4, #240
 176 0012 4CEA0212 		orr	r2, ip, r2, lsl #4
 177 0016 23F00A03 		bic	r3, r3, #10
 178 001a 0B43     		orrs	r3, r3, r1
ARM GAS  /tmp/ccJhWMjo.s 			page 4


 179 001c 8261     		str	r2, [r0, #24]
 180 001e 0362     		str	r3, [r0, #32]
 181 0020 10BC     		pop	{r4}
 182 0022 7047     		bx	lr
 184              		.section	.text.TIM_TI2_SetConfig,"ax",%progbits
 185              		.align	1
 186              		.syntax unified
 187              		.thumb
 188              		.thumb_func
 190              	TIM_TI2_SetConfig:
 191              		@ args = 0, pretend = 0, frame = 0
 192              		@ frame_needed = 0, uses_anonymous_args = 0
 193              		@ link register save eliminated.
 194 0000 30B4     		push	{r4, r5}
 195 0002 056A     		ldr	r5, [r0, #32]
 196 0004 046A     		ldr	r4, [r0, #32]
 197 0006 24F01004 		bic	r4, r4, #16
 198 000a 0462     		str	r4, [r0, #32]
 199 000c 8469     		ldr	r4, [r0, #24]
 200 000e 24F4407C 		bic	ip, r4, #768
 201 0012 4CEA022C 		orr	ip, ip, r2, lsl #8
 202 0016 2CF4704C 		bic	ip, ip, #61440
 203 001a 1B03     		lsls	r3, r3, #12
 204 001c 9BB2     		uxth	r3, r3
 205 001e 43EA0C03 		orr	r3, r3, ip
 206 0022 25F0A005 		bic	r5, r5, #160
 207 0026 0901     		lsls	r1, r1, #4
 208 0028 01F0A001 		and	r1, r1, #160
 209 002c 2943     		orrs	r1, r1, r5
 210 002e 8361     		str	r3, [r0, #24]
 211 0030 0162     		str	r1, [r0, #32]
 212 0032 30BC     		pop	{r4, r5}
 213 0034 7047     		bx	lr
 215              		.section	.text.TIM_TI2_ConfigInputStage,"ax",%progbits
 216              		.align	1
 217              		.syntax unified
 218              		.thumb
 219              		.thumb_func
 221              	TIM_TI2_ConfigInputStage:
 222              		@ args = 0, pretend = 0, frame = 0
 223              		@ frame_needed = 0, uses_anonymous_args = 0
 224              		@ link register save eliminated.
 225 0000 10B4     		push	{r4}
 226 0002 036A     		ldr	r3, [r0, #32]
 227 0004 046A     		ldr	r4, [r0, #32]
 228 0006 24F01004 		bic	r4, r4, #16
 229 000a 0462     		str	r4, [r0, #32]
 230 000c 8469     		ldr	r4, [r0, #24]
 231 000e 24F4704C 		bic	ip, r4, #61440
 232 0012 4CEA0232 		orr	r2, ip, r2, lsl #12
 233 0016 23F0A003 		bic	r3, r3, #160
 234 001a 43EA0113 		orr	r3, r3, r1, lsl #4
 235 001e 8261     		str	r2, [r0, #24]
 236 0020 0362     		str	r3, [r0, #32]
 237 0022 10BC     		pop	{r4}
 238 0024 7047     		bx	lr
 240              		.section	.text.TIM_TI3_SetConfig,"ax",%progbits
ARM GAS  /tmp/ccJhWMjo.s 			page 5


 241              		.align	1
 242              		.syntax unified
 243              		.thumb
 244              		.thumb_func
 246              	TIM_TI3_SetConfig:
 247              		@ args = 0, pretend = 0, frame = 0
 248              		@ frame_needed = 0, uses_anonymous_args = 0
 249              		@ link register save eliminated.
 250 0000 30B4     		push	{r4, r5}
 251 0002 056A     		ldr	r5, [r0, #32]
 252 0004 046A     		ldr	r4, [r0, #32]
 253 0006 24F48074 		bic	r4, r4, #256
 254 000a 0462     		str	r4, [r0, #32]
 255 000c C469     		ldr	r4, [r0, #28]
 256 000e 24F0030C 		bic	ip, r4, #3
 257 0012 4CEA020C 		orr	ip, ip, r2
 258 0016 2CF0F00C 		bic	ip, ip, #240
 259 001a 1B01     		lsls	r3, r3, #4
 260 001c DBB2     		uxtb	r3, r3
 261 001e 43EA0C03 		orr	r3, r3, ip
 262 0022 25F40075 		bic	r5, r5, #512
 263 0026 0902     		lsls	r1, r1, #8
 264 0028 01F40071 		and	r1, r1, #512
 265 002c 2943     		orrs	r1, r1, r5
 266 002e C361     		str	r3, [r0, #28]
 267 0030 0162     		str	r1, [r0, #32]
 268 0032 30BC     		pop	{r4, r5}
 269 0034 7047     		bx	lr
 271              		.section	.text.TIM_TI4_SetConfig,"ax",%progbits
 272              		.align	1
 273              		.syntax unified
 274              		.thumb
 275              		.thumb_func
 277              	TIM_TI4_SetConfig:
 278              		@ args = 0, pretend = 0, frame = 0
 279              		@ frame_needed = 0, uses_anonymous_args = 0
 280              		@ link register save eliminated.
 281 0000 30B4     		push	{r4, r5}
 282 0002 056A     		ldr	r5, [r0, #32]
 283 0004 046A     		ldr	r4, [r0, #32]
 284 0006 24F48054 		bic	r4, r4, #4096
 285 000a 0462     		str	r4, [r0, #32]
 286 000c C469     		ldr	r4, [r0, #28]
 287 000e 24F4407C 		bic	ip, r4, #768
 288 0012 4CEA022C 		orr	ip, ip, r2, lsl #8
 289 0016 2CF4704C 		bic	ip, ip, #61440
 290 001a 1B03     		lsls	r3, r3, #12
 291 001c 9BB2     		uxth	r3, r3
 292 001e 43EA0C03 		orr	r3, r3, ip
 293 0022 25F40055 		bic	r5, r5, #8192
 294 0026 0903     		lsls	r1, r1, #12
 295 0028 01F40051 		and	r1, r1, #8192
 296 002c 2943     		orrs	r1, r1, r5
 297 002e C361     		str	r3, [r0, #28]
 298 0030 0162     		str	r1, [r0, #32]
 299 0032 30BC     		pop	{r4, r5}
 300 0034 7047     		bx	lr
ARM GAS  /tmp/ccJhWMjo.s 			page 6


 302              		.section	.text.TIM_ITRx_SetConfig,"ax",%progbits
 303              		.align	1
 304              		.syntax unified
 305              		.thumb
 306              		.thumb_func
 308              	TIM_ITRx_SetConfig:
 309              		@ args = 0, pretend = 0, frame = 0
 310              		@ frame_needed = 0, uses_anonymous_args = 0
 311              		@ link register save eliminated.
 312 0000 8368     		ldr	r3, [r0, #8]
 313 0002 23F07003 		bic	r3, r3, #112
 314 0006 0B43     		orrs	r3, r3, r1
 315 0008 43F00703 		orr	r3, r3, #7
 316 000c 8360     		str	r3, [r0, #8]
 317 000e 7047     		bx	lr
 319              		.section	.text.HAL_TIM_Base_MspInit,"ax",%progbits
 320              		.align	1
 321              		.weak	HAL_TIM_Base_MspInit
 322              		.syntax unified
 323              		.thumb
 324              		.thumb_func
 326              	HAL_TIM_Base_MspInit:
 327              		@ args = 0, pretend = 0, frame = 0
 328              		@ frame_needed = 0, uses_anonymous_args = 0
 329              		@ link register save eliminated.
 330 0000 7047     		bx	lr
 332              		.section	.text.HAL_TIM_Base_MspDeInit,"ax",%progbits
 333              		.align	1
 334              		.weak	HAL_TIM_Base_MspDeInit
 335              		.syntax unified
 336              		.thumb
 337              		.thumb_func
 339              	HAL_TIM_Base_MspDeInit:
 340              		@ args = 0, pretend = 0, frame = 0
 341              		@ frame_needed = 0, uses_anonymous_args = 0
 342              		@ link register save eliminated.
 343 0000 7047     		bx	lr
 345              		.section	.text.HAL_TIM_Base_DeInit,"ax",%progbits
 346              		.align	1
 347              		.global	HAL_TIM_Base_DeInit
 348              		.syntax unified
 349              		.thumb
 350              		.thumb_func
 352              	HAL_TIM_Base_DeInit:
 353              		@ args = 0, pretend = 0, frame = 0
 354              		@ frame_needed = 0, uses_anonymous_args = 0
 355 0000 10B5     		push	{r4, lr}
 356 0002 0446     		mov	r4, r0
 357 0004 0223     		movs	r3, #2
 358 0006 80F83D30 		strb	r3, [r0, #61]
 359 000a 0368     		ldr	r3, [r0]
 360 000c 196A     		ldr	r1, [r3, #32]
 361 000e 41F21112 		movw	r2, #4369
 362 0012 1142     		tst	r1, r2
 363 0014 08D1     		bne	.L33
 364 0016 196A     		ldr	r1, [r3, #32]
 365 0018 40F24442 		movw	r2, #1092
ARM GAS  /tmp/ccJhWMjo.s 			page 7


 366 001c 1142     		tst	r1, r2
 367 001e 03D1     		bne	.L33
 368 0020 1A68     		ldr	r2, [r3]
 369 0022 22F00102 		bic	r2, r2, #1
 370 0026 1A60     		str	r2, [r3]
 371              	.L33:
 372 0028 2046     		mov	r0, r4
 373 002a FFF7FEFF 		bl	HAL_TIM_Base_MspDeInit
 374 002e 0020     		movs	r0, #0
 375 0030 84F84600 		strb	r0, [r4, #70]
 376 0034 84F83E00 		strb	r0, [r4, #62]
 377 0038 84F83F00 		strb	r0, [r4, #63]
 378 003c 84F84000 		strb	r0, [r4, #64]
 379 0040 84F84100 		strb	r0, [r4, #65]
 380 0044 84F84200 		strb	r0, [r4, #66]
 381 0048 84F84300 		strb	r0, [r4, #67]
 382 004c 84F84400 		strb	r0, [r4, #68]
 383 0050 84F84500 		strb	r0, [r4, #69]
 384 0054 84F83D00 		strb	r0, [r4, #61]
 385 0058 84F83C00 		strb	r0, [r4, #60]
 386 005c 10BD     		pop	{r4, pc}
 388              		.section	.text.HAL_TIM_Base_Start,"ax",%progbits
 389              		.align	1
 390              		.global	HAL_TIM_Base_Start
 391              		.syntax unified
 392              		.thumb
 393              		.thumb_func
 395              	HAL_TIM_Base_Start:
 396              		@ args = 0, pretend = 0, frame = 0
 397              		@ frame_needed = 0, uses_anonymous_args = 0
 398              		@ link register save eliminated.
 399 0000 90F83D30 		ldrb	r3, [r0, #61]	@ zero_extendqisi2
 400 0004 DBB2     		uxtb	r3, r3
 401 0006 012B     		cmp	r3, #1
 402 0008 22D1     		bne	.L39
 403 000a 0223     		movs	r3, #2
 404 000c 80F83D30 		strb	r3, [r0, #61]
 405 0010 0368     		ldr	r3, [r0]
 406 0012 114A     		ldr	r2, .L41
 407 0014 9342     		cmp	r3, r2
 408 0016 10D0     		beq	.L37
 409 0018 B3F1804F 		cmp	r3, #1073741824
 410 001c 0DD0     		beq	.L37
 411 001e A2F59432 		sub	r2, r2, #75776
 412 0022 9342     		cmp	r3, r2
 413 0024 09D0     		beq	.L37
 414 0026 02F58062 		add	r2, r2, #1024
 415 002a 9342     		cmp	r3, r2
 416 002c 05D0     		beq	.L37
 417 002e 1A68     		ldr	r2, [r3]
 418 0030 42F00102 		orr	r2, r2, #1
 419 0034 1A60     		str	r2, [r3]
 420 0036 0020     		movs	r0, #0
 421 0038 7047     		bx	lr
 422              	.L37:
 423 003a 9A68     		ldr	r2, [r3, #8]
 424 003c 02F00702 		and	r2, r2, #7
ARM GAS  /tmp/ccJhWMjo.s 			page 8


 425 0040 062A     		cmp	r2, #6
 426 0042 07D0     		beq	.L40
 427 0044 1A68     		ldr	r2, [r3]
 428 0046 42F00102 		orr	r2, r2, #1
 429 004a 1A60     		str	r2, [r3]
 430 004c 0020     		movs	r0, #0
 431 004e 7047     		bx	lr
 432              	.L39:
 433 0050 0120     		movs	r0, #1
 434 0052 7047     		bx	lr
 435              	.L40:
 436 0054 0020     		movs	r0, #0
 437 0056 7047     		bx	lr
 438              	.L42:
 439              		.align	2
 440              	.L41:
 441 0058 002C0140 		.word	1073818624
 443              		.section	.text.HAL_TIM_Base_Stop,"ax",%progbits
 444              		.align	1
 445              		.global	HAL_TIM_Base_Stop
 446              		.syntax unified
 447              		.thumb
 448              		.thumb_func
 450              	HAL_TIM_Base_Stop:
 451              		@ args = 0, pretend = 0, frame = 0
 452              		@ frame_needed = 0, uses_anonymous_args = 0
 453              		@ link register save eliminated.
 454 0000 0368     		ldr	r3, [r0]
 455 0002 196A     		ldr	r1, [r3, #32]
 456 0004 41F21112 		movw	r2, #4369
 457 0008 1142     		tst	r1, r2
 458 000a 08D1     		bne	.L44
 459 000c 196A     		ldr	r1, [r3, #32]
 460 000e 40F24442 		movw	r2, #1092
 461 0012 1142     		tst	r1, r2
 462 0014 03D1     		bne	.L44
 463 0016 1A68     		ldr	r2, [r3]
 464 0018 22F00102 		bic	r2, r2, #1
 465 001c 1A60     		str	r2, [r3]
 466              	.L44:
 467 001e 0123     		movs	r3, #1
 468 0020 80F83D30 		strb	r3, [r0, #61]
 469 0024 0020     		movs	r0, #0
 470 0026 7047     		bx	lr
 472              		.section	.text.HAL_TIM_Base_Start_IT,"ax",%progbits
 473              		.align	1
 474              		.global	HAL_TIM_Base_Start_IT
 475              		.syntax unified
 476              		.thumb
 477              		.thumb_func
 479              	HAL_TIM_Base_Start_IT:
 480              		@ args = 0, pretend = 0, frame = 0
 481              		@ frame_needed = 0, uses_anonymous_args = 0
 482              		@ link register save eliminated.
 483 0000 90F83D30 		ldrb	r3, [r0, #61]	@ zero_extendqisi2
 484 0004 DBB2     		uxtb	r3, r3
 485 0006 012B     		cmp	r3, #1
ARM GAS  /tmp/ccJhWMjo.s 			page 9


 486 0008 27D1     		bne	.L49
 487 000a 0223     		movs	r3, #2
 488 000c 80F83D30 		strb	r3, [r0, #61]
 489 0010 0268     		ldr	r2, [r0]
 490 0012 D368     		ldr	r3, [r2, #12]
 491 0014 43F00103 		orr	r3, r3, #1
 492 0018 D360     		str	r3, [r2, #12]
 493 001a 0368     		ldr	r3, [r0]
 494 001c 114A     		ldr	r2, .L51
 495 001e 9342     		cmp	r3, r2
 496 0020 10D0     		beq	.L47
 497 0022 B3F1804F 		cmp	r3, #1073741824
 498 0026 0DD0     		beq	.L47
 499 0028 A2F59432 		sub	r2, r2, #75776
 500 002c 9342     		cmp	r3, r2
 501 002e 09D0     		beq	.L47
 502 0030 02F58062 		add	r2, r2, #1024
 503 0034 9342     		cmp	r3, r2
 504 0036 05D0     		beq	.L47
 505 0038 1A68     		ldr	r2, [r3]
 506 003a 42F00102 		orr	r2, r2, #1
 507 003e 1A60     		str	r2, [r3]
 508 0040 0020     		movs	r0, #0
 509 0042 7047     		bx	lr
 510              	.L47:
 511 0044 9A68     		ldr	r2, [r3, #8]
 512 0046 02F00702 		and	r2, r2, #7
 513 004a 062A     		cmp	r2, #6
 514 004c 07D0     		beq	.L50
 515 004e 1A68     		ldr	r2, [r3]
 516 0050 42F00102 		orr	r2, r2, #1
 517 0054 1A60     		str	r2, [r3]
 518 0056 0020     		movs	r0, #0
 519 0058 7047     		bx	lr
 520              	.L49:
 521 005a 0120     		movs	r0, #1
 522 005c 7047     		bx	lr
 523              	.L50:
 524 005e 0020     		movs	r0, #0
 525 0060 7047     		bx	lr
 526              	.L52:
 527 0062 00BF     		.align	2
 528              	.L51:
 529 0064 002C0140 		.word	1073818624
 531              		.section	.text.HAL_TIM_Base_Stop_IT,"ax",%progbits
 532              		.align	1
 533              		.global	HAL_TIM_Base_Stop_IT
 534              		.syntax unified
 535              		.thumb
 536              		.thumb_func
 538              	HAL_TIM_Base_Stop_IT:
 539              		@ args = 0, pretend = 0, frame = 0
 540              		@ frame_needed = 0, uses_anonymous_args = 0
 541              		@ link register save eliminated.
 542 0000 0268     		ldr	r2, [r0]
 543 0002 D368     		ldr	r3, [r2, #12]
 544 0004 23F00103 		bic	r3, r3, #1
ARM GAS  /tmp/ccJhWMjo.s 			page 10


 545 0008 D360     		str	r3, [r2, #12]
 546 000a 0368     		ldr	r3, [r0]
 547 000c 196A     		ldr	r1, [r3, #32]
 548 000e 41F21112 		movw	r2, #4369
 549 0012 1142     		tst	r1, r2
 550 0014 08D1     		bne	.L54
 551 0016 196A     		ldr	r1, [r3, #32]
 552 0018 40F24442 		movw	r2, #1092
 553 001c 1142     		tst	r1, r2
 554 001e 03D1     		bne	.L54
 555 0020 1A68     		ldr	r2, [r3]
 556 0022 22F00102 		bic	r2, r2, #1
 557 0026 1A60     		str	r2, [r3]
 558              	.L54:
 559 0028 0123     		movs	r3, #1
 560 002a 80F83D30 		strb	r3, [r0, #61]
 561 002e 0020     		movs	r0, #0
 562 0030 7047     		bx	lr
 564              		.section	.text.HAL_TIM_Base_Start_DMA,"ax",%progbits
 565              		.align	1
 566              		.global	HAL_TIM_Base_Start_DMA
 567              		.syntax unified
 568              		.thumb
 569              		.thumb_func
 571              	HAL_TIM_Base_Start_DMA:
 572              		@ args = 0, pretend = 0, frame = 0
 573              		@ frame_needed = 0, uses_anonymous_args = 0
 574 0000 38B5     		push	{r3, r4, r5, lr}
 575 0002 90F83D40 		ldrb	r4, [r0, #61]	@ zero_extendqisi2
 576 0006 E4B2     		uxtb	r4, r4
 577 0008 022C     		cmp	r4, #2
 578 000a 44D0     		beq	.L56
 579 000c 0546     		mov	r5, r0
 580 000e 90F83D40 		ldrb	r4, [r0, #61]	@ zero_extendqisi2
 581 0012 E4B2     		uxtb	r4, r4
 582 0014 012C     		cmp	r4, #1
 583 0016 3DD1     		bne	.L59
 584 0018 0029     		cmp	r1, #0
 585 001a 3CD0     		beq	.L56
 586 001c 002A     		cmp	r2, #0
 587 001e 3AD0     		beq	.L56
 588 0020 0223     		movs	r3, #2
 589 0022 80F83D30 		strb	r3, [r0, #61]
 590 0026 036A     		ldr	r3, [r0, #32]
 591 0028 1D48     		ldr	r0, .L62
 592 002a 9862     		str	r0, [r3, #40]
 593 002c 2B6A     		ldr	r3, [r5, #32]
 594 002e 1D48     		ldr	r0, .L62+4
 595 0030 D862     		str	r0, [r3, #44]
 596 0032 2B6A     		ldr	r3, [r5, #32]
 597 0034 1C48     		ldr	r0, .L62+8
 598 0036 1863     		str	r0, [r3, #48]
 599 0038 2868     		ldr	r0, [r5]
 600 003a 1346     		mov	r3, r2
 601 003c 00F12C02 		add	r2, r0, #44
 602 0040 286A     		ldr	r0, [r5, #32]
 603 0042 FFF7FEFF 		bl	HAL_DMA_Start_IT
ARM GAS  /tmp/ccJhWMjo.s 			page 11


 604 0046 0146     		mov	r1, r0
 605 0048 28BB     		cbnz	r0, .L56
 606 004a 2A68     		ldr	r2, [r5]
 607 004c D368     		ldr	r3, [r2, #12]
 608 004e 43F48073 		orr	r3, r3, #256
 609 0052 D360     		str	r3, [r2, #12]
 610 0054 2B68     		ldr	r3, [r5]
 611 0056 154A     		ldr	r2, .L62+12
 612 0058 9342     		cmp	r3, r2
 613 005a 10D0     		beq	.L57
 614 005c B3F1804F 		cmp	r3, #1073741824
 615 0060 0DD0     		beq	.L57
 616 0062 A2F59432 		sub	r2, r2, #75776
 617 0066 9342     		cmp	r3, r2
 618 0068 09D0     		beq	.L57
 619 006a 02F58062 		add	r2, r2, #1024
 620 006e 9342     		cmp	r3, r2
 621 0070 05D0     		beq	.L57
 622 0072 1A68     		ldr	r2, [r3]
 623 0074 42F00102 		orr	r2, r2, #1
 624 0078 1A60     		str	r2, [r3]
 625 007a 0446     		mov	r4, r0
 626 007c 0BE0     		b	.L56
 627              	.L57:
 628 007e 9A68     		ldr	r2, [r3, #8]
 629 0080 02F00702 		and	r2, r2, #7
 630 0084 062A     		cmp	r2, #6
 631 0086 08D0     		beq	.L60
 632 0088 1A68     		ldr	r2, [r3]
 633 008a 42F00102 		orr	r2, r2, #1
 634 008e 1A60     		str	r2, [r3]
 635 0090 0C46     		mov	r4, r1
 636 0092 00E0     		b	.L56
 637              	.L59:
 638 0094 0124     		movs	r4, #1
 639              	.L56:
 640 0096 2046     		mov	r0, r4
 641 0098 38BD     		pop	{r3, r4, r5, pc}
 642              	.L60:
 643 009a 0C46     		mov	r4, r1
 644 009c FBE7     		b	.L56
 645              	.L63:
 646 009e 00BF     		.align	2
 647              	.L62:
 648 00a0 00000000 		.word	TIM_DMAPeriodElapsedCplt
 649 00a4 00000000 		.word	TIM_DMAPeriodElapsedHalfCplt
 650 00a8 00000000 		.word	TIM_DMAError
 651 00ac 002C0140 		.word	1073818624
 653              		.section	.text.HAL_TIM_Base_Stop_DMA,"ax",%progbits
 654              		.align	1
 655              		.global	HAL_TIM_Base_Stop_DMA
 656              		.syntax unified
 657              		.thumb
 658              		.thumb_func
 660              	HAL_TIM_Base_Stop_DMA:
 661              		@ args = 0, pretend = 0, frame = 0
 662              		@ frame_needed = 0, uses_anonymous_args = 0
ARM GAS  /tmp/ccJhWMjo.s 			page 12


 663 0000 10B5     		push	{r4, lr}
 664 0002 0446     		mov	r4, r0
 665 0004 0268     		ldr	r2, [r0]
 666 0006 D368     		ldr	r3, [r2, #12]
 667 0008 23F48073 		bic	r3, r3, #256
 668 000c D360     		str	r3, [r2, #12]
 669 000e 006A     		ldr	r0, [r0, #32]
 670 0010 FFF7FEFF 		bl	HAL_DMA_Abort_IT
 671 0014 2368     		ldr	r3, [r4]
 672 0016 196A     		ldr	r1, [r3, #32]
 673 0018 41F21112 		movw	r2, #4369
 674 001c 1142     		tst	r1, r2
 675 001e 08D1     		bne	.L65
 676 0020 196A     		ldr	r1, [r3, #32]
 677 0022 40F24442 		movw	r2, #1092
 678 0026 1142     		tst	r1, r2
 679 0028 03D1     		bne	.L65
 680 002a 1A68     		ldr	r2, [r3]
 681 002c 22F00102 		bic	r2, r2, #1
 682 0030 1A60     		str	r2, [r3]
 683              	.L65:
 684 0032 0123     		movs	r3, #1
 685 0034 84F83D30 		strb	r3, [r4, #61]
 686 0038 0020     		movs	r0, #0
 687 003a 10BD     		pop	{r4, pc}
 689              		.section	.text.HAL_TIM_OC_MspInit,"ax",%progbits
 690              		.align	1
 691              		.weak	HAL_TIM_OC_MspInit
 692              		.syntax unified
 693              		.thumb
 694              		.thumb_func
 696              	HAL_TIM_OC_MspInit:
 697              		@ args = 0, pretend = 0, frame = 0
 698              		@ frame_needed = 0, uses_anonymous_args = 0
 699              		@ link register save eliminated.
 700 0000 7047     		bx	lr
 702              		.section	.text.HAL_TIM_OC_MspDeInit,"ax",%progbits
 703              		.align	1
 704              		.weak	HAL_TIM_OC_MspDeInit
 705              		.syntax unified
 706              		.thumb
 707              		.thumb_func
 709              	HAL_TIM_OC_MspDeInit:
 710              		@ args = 0, pretend = 0, frame = 0
 711              		@ frame_needed = 0, uses_anonymous_args = 0
 712              		@ link register save eliminated.
 713 0000 7047     		bx	lr
 715              		.section	.text.HAL_TIM_OC_DeInit,"ax",%progbits
 716              		.align	1
 717              		.global	HAL_TIM_OC_DeInit
 718              		.syntax unified
 719              		.thumb
 720              		.thumb_func
 722              	HAL_TIM_OC_DeInit:
 723              		@ args = 0, pretend = 0, frame = 0
 724              		@ frame_needed = 0, uses_anonymous_args = 0
 725 0000 10B5     		push	{r4, lr}
ARM GAS  /tmp/ccJhWMjo.s 			page 13


 726 0002 0446     		mov	r4, r0
 727 0004 0223     		movs	r3, #2
 728 0006 80F83D30 		strb	r3, [r0, #61]
 729 000a 0368     		ldr	r3, [r0]
 730 000c 196A     		ldr	r1, [r3, #32]
 731 000e 41F21112 		movw	r2, #4369
 732 0012 1142     		tst	r1, r2
 733 0014 08D1     		bne	.L70
 734 0016 196A     		ldr	r1, [r3, #32]
 735 0018 40F24442 		movw	r2, #1092
 736 001c 1142     		tst	r1, r2
 737 001e 03D1     		bne	.L70
 738 0020 1A68     		ldr	r2, [r3]
 739 0022 22F00102 		bic	r2, r2, #1
 740 0026 1A60     		str	r2, [r3]
 741              	.L70:
 742 0028 2046     		mov	r0, r4
 743 002a FFF7FEFF 		bl	HAL_TIM_OC_MspDeInit
 744 002e 0020     		movs	r0, #0
 745 0030 84F84600 		strb	r0, [r4, #70]
 746 0034 84F83E00 		strb	r0, [r4, #62]
 747 0038 84F83F00 		strb	r0, [r4, #63]
 748 003c 84F84000 		strb	r0, [r4, #64]
 749 0040 84F84100 		strb	r0, [r4, #65]
 750 0044 84F84200 		strb	r0, [r4, #66]
 751 0048 84F84300 		strb	r0, [r4, #67]
 752 004c 84F84400 		strb	r0, [r4, #68]
 753 0050 84F84500 		strb	r0, [r4, #69]
 754 0054 84F83D00 		strb	r0, [r4, #61]
 755 0058 84F83C00 		strb	r0, [r4, #60]
 756 005c 10BD     		pop	{r4, pc}
 758              		.section	.text.HAL_TIM_PWM_MspInit,"ax",%progbits
 759              		.align	1
 760              		.weak	HAL_TIM_PWM_MspInit
 761              		.syntax unified
 762              		.thumb
 763              		.thumb_func
 765              	HAL_TIM_PWM_MspInit:
 766              		@ args = 0, pretend = 0, frame = 0
 767              		@ frame_needed = 0, uses_anonymous_args = 0
 768              		@ link register save eliminated.
 769 0000 7047     		bx	lr
 771              		.section	.text.HAL_TIM_PWM_MspDeInit,"ax",%progbits
 772              		.align	1
 773              		.weak	HAL_TIM_PWM_MspDeInit
 774              		.syntax unified
 775              		.thumb
 776              		.thumb_func
 778              	HAL_TIM_PWM_MspDeInit:
 779              		@ args = 0, pretend = 0, frame = 0
 780              		@ frame_needed = 0, uses_anonymous_args = 0
 781              		@ link register save eliminated.
 782 0000 7047     		bx	lr
 784              		.section	.text.HAL_TIM_PWM_DeInit,"ax",%progbits
 785              		.align	1
 786              		.global	HAL_TIM_PWM_DeInit
 787              		.syntax unified
ARM GAS  /tmp/ccJhWMjo.s 			page 14


 788              		.thumb
 789              		.thumb_func
 791              	HAL_TIM_PWM_DeInit:
 792              		@ args = 0, pretend = 0, frame = 0
 793              		@ frame_needed = 0, uses_anonymous_args = 0
 794 0000 10B5     		push	{r4, lr}
 795 0002 0446     		mov	r4, r0
 796 0004 0223     		movs	r3, #2
 797 0006 80F83D30 		strb	r3, [r0, #61]
 798 000a 0368     		ldr	r3, [r0]
 799 000c 196A     		ldr	r1, [r3, #32]
 800 000e 41F21112 		movw	r2, #4369
 801 0012 1142     		tst	r1, r2
 802 0014 08D1     		bne	.L75
 803 0016 196A     		ldr	r1, [r3, #32]
 804 0018 40F24442 		movw	r2, #1092
 805 001c 1142     		tst	r1, r2
 806 001e 03D1     		bne	.L75
 807 0020 1A68     		ldr	r2, [r3]
 808 0022 22F00102 		bic	r2, r2, #1
 809 0026 1A60     		str	r2, [r3]
 810              	.L75:
 811 0028 2046     		mov	r0, r4
 812 002a FFF7FEFF 		bl	HAL_TIM_PWM_MspDeInit
 813 002e 0020     		movs	r0, #0
 814 0030 84F84600 		strb	r0, [r4, #70]
 815 0034 84F83E00 		strb	r0, [r4, #62]
 816 0038 84F83F00 		strb	r0, [r4, #63]
 817 003c 84F84000 		strb	r0, [r4, #64]
 818 0040 84F84100 		strb	r0, [r4, #65]
 819 0044 84F84200 		strb	r0, [r4, #66]
 820 0048 84F84300 		strb	r0, [r4, #67]
 821 004c 84F84400 		strb	r0, [r4, #68]
 822 0050 84F84500 		strb	r0, [r4, #69]
 823 0054 84F83D00 		strb	r0, [r4, #61]
 824 0058 84F83C00 		strb	r0, [r4, #60]
 825 005c 10BD     		pop	{r4, pc}
 827              		.section	.text.HAL_TIM_IC_MspInit,"ax",%progbits
 828              		.align	1
 829              		.weak	HAL_TIM_IC_MspInit
 830              		.syntax unified
 831              		.thumb
 832              		.thumb_func
 834              	HAL_TIM_IC_MspInit:
 835              		@ args = 0, pretend = 0, frame = 0
 836              		@ frame_needed = 0, uses_anonymous_args = 0
 837              		@ link register save eliminated.
 838 0000 7047     		bx	lr
 840              		.section	.text.HAL_TIM_IC_MspDeInit,"ax",%progbits
 841              		.align	1
 842              		.weak	HAL_TIM_IC_MspDeInit
 843              		.syntax unified
 844              		.thumb
 845              		.thumb_func
 847              	HAL_TIM_IC_MspDeInit:
 848              		@ args = 0, pretend = 0, frame = 0
 849              		@ frame_needed = 0, uses_anonymous_args = 0
ARM GAS  /tmp/ccJhWMjo.s 			page 15


 850              		@ link register save eliminated.
 851 0000 7047     		bx	lr
 853              		.section	.text.HAL_TIM_IC_DeInit,"ax",%progbits
 854              		.align	1
 855              		.global	HAL_TIM_IC_DeInit
 856              		.syntax unified
 857              		.thumb
 858              		.thumb_func
 860              	HAL_TIM_IC_DeInit:
 861              		@ args = 0, pretend = 0, frame = 0
 862              		@ frame_needed = 0, uses_anonymous_args = 0
 863 0000 10B5     		push	{r4, lr}
 864 0002 0446     		mov	r4, r0
 865 0004 0223     		movs	r3, #2
 866 0006 80F83D30 		strb	r3, [r0, #61]
 867 000a 0368     		ldr	r3, [r0]
 868 000c 196A     		ldr	r1, [r3, #32]
 869 000e 41F21112 		movw	r2, #4369
 870 0012 1142     		tst	r1, r2
 871 0014 08D1     		bne	.L80
 872 0016 196A     		ldr	r1, [r3, #32]
 873 0018 40F24442 		movw	r2, #1092
 874 001c 1142     		tst	r1, r2
 875 001e 03D1     		bne	.L80
 876 0020 1A68     		ldr	r2, [r3]
 877 0022 22F00102 		bic	r2, r2, #1
 878 0026 1A60     		str	r2, [r3]
 879              	.L80:
 880 0028 2046     		mov	r0, r4
 881 002a FFF7FEFF 		bl	HAL_TIM_IC_MspDeInit
 882 002e 0020     		movs	r0, #0
 883 0030 84F84600 		strb	r0, [r4, #70]
 884 0034 84F83E00 		strb	r0, [r4, #62]
 885 0038 84F83F00 		strb	r0, [r4, #63]
 886 003c 84F84000 		strb	r0, [r4, #64]
 887 0040 84F84100 		strb	r0, [r4, #65]
 888 0044 84F84200 		strb	r0, [r4, #66]
 889 0048 84F84300 		strb	r0, [r4, #67]
 890 004c 84F84400 		strb	r0, [r4, #68]
 891 0050 84F84500 		strb	r0, [r4, #69]
 892 0054 84F83D00 		strb	r0, [r4, #61]
 893 0058 84F83C00 		strb	r0, [r4, #60]
 894 005c 10BD     		pop	{r4, pc}
 896              		.section	.text.HAL_TIM_OnePulse_MspInit,"ax",%progbits
 897              		.align	1
 898              		.weak	HAL_TIM_OnePulse_MspInit
 899              		.syntax unified
 900              		.thumb
 901              		.thumb_func
 903              	HAL_TIM_OnePulse_MspInit:
 904              		@ args = 0, pretend = 0, frame = 0
 905              		@ frame_needed = 0, uses_anonymous_args = 0
 906              		@ link register save eliminated.
 907 0000 7047     		bx	lr
 909              		.section	.text.HAL_TIM_OnePulse_MspDeInit,"ax",%progbits
 910              		.align	1
 911              		.weak	HAL_TIM_OnePulse_MspDeInit
ARM GAS  /tmp/ccJhWMjo.s 			page 16


 912              		.syntax unified
 913              		.thumb
 914              		.thumb_func
 916              	HAL_TIM_OnePulse_MspDeInit:
 917              		@ args = 0, pretend = 0, frame = 0
 918              		@ frame_needed = 0, uses_anonymous_args = 0
 919              		@ link register save eliminated.
 920 0000 7047     		bx	lr
 922              		.section	.text.HAL_TIM_OnePulse_DeInit,"ax",%progbits
 923              		.align	1
 924              		.global	HAL_TIM_OnePulse_DeInit
 925              		.syntax unified
 926              		.thumb
 927              		.thumb_func
 929              	HAL_TIM_OnePulse_DeInit:
 930              		@ args = 0, pretend = 0, frame = 0
 931              		@ frame_needed = 0, uses_anonymous_args = 0
 932 0000 10B5     		push	{r4, lr}
 933 0002 0446     		mov	r4, r0
 934 0004 0223     		movs	r3, #2
 935 0006 80F83D30 		strb	r3, [r0, #61]
 936 000a 0368     		ldr	r3, [r0]
 937 000c 196A     		ldr	r1, [r3, #32]
 938 000e 41F21112 		movw	r2, #4369
 939 0012 1142     		tst	r1, r2
 940 0014 08D1     		bne	.L85
 941 0016 196A     		ldr	r1, [r3, #32]
 942 0018 40F24442 		movw	r2, #1092
 943 001c 1142     		tst	r1, r2
 944 001e 03D1     		bne	.L85
 945 0020 1A68     		ldr	r2, [r3]
 946 0022 22F00102 		bic	r2, r2, #1
 947 0026 1A60     		str	r2, [r3]
 948              	.L85:
 949 0028 2046     		mov	r0, r4
 950 002a FFF7FEFF 		bl	HAL_TIM_OnePulse_MspDeInit
 951 002e 0020     		movs	r0, #0
 952 0030 84F84600 		strb	r0, [r4, #70]
 953 0034 84F83E00 		strb	r0, [r4, #62]
 954 0038 84F83F00 		strb	r0, [r4, #63]
 955 003c 84F84200 		strb	r0, [r4, #66]
 956 0040 84F84300 		strb	r0, [r4, #67]
 957 0044 84F83D00 		strb	r0, [r4, #61]
 958 0048 84F83C00 		strb	r0, [r4, #60]
 959 004c 10BD     		pop	{r4, pc}
 961              		.section	.text.HAL_TIM_Encoder_MspInit,"ax",%progbits
 962              		.align	1
 963              		.weak	HAL_TIM_Encoder_MspInit
 964              		.syntax unified
 965              		.thumb
 966              		.thumb_func
 968              	HAL_TIM_Encoder_MspInit:
 969              		@ args = 0, pretend = 0, frame = 0
 970              		@ frame_needed = 0, uses_anonymous_args = 0
 971              		@ link register save eliminated.
 972 0000 7047     		bx	lr
 974              		.section	.text.HAL_TIM_Encoder_MspDeInit,"ax",%progbits
ARM GAS  /tmp/ccJhWMjo.s 			page 17


 975              		.align	1
 976              		.weak	HAL_TIM_Encoder_MspDeInit
 977              		.syntax unified
 978              		.thumb
 979              		.thumb_func
 981              	HAL_TIM_Encoder_MspDeInit:
 982              		@ args = 0, pretend = 0, frame = 0
 983              		@ frame_needed = 0, uses_anonymous_args = 0
 984              		@ link register save eliminated.
 985 0000 7047     		bx	lr
 987              		.section	.text.HAL_TIM_Encoder_DeInit,"ax",%progbits
 988              		.align	1
 989              		.global	HAL_TIM_Encoder_DeInit
 990              		.syntax unified
 991              		.thumb
 992              		.thumb_func
 994              	HAL_TIM_Encoder_DeInit:
 995              		@ args = 0, pretend = 0, frame = 0
 996              		@ frame_needed = 0, uses_anonymous_args = 0
 997 0000 10B5     		push	{r4, lr}
 998 0002 0446     		mov	r4, r0
 999 0004 0223     		movs	r3, #2
 1000 0006 80F83D30 		strb	r3, [r0, #61]
 1001 000a 0368     		ldr	r3, [r0]
 1002 000c 196A     		ldr	r1, [r3, #32]
 1003 000e 41F21112 		movw	r2, #4369
 1004 0012 1142     		tst	r1, r2
 1005 0014 08D1     		bne	.L90
 1006 0016 196A     		ldr	r1, [r3, #32]
 1007 0018 40F24442 		movw	r2, #1092
 1008 001c 1142     		tst	r1, r2
 1009 001e 03D1     		bne	.L90
 1010 0020 1A68     		ldr	r2, [r3]
 1011 0022 22F00102 		bic	r2, r2, #1
 1012 0026 1A60     		str	r2, [r3]
 1013              	.L90:
 1014 0028 2046     		mov	r0, r4
 1015 002a FFF7FEFF 		bl	HAL_TIM_Encoder_MspDeInit
 1016 002e 0020     		movs	r0, #0
 1017 0030 84F84600 		strb	r0, [r4, #70]
 1018 0034 84F83E00 		strb	r0, [r4, #62]
 1019 0038 84F83F00 		strb	r0, [r4, #63]
 1020 003c 84F84200 		strb	r0, [r4, #66]
 1021 0040 84F84300 		strb	r0, [r4, #67]
 1022 0044 84F83D00 		strb	r0, [r4, #61]
 1023 0048 84F83C00 		strb	r0, [r4, #60]
 1024 004c 10BD     		pop	{r4, pc}
 1026              		.section	.text.HAL_TIM_DMABurst_MultiWriteStart,"ax",%progbits
 1027              		.align	1
 1028              		.global	HAL_TIM_DMABurst_MultiWriteStart
 1029              		.syntax unified
 1030              		.thumb
 1031              		.thumb_func
 1033              	HAL_TIM_DMABurst_MultiWriteStart:
 1034              		@ args = 8, pretend = 0, frame = 0
 1035              		@ frame_needed = 0, uses_anonymous_args = 0
 1036 0000 70B5     		push	{r4, r5, r6, lr}
ARM GAS  /tmp/ccJhWMjo.s 			page 18


 1037 0002 0446     		mov	r4, r0
 1038 0004 90F84600 		ldrb	r0, [r0, #70]	@ zero_extendqisi2
 1039 0008 C0B2     		uxtb	r0, r0
 1040 000a 0228     		cmp	r0, #2
 1041 000c 2FD0     		beq	.L93
 1042 000e 0E46     		mov	r6, r1
 1043 0010 1546     		mov	r5, r2
 1044 0012 1946     		mov	r1, r3
 1045 0014 94F84600 		ldrb	r0, [r4, #70]	@ zero_extendqisi2
 1046 0018 C0B2     		uxtb	r0, r0
 1047 001a 0128     		cmp	r0, #1
 1048 001c 28D0     		beq	.L113
 1049              	.L94:
 1050 001e B5F5006F 		cmp	r5, #2048
 1051 0022 74D0     		beq	.L96
 1052 0024 2FD8     		bhi	.L97
 1053 0026 B5F5007F 		cmp	r5, #512
 1054 002a 4AD0     		beq	.L98
 1055 002c B5F5806F 		cmp	r5, #1024
 1056 0030 5AD0     		beq	.L99
 1057 0032 B5F5807F 		cmp	r5, #256
 1058 0036 24D1     		bne	.L114
 1059 0038 236A     		ldr	r3, [r4, #32]
 1060 003a 534A     		ldr	r2, .L118
 1061 003c 9A62     		str	r2, [r3, #40]
 1062 003e 236A     		ldr	r3, [r4, #32]
 1063 0040 524A     		ldr	r2, .L118+4
 1064 0042 DA62     		str	r2, [r3, #44]
 1065 0044 236A     		ldr	r3, [r4, #32]
 1066 0046 524A     		ldr	r2, .L118+8
 1067 0048 1A63     		str	r2, [r3, #48]
 1068 004a 2268     		ldr	r2, [r4]
 1069 004c 059B     		ldr	r3, [sp, #20]
 1070 004e 4C32     		adds	r2, r2, #76
 1071 0050 206A     		ldr	r0, [r4, #32]
 1072 0052 FFF7FEFF 		bl	HAL_DMA_Start_IT
 1073 0056 0028     		cmp	r0, #0
 1074 0058 40F09380 		bne	.L115
 1075              	.L104:
 1076 005c 2368     		ldr	r3, [r4]
 1077 005e 049A     		ldr	r2, [sp, #16]
 1078 0060 1643     		orrs	r6, r6, r2
 1079 0062 9E64     		str	r6, [r3, #72]
 1080 0064 2268     		ldr	r2, [r4]
 1081 0066 D368     		ldr	r3, [r2, #12]
 1082 0068 2B43     		orrs	r3, r3, r5
 1083 006a D360     		str	r3, [r2, #12]
 1084 006c 0020     		movs	r0, #0
 1085              	.L93:
 1086 006e 70BD     		pop	{r4, r5, r6, pc}
 1087              	.L113:
 1088 0070 1BB1     		cbz	r3, .L116
 1089              	.L95:
 1090 0072 0223     		movs	r3, #2
 1091 0074 84F84630 		strb	r3, [r4, #70]
 1092 0078 D1E7     		b	.L94
 1093              	.L116:
ARM GAS  /tmp/ccJhWMjo.s 			page 19


 1094 007a 049B     		ldr	r3, [sp, #16]
 1095 007c 002B     		cmp	r3, #0
 1096 007e F8D0     		beq	.L95
 1097 0080 F5E7     		b	.L93
 1098              	.L114:
 1099 0082 0120     		movs	r0, #1
 1100 0084 F3E7     		b	.L93
 1101              	.L97:
 1102 0086 B5F5005F 		cmp	r5, #8192
 1103 008a 53D0     		beq	.L101
 1104 008c B5F5804F 		cmp	r5, #16384
 1105 0090 63D0     		beq	.L102
 1106 0092 B5F5805F 		cmp	r5, #4096
 1107 0096 12D1     		bne	.L117
 1108 0098 236B     		ldr	r3, [r4, #48]
 1109 009a 3E4A     		ldr	r2, .L118+12
 1110 009c 9A62     		str	r2, [r3, #40]
 1111 009e 236B     		ldr	r3, [r4, #48]
 1112 00a0 3D4A     		ldr	r2, .L118+16
 1113 00a2 DA62     		str	r2, [r3, #44]
 1114 00a4 236B     		ldr	r3, [r4, #48]
 1115 00a6 3A4A     		ldr	r2, .L118+8
 1116 00a8 1A63     		str	r2, [r3, #48]
 1117 00aa 2268     		ldr	r2, [r4]
 1118 00ac 059B     		ldr	r3, [sp, #20]
 1119 00ae 4C32     		adds	r2, r2, #76
 1120 00b0 206B     		ldr	r0, [r4, #48]
 1121 00b2 FFF7FEFF 		bl	HAL_DMA_Start_IT
 1122 00b6 0028     		cmp	r0, #0
 1123 00b8 D0D0     		beq	.L104
 1124 00ba 0120     		movs	r0, #1
 1125 00bc D7E7     		b	.L93
 1126              	.L117:
 1127 00be 0120     		movs	r0, #1
 1128 00c0 D5E7     		b	.L93
 1129              	.L98:
 1130 00c2 636A     		ldr	r3, [r4, #36]
 1131 00c4 334A     		ldr	r2, .L118+12
 1132 00c6 9A62     		str	r2, [r3, #40]
 1133 00c8 636A     		ldr	r3, [r4, #36]
 1134 00ca 334A     		ldr	r2, .L118+16
 1135 00cc DA62     		str	r2, [r3, #44]
 1136 00ce 636A     		ldr	r3, [r4, #36]
 1137 00d0 2F4A     		ldr	r2, .L118+8
 1138 00d2 1A63     		str	r2, [r3, #48]
 1139 00d4 2268     		ldr	r2, [r4]
 1140 00d6 059B     		ldr	r3, [sp, #20]
 1141 00d8 4C32     		adds	r2, r2, #76
 1142 00da 606A     		ldr	r0, [r4, #36]
 1143 00dc FFF7FEFF 		bl	HAL_DMA_Start_IT
 1144 00e0 0028     		cmp	r0, #0
 1145 00e2 BBD0     		beq	.L104
 1146 00e4 0120     		movs	r0, #1
 1147 00e6 C2E7     		b	.L93
 1148              	.L99:
 1149 00e8 A36A     		ldr	r3, [r4, #40]
 1150 00ea 2A4A     		ldr	r2, .L118+12
ARM GAS  /tmp/ccJhWMjo.s 			page 20


 1151 00ec 9A62     		str	r2, [r3, #40]
 1152 00ee A36A     		ldr	r3, [r4, #40]
 1153 00f0 294A     		ldr	r2, .L118+16
 1154 00f2 DA62     		str	r2, [r3, #44]
 1155 00f4 A36A     		ldr	r3, [r4, #40]
 1156 00f6 264A     		ldr	r2, .L118+8
 1157 00f8 1A63     		str	r2, [r3, #48]
 1158 00fa 2268     		ldr	r2, [r4]
 1159 00fc 059B     		ldr	r3, [sp, #20]
 1160 00fe 4C32     		adds	r2, r2, #76
 1161 0100 A06A     		ldr	r0, [r4, #40]
 1162 0102 FFF7FEFF 		bl	HAL_DMA_Start_IT
 1163 0106 0028     		cmp	r0, #0
 1164 0108 A8D0     		beq	.L104
 1165 010a 0120     		movs	r0, #1
 1166 010c AFE7     		b	.L93
 1167              	.L96:
 1168 010e E36A     		ldr	r3, [r4, #44]
 1169 0110 204A     		ldr	r2, .L118+12
 1170 0112 9A62     		str	r2, [r3, #40]
 1171 0114 E36A     		ldr	r3, [r4, #44]
 1172 0116 204A     		ldr	r2, .L118+16
 1173 0118 DA62     		str	r2, [r3, #44]
 1174 011a E36A     		ldr	r3, [r4, #44]
 1175 011c 1C4A     		ldr	r2, .L118+8
 1176 011e 1A63     		str	r2, [r3, #48]
 1177 0120 2268     		ldr	r2, [r4]
 1178 0122 059B     		ldr	r3, [sp, #20]
 1179 0124 4C32     		adds	r2, r2, #76
 1180 0126 E06A     		ldr	r0, [r4, #44]
 1181 0128 FFF7FEFF 		bl	HAL_DMA_Start_IT
 1182 012c 0028     		cmp	r0, #0
 1183 012e 95D0     		beq	.L104
 1184 0130 0120     		movs	r0, #1
 1185 0132 9CE7     		b	.L93
 1186              	.L101:
 1187 0134 636B     		ldr	r3, [r4, #52]
 1188 0136 194A     		ldr	r2, .L118+20
 1189 0138 9A62     		str	r2, [r3, #40]
 1190 013a 636B     		ldr	r3, [r4, #52]
 1191 013c 184A     		ldr	r2, .L118+24
 1192 013e DA62     		str	r2, [r3, #44]
 1193 0140 636B     		ldr	r3, [r4, #52]
 1194 0142 134A     		ldr	r2, .L118+8
 1195 0144 1A63     		str	r2, [r3, #48]
 1196 0146 2268     		ldr	r2, [r4]
 1197 0148 059B     		ldr	r3, [sp, #20]
 1198 014a 4C32     		adds	r2, r2, #76
 1199 014c 606B     		ldr	r0, [r4, #52]
 1200 014e FFF7FEFF 		bl	HAL_DMA_Start_IT
 1201 0152 0028     		cmp	r0, #0
 1202 0154 82D0     		beq	.L104
 1203 0156 0120     		movs	r0, #1
 1204 0158 89E7     		b	.L93
 1205              	.L102:
 1206 015a A36B     		ldr	r3, [r4, #56]
 1207 015c 114A     		ldr	r2, .L118+28
ARM GAS  /tmp/ccJhWMjo.s 			page 21


 1208 015e 9A62     		str	r2, [r3, #40]
 1209 0160 A36B     		ldr	r3, [r4, #56]
 1210 0162 114A     		ldr	r2, .L118+32
 1211 0164 DA62     		str	r2, [r3, #44]
 1212 0166 A36B     		ldr	r3, [r4, #56]
 1213 0168 094A     		ldr	r2, .L118+8
 1214 016a 1A63     		str	r2, [r3, #48]
 1215 016c 2268     		ldr	r2, [r4]
 1216 016e 059B     		ldr	r3, [sp, #20]
 1217 0170 4C32     		adds	r2, r2, #76
 1218 0172 A06B     		ldr	r0, [r4, #56]
 1219 0174 FFF7FEFF 		bl	HAL_DMA_Start_IT
 1220 0178 0028     		cmp	r0, #0
 1221 017a 3FF46FAF 		beq	.L104
 1222 017e 0120     		movs	r0, #1
 1223 0180 75E7     		b	.L93
 1224              	.L115:
 1225 0182 0120     		movs	r0, #1
 1226 0184 73E7     		b	.L93
 1227              	.L119:
 1228 0186 00BF     		.align	2
 1229              	.L118:
 1230 0188 00000000 		.word	TIM_DMAPeriodElapsedCplt
 1231 018c 00000000 		.word	TIM_DMAPeriodElapsedHalfCplt
 1232 0190 00000000 		.word	TIM_DMAError
 1233 0194 00000000 		.word	TIM_DMADelayPulseCplt
 1234 0198 00000000 		.word	TIM_DMADelayPulseHalfCplt
 1235 019c 00000000 		.word	TIMEx_DMACommutationCplt
 1236 01a0 00000000 		.word	TIMEx_DMACommutationHalfCplt
 1237 01a4 00000000 		.word	TIM_DMATriggerCplt
 1238 01a8 00000000 		.word	TIM_DMATriggerHalfCplt
 1240              		.section	.text.HAL_TIM_DMABurst_WriteStart,"ax",%progbits
 1241              		.align	1
 1242              		.global	HAL_TIM_DMABurst_WriteStart
 1243              		.syntax unified
 1244              		.thumb
 1245              		.thumb_func
 1247              	HAL_TIM_DMABurst_WriteStart:
 1248              		@ args = 4, pretend = 0, frame = 0
 1249              		@ frame_needed = 0, uses_anonymous_args = 0
 1250 0000 30B5     		push	{r4, r5, lr}
 1251 0002 83B0     		sub	sp, sp, #12
 1252 0004 069D     		ldr	r5, [sp, #24]
 1253 0006 2C0A     		lsrs	r4, r5, #8
 1254 0008 0134     		adds	r4, r4, #1
 1255 000a 0194     		str	r4, [sp, #4]
 1256 000c 0095     		str	r5, [sp]
 1257 000e FFF7FEFF 		bl	HAL_TIM_DMABurst_MultiWriteStart
 1258 0012 03B0     		add	sp, sp, #12
 1259              		@ sp needed
 1260 0014 30BD     		pop	{r4, r5, pc}
 1262              		.section	.text.HAL_TIM_DMABurst_WriteStop,"ax",%progbits
 1263              		.align	1
 1264              		.global	HAL_TIM_DMABurst_WriteStop
 1265              		.syntax unified
 1266              		.thumb
 1267              		.thumb_func
ARM GAS  /tmp/ccJhWMjo.s 			page 22


 1269              	HAL_TIM_DMABurst_WriteStop:
 1270              		@ args = 0, pretend = 0, frame = 0
 1271              		@ frame_needed = 0, uses_anonymous_args = 0
 1272 0000 38B5     		push	{r3, r4, r5, lr}
 1273 0002 0546     		mov	r5, r0
 1274 0004 0C46     		mov	r4, r1
 1275 0006 B1F5006F 		cmp	r1, #2048
 1276 000a 2FD0     		beq	.L123
 1277 000c 17D8     		bhi	.L124
 1278 000e B1F5007F 		cmp	r1, #512
 1279 0012 23D0     		beq	.L125
 1280 0014 B1F5806F 		cmp	r1, #1024
 1281 0018 24D0     		beq	.L126
 1282 001a B1F5807F 		cmp	r1, #256
 1283 001e 0CD1     		bne	.L134
 1284 0020 006A     		ldr	r0, [r0, #32]
 1285 0022 FFF7FEFF 		bl	HAL_DMA_Abort_IT
 1286              	.L132:
 1287 0026 2A68     		ldr	r2, [r5]
 1288 0028 D368     		ldr	r3, [r2, #12]
 1289 002a 23EA0403 		bic	r3, r3, r4
 1290 002e D360     		str	r3, [r2, #12]
 1291 0030 0123     		movs	r3, #1
 1292 0032 85F84630 		strb	r3, [r5, #70]
 1293 0036 0020     		movs	r0, #0
 1294              	.L128:
 1295 0038 38BD     		pop	{r3, r4, r5, pc}
 1296              	.L134:
 1297 003a 0120     		movs	r0, #1
 1298 003c FCE7     		b	.L128
 1299              	.L124:
 1300 003e B1F5005F 		cmp	r1, #8192
 1301 0042 17D0     		beq	.L129
 1302 0044 B1F5804F 		cmp	r1, #16384
 1303 0048 18D0     		beq	.L130
 1304 004a B1F5805F 		cmp	r1, #4096
 1305 004e 03D1     		bne	.L135
 1306 0050 006B     		ldr	r0, [r0, #48]
 1307 0052 FFF7FEFF 		bl	HAL_DMA_Abort_IT
 1308 0056 E6E7     		b	.L132
 1309              	.L135:
 1310 0058 0120     		movs	r0, #1
 1311 005a EDE7     		b	.L128
 1312              	.L125:
 1313 005c 406A     		ldr	r0, [r0, #36]
 1314 005e FFF7FEFF 		bl	HAL_DMA_Abort_IT
 1315 0062 E0E7     		b	.L132
 1316              	.L126:
 1317 0064 806A     		ldr	r0, [r0, #40]
 1318 0066 FFF7FEFF 		bl	HAL_DMA_Abort_IT
 1319 006a DCE7     		b	.L132
 1320              	.L123:
 1321 006c C06A     		ldr	r0, [r0, #44]
 1322 006e FFF7FEFF 		bl	HAL_DMA_Abort_IT
 1323 0072 D8E7     		b	.L132
 1324              	.L129:
 1325 0074 406B     		ldr	r0, [r0, #52]
ARM GAS  /tmp/ccJhWMjo.s 			page 23


 1326 0076 FFF7FEFF 		bl	HAL_DMA_Abort_IT
 1327 007a D4E7     		b	.L132
 1328              	.L130:
 1329 007c 806B     		ldr	r0, [r0, #56]
 1330 007e FFF7FEFF 		bl	HAL_DMA_Abort_IT
 1331 0082 D0E7     		b	.L132
 1333              		.section	.text.HAL_TIM_DMABurst_MultiReadStart,"ax",%progbits
 1334              		.align	1
 1335              		.global	HAL_TIM_DMABurst_MultiReadStart
 1336              		.syntax unified
 1337              		.thumb
 1338              		.thumb_func
 1340              	HAL_TIM_DMABurst_MultiReadStart:
 1341              		@ args = 8, pretend = 0, frame = 0
 1342              		@ frame_needed = 0, uses_anonymous_args = 0
 1343 0000 70B5     		push	{r4, r5, r6, lr}
 1344 0002 0446     		mov	r4, r0
 1345 0004 90F84600 		ldrb	r0, [r0, #70]	@ zero_extendqisi2
 1346 0008 C0B2     		uxtb	r0, r0
 1347 000a 0228     		cmp	r0, #2
 1348 000c 2FD0     		beq	.L137
 1349 000e 0E46     		mov	r6, r1
 1350 0010 1546     		mov	r5, r2
 1351 0012 1A46     		mov	r2, r3
 1352 0014 94F84600 		ldrb	r0, [r4, #70]	@ zero_extendqisi2
 1353 0018 C0B2     		uxtb	r0, r0
 1354 001a 0128     		cmp	r0, #1
 1355 001c 28D0     		beq	.L157
 1356              	.L138:
 1357 001e B5F5006F 		cmp	r5, #2048
 1358 0022 74D0     		beq	.L140
 1359 0024 2FD8     		bhi	.L141
 1360 0026 B5F5007F 		cmp	r5, #512
 1361 002a 4AD0     		beq	.L142
 1362 002c B5F5806F 		cmp	r5, #1024
 1363 0030 5AD0     		beq	.L143
 1364 0032 B5F5807F 		cmp	r5, #256
 1365 0036 24D1     		bne	.L158
 1366 0038 236A     		ldr	r3, [r4, #32]
 1367 003a 5349     		ldr	r1, .L162
 1368 003c 9962     		str	r1, [r3, #40]
 1369 003e 236A     		ldr	r3, [r4, #32]
 1370 0040 5249     		ldr	r1, .L162+4
 1371 0042 D962     		str	r1, [r3, #44]
 1372 0044 236A     		ldr	r3, [r4, #32]
 1373 0046 5249     		ldr	r1, .L162+8
 1374 0048 1963     		str	r1, [r3, #48]
 1375 004a 2168     		ldr	r1, [r4]
 1376 004c 059B     		ldr	r3, [sp, #20]
 1377 004e 4C31     		adds	r1, r1, #76
 1378 0050 206A     		ldr	r0, [r4, #32]
 1379 0052 FFF7FEFF 		bl	HAL_DMA_Start_IT
 1380 0056 0028     		cmp	r0, #0
 1381 0058 40F09380 		bne	.L159
 1382              	.L148:
 1383 005c 2368     		ldr	r3, [r4]
 1384 005e 049A     		ldr	r2, [sp, #16]
ARM GAS  /tmp/ccJhWMjo.s 			page 24


 1385 0060 1643     		orrs	r6, r6, r2
 1386 0062 9E64     		str	r6, [r3, #72]
 1387 0064 2268     		ldr	r2, [r4]
 1388 0066 D368     		ldr	r3, [r2, #12]
 1389 0068 2B43     		orrs	r3, r3, r5
 1390 006a D360     		str	r3, [r2, #12]
 1391 006c 0020     		movs	r0, #0
 1392              	.L137:
 1393 006e 70BD     		pop	{r4, r5, r6, pc}
 1394              	.L157:
 1395 0070 1BB1     		cbz	r3, .L160
 1396              	.L139:
 1397 0072 0223     		movs	r3, #2
 1398 0074 84F84630 		strb	r3, [r4, #70]
 1399 0078 D1E7     		b	.L138
 1400              	.L160:
 1401 007a 049B     		ldr	r3, [sp, #16]
 1402 007c 002B     		cmp	r3, #0
 1403 007e F8D0     		beq	.L139
 1404 0080 F5E7     		b	.L137
 1405              	.L158:
 1406 0082 0120     		movs	r0, #1
 1407 0084 F3E7     		b	.L137
 1408              	.L141:
 1409 0086 B5F5005F 		cmp	r5, #8192
 1410 008a 53D0     		beq	.L145
 1411 008c B5F5804F 		cmp	r5, #16384
 1412 0090 63D0     		beq	.L146
 1413 0092 B5F5805F 		cmp	r5, #4096
 1414 0096 12D1     		bne	.L161
 1415 0098 236B     		ldr	r3, [r4, #48]
 1416 009a 3E49     		ldr	r1, .L162+12
 1417 009c 9962     		str	r1, [r3, #40]
 1418 009e 236B     		ldr	r3, [r4, #48]
 1419 00a0 3D49     		ldr	r1, .L162+16
 1420 00a2 D962     		str	r1, [r3, #44]
 1421 00a4 236B     		ldr	r3, [r4, #48]
 1422 00a6 3A49     		ldr	r1, .L162+8
 1423 00a8 1963     		str	r1, [r3, #48]
 1424 00aa 2168     		ldr	r1, [r4]
 1425 00ac 059B     		ldr	r3, [sp, #20]
 1426 00ae 4C31     		adds	r1, r1, #76
 1427 00b0 206B     		ldr	r0, [r4, #48]
 1428 00b2 FFF7FEFF 		bl	HAL_DMA_Start_IT
 1429 00b6 0028     		cmp	r0, #0
 1430 00b8 D0D0     		beq	.L148
 1431 00ba 0120     		movs	r0, #1
 1432 00bc D7E7     		b	.L137
 1433              	.L161:
 1434 00be 0120     		movs	r0, #1
 1435 00c0 D5E7     		b	.L137
 1436              	.L142:
 1437 00c2 636A     		ldr	r3, [r4, #36]
 1438 00c4 3349     		ldr	r1, .L162+12
 1439 00c6 9962     		str	r1, [r3, #40]
 1440 00c8 636A     		ldr	r3, [r4, #36]
 1441 00ca 3349     		ldr	r1, .L162+16
ARM GAS  /tmp/ccJhWMjo.s 			page 25


 1442 00cc D962     		str	r1, [r3, #44]
 1443 00ce 636A     		ldr	r3, [r4, #36]
 1444 00d0 2F49     		ldr	r1, .L162+8
 1445 00d2 1963     		str	r1, [r3, #48]
 1446 00d4 2168     		ldr	r1, [r4]
 1447 00d6 059B     		ldr	r3, [sp, #20]
 1448 00d8 4C31     		adds	r1, r1, #76
 1449 00da 606A     		ldr	r0, [r4, #36]
 1450 00dc FFF7FEFF 		bl	HAL_DMA_Start_IT
 1451 00e0 0028     		cmp	r0, #0
 1452 00e2 BBD0     		beq	.L148
 1453 00e4 0120     		movs	r0, #1
 1454 00e6 C2E7     		b	.L137
 1455              	.L143:
 1456 00e8 A36A     		ldr	r3, [r4, #40]
 1457 00ea 2A49     		ldr	r1, .L162+12
 1458 00ec 9962     		str	r1, [r3, #40]
 1459 00ee A36A     		ldr	r3, [r4, #40]
 1460 00f0 2949     		ldr	r1, .L162+16
 1461 00f2 D962     		str	r1, [r3, #44]
 1462 00f4 A36A     		ldr	r3, [r4, #40]
 1463 00f6 2649     		ldr	r1, .L162+8
 1464 00f8 1963     		str	r1, [r3, #48]
 1465 00fa 2168     		ldr	r1, [r4]
 1466 00fc 059B     		ldr	r3, [sp, #20]
 1467 00fe 4C31     		adds	r1, r1, #76
 1468 0100 A06A     		ldr	r0, [r4, #40]
 1469 0102 FFF7FEFF 		bl	HAL_DMA_Start_IT
 1470 0106 0028     		cmp	r0, #0
 1471 0108 A8D0     		beq	.L148
 1472 010a 0120     		movs	r0, #1
 1473 010c AFE7     		b	.L137
 1474              	.L140:
 1475 010e E36A     		ldr	r3, [r4, #44]
 1476 0110 2049     		ldr	r1, .L162+12
 1477 0112 9962     		str	r1, [r3, #40]
 1478 0114 E36A     		ldr	r3, [r4, #44]
 1479 0116 2049     		ldr	r1, .L162+16
 1480 0118 D962     		str	r1, [r3, #44]
 1481 011a E36A     		ldr	r3, [r4, #44]
 1482 011c 1C49     		ldr	r1, .L162+8
 1483 011e 1963     		str	r1, [r3, #48]
 1484 0120 2168     		ldr	r1, [r4]
 1485 0122 059B     		ldr	r3, [sp, #20]
 1486 0124 4C31     		adds	r1, r1, #76
 1487 0126 E06A     		ldr	r0, [r4, #44]
 1488 0128 FFF7FEFF 		bl	HAL_DMA_Start_IT
 1489 012c 0028     		cmp	r0, #0
 1490 012e 95D0     		beq	.L148
 1491 0130 0120     		movs	r0, #1
 1492 0132 9CE7     		b	.L137
 1493              	.L145:
 1494 0134 636B     		ldr	r3, [r4, #52]
 1495 0136 1949     		ldr	r1, .L162+20
 1496 0138 9962     		str	r1, [r3, #40]
 1497 013a 636B     		ldr	r3, [r4, #52]
 1498 013c 1849     		ldr	r1, .L162+24
ARM GAS  /tmp/ccJhWMjo.s 			page 26


 1499 013e D962     		str	r1, [r3, #44]
 1500 0140 636B     		ldr	r3, [r4, #52]
 1501 0142 1349     		ldr	r1, .L162+8
 1502 0144 1963     		str	r1, [r3, #48]
 1503 0146 2168     		ldr	r1, [r4]
 1504 0148 059B     		ldr	r3, [sp, #20]
 1505 014a 4C31     		adds	r1, r1, #76
 1506 014c 606B     		ldr	r0, [r4, #52]
 1507 014e FFF7FEFF 		bl	HAL_DMA_Start_IT
 1508 0152 0028     		cmp	r0, #0
 1509 0154 82D0     		beq	.L148
 1510 0156 0120     		movs	r0, #1
 1511 0158 89E7     		b	.L137
 1512              	.L146:
 1513 015a A36B     		ldr	r3, [r4, #56]
 1514 015c 1149     		ldr	r1, .L162+28
 1515 015e 9962     		str	r1, [r3, #40]
 1516 0160 A36B     		ldr	r3, [r4, #56]
 1517 0162 1149     		ldr	r1, .L162+32
 1518 0164 D962     		str	r1, [r3, #44]
 1519 0166 A36B     		ldr	r3, [r4, #56]
 1520 0168 0949     		ldr	r1, .L162+8
 1521 016a 1963     		str	r1, [r3, #48]
 1522 016c 2168     		ldr	r1, [r4]
 1523 016e 059B     		ldr	r3, [sp, #20]
 1524 0170 4C31     		adds	r1, r1, #76
 1525 0172 A06B     		ldr	r0, [r4, #56]
 1526 0174 FFF7FEFF 		bl	HAL_DMA_Start_IT
 1527 0178 0028     		cmp	r0, #0
 1528 017a 3FF46FAF 		beq	.L148
 1529 017e 0120     		movs	r0, #1
 1530 0180 75E7     		b	.L137
 1531              	.L159:
 1532 0182 0120     		movs	r0, #1
 1533 0184 73E7     		b	.L137
 1534              	.L163:
 1535 0186 00BF     		.align	2
 1536              	.L162:
 1537 0188 00000000 		.word	TIM_DMAPeriodElapsedCplt
 1538 018c 00000000 		.word	TIM_DMAPeriodElapsedHalfCplt
 1539 0190 00000000 		.word	TIM_DMAError
 1540 0194 00000000 		.word	TIM_DMACaptureCplt
 1541 0198 00000000 		.word	TIM_DMACaptureHalfCplt
 1542 019c 00000000 		.word	TIMEx_DMACommutationCplt
 1543 01a0 00000000 		.word	TIMEx_DMACommutationHalfCplt
 1544 01a4 00000000 		.word	TIM_DMATriggerCplt
 1545 01a8 00000000 		.word	TIM_DMATriggerHalfCplt
 1547              		.section	.text.HAL_TIM_DMABurst_ReadStart,"ax",%progbits
 1548              		.align	1
 1549              		.global	HAL_TIM_DMABurst_ReadStart
 1550              		.syntax unified
 1551              		.thumb
 1552              		.thumb_func
 1554              	HAL_TIM_DMABurst_ReadStart:
 1555              		@ args = 4, pretend = 0, frame = 0
 1556              		@ frame_needed = 0, uses_anonymous_args = 0
 1557 0000 30B5     		push	{r4, r5, lr}
ARM GAS  /tmp/ccJhWMjo.s 			page 27


 1558 0002 83B0     		sub	sp, sp, #12
 1559 0004 069D     		ldr	r5, [sp, #24]
 1560 0006 2C0A     		lsrs	r4, r5, #8
 1561 0008 0134     		adds	r4, r4, #1
 1562 000a 0194     		str	r4, [sp, #4]
 1563 000c 0095     		str	r5, [sp]
 1564 000e FFF7FEFF 		bl	HAL_TIM_DMABurst_MultiReadStart
 1565 0012 03B0     		add	sp, sp, #12
 1566              		@ sp needed
 1567 0014 30BD     		pop	{r4, r5, pc}
 1569              		.section	.text.HAL_TIM_DMABurst_ReadStop,"ax",%progbits
 1570              		.align	1
 1571              		.global	HAL_TIM_DMABurst_ReadStop
 1572              		.syntax unified
 1573              		.thumb
 1574              		.thumb_func
 1576              	HAL_TIM_DMABurst_ReadStop:
 1577              		@ args = 0, pretend = 0, frame = 0
 1578              		@ frame_needed = 0, uses_anonymous_args = 0
 1579 0000 38B5     		push	{r3, r4, r5, lr}
 1580 0002 0546     		mov	r5, r0
 1581 0004 0C46     		mov	r4, r1
 1582 0006 B1F5006F 		cmp	r1, #2048
 1583 000a 2FD0     		beq	.L167
 1584 000c 17D8     		bhi	.L168
 1585 000e B1F5007F 		cmp	r1, #512
 1586 0012 23D0     		beq	.L169
 1587 0014 B1F5806F 		cmp	r1, #1024
 1588 0018 24D0     		beq	.L170
 1589 001a B1F5807F 		cmp	r1, #256
 1590 001e 0CD1     		bne	.L178
 1591 0020 006A     		ldr	r0, [r0, #32]
 1592 0022 FFF7FEFF 		bl	HAL_DMA_Abort_IT
 1593              	.L176:
 1594 0026 2A68     		ldr	r2, [r5]
 1595 0028 D368     		ldr	r3, [r2, #12]
 1596 002a 23EA0403 		bic	r3, r3, r4
 1597 002e D360     		str	r3, [r2, #12]
 1598 0030 0123     		movs	r3, #1
 1599 0032 85F84630 		strb	r3, [r5, #70]
 1600 0036 0020     		movs	r0, #0
 1601              	.L172:
 1602 0038 38BD     		pop	{r3, r4, r5, pc}
 1603              	.L178:
 1604 003a 0120     		movs	r0, #1
 1605 003c FCE7     		b	.L172
 1606              	.L168:
 1607 003e B1F5005F 		cmp	r1, #8192
 1608 0042 17D0     		beq	.L173
 1609 0044 B1F5804F 		cmp	r1, #16384
 1610 0048 18D0     		beq	.L174
 1611 004a B1F5805F 		cmp	r1, #4096
 1612 004e 03D1     		bne	.L179
 1613 0050 006B     		ldr	r0, [r0, #48]
 1614 0052 FFF7FEFF 		bl	HAL_DMA_Abort_IT
 1615 0056 E6E7     		b	.L176
 1616              	.L179:
ARM GAS  /tmp/ccJhWMjo.s 			page 28


 1617 0058 0120     		movs	r0, #1
 1618 005a EDE7     		b	.L172
 1619              	.L169:
 1620 005c 406A     		ldr	r0, [r0, #36]
 1621 005e FFF7FEFF 		bl	HAL_DMA_Abort_IT
 1622 0062 E0E7     		b	.L176
 1623              	.L170:
 1624 0064 806A     		ldr	r0, [r0, #40]
 1625 0066 FFF7FEFF 		bl	HAL_DMA_Abort_IT
 1626 006a DCE7     		b	.L176
 1627              	.L167:
 1628 006c C06A     		ldr	r0, [r0, #44]
 1629 006e FFF7FEFF 		bl	HAL_DMA_Abort_IT
 1630 0072 D8E7     		b	.L176
 1631              	.L173:
 1632 0074 406B     		ldr	r0, [r0, #52]
 1633 0076 FFF7FEFF 		bl	HAL_DMA_Abort_IT
 1634 007a D4E7     		b	.L176
 1635              	.L174:
 1636 007c 806B     		ldr	r0, [r0, #56]
 1637 007e FFF7FEFF 		bl	HAL_DMA_Abort_IT
 1638 0082 D0E7     		b	.L176
 1640              		.section	.text.HAL_TIM_GenerateEvent,"ax",%progbits
 1641              		.align	1
 1642              		.global	HAL_TIM_GenerateEvent
 1643              		.syntax unified
 1644              		.thumb
 1645              		.thumb_func
 1647              	HAL_TIM_GenerateEvent:
 1648              		@ args = 0, pretend = 0, frame = 0
 1649              		@ frame_needed = 0, uses_anonymous_args = 0
 1650              		@ link register save eliminated.
 1651 0000 90F83C30 		ldrb	r3, [r0, #60]	@ zero_extendqisi2
 1652 0004 012B     		cmp	r3, #1
 1653 0006 0ED0     		beq	.L182
 1654 0008 0123     		movs	r3, #1
 1655 000a 80F83C30 		strb	r3, [r0, #60]
 1656 000e 0222     		movs	r2, #2
 1657 0010 80F83D20 		strb	r2, [r0, #61]
 1658 0014 0268     		ldr	r2, [r0]
 1659 0016 5161     		str	r1, [r2, #20]
 1660 0018 80F83D30 		strb	r3, [r0, #61]
 1661 001c 0023     		movs	r3, #0
 1662 001e 80F83C30 		strb	r3, [r0, #60]
 1663 0022 1846     		mov	r0, r3
 1664 0024 7047     		bx	lr
 1665              	.L182:
 1666 0026 0220     		movs	r0, #2
 1667 0028 7047     		bx	lr
 1669              		.section	.text.HAL_TIM_ConfigTI1Input,"ax",%progbits
 1670              		.align	1
 1671              		.global	HAL_TIM_ConfigTI1Input
 1672              		.syntax unified
 1673              		.thumb
 1674              		.thumb_func
 1676              	HAL_TIM_ConfigTI1Input:
 1677              		@ args = 0, pretend = 0, frame = 0
ARM GAS  /tmp/ccJhWMjo.s 			page 29


 1678              		@ frame_needed = 0, uses_anonymous_args = 0
 1679              		@ link register save eliminated.
 1680 0000 0268     		ldr	r2, [r0]
 1681 0002 5368     		ldr	r3, [r2, #4]
 1682 0004 23F08003 		bic	r3, r3, #128
 1683 0008 0B43     		orrs	r3, r3, r1
 1684 000a 5360     		str	r3, [r2, #4]
 1685 000c 0020     		movs	r0, #0
 1686 000e 7047     		bx	lr
 1688              		.section	.text.HAL_TIM_ReadCapturedValue,"ax",%progbits
 1689              		.align	1
 1690              		.global	HAL_TIM_ReadCapturedValue
 1691              		.syntax unified
 1692              		.thumb
 1693              		.thumb_func
 1695              	HAL_TIM_ReadCapturedValue:
 1696              		@ args = 0, pretend = 0, frame = 0
 1697              		@ frame_needed = 0, uses_anonymous_args = 0
 1698              		@ link register save eliminated.
 1699 0000 0C29     		cmp	r1, #12
 1700 0002 14D8     		bhi	.L191
 1701 0004 DFE801F0 		tbb	[pc, r1]
 1702              	.L187:
 1703 0008 07       		.byte	(.L190-.L187)/2
 1704 0009 13       		.byte	(.L191-.L187)/2
 1705 000a 13       		.byte	(.L191-.L187)/2
 1706 000b 13       		.byte	(.L191-.L187)/2
 1707 000c 0A       		.byte	(.L189-.L187)/2
 1708 000d 13       		.byte	(.L191-.L187)/2
 1709 000e 13       		.byte	(.L191-.L187)/2
 1710 000f 13       		.byte	(.L191-.L187)/2
 1711 0010 0D       		.byte	(.L188-.L187)/2
 1712 0011 13       		.byte	(.L191-.L187)/2
 1713 0012 13       		.byte	(.L191-.L187)/2
 1714 0013 13       		.byte	(.L191-.L187)/2
 1715 0014 10       		.byte	(.L186-.L187)/2
 1716 0015 00       		.p2align 1
 1717              	.L190:
 1718 0016 0368     		ldr	r3, [r0]
 1719 0018 586B     		ldr	r0, [r3, #52]
 1720 001a 7047     		bx	lr
 1721              	.L189:
 1722 001c 0368     		ldr	r3, [r0]
 1723 001e 986B     		ldr	r0, [r3, #56]
 1724 0020 7047     		bx	lr
 1725              	.L188:
 1726 0022 0368     		ldr	r3, [r0]
 1727 0024 D86B     		ldr	r0, [r3, #60]
 1728 0026 7047     		bx	lr
 1729              	.L186:
 1730 0028 0368     		ldr	r3, [r0]
 1731 002a 186C     		ldr	r0, [r3, #64]
 1732 002c 7047     		bx	lr
 1733              	.L191:
 1734 002e 0020     		movs	r0, #0
 1735 0030 7047     		bx	lr
 1737              		.section	.text.HAL_TIM_PeriodElapsedCallback,"ax",%progbits
ARM GAS  /tmp/ccJhWMjo.s 			page 30


 1738              		.align	1
 1739              		.weak	HAL_TIM_PeriodElapsedCallback
 1740              		.syntax unified
 1741              		.thumb
 1742              		.thumb_func
 1744              	HAL_TIM_PeriodElapsedCallback:
 1745              		@ args = 0, pretend = 0, frame = 0
 1746              		@ frame_needed = 0, uses_anonymous_args = 0
 1747              		@ link register save eliminated.
 1748 0000 7047     		bx	lr
 1750              		.section	.text.TIM_DMAPeriodElapsedCplt,"ax",%progbits
 1751              		.align	1
 1752              		.syntax unified
 1753              		.thumb
 1754              		.thumb_func
 1756              	TIM_DMAPeriodElapsedCplt:
 1757              		@ args = 0, pretend = 0, frame = 0
 1758              		@ frame_needed = 0, uses_anonymous_args = 0
 1759 0000 08B5     		push	{r3, lr}
 1760 0002 406A     		ldr	r0, [r0, #36]
 1761 0004 036A     		ldr	r3, [r0, #32]
 1762 0006 9B69     		ldr	r3, [r3, #24]
 1763 0008 13B9     		cbnz	r3, .L194
 1764 000a 0123     		movs	r3, #1
 1765 000c 80F83D30 		strb	r3, [r0, #61]
 1766              	.L194:
 1767 0010 FFF7FEFF 		bl	HAL_TIM_PeriodElapsedCallback
 1768 0014 08BD     		pop	{r3, pc}
 1770              		.section	.text.HAL_TIM_PeriodElapsedHalfCpltCallback,"ax",%progbits
 1771              		.align	1
 1772              		.weak	HAL_TIM_PeriodElapsedHalfCpltCallback
 1773              		.syntax unified
 1774              		.thumb
 1775              		.thumb_func
 1777              	HAL_TIM_PeriodElapsedHalfCpltCallback:
 1778              		@ args = 0, pretend = 0, frame = 0
 1779              		@ frame_needed = 0, uses_anonymous_args = 0
 1780              		@ link register save eliminated.
 1781 0000 7047     		bx	lr
 1783              		.section	.text.TIM_DMAPeriodElapsedHalfCplt,"ax",%progbits
 1784              		.align	1
 1785              		.syntax unified
 1786              		.thumb
 1787              		.thumb_func
 1789              	TIM_DMAPeriodElapsedHalfCplt:
 1790              		@ args = 0, pretend = 0, frame = 0
 1791              		@ frame_needed = 0, uses_anonymous_args = 0
 1792 0000 08B5     		push	{r3, lr}
 1793 0002 406A     		ldr	r0, [r0, #36]
 1794 0004 FFF7FEFF 		bl	HAL_TIM_PeriodElapsedHalfCpltCallback
 1795 0008 08BD     		pop	{r3, pc}
 1797              		.section	.text.HAL_TIM_OC_DelayElapsedCallback,"ax",%progbits
 1798              		.align	1
 1799              		.weak	HAL_TIM_OC_DelayElapsedCallback
 1800              		.syntax unified
 1801              		.thumb
 1802              		.thumb_func
ARM GAS  /tmp/ccJhWMjo.s 			page 31


 1804              	HAL_TIM_OC_DelayElapsedCallback:
 1805              		@ args = 0, pretend = 0, frame = 0
 1806              		@ frame_needed = 0, uses_anonymous_args = 0
 1807              		@ link register save eliminated.
 1808 0000 7047     		bx	lr
 1810              		.section	.text.HAL_TIM_IC_CaptureCallback,"ax",%progbits
 1811              		.align	1
 1812              		.weak	HAL_TIM_IC_CaptureCallback
 1813              		.syntax unified
 1814              		.thumb
 1815              		.thumb_func
 1817              	HAL_TIM_IC_CaptureCallback:
 1818              		@ args = 0, pretend = 0, frame = 0
 1819              		@ frame_needed = 0, uses_anonymous_args = 0
 1820              		@ link register save eliminated.
 1821 0000 7047     		bx	lr
 1823              		.section	.text.TIM_DMACaptureCplt,"ax",%progbits
 1824              		.align	1
 1825              		.global	TIM_DMACaptureCplt
 1826              		.syntax unified
 1827              		.thumb
 1828              		.thumb_func
 1830              	TIM_DMACaptureCplt:
 1831              		@ args = 0, pretend = 0, frame = 0
 1832              		@ frame_needed = 0, uses_anonymous_args = 0
 1833 0000 10B5     		push	{r4, lr}
 1834 0002 446A     		ldr	r4, [r0, #36]
 1835 0004 636A     		ldr	r3, [r4, #36]
 1836 0006 8342     		cmp	r3, r0
 1837 0008 0ED0     		beq	.L207
 1838 000a A36A     		ldr	r3, [r4, #40]
 1839 000c 8342     		cmp	r3, r0
 1840 000e 16D0     		beq	.L208
 1841 0010 E36A     		ldr	r3, [r4, #44]
 1842 0012 8342     		cmp	r3, r0
 1843 0014 1ED0     		beq	.L209
 1844 0016 236B     		ldr	r3, [r4, #48]
 1845 0018 8342     		cmp	r3, r0
 1846 001a 26D0     		beq	.L210
 1847              	.L203:
 1848 001c 2046     		mov	r0, r4
 1849 001e FFF7FEFF 		bl	HAL_TIM_IC_CaptureCallback
 1850 0022 0023     		movs	r3, #0
 1851 0024 2377     		strb	r3, [r4, #28]
 1852 0026 10BD     		pop	{r4, pc}
 1853              	.L207:
 1854 0028 0123     		movs	r3, #1
 1855 002a 2377     		strb	r3, [r4, #28]
 1856 002c 8369     		ldr	r3, [r0, #24]
 1857 002e 002B     		cmp	r3, #0
 1858 0030 F4D1     		bne	.L203
 1859 0032 0123     		movs	r3, #1
 1860 0034 84F83E30 		strb	r3, [r4, #62]
 1861 0038 84F84230 		strb	r3, [r4, #66]
 1862 003c EEE7     		b	.L203
 1863              	.L208:
 1864 003e 0223     		movs	r3, #2
ARM GAS  /tmp/ccJhWMjo.s 			page 32


 1865 0040 2377     		strb	r3, [r4, #28]
 1866 0042 8369     		ldr	r3, [r0, #24]
 1867 0044 002B     		cmp	r3, #0
 1868 0046 E9D1     		bne	.L203
 1869 0048 0123     		movs	r3, #1
 1870 004a 84F83F30 		strb	r3, [r4, #63]
 1871 004e 84F84330 		strb	r3, [r4, #67]
 1872 0052 E3E7     		b	.L203
 1873              	.L209:
 1874 0054 0423     		movs	r3, #4
 1875 0056 2377     		strb	r3, [r4, #28]
 1876 0058 8369     		ldr	r3, [r0, #24]
 1877 005a 002B     		cmp	r3, #0
 1878 005c DED1     		bne	.L203
 1879 005e 0123     		movs	r3, #1
 1880 0060 84F84030 		strb	r3, [r4, #64]
 1881 0064 84F84430 		strb	r3, [r4, #68]
 1882 0068 D8E7     		b	.L203
 1883              	.L210:
 1884 006a 0823     		movs	r3, #8
 1885 006c 2377     		strb	r3, [r4, #28]
 1886 006e 8369     		ldr	r3, [r0, #24]
 1887 0070 002B     		cmp	r3, #0
 1888 0072 D3D1     		bne	.L203
 1889 0074 0123     		movs	r3, #1
 1890 0076 84F84130 		strb	r3, [r4, #65]
 1891 007a 84F84530 		strb	r3, [r4, #69]
 1892 007e CDE7     		b	.L203
 1894              		.section	.text.HAL_TIM_IC_CaptureHalfCpltCallback,"ax",%progbits
 1895              		.align	1
 1896              		.weak	HAL_TIM_IC_CaptureHalfCpltCallback
 1897              		.syntax unified
 1898              		.thumb
 1899              		.thumb_func
 1901              	HAL_TIM_IC_CaptureHalfCpltCallback:
 1902              		@ args = 0, pretend = 0, frame = 0
 1903              		@ frame_needed = 0, uses_anonymous_args = 0
 1904              		@ link register save eliminated.
 1905 0000 7047     		bx	lr
 1907              		.section	.text.TIM_DMACaptureHalfCplt,"ax",%progbits
 1908              		.align	1
 1909              		.global	TIM_DMACaptureHalfCplt
 1910              		.syntax unified
 1911              		.thumb
 1912              		.thumb_func
 1914              	TIM_DMACaptureHalfCplt:
 1915              		@ args = 0, pretend = 0, frame = 0
 1916              		@ frame_needed = 0, uses_anonymous_args = 0
 1917 0000 10B5     		push	{r4, lr}
 1918 0002 446A     		ldr	r4, [r0, #36]
 1919 0004 636A     		ldr	r3, [r4, #36]
 1920 0006 8342     		cmp	r3, r0
 1921 0008 0BD0     		beq	.L218
 1922 000a A36A     		ldr	r3, [r4, #40]
 1923 000c 8342     		cmp	r3, r0
 1924 000e 10D0     		beq	.L219
 1925 0010 E36A     		ldr	r3, [r4, #44]
ARM GAS  /tmp/ccJhWMjo.s 			page 33


 1926 0012 8342     		cmp	r3, r0
 1927 0014 10D0     		beq	.L220
 1928 0016 236B     		ldr	r3, [r4, #48]
 1929 0018 8342     		cmp	r3, r0
 1930 001a 04D1     		bne	.L214
 1931 001c 0823     		movs	r3, #8
 1932 001e 2377     		strb	r3, [r4, #28]
 1933 0020 01E0     		b	.L214
 1934              	.L218:
 1935 0022 0123     		movs	r3, #1
 1936 0024 2377     		strb	r3, [r4, #28]
 1937              	.L214:
 1938 0026 2046     		mov	r0, r4
 1939 0028 FFF7FEFF 		bl	HAL_TIM_IC_CaptureHalfCpltCallback
 1940 002c 0023     		movs	r3, #0
 1941 002e 2377     		strb	r3, [r4, #28]
 1942 0030 10BD     		pop	{r4, pc}
 1943              	.L219:
 1944 0032 0223     		movs	r3, #2
 1945 0034 2377     		strb	r3, [r4, #28]
 1946 0036 F6E7     		b	.L214
 1947              	.L220:
 1948 0038 0423     		movs	r3, #4
 1949 003a 2377     		strb	r3, [r4, #28]
 1950 003c F3E7     		b	.L214
 1952              		.section	.text.HAL_TIM_PWM_PulseFinishedCallback,"ax",%progbits
 1953              		.align	1
 1954              		.weak	HAL_TIM_PWM_PulseFinishedCallback
 1955              		.syntax unified
 1956              		.thumb
 1957              		.thumb_func
 1959              	HAL_TIM_PWM_PulseFinishedCallback:
 1960              		@ args = 0, pretend = 0, frame = 0
 1961              		@ frame_needed = 0, uses_anonymous_args = 0
 1962              		@ link register save eliminated.
 1963 0000 7047     		bx	lr
 1965              		.section	.text.TIM_DMADelayPulseCplt,"ax",%progbits
 1966              		.align	1
 1967              		.syntax unified
 1968              		.thumb
 1969              		.thumb_func
 1971              	TIM_DMADelayPulseCplt:
 1972              		@ args = 0, pretend = 0, frame = 0
 1973              		@ frame_needed = 0, uses_anonymous_args = 0
 1974 0000 10B5     		push	{r4, lr}
 1975 0002 446A     		ldr	r4, [r0, #36]
 1976 0004 636A     		ldr	r3, [r4, #36]
 1977 0006 8342     		cmp	r3, r0
 1978 0008 0ED0     		beq	.L228
 1979 000a A36A     		ldr	r3, [r4, #40]
 1980 000c 8342     		cmp	r3, r0
 1981 000e 14D0     		beq	.L229
 1982 0010 E36A     		ldr	r3, [r4, #44]
 1983 0012 8342     		cmp	r3, r0
 1984 0014 1AD0     		beq	.L230
 1985 0016 236B     		ldr	r3, [r4, #48]
 1986 0018 8342     		cmp	r3, r0
ARM GAS  /tmp/ccJhWMjo.s 			page 34


 1987 001a 20D0     		beq	.L231
 1988              	.L224:
 1989 001c 2046     		mov	r0, r4
 1990 001e FFF7FEFF 		bl	HAL_TIM_PWM_PulseFinishedCallback
 1991 0022 0023     		movs	r3, #0
 1992 0024 2377     		strb	r3, [r4, #28]
 1993 0026 10BD     		pop	{r4, pc}
 1994              	.L228:
 1995 0028 0123     		movs	r3, #1
 1996 002a 2377     		strb	r3, [r4, #28]
 1997 002c 8369     		ldr	r3, [r0, #24]
 1998 002e 002B     		cmp	r3, #0
 1999 0030 F4D1     		bne	.L224
 2000 0032 0123     		movs	r3, #1
 2001 0034 84F83E30 		strb	r3, [r4, #62]
 2002 0038 F0E7     		b	.L224
 2003              	.L229:
 2004 003a 0223     		movs	r3, #2
 2005 003c 2377     		strb	r3, [r4, #28]
 2006 003e 8369     		ldr	r3, [r0, #24]
 2007 0040 002B     		cmp	r3, #0
 2008 0042 EBD1     		bne	.L224
 2009 0044 0123     		movs	r3, #1
 2010 0046 84F83F30 		strb	r3, [r4, #63]
 2011 004a E7E7     		b	.L224
 2012              	.L230:
 2013 004c 0423     		movs	r3, #4
 2014 004e 2377     		strb	r3, [r4, #28]
 2015 0050 8369     		ldr	r3, [r0, #24]
 2016 0052 002B     		cmp	r3, #0
 2017 0054 E2D1     		bne	.L224
 2018 0056 0123     		movs	r3, #1
 2019 0058 84F84030 		strb	r3, [r4, #64]
 2020 005c DEE7     		b	.L224
 2021              	.L231:
 2022 005e 0823     		movs	r3, #8
 2023 0060 2377     		strb	r3, [r4, #28]
 2024 0062 8369     		ldr	r3, [r0, #24]
 2025 0064 002B     		cmp	r3, #0
 2026 0066 D9D1     		bne	.L224
 2027 0068 0123     		movs	r3, #1
 2028 006a 84F84130 		strb	r3, [r4, #65]
 2029 006e D5E7     		b	.L224
 2031              		.section	.text.HAL_TIM_PWM_PulseFinishedHalfCpltCallback,"ax",%progbits
 2032              		.align	1
 2033              		.weak	HAL_TIM_PWM_PulseFinishedHalfCpltCallback
 2034              		.syntax unified
 2035              		.thumb
 2036              		.thumb_func
 2038              	HAL_TIM_PWM_PulseFinishedHalfCpltCallback:
 2039              		@ args = 0, pretend = 0, frame = 0
 2040              		@ frame_needed = 0, uses_anonymous_args = 0
 2041              		@ link register save eliminated.
 2042 0000 7047     		bx	lr
 2044              		.section	.text.TIM_DMADelayPulseHalfCplt,"ax",%progbits
 2045              		.align	1
 2046              		.global	TIM_DMADelayPulseHalfCplt
ARM GAS  /tmp/ccJhWMjo.s 			page 35


 2047              		.syntax unified
 2048              		.thumb
 2049              		.thumb_func
 2051              	TIM_DMADelayPulseHalfCplt:
 2052              		@ args = 0, pretend = 0, frame = 0
 2053              		@ frame_needed = 0, uses_anonymous_args = 0
 2054 0000 10B5     		push	{r4, lr}
 2055 0002 446A     		ldr	r4, [r0, #36]
 2056 0004 636A     		ldr	r3, [r4, #36]
 2057 0006 8342     		cmp	r3, r0
 2058 0008 0BD0     		beq	.L239
 2059 000a A36A     		ldr	r3, [r4, #40]
 2060 000c 8342     		cmp	r3, r0
 2061 000e 10D0     		beq	.L240
 2062 0010 E36A     		ldr	r3, [r4, #44]
 2063 0012 8342     		cmp	r3, r0
 2064 0014 10D0     		beq	.L241
 2065 0016 236B     		ldr	r3, [r4, #48]
 2066 0018 8342     		cmp	r3, r0
 2067 001a 04D1     		bne	.L235
 2068 001c 0823     		movs	r3, #8
 2069 001e 2377     		strb	r3, [r4, #28]
 2070 0020 01E0     		b	.L235
 2071              	.L239:
 2072 0022 0123     		movs	r3, #1
 2073 0024 2377     		strb	r3, [r4, #28]
 2074              	.L235:
 2075 0026 2046     		mov	r0, r4
 2076 0028 FFF7FEFF 		bl	HAL_TIM_PWM_PulseFinishedHalfCpltCallback
 2077 002c 0023     		movs	r3, #0
 2078 002e 2377     		strb	r3, [r4, #28]
 2079 0030 10BD     		pop	{r4, pc}
 2080              	.L240:
 2081 0032 0223     		movs	r3, #2
 2082 0034 2377     		strb	r3, [r4, #28]
 2083 0036 F6E7     		b	.L235
 2084              	.L241:
 2085 0038 0423     		movs	r3, #4
 2086 003a 2377     		strb	r3, [r4, #28]
 2087 003c F3E7     		b	.L235
 2089              		.section	.text.HAL_TIM_TriggerCallback,"ax",%progbits
 2090              		.align	1
 2091              		.weak	HAL_TIM_TriggerCallback
 2092              		.syntax unified
 2093              		.thumb
 2094              		.thumb_func
 2096              	HAL_TIM_TriggerCallback:
 2097              		@ args = 0, pretend = 0, frame = 0
 2098              		@ frame_needed = 0, uses_anonymous_args = 0
 2099              		@ link register save eliminated.
 2100 0000 7047     		bx	lr
 2102              		.section	.text.HAL_TIM_IRQHandler,"ax",%progbits
 2103              		.align	1
 2104              		.global	HAL_TIM_IRQHandler
 2105              		.syntax unified
 2106              		.thumb
 2107              		.thumb_func
ARM GAS  /tmp/ccJhWMjo.s 			page 36


 2109              	HAL_TIM_IRQHandler:
 2110              		@ args = 0, pretend = 0, frame = 0
 2111              		@ frame_needed = 0, uses_anonymous_args = 0
 2112 0000 70B5     		push	{r4, r5, r6, lr}
 2113 0002 0446     		mov	r4, r0
 2114 0004 0368     		ldr	r3, [r0]
 2115 0006 DE68     		ldr	r6, [r3, #12]
 2116 0008 1D69     		ldr	r5, [r3, #16]
 2117 000a 15F0020F 		tst	r5, #2
 2118 000e 10D0     		beq	.L244
 2119 0010 16F0020F 		tst	r6, #2
 2120 0014 0DD0     		beq	.L244
 2121 0016 6FF00202 		mvn	r2, #2
 2122 001a 1A61     		str	r2, [r3, #16]
 2123 001c 0123     		movs	r3, #1
 2124 001e 0377     		strb	r3, [r0, #28]
 2125 0020 0368     		ldr	r3, [r0]
 2126 0022 9B69     		ldr	r3, [r3, #24]
 2127 0024 13F0030F 		tst	r3, #3
 2128 0028 5ED0     		beq	.L245
 2129 002a FFF7FEFF 		bl	HAL_TIM_IC_CaptureCallback
 2130              	.L246:
 2131 002e 0023     		movs	r3, #0
 2132 0030 2377     		strb	r3, [r4, #28]
 2133              	.L244:
 2134 0032 15F0040F 		tst	r5, #4
 2135 0036 12D0     		beq	.L247
 2136 0038 16F0040F 		tst	r6, #4
 2137 003c 0FD0     		beq	.L247
 2138 003e 2368     		ldr	r3, [r4]
 2139 0040 6FF00402 		mvn	r2, #4
 2140 0044 1A61     		str	r2, [r3, #16]
 2141 0046 0223     		movs	r3, #2
 2142 0048 2377     		strb	r3, [r4, #28]
 2143 004a 2368     		ldr	r3, [r4]
 2144 004c 9B69     		ldr	r3, [r3, #24]
 2145 004e 13F4407F 		tst	r3, #768
 2146 0052 4FD0     		beq	.L248
 2147 0054 2046     		mov	r0, r4
 2148 0056 FFF7FEFF 		bl	HAL_TIM_IC_CaptureCallback
 2149              	.L249:
 2150 005a 0023     		movs	r3, #0
 2151 005c 2377     		strb	r3, [r4, #28]
 2152              	.L247:
 2153 005e 15F0080F 		tst	r5, #8
 2154 0062 12D0     		beq	.L250
 2155 0064 16F0080F 		tst	r6, #8
 2156 0068 0FD0     		beq	.L250
 2157 006a 2368     		ldr	r3, [r4]
 2158 006c 6FF00802 		mvn	r2, #8
 2159 0070 1A61     		str	r2, [r3, #16]
 2160 0072 0423     		movs	r3, #4
 2161 0074 2377     		strb	r3, [r4, #28]
 2162 0076 2368     		ldr	r3, [r4]
 2163 0078 DB69     		ldr	r3, [r3, #28]
 2164 007a 13F0030F 		tst	r3, #3
 2165 007e 40D0     		beq	.L251
ARM GAS  /tmp/ccJhWMjo.s 			page 37


 2166 0080 2046     		mov	r0, r4
 2167 0082 FFF7FEFF 		bl	HAL_TIM_IC_CaptureCallback
 2168              	.L252:
 2169 0086 0023     		movs	r3, #0
 2170 0088 2377     		strb	r3, [r4, #28]
 2171              	.L250:
 2172 008a 15F0100F 		tst	r5, #16
 2173 008e 12D0     		beq	.L253
 2174 0090 16F0100F 		tst	r6, #16
 2175 0094 0FD0     		beq	.L253
 2176 0096 2368     		ldr	r3, [r4]
 2177 0098 6FF01002 		mvn	r2, #16
 2178 009c 1A61     		str	r2, [r3, #16]
 2179 009e 0823     		movs	r3, #8
 2180 00a0 2377     		strb	r3, [r4, #28]
 2181 00a2 2368     		ldr	r3, [r4]
 2182 00a4 DB69     		ldr	r3, [r3, #28]
 2183 00a6 13F4407F 		tst	r3, #768
 2184 00aa 31D0     		beq	.L254
 2185 00ac 2046     		mov	r0, r4
 2186 00ae FFF7FEFF 		bl	HAL_TIM_IC_CaptureCallback
 2187              	.L255:
 2188 00b2 0023     		movs	r3, #0
 2189 00b4 2377     		strb	r3, [r4, #28]
 2190              	.L253:
 2191 00b6 15F0010F 		tst	r5, #1
 2192 00ba 02D0     		beq	.L256
 2193 00bc 16F0010F 		tst	r6, #1
 2194 00c0 2DD1     		bne	.L261
 2195              	.L256:
 2196 00c2 15F0800F 		tst	r5, #128
 2197 00c6 02D0     		beq	.L257
 2198 00c8 16F0800F 		tst	r6, #128
 2199 00cc 2FD1     		bne	.L262
 2200              	.L257:
 2201 00ce 15F0400F 		tst	r5, #64
 2202 00d2 02D0     		beq	.L258
 2203 00d4 16F0400F 		tst	r6, #64
 2204 00d8 31D1     		bne	.L263
 2205              	.L258:
 2206 00da 15F0200F 		tst	r5, #32
 2207 00de 02D0     		beq	.L243
 2208 00e0 16F0200F 		tst	r6, #32
 2209 00e4 33D1     		bne	.L264
 2210              	.L243:
 2211 00e6 70BD     		pop	{r4, r5, r6, pc}
 2212              	.L245:
 2213 00e8 FFF7FEFF 		bl	HAL_TIM_OC_DelayElapsedCallback
 2214 00ec 2046     		mov	r0, r4
 2215 00ee FFF7FEFF 		bl	HAL_TIM_PWM_PulseFinishedCallback
 2216 00f2 9CE7     		b	.L246
 2217              	.L248:
 2218 00f4 2046     		mov	r0, r4
 2219 00f6 FFF7FEFF 		bl	HAL_TIM_OC_DelayElapsedCallback
 2220 00fa 2046     		mov	r0, r4
 2221 00fc FFF7FEFF 		bl	HAL_TIM_PWM_PulseFinishedCallback
 2222 0100 ABE7     		b	.L249
ARM GAS  /tmp/ccJhWMjo.s 			page 38


 2223              	.L251:
 2224 0102 2046     		mov	r0, r4
 2225 0104 FFF7FEFF 		bl	HAL_TIM_OC_DelayElapsedCallback
 2226 0108 2046     		mov	r0, r4
 2227 010a FFF7FEFF 		bl	HAL_TIM_PWM_PulseFinishedCallback
 2228 010e BAE7     		b	.L252
 2229              	.L254:
 2230 0110 2046     		mov	r0, r4
 2231 0112 FFF7FEFF 		bl	HAL_TIM_OC_DelayElapsedCallback
 2232 0116 2046     		mov	r0, r4
 2233 0118 FFF7FEFF 		bl	HAL_TIM_PWM_PulseFinishedCallback
 2234 011c C9E7     		b	.L255
 2235              	.L261:
 2236 011e 2368     		ldr	r3, [r4]
 2237 0120 6FF00102 		mvn	r2, #1
 2238 0124 1A61     		str	r2, [r3, #16]
 2239 0126 2046     		mov	r0, r4
 2240 0128 FFF7FEFF 		bl	HAL_TIM_PeriodElapsedCallback
 2241 012c C9E7     		b	.L256
 2242              	.L262:
 2243 012e 2368     		ldr	r3, [r4]
 2244 0130 6FF08002 		mvn	r2, #128
 2245 0134 1A61     		str	r2, [r3, #16]
 2246 0136 2046     		mov	r0, r4
 2247 0138 FFF7FEFF 		bl	HAL_TIMEx_BreakCallback
 2248 013c C7E7     		b	.L257
 2249              	.L263:
 2250 013e 2368     		ldr	r3, [r4]
 2251 0140 6FF04002 		mvn	r2, #64
 2252 0144 1A61     		str	r2, [r3, #16]
 2253 0146 2046     		mov	r0, r4
 2254 0148 FFF7FEFF 		bl	HAL_TIM_TriggerCallback
 2255 014c C5E7     		b	.L258
 2256              	.L264:
 2257 014e 2368     		ldr	r3, [r4]
 2258 0150 6FF02002 		mvn	r2, #32
 2259 0154 1A61     		str	r2, [r3, #16]
 2260 0156 2046     		mov	r0, r4
 2261 0158 FFF7FEFF 		bl	HAL_TIMEx_CommutCallback
 2262 015c C3E7     		b	.L243
 2264              		.section	.text.TIM_DMATriggerCplt,"ax",%progbits
 2265              		.align	1
 2266              		.syntax unified
 2267              		.thumb
 2268              		.thumb_func
 2270              	TIM_DMATriggerCplt:
 2271              		@ args = 0, pretend = 0, frame = 0
 2272              		@ frame_needed = 0, uses_anonymous_args = 0
 2273 0000 08B5     		push	{r3, lr}
 2274 0002 406A     		ldr	r0, [r0, #36]
 2275 0004 836B     		ldr	r3, [r0, #56]
 2276 0006 9B69     		ldr	r3, [r3, #24]
 2277 0008 13B9     		cbnz	r3, .L266
 2278 000a 0123     		movs	r3, #1
 2279 000c 80F83D30 		strb	r3, [r0, #61]
 2280              	.L266:
 2281 0010 FFF7FEFF 		bl	HAL_TIM_TriggerCallback
ARM GAS  /tmp/ccJhWMjo.s 			page 39


 2282 0014 08BD     		pop	{r3, pc}
 2284              		.section	.text.HAL_TIM_TriggerHalfCpltCallback,"ax",%progbits
 2285              		.align	1
 2286              		.weak	HAL_TIM_TriggerHalfCpltCallback
 2287              		.syntax unified
 2288              		.thumb
 2289              		.thumb_func
 2291              	HAL_TIM_TriggerHalfCpltCallback:
 2292              		@ args = 0, pretend = 0, frame = 0
 2293              		@ frame_needed = 0, uses_anonymous_args = 0
 2294              		@ link register save eliminated.
 2295 0000 7047     		bx	lr
 2297              		.section	.text.TIM_DMATriggerHalfCplt,"ax",%progbits
 2298              		.align	1
 2299              		.syntax unified
 2300              		.thumb
 2301              		.thumb_func
 2303              	TIM_DMATriggerHalfCplt:
 2304              		@ args = 0, pretend = 0, frame = 0
 2305              		@ frame_needed = 0, uses_anonymous_args = 0
 2306 0000 08B5     		push	{r3, lr}
 2307 0002 406A     		ldr	r0, [r0, #36]
 2308 0004 FFF7FEFF 		bl	HAL_TIM_TriggerHalfCpltCallback
 2309 0008 08BD     		pop	{r3, pc}
 2311              		.section	.text.HAL_TIM_ErrorCallback,"ax",%progbits
 2312              		.align	1
 2313              		.weak	HAL_TIM_ErrorCallback
 2314              		.syntax unified
 2315              		.thumb
 2316              		.thumb_func
 2318              	HAL_TIM_ErrorCallback:
 2319              		@ args = 0, pretend = 0, frame = 0
 2320              		@ frame_needed = 0, uses_anonymous_args = 0
 2321              		@ link register save eliminated.
 2322 0000 7047     		bx	lr
 2324              		.section	.text.TIM_DMAError,"ax",%progbits
 2325              		.align	1
 2326              		.global	TIM_DMAError
 2327              		.syntax unified
 2328              		.thumb
 2329              		.thumb_func
 2331              	TIM_DMAError:
 2332              		@ args = 0, pretend = 0, frame = 0
 2333              		@ frame_needed = 0, uses_anonymous_args = 0
 2334 0000 10B5     		push	{r4, lr}
 2335 0002 446A     		ldr	r4, [r0, #36]
 2336 0004 636A     		ldr	r3, [r4, #36]
 2337 0006 8342     		cmp	r3, r0
 2338 0008 0CD0     		beq	.L279
 2339 000a A36A     		ldr	r3, [r4, #40]
 2340 000c 8342     		cmp	r3, r0
 2341 000e 13D0     		beq	.L280
 2342 0010 E36A     		ldr	r3, [r4, #44]
 2343 0012 8342     		cmp	r3, r0
 2344 0014 16D0     		beq	.L281
 2345 0016 236B     		ldr	r3, [r4, #48]
 2346 0018 8342     		cmp	r3, r0
ARM GAS  /tmp/ccJhWMjo.s 			page 40


 2347 001a 19D0     		beq	.L282
 2348 001c 0123     		movs	r3, #1
 2349 001e 84F83D30 		strb	r3, [r4, #61]
 2350 0022 03E0     		b	.L274
 2351              	.L279:
 2352 0024 0123     		movs	r3, #1
 2353 0026 2377     		strb	r3, [r4, #28]
 2354 0028 84F83E30 		strb	r3, [r4, #62]
 2355              	.L274:
 2356 002c 2046     		mov	r0, r4
 2357 002e FFF7FEFF 		bl	HAL_TIM_ErrorCallback
 2358 0032 0023     		movs	r3, #0
 2359 0034 2377     		strb	r3, [r4, #28]
 2360 0036 10BD     		pop	{r4, pc}
 2361              	.L280:
 2362 0038 0223     		movs	r3, #2
 2363 003a 2377     		strb	r3, [r4, #28]
 2364 003c 0123     		movs	r3, #1
 2365 003e 84F83F30 		strb	r3, [r4, #63]
 2366 0042 F3E7     		b	.L274
 2367              	.L281:
 2368 0044 0423     		movs	r3, #4
 2369 0046 2377     		strb	r3, [r4, #28]
 2370 0048 0123     		movs	r3, #1
 2371 004a 84F84030 		strb	r3, [r4, #64]
 2372 004e EDE7     		b	.L274
 2373              	.L282:
 2374 0050 0823     		movs	r3, #8
 2375 0052 2377     		strb	r3, [r4, #28]
 2376 0054 0123     		movs	r3, #1
 2377 0056 84F84130 		strb	r3, [r4, #65]
 2378 005a E7E7     		b	.L274
 2380              		.section	.text.HAL_TIM_Base_GetState,"ax",%progbits
 2381              		.align	1
 2382              		.global	HAL_TIM_Base_GetState
 2383              		.syntax unified
 2384              		.thumb
 2385              		.thumb_func
 2387              	HAL_TIM_Base_GetState:
 2388              		@ args = 0, pretend = 0, frame = 0
 2389              		@ frame_needed = 0, uses_anonymous_args = 0
 2390              		@ link register save eliminated.
 2391 0000 90F83D00 		ldrb	r0, [r0, #61]	@ zero_extendqisi2
 2392 0004 7047     		bx	lr
 2394              		.section	.text.HAL_TIM_OC_GetState,"ax",%progbits
 2395              		.align	1
 2396              		.global	HAL_TIM_OC_GetState
 2397              		.syntax unified
 2398              		.thumb
 2399              		.thumb_func
 2401              	HAL_TIM_OC_GetState:
 2402              		@ args = 0, pretend = 0, frame = 0
 2403              		@ frame_needed = 0, uses_anonymous_args = 0
 2404              		@ link register save eliminated.
 2405 0000 90F83D00 		ldrb	r0, [r0, #61]	@ zero_extendqisi2
 2406 0004 7047     		bx	lr
 2408              		.section	.text.HAL_TIM_PWM_GetState,"ax",%progbits
ARM GAS  /tmp/ccJhWMjo.s 			page 41


 2409              		.align	1
 2410              		.global	HAL_TIM_PWM_GetState
 2411              		.syntax unified
 2412              		.thumb
 2413              		.thumb_func
 2415              	HAL_TIM_PWM_GetState:
 2416              		@ args = 0, pretend = 0, frame = 0
 2417              		@ frame_needed = 0, uses_anonymous_args = 0
 2418              		@ link register save eliminated.
 2419 0000 90F83D00 		ldrb	r0, [r0, #61]	@ zero_extendqisi2
 2420 0004 7047     		bx	lr
 2422              		.section	.text.HAL_TIM_IC_GetState,"ax",%progbits
 2423              		.align	1
 2424              		.global	HAL_TIM_IC_GetState
 2425              		.syntax unified
 2426              		.thumb
 2427              		.thumb_func
 2429              	HAL_TIM_IC_GetState:
 2430              		@ args = 0, pretend = 0, frame = 0
 2431              		@ frame_needed = 0, uses_anonymous_args = 0
 2432              		@ link register save eliminated.
 2433 0000 90F83D00 		ldrb	r0, [r0, #61]	@ zero_extendqisi2
 2434 0004 7047     		bx	lr
 2436              		.section	.text.HAL_TIM_OnePulse_GetState,"ax",%progbits
 2437              		.align	1
 2438              		.global	HAL_TIM_OnePulse_GetState
 2439              		.syntax unified
 2440              		.thumb
 2441              		.thumb_func
 2443              	HAL_TIM_OnePulse_GetState:
 2444              		@ args = 0, pretend = 0, frame = 0
 2445              		@ frame_needed = 0, uses_anonymous_args = 0
 2446              		@ link register save eliminated.
 2447 0000 90F83D00 		ldrb	r0, [r0, #61]	@ zero_extendqisi2
 2448 0004 7047     		bx	lr
 2450              		.section	.text.HAL_TIM_Encoder_GetState,"ax",%progbits
 2451              		.align	1
 2452              		.global	HAL_TIM_Encoder_GetState
 2453              		.syntax unified
 2454              		.thumb
 2455              		.thumb_func
 2457              	HAL_TIM_Encoder_GetState:
 2458              		@ args = 0, pretend = 0, frame = 0
 2459              		@ frame_needed = 0, uses_anonymous_args = 0
 2460              		@ link register save eliminated.
 2461 0000 90F83D00 		ldrb	r0, [r0, #61]	@ zero_extendqisi2
 2462 0004 7047     		bx	lr
 2464              		.section	.text.HAL_TIM_GetActiveChannel,"ax",%progbits
 2465              		.align	1
 2466              		.global	HAL_TIM_GetActiveChannel
 2467              		.syntax unified
 2468              		.thumb
 2469              		.thumb_func
 2471              	HAL_TIM_GetActiveChannel:
 2472              		@ args = 0, pretend = 0, frame = 0
 2473              		@ frame_needed = 0, uses_anonymous_args = 0
 2474              		@ link register save eliminated.
ARM GAS  /tmp/ccJhWMjo.s 			page 42


 2475 0000 007F     		ldrb	r0, [r0, #28]	@ zero_extendqisi2
 2476 0002 7047     		bx	lr
 2478              		.section	.text.HAL_TIM_GetChannelState,"ax",%progbits
 2479              		.align	1
 2480              		.global	HAL_TIM_GetChannelState
 2481              		.syntax unified
 2482              		.thumb
 2483              		.thumb_func
 2485              	HAL_TIM_GetChannelState:
 2486              		@ args = 0, pretend = 0, frame = 0
 2487              		@ frame_needed = 0, uses_anonymous_args = 0
 2488              		@ link register save eliminated.
 2489 0000 19B9     		cbnz	r1, .L291
 2490 0002 90F83E00 		ldrb	r0, [r0, #62]	@ zero_extendqisi2
 2491 0006 C0B2     		uxtb	r0, r0
 2492 0008 7047     		bx	lr
 2493              	.L291:
 2494 000a 0429     		cmp	r1, #4
 2495 000c 05D0     		beq	.L295
 2496 000e 0829     		cmp	r1, #8
 2497 0010 07D0     		beq	.L296
 2498 0012 90F84100 		ldrb	r0, [r0, #65]	@ zero_extendqisi2
 2499 0016 C0B2     		uxtb	r0, r0
 2500 0018 7047     		bx	lr
 2501              	.L295:
 2502 001a 90F83F00 		ldrb	r0, [r0, #63]	@ zero_extendqisi2
 2503 001e C0B2     		uxtb	r0, r0
 2504 0020 7047     		bx	lr
 2505              	.L296:
 2506 0022 90F84000 		ldrb	r0, [r0, #64]	@ zero_extendqisi2
 2507 0026 C0B2     		uxtb	r0, r0
 2508 0028 7047     		bx	lr
 2510              		.section	.text.HAL_TIM_DMABurstState,"ax",%progbits
 2511              		.align	1
 2512              		.global	HAL_TIM_DMABurstState
 2513              		.syntax unified
 2514              		.thumb
 2515              		.thumb_func
 2517              	HAL_TIM_DMABurstState:
 2518              		@ args = 0, pretend = 0, frame = 0
 2519              		@ frame_needed = 0, uses_anonymous_args = 0
 2520              		@ link register save eliminated.
 2521 0000 90F84600 		ldrb	r0, [r0, #70]	@ zero_extendqisi2
 2522 0004 7047     		bx	lr
 2524              		.section	.text.TIM_Base_SetConfig,"ax",%progbits
 2525              		.align	1
 2526              		.global	TIM_Base_SetConfig
 2527              		.syntax unified
 2528              		.thumb
 2529              		.thumb_func
 2531              	TIM_Base_SetConfig:
 2532              		@ args = 0, pretend = 0, frame = 0
 2533              		@ frame_needed = 0, uses_anonymous_args = 0
 2534              		@ link register save eliminated.
 2535 0000 0368     		ldr	r3, [r0]
 2536 0002 1F4A     		ldr	r2, .L306
 2537 0004 9042     		cmp	r0, r2
ARM GAS  /tmp/ccJhWMjo.s 			page 43


 2538 0006 0AD0     		beq	.L299
 2539 0008 B0F1804F 		cmp	r0, #1073741824
 2540 000c 07D0     		beq	.L299
 2541 000e A2F59432 		sub	r2, r2, #75776
 2542 0012 9042     		cmp	r0, r2
 2543 0014 03D0     		beq	.L299
 2544 0016 02F58062 		add	r2, r2, #1024
 2545 001a 9042     		cmp	r0, r2
 2546 001c 03D1     		bne	.L300
 2547              	.L299:
 2548 001e 23F07003 		bic	r3, r3, #112
 2549 0022 4A68     		ldr	r2, [r1, #4]
 2550 0024 1343     		orrs	r3, r3, r2
 2551              	.L300:
 2552 0026 164A     		ldr	r2, .L306
 2553 0028 9042     		cmp	r0, r2
 2554 002a 0AD0     		beq	.L301
 2555 002c B0F1804F 		cmp	r0, #1073741824
 2556 0030 07D0     		beq	.L301
 2557 0032 A2F59432 		sub	r2, r2, #75776
 2558 0036 9042     		cmp	r0, r2
 2559 0038 03D0     		beq	.L301
 2560 003a 02F58062 		add	r2, r2, #1024
 2561 003e 9042     		cmp	r0, r2
 2562 0040 03D1     		bne	.L302
 2563              	.L301:
 2564 0042 23F44073 		bic	r3, r3, #768
 2565 0046 CA68     		ldr	r2, [r1, #12]
 2566 0048 1343     		orrs	r3, r3, r2
 2567              	.L302:
 2568 004a 23F08003 		bic	r3, r3, #128
 2569 004e 4A69     		ldr	r2, [r1, #20]
 2570 0050 1343     		orrs	r3, r3, r2
 2571 0052 0360     		str	r3, [r0]
 2572 0054 8B68     		ldr	r3, [r1, #8]
 2573 0056 C362     		str	r3, [r0, #44]
 2574 0058 0B68     		ldr	r3, [r1]
 2575 005a 8362     		str	r3, [r0, #40]
 2576 005c 084B     		ldr	r3, .L306
 2577 005e 9842     		cmp	r0, r3
 2578 0060 0AD0     		beq	.L305
 2579              	.L303:
 2580 0062 0123     		movs	r3, #1
 2581 0064 4361     		str	r3, [r0, #20]
 2582 0066 0369     		ldr	r3, [r0, #16]
 2583 0068 13F0010F 		tst	r3, #1
 2584 006c 03D0     		beq	.L298
 2585 006e 0369     		ldr	r3, [r0, #16]
 2586 0070 23F00103 		bic	r3, r3, #1
 2587 0074 0361     		str	r3, [r0, #16]
 2588              	.L298:
 2589 0076 7047     		bx	lr
 2590              	.L305:
 2591 0078 0B69     		ldr	r3, [r1, #16]
 2592 007a 0363     		str	r3, [r0, #48]
 2593 007c F1E7     		b	.L303
 2594              	.L307:
ARM GAS  /tmp/ccJhWMjo.s 			page 44


 2595 007e 00BF     		.align	2
 2596              	.L306:
 2597 0080 002C0140 		.word	1073818624
 2599              		.section	.text.HAL_TIM_Base_Init,"ax",%progbits
 2600              		.align	1
 2601              		.global	HAL_TIM_Base_Init
 2602              		.syntax unified
 2603              		.thumb
 2604              		.thumb_func
 2606              	HAL_TIM_Base_Init:
 2607              		@ args = 0, pretend = 0, frame = 0
 2608              		@ frame_needed = 0, uses_anonymous_args = 0
 2609 0000 40B3     		cbz	r0, .L311
 2610 0002 10B5     		push	{r4, lr}
 2611 0004 0446     		mov	r4, r0
 2612 0006 90F83D30 		ldrb	r3, [r0, #61]	@ zero_extendqisi2
 2613 000a F3B1     		cbz	r3, .L316
 2614              	.L310:
 2615 000c 0223     		movs	r3, #2
 2616 000e 84F83D30 		strb	r3, [r4, #61]
 2617 0012 2146     		mov	r1, r4
 2618 0014 51F8040B 		ldr	r0, [r1], #4
 2619 0018 FFF7FEFF 		bl	TIM_Base_SetConfig
 2620 001c 0123     		movs	r3, #1
 2621 001e 84F84630 		strb	r3, [r4, #70]
 2622 0022 84F83E30 		strb	r3, [r4, #62]
 2623 0026 84F83F30 		strb	r3, [r4, #63]
 2624 002a 84F84030 		strb	r3, [r4, #64]
 2625 002e 84F84130 		strb	r3, [r4, #65]
 2626 0032 84F84230 		strb	r3, [r4, #66]
 2627 0036 84F84330 		strb	r3, [r4, #67]
 2628 003a 84F84430 		strb	r3, [r4, #68]
 2629 003e 84F84530 		strb	r3, [r4, #69]
 2630 0042 84F83D30 		strb	r3, [r4, #61]
 2631 0046 0020     		movs	r0, #0
 2632 0048 10BD     		pop	{r4, pc}
 2633              	.L316:
 2634 004a 80F83C30 		strb	r3, [r0, #60]
 2635 004e FFF7FEFF 		bl	HAL_TIM_Base_MspInit
 2636 0052 DBE7     		b	.L310
 2637              	.L311:
 2638 0054 0120     		movs	r0, #1
 2639 0056 7047     		bx	lr
 2641              		.section	.text.HAL_TIM_OC_Init,"ax",%progbits
 2642              		.align	1
 2643              		.global	HAL_TIM_OC_Init
 2644              		.syntax unified
 2645              		.thumb
 2646              		.thumb_func
 2648              	HAL_TIM_OC_Init:
 2649              		@ args = 0, pretend = 0, frame = 0
 2650              		@ frame_needed = 0, uses_anonymous_args = 0
 2651 0000 40B3     		cbz	r0, .L320
 2652 0002 10B5     		push	{r4, lr}
 2653 0004 0446     		mov	r4, r0
 2654 0006 90F83D30 		ldrb	r3, [r0, #61]	@ zero_extendqisi2
 2655 000a F3B1     		cbz	r3, .L325
ARM GAS  /tmp/ccJhWMjo.s 			page 45


 2656              	.L319:
 2657 000c 0223     		movs	r3, #2
 2658 000e 84F83D30 		strb	r3, [r4, #61]
 2659 0012 2146     		mov	r1, r4
 2660 0014 51F8040B 		ldr	r0, [r1], #4
 2661 0018 FFF7FEFF 		bl	TIM_Base_SetConfig
 2662 001c 0123     		movs	r3, #1
 2663 001e 84F84630 		strb	r3, [r4, #70]
 2664 0022 84F83E30 		strb	r3, [r4, #62]
 2665 0026 84F83F30 		strb	r3, [r4, #63]
 2666 002a 84F84030 		strb	r3, [r4, #64]
 2667 002e 84F84130 		strb	r3, [r4, #65]
 2668 0032 84F84230 		strb	r3, [r4, #66]
 2669 0036 84F84330 		strb	r3, [r4, #67]
 2670 003a 84F84430 		strb	r3, [r4, #68]
 2671 003e 84F84530 		strb	r3, [r4, #69]
 2672 0042 84F83D30 		strb	r3, [r4, #61]
 2673 0046 0020     		movs	r0, #0
 2674 0048 10BD     		pop	{r4, pc}
 2675              	.L325:
 2676 004a 80F83C30 		strb	r3, [r0, #60]
 2677 004e FFF7FEFF 		bl	HAL_TIM_OC_MspInit
 2678 0052 DBE7     		b	.L319
 2679              	.L320:
 2680 0054 0120     		movs	r0, #1
 2681 0056 7047     		bx	lr
 2683              		.section	.text.HAL_TIM_PWM_Init,"ax",%progbits
 2684              		.align	1
 2685              		.global	HAL_TIM_PWM_Init
 2686              		.syntax unified
 2687              		.thumb
 2688              		.thumb_func
 2690              	HAL_TIM_PWM_Init:
 2691              		@ args = 0, pretend = 0, frame = 0
 2692              		@ frame_needed = 0, uses_anonymous_args = 0
 2693 0000 40B3     		cbz	r0, .L329
 2694 0002 10B5     		push	{r4, lr}
 2695 0004 0446     		mov	r4, r0
 2696 0006 90F83D30 		ldrb	r3, [r0, #61]	@ zero_extendqisi2
 2697 000a F3B1     		cbz	r3, .L334
 2698              	.L328:
 2699 000c 0223     		movs	r3, #2
 2700 000e 84F83D30 		strb	r3, [r4, #61]
 2701 0012 2146     		mov	r1, r4
 2702 0014 51F8040B 		ldr	r0, [r1], #4
 2703 0018 FFF7FEFF 		bl	TIM_Base_SetConfig
 2704 001c 0123     		movs	r3, #1
 2705 001e 84F84630 		strb	r3, [r4, #70]
 2706 0022 84F83E30 		strb	r3, [r4, #62]
 2707 0026 84F83F30 		strb	r3, [r4, #63]
 2708 002a 84F84030 		strb	r3, [r4, #64]
 2709 002e 84F84130 		strb	r3, [r4, #65]
 2710 0032 84F84230 		strb	r3, [r4, #66]
 2711 0036 84F84330 		strb	r3, [r4, #67]
 2712 003a 84F84430 		strb	r3, [r4, #68]
 2713 003e 84F84530 		strb	r3, [r4, #69]
 2714 0042 84F83D30 		strb	r3, [r4, #61]
ARM GAS  /tmp/ccJhWMjo.s 			page 46


 2715 0046 0020     		movs	r0, #0
 2716 0048 10BD     		pop	{r4, pc}
 2717              	.L334:
 2718 004a 80F83C30 		strb	r3, [r0, #60]
 2719 004e FFF7FEFF 		bl	HAL_TIM_PWM_MspInit
 2720 0052 DBE7     		b	.L328
 2721              	.L329:
 2722 0054 0120     		movs	r0, #1
 2723 0056 7047     		bx	lr
 2725              		.section	.text.HAL_TIM_IC_Init,"ax",%progbits
 2726              		.align	1
 2727              		.global	HAL_TIM_IC_Init
 2728              		.syntax unified
 2729              		.thumb
 2730              		.thumb_func
 2732              	HAL_TIM_IC_Init:
 2733              		@ args = 0, pretend = 0, frame = 0
 2734              		@ frame_needed = 0, uses_anonymous_args = 0
 2735 0000 40B3     		cbz	r0, .L338
 2736 0002 10B5     		push	{r4, lr}
 2737 0004 0446     		mov	r4, r0
 2738 0006 90F83D30 		ldrb	r3, [r0, #61]	@ zero_extendqisi2
 2739 000a F3B1     		cbz	r3, .L343
 2740              	.L337:
 2741 000c 0223     		movs	r3, #2
 2742 000e 84F83D30 		strb	r3, [r4, #61]
 2743 0012 2146     		mov	r1, r4
 2744 0014 51F8040B 		ldr	r0, [r1], #4
 2745 0018 FFF7FEFF 		bl	TIM_Base_SetConfig
 2746 001c 0123     		movs	r3, #1
 2747 001e 84F84630 		strb	r3, [r4, #70]
 2748 0022 84F83E30 		strb	r3, [r4, #62]
 2749 0026 84F83F30 		strb	r3, [r4, #63]
 2750 002a 84F84030 		strb	r3, [r4, #64]
 2751 002e 84F84130 		strb	r3, [r4, #65]
 2752 0032 84F84230 		strb	r3, [r4, #66]
 2753 0036 84F84330 		strb	r3, [r4, #67]
 2754 003a 84F84430 		strb	r3, [r4, #68]
 2755 003e 84F84530 		strb	r3, [r4, #69]
 2756 0042 84F83D30 		strb	r3, [r4, #61]
 2757 0046 0020     		movs	r0, #0
 2758 0048 10BD     		pop	{r4, pc}
 2759              	.L343:
 2760 004a 80F83C30 		strb	r3, [r0, #60]
 2761 004e FFF7FEFF 		bl	HAL_TIM_IC_MspInit
 2762 0052 DBE7     		b	.L337
 2763              	.L338:
 2764 0054 0120     		movs	r0, #1
 2765 0056 7047     		bx	lr
 2767              		.section	.text.HAL_TIM_OnePulse_Init,"ax",%progbits
 2768              		.align	1
 2769              		.global	HAL_TIM_OnePulse_Init
 2770              		.syntax unified
 2771              		.thumb
 2772              		.thumb_func
 2774              	HAL_TIM_OnePulse_Init:
 2775              		@ args = 0, pretend = 0, frame = 0
ARM GAS  /tmp/ccJhWMjo.s 			page 47


 2776              		@ frame_needed = 0, uses_anonymous_args = 0
 2777 0000 50B3     		cbz	r0, .L347
 2778 0002 38B5     		push	{r3, r4, r5, lr}
 2779 0004 0D46     		mov	r5, r1
 2780 0006 0446     		mov	r4, r0
 2781 0008 90F83D30 		ldrb	r3, [r0, #61]	@ zero_extendqisi2
 2782 000c FBB1     		cbz	r3, .L352
 2783              	.L346:
 2784 000e 0223     		movs	r3, #2
 2785 0010 84F83D30 		strb	r3, [r4, #61]
 2786 0014 2146     		mov	r1, r4
 2787 0016 51F8040B 		ldr	r0, [r1], #4
 2788 001a FFF7FEFF 		bl	TIM_Base_SetConfig
 2789 001e 2268     		ldr	r2, [r4]
 2790 0020 1368     		ldr	r3, [r2]
 2791 0022 23F00803 		bic	r3, r3, #8
 2792 0026 1360     		str	r3, [r2]
 2793 0028 2268     		ldr	r2, [r4]
 2794 002a 1368     		ldr	r3, [r2]
 2795 002c 2B43     		orrs	r3, r3, r5
 2796 002e 1360     		str	r3, [r2]
 2797 0030 0123     		movs	r3, #1
 2798 0032 84F84630 		strb	r3, [r4, #70]
 2799 0036 84F83E30 		strb	r3, [r4, #62]
 2800 003a 84F83F30 		strb	r3, [r4, #63]
 2801 003e 84F84230 		strb	r3, [r4, #66]
 2802 0042 84F84330 		strb	r3, [r4, #67]
 2803 0046 84F83D30 		strb	r3, [r4, #61]
 2804 004a 0020     		movs	r0, #0
 2805 004c 38BD     		pop	{r3, r4, r5, pc}
 2806              	.L352:
 2807 004e 80F83C30 		strb	r3, [r0, #60]
 2808 0052 FFF7FEFF 		bl	HAL_TIM_OnePulse_MspInit
 2809 0056 DAE7     		b	.L346
 2810              	.L347:
 2811 0058 0120     		movs	r0, #1
 2812 005a 7047     		bx	lr
 2814              		.section	.text.HAL_TIM_Encoder_Init,"ax",%progbits
 2815              		.align	1
 2816              		.global	HAL_TIM_Encoder_Init
 2817              		.syntax unified
 2818              		.thumb
 2819              		.thumb_func
 2821              	HAL_TIM_Encoder_Init:
 2822              		@ args = 0, pretend = 0, frame = 0
 2823              		@ frame_needed = 0, uses_anonymous_args = 0
 2824 0000 0028     		cmp	r0, #0
 2825 0002 56D0     		beq	.L356
 2826 0004 70B5     		push	{r4, r5, r6, lr}
 2827 0006 0D46     		mov	r5, r1
 2828 0008 0446     		mov	r4, r0
 2829 000a 90F83D30 		ldrb	r3, [r0, #61]	@ zero_extendqisi2
 2830 000e 002B     		cmp	r3, #0
 2831 0010 4AD0     		beq	.L361
 2832              	.L355:
 2833 0012 0223     		movs	r3, #2
 2834 0014 84F83D30 		strb	r3, [r4, #61]
ARM GAS  /tmp/ccJhWMjo.s 			page 48


 2835 0018 2268     		ldr	r2, [r4]
 2836 001a 9368     		ldr	r3, [r2, #8]
 2837 001c 23F48043 		bic	r3, r3, #16384
 2838 0020 23F00703 		bic	r3, r3, #7
 2839 0024 9360     		str	r3, [r2, #8]
 2840 0026 2146     		mov	r1, r4
 2841 0028 51F8040B 		ldr	r0, [r1], #4
 2842 002c FFF7FEFF 		bl	TIM_Base_SetConfig
 2843 0030 2168     		ldr	r1, [r4]
 2844 0032 8B68     		ldr	r3, [r1, #8]
 2845 0034 8A69     		ldr	r2, [r1, #24]
 2846 0036 0E6A     		ldr	r6, [r1, #32]
 2847 0038 2868     		ldr	r0, [r5]
 2848 003a 1843     		orrs	r0, r0, r3
 2849 003c 22F44072 		bic	r2, r2, #768
 2850 0040 22F00302 		bic	r2, r2, #3
 2851 0044 AB68     		ldr	r3, [r5, #8]
 2852 0046 D5F818C0 		ldr	ip, [r5, #24]
 2853 004a 43EA0C23 		orr	r3, r3, ip, lsl #8
 2854 004e 1343     		orrs	r3, r3, r2
 2855 0050 23F47C43 		bic	r3, r3, #64512
 2856 0054 23F0FC03 		bic	r3, r3, #252
 2857 0058 EA68     		ldr	r2, [r5, #12]
 2858 005a D5F81CC0 		ldr	ip, [r5, #28]
 2859 005e 42EA0C22 		orr	r2, r2, ip, lsl #8
 2860 0062 1A43     		orrs	r2, r2, r3
 2861 0064 2B6A     		ldr	r3, [r5, #32]
 2862 0066 1B03     		lsls	r3, r3, #12
 2863 0068 D5F810C0 		ldr	ip, [r5, #16]
 2864 006c 43EA0C13 		orr	r3, r3, ip, lsl #4
 2865 0070 1343     		orrs	r3, r3, r2
 2866 0072 26F02206 		bic	r6, r6, #34
 2867 0076 6A68     		ldr	r2, [r5, #4]
 2868 0078 6D69     		ldr	r5, [r5, #20]
 2869 007a 42EA0512 		orr	r2, r2, r5, lsl #4
 2870 007e 3243     		orrs	r2, r2, r6
 2871 0080 8860     		str	r0, [r1, #8]
 2872 0082 2168     		ldr	r1, [r4]
 2873 0084 8B61     		str	r3, [r1, #24]
 2874 0086 2368     		ldr	r3, [r4]
 2875 0088 1A62     		str	r2, [r3, #32]
 2876 008a 0123     		movs	r3, #1
 2877 008c 84F84630 		strb	r3, [r4, #70]
 2878 0090 84F83E30 		strb	r3, [r4, #62]
 2879 0094 84F83F30 		strb	r3, [r4, #63]
 2880 0098 84F84230 		strb	r3, [r4, #66]
 2881 009c 84F84330 		strb	r3, [r4, #67]
 2882 00a0 84F83D30 		strb	r3, [r4, #61]
 2883 00a4 0020     		movs	r0, #0
 2884 00a6 70BD     		pop	{r4, r5, r6, pc}
 2885              	.L361:
 2886 00a8 80F83C30 		strb	r3, [r0, #60]
 2887 00ac FFF7FEFF 		bl	HAL_TIM_Encoder_MspInit
 2888 00b0 AFE7     		b	.L355
 2889              	.L356:
 2890 00b2 0120     		movs	r0, #1
 2891 00b4 7047     		bx	lr
ARM GAS  /tmp/ccJhWMjo.s 			page 49


 2893              		.section	.text.TIM_OC2_SetConfig,"ax",%progbits
 2894              		.align	1
 2895              		.global	TIM_OC2_SetConfig
 2896              		.syntax unified
 2897              		.thumb
 2898              		.thumb_func
 2900              	TIM_OC2_SetConfig:
 2901              		@ args = 0, pretend = 0, frame = 0
 2902              		@ frame_needed = 0, uses_anonymous_args = 0
 2903              		@ link register save eliminated.
 2904 0000 30B4     		push	{r4, r5}
 2905 0002 036A     		ldr	r3, [r0, #32]
 2906 0004 026A     		ldr	r2, [r0, #32]
 2907 0006 22F01002 		bic	r2, r2, #16
 2908 000a 0262     		str	r2, [r0, #32]
 2909 000c 4468     		ldr	r4, [r0, #4]
 2910 000e 8269     		ldr	r2, [r0, #24]
 2911 0010 22F4E642 		bic	r2, r2, #29440
 2912 0014 0D68     		ldr	r5, [r1]
 2913 0016 42EA0522 		orr	r2, r2, r5, lsl #8
 2914 001a 23F02003 		bic	r3, r3, #32
 2915 001e 8D68     		ldr	r5, [r1, #8]
 2916 0020 43EA0513 		orr	r3, r3, r5, lsl #4
 2917 0024 0C4D     		ldr	r5, .L366
 2918 0026 A842     		cmp	r0, r5
 2919 0028 06D0     		beq	.L365
 2920              	.L363:
 2921 002a 4460     		str	r4, [r0, #4]
 2922 002c 8261     		str	r2, [r0, #24]
 2923 002e 4A68     		ldr	r2, [r1, #4]
 2924 0030 8263     		str	r2, [r0, #56]
 2925 0032 0362     		str	r3, [r0, #32]
 2926 0034 30BC     		pop	{r4, r5}
 2927 0036 7047     		bx	lr
 2928              	.L365:
 2929 0038 23F08003 		bic	r3, r3, #128
 2930 003c CD68     		ldr	r5, [r1, #12]
 2931 003e 43EA0513 		orr	r3, r3, r5, lsl #4
 2932 0042 23F04003 		bic	r3, r3, #64
 2933 0046 24F44064 		bic	r4, r4, #3072
 2934 004a 4D69     		ldr	r5, [r1, #20]
 2935 004c 44EA8504 		orr	r4, r4, r5, lsl #2
 2936 0050 8D69     		ldr	r5, [r1, #24]
 2937 0052 44EA8504 		orr	r4, r4, r5, lsl #2
 2938 0056 E8E7     		b	.L363
 2939              	.L367:
 2940              		.align	2
 2941              	.L366:
 2942 0058 002C0140 		.word	1073818624
 2944              		.section	.text.HAL_TIM_OC_ConfigChannel,"ax",%progbits
 2945              		.align	1
 2946              		.global	HAL_TIM_OC_ConfigChannel
 2947              		.syntax unified
 2948              		.thumb
 2949              		.thumb_func
 2951              	HAL_TIM_OC_ConfigChannel:
 2952              		@ args = 0, pretend = 0, frame = 0
ARM GAS  /tmp/ccJhWMjo.s 			page 50


 2953              		@ frame_needed = 0, uses_anonymous_args = 0
 2954 0000 90F83C30 		ldrb	r3, [r0, #60]	@ zero_extendqisi2
 2955 0004 012B     		cmp	r3, #1
 2956 0006 28D0     		beq	.L376
 2957 0008 10B5     		push	{r4, lr}
 2958 000a 0446     		mov	r4, r0
 2959 000c 0123     		movs	r3, #1
 2960 000e 80F83C30 		strb	r3, [r0, #60]
 2961 0012 0C2A     		cmp	r2, #12
 2962 0014 1CD8     		bhi	.L377
 2963 0016 DFE802F0 		tbb	[pc, r2]
 2964              	.L372:
 2965 001a 07       		.byte	(.L375-.L372)/2
 2966 001b 1B       		.byte	(.L377-.L372)/2
 2967 001c 1B       		.byte	(.L377-.L372)/2
 2968 001d 1B       		.byte	(.L377-.L372)/2
 2969 001e 0C       		.byte	(.L374-.L372)/2
 2970 001f 1B       		.byte	(.L377-.L372)/2
 2971 0020 1B       		.byte	(.L377-.L372)/2
 2972 0021 1B       		.byte	(.L377-.L372)/2
 2973 0022 11       		.byte	(.L373-.L372)/2
 2974 0023 1B       		.byte	(.L377-.L372)/2
 2975 0024 1B       		.byte	(.L377-.L372)/2
 2976 0025 1B       		.byte	(.L377-.L372)/2
 2977 0026 16       		.byte	(.L371-.L372)/2
 2978 0027 00       		.p2align 1
 2979              	.L375:
 2980 0028 0068     		ldr	r0, [r0]
 2981 002a FFF7FEFF 		bl	TIM_OC1_SetConfig
 2982 002e 0020     		movs	r0, #0
 2983 0030 0FE0     		b	.L370
 2984              	.L374:
 2985 0032 0068     		ldr	r0, [r0]
 2986 0034 FFF7FEFF 		bl	TIM_OC2_SetConfig
 2987 0038 0020     		movs	r0, #0
 2988 003a 0AE0     		b	.L370
 2989              	.L373:
 2990 003c 0068     		ldr	r0, [r0]
 2991 003e FFF7FEFF 		bl	TIM_OC3_SetConfig
 2992 0042 0020     		movs	r0, #0
 2993 0044 05E0     		b	.L370
 2994              	.L371:
 2995 0046 0068     		ldr	r0, [r0]
 2996 0048 FFF7FEFF 		bl	TIM_OC4_SetConfig
 2997 004c 0020     		movs	r0, #0
 2998 004e 00E0     		b	.L370
 2999              	.L377:
 3000 0050 0120     		movs	r0, #1
 3001              	.L370:
 3002 0052 0023     		movs	r3, #0
 3003 0054 84F83C30 		strb	r3, [r4, #60]
 3004 0058 10BD     		pop	{r4, pc}
 3005              	.L376:
 3006 005a 0220     		movs	r0, #2
 3007 005c 7047     		bx	lr
 3009              		.section	.text.HAL_TIM_PWM_ConfigChannel,"ax",%progbits
 3010              		.align	1
ARM GAS  /tmp/ccJhWMjo.s 			page 51


 3011              		.global	HAL_TIM_PWM_ConfigChannel
 3012              		.syntax unified
 3013              		.thumb
 3014              		.thumb_func
 3016              	HAL_TIM_PWM_ConfigChannel:
 3017              		@ args = 0, pretend = 0, frame = 0
 3018              		@ frame_needed = 0, uses_anonymous_args = 0
 3019 0000 38B5     		push	{r3, r4, r5, lr}
 3020 0002 90F83C30 		ldrb	r3, [r0, #60]	@ zero_extendqisi2
 3021 0006 012B     		cmp	r3, #1
 3022 0008 66D0     		beq	.L390
 3023 000a 0446     		mov	r4, r0
 3024 000c 0D46     		mov	r5, r1
 3025 000e 0123     		movs	r3, #1
 3026 0010 80F83C30 		strb	r3, [r0, #60]
 3027 0014 0C2A     		cmp	r2, #12
 3028 0016 5AD8     		bhi	.L391
 3029 0018 DFE802F0 		tbb	[pc, r2]
 3030              	.L386:
 3031 001c 07       		.byte	(.L389-.L386)/2
 3032 001d 59       		.byte	(.L391-.L386)/2
 3033 001e 59       		.byte	(.L391-.L386)/2
 3034 001f 59       		.byte	(.L391-.L386)/2
 3035 0020 1B       		.byte	(.L388-.L386)/2
 3036 0021 59       		.byte	(.L391-.L386)/2
 3037 0022 59       		.byte	(.L391-.L386)/2
 3038 0023 59       		.byte	(.L391-.L386)/2
 3039 0024 30       		.byte	(.L387-.L386)/2
 3040 0025 59       		.byte	(.L391-.L386)/2
 3041 0026 59       		.byte	(.L391-.L386)/2
 3042 0027 59       		.byte	(.L391-.L386)/2
 3043 0028 44       		.byte	(.L385-.L386)/2
 3044 0029 00       		.p2align 1
 3045              	.L389:
 3046 002a 0068     		ldr	r0, [r0]
 3047 002c FFF7FEFF 		bl	TIM_OC1_SetConfig
 3048 0030 2268     		ldr	r2, [r4]
 3049 0032 9369     		ldr	r3, [r2, #24]
 3050 0034 43F00803 		orr	r3, r3, #8
 3051 0038 9361     		str	r3, [r2, #24]
 3052 003a 2268     		ldr	r2, [r4]
 3053 003c 9369     		ldr	r3, [r2, #24]
 3054 003e 23F00403 		bic	r3, r3, #4
 3055 0042 9361     		str	r3, [r2, #24]
 3056 0044 2268     		ldr	r2, [r4]
 3057 0046 9369     		ldr	r3, [r2, #24]
 3058 0048 2969     		ldr	r1, [r5, #16]
 3059 004a 0B43     		orrs	r3, r3, r1
 3060 004c 9361     		str	r3, [r2, #24]
 3061 004e 0020     		movs	r0, #0
 3062 0050 3EE0     		b	.L384
 3063              	.L388:
 3064 0052 0068     		ldr	r0, [r0]
 3065 0054 FFF7FEFF 		bl	TIM_OC2_SetConfig
 3066 0058 2268     		ldr	r2, [r4]
 3067 005a 9369     		ldr	r3, [r2, #24]
 3068 005c 43F40063 		orr	r3, r3, #2048
ARM GAS  /tmp/ccJhWMjo.s 			page 52


 3069 0060 9361     		str	r3, [r2, #24]
 3070 0062 2268     		ldr	r2, [r4]
 3071 0064 9369     		ldr	r3, [r2, #24]
 3072 0066 23F48063 		bic	r3, r3, #1024
 3073 006a 9361     		str	r3, [r2, #24]
 3074 006c 2268     		ldr	r2, [r4]
 3075 006e 9369     		ldr	r3, [r2, #24]
 3076 0070 2969     		ldr	r1, [r5, #16]
 3077 0072 43EA0123 		orr	r3, r3, r1, lsl #8
 3078 0076 9361     		str	r3, [r2, #24]
 3079 0078 0020     		movs	r0, #0
 3080 007a 29E0     		b	.L384
 3081              	.L387:
 3082 007c 0068     		ldr	r0, [r0]
 3083 007e FFF7FEFF 		bl	TIM_OC3_SetConfig
 3084 0082 2268     		ldr	r2, [r4]
 3085 0084 D369     		ldr	r3, [r2, #28]
 3086 0086 43F00803 		orr	r3, r3, #8
 3087 008a D361     		str	r3, [r2, #28]
 3088 008c 2268     		ldr	r2, [r4]
 3089 008e D369     		ldr	r3, [r2, #28]
 3090 0090 23F00403 		bic	r3, r3, #4
 3091 0094 D361     		str	r3, [r2, #28]
 3092 0096 2268     		ldr	r2, [r4]
 3093 0098 D369     		ldr	r3, [r2, #28]
 3094 009a 2969     		ldr	r1, [r5, #16]
 3095 009c 0B43     		orrs	r3, r3, r1
 3096 009e D361     		str	r3, [r2, #28]
 3097 00a0 0020     		movs	r0, #0
 3098 00a2 15E0     		b	.L384
 3099              	.L385:
 3100 00a4 0068     		ldr	r0, [r0]
 3101 00a6 FFF7FEFF 		bl	TIM_OC4_SetConfig
 3102 00aa 2268     		ldr	r2, [r4]
 3103 00ac D369     		ldr	r3, [r2, #28]
 3104 00ae 43F40063 		orr	r3, r3, #2048
 3105 00b2 D361     		str	r3, [r2, #28]
 3106 00b4 2268     		ldr	r2, [r4]
 3107 00b6 D369     		ldr	r3, [r2, #28]
 3108 00b8 23F48063 		bic	r3, r3, #1024
 3109 00bc D361     		str	r3, [r2, #28]
 3110 00be 2268     		ldr	r2, [r4]
 3111 00c0 D369     		ldr	r3, [r2, #28]
 3112 00c2 2969     		ldr	r1, [r5, #16]
 3113 00c4 43EA0123 		orr	r3, r3, r1, lsl #8
 3114 00c8 D361     		str	r3, [r2, #28]
 3115 00ca 0020     		movs	r0, #0
 3116 00cc 00E0     		b	.L384
 3117              	.L391:
 3118 00ce 0120     		movs	r0, #1
 3119              	.L384:
 3120 00d0 0023     		movs	r3, #0
 3121 00d2 84F83C30 		strb	r3, [r4, #60]
 3122              	.L383:
 3123 00d6 38BD     		pop	{r3, r4, r5, pc}
 3124              	.L390:
 3125 00d8 0220     		movs	r0, #2
ARM GAS  /tmp/ccJhWMjo.s 			page 53


 3126 00da FCE7     		b	.L383
 3128              		.section	.text.TIM_TI1_SetConfig,"ax",%progbits
 3129              		.align	1
 3130              		.global	TIM_TI1_SetConfig
 3131              		.syntax unified
 3132              		.thumb
 3133              		.thumb_func
 3135              	TIM_TI1_SetConfig:
 3136              		@ args = 0, pretend = 0, frame = 0
 3137              		@ frame_needed = 0, uses_anonymous_args = 0
 3138              		@ link register save eliminated.
 3139 0000 70B4     		push	{r4, r5, r6}
 3140 0002 056A     		ldr	r5, [r0, #32]
 3141 0004 046A     		ldr	r4, [r0, #32]
 3142 0006 24F00104 		bic	r4, r4, #1
 3143 000a 0462     		str	r4, [r0, #32]
 3144 000c 8469     		ldr	r4, [r0, #24]
 3145 000e 114E     		ldr	r6, .L397
 3146 0010 B042     		cmp	r0, r6
 3147 0012 0DD0     		beq	.L394
 3148 0014 B0F1804F 		cmp	r0, #1073741824
 3149 0018 0AD0     		beq	.L394
 3150 001a A6F59436 		sub	r6, r6, #75776
 3151 001e B042     		cmp	r0, r6
 3152 0020 06D0     		beq	.L394
 3153 0022 06F58066 		add	r6, r6, #1024
 3154 0026 B042     		cmp	r0, r6
 3155 0028 02D0     		beq	.L394
 3156 002a 44F00102 		orr	r2, r4, #1
 3157 002e 02E0     		b	.L395
 3158              	.L394:
 3159 0030 24F00304 		bic	r4, r4, #3
 3160 0034 2243     		orrs	r2, r2, r4
 3161              	.L395:
 3162 0036 22F0F002 		bic	r2, r2, #240
 3163 003a 1B01     		lsls	r3, r3, #4
 3164 003c DBB2     		uxtb	r3, r3
 3165 003e 1343     		orrs	r3, r3, r2
 3166 0040 25F00A02 		bic	r2, r5, #10
 3167 0044 01F00A01 		and	r1, r1, #10
 3168 0048 1143     		orrs	r1, r1, r2
 3169 004a 8361     		str	r3, [r0, #24]
 3170 004c 0162     		str	r1, [r0, #32]
 3171 004e 70BC     		pop	{r4, r5, r6}
 3172 0050 7047     		bx	lr
 3173              	.L398:
 3174 0052 00BF     		.align	2
 3175              	.L397:
 3176 0054 002C0140 		.word	1073818624
 3178              		.section	.text.HAL_TIM_IC_ConfigChannel,"ax",%progbits
 3179              		.align	1
 3180              		.global	HAL_TIM_IC_ConfigChannel
 3181              		.syntax unified
 3182              		.thumb
 3183              		.thumb_func
 3185              	HAL_TIM_IC_ConfigChannel:
 3186              		@ args = 0, pretend = 0, frame = 0
ARM GAS  /tmp/ccJhWMjo.s 			page 54


 3187              		@ frame_needed = 0, uses_anonymous_args = 0
 3188 0000 38B5     		push	{r3, r4, r5, lr}
 3189 0002 90F83C30 		ldrb	r3, [r0, #60]	@ zero_extendqisi2
 3190 0006 012B     		cmp	r3, #1
 3191 0008 5ED0     		beq	.L407
 3192 000a 0446     		mov	r4, r0
 3193 000c 0D46     		mov	r5, r1
 3194 000e 0123     		movs	r3, #1
 3195 0010 80F83C30 		strb	r3, [r0, #60]
 3196 0014 0C2A     		cmp	r2, #12
 3197 0016 52D8     		bhi	.L408
 3198 0018 DFE802F0 		tbb	[pc, r2]
 3199              	.L403:
 3200 001c 07       		.byte	(.L406-.L403)/2
 3201 001d 51       		.byte	(.L408-.L403)/2
 3202 001e 51       		.byte	(.L408-.L403)/2
 3203 001f 51       		.byte	(.L408-.L403)/2
 3204 0020 19       		.byte	(.L405-.L403)/2
 3205 0021 51       		.byte	(.L408-.L403)/2
 3206 0022 51       		.byte	(.L408-.L403)/2
 3207 0023 51       		.byte	(.L408-.L403)/2
 3208 0024 2C       		.byte	(.L404-.L403)/2
 3209 0025 51       		.byte	(.L408-.L403)/2
 3210 0026 51       		.byte	(.L408-.L403)/2
 3211 0027 51       		.byte	(.L408-.L403)/2
 3212 0028 3E       		.byte	(.L402-.L403)/2
 3213 0029 00       		.p2align 1
 3214              	.L406:
 3215 002a CB68     		ldr	r3, [r1, #12]
 3216 002c 4A68     		ldr	r2, [r1, #4]
 3217 002e 0968     		ldr	r1, [r1]
 3218 0030 0068     		ldr	r0, [r0]
 3219 0032 FFF7FEFF 		bl	TIM_TI1_SetConfig
 3220 0036 2268     		ldr	r2, [r4]
 3221 0038 9369     		ldr	r3, [r2, #24]
 3222 003a 23F00C03 		bic	r3, r3, #12
 3223 003e 9361     		str	r3, [r2, #24]
 3224 0040 2268     		ldr	r2, [r4]
 3225 0042 9369     		ldr	r3, [r2, #24]
 3226 0044 A968     		ldr	r1, [r5, #8]
 3227 0046 0B43     		orrs	r3, r3, r1
 3228 0048 9361     		str	r3, [r2, #24]
 3229 004a 0020     		movs	r0, #0
 3230 004c 38E0     		b	.L401
 3231              	.L405:
 3232 004e CB68     		ldr	r3, [r1, #12]
 3233 0050 4A68     		ldr	r2, [r1, #4]
 3234 0052 0968     		ldr	r1, [r1]
 3235 0054 0068     		ldr	r0, [r0]
 3236 0056 FFF7FEFF 		bl	TIM_TI2_SetConfig
 3237 005a 2268     		ldr	r2, [r4]
 3238 005c 9369     		ldr	r3, [r2, #24]
 3239 005e 23F44063 		bic	r3, r3, #3072
 3240 0062 9361     		str	r3, [r2, #24]
 3241 0064 2268     		ldr	r2, [r4]
 3242 0066 9369     		ldr	r3, [r2, #24]
 3243 0068 A968     		ldr	r1, [r5, #8]
ARM GAS  /tmp/ccJhWMjo.s 			page 55


 3244 006a 43EA0123 		orr	r3, r3, r1, lsl #8
 3245 006e 9361     		str	r3, [r2, #24]
 3246 0070 0020     		movs	r0, #0
 3247 0072 25E0     		b	.L401
 3248              	.L404:
 3249 0074 CB68     		ldr	r3, [r1, #12]
 3250 0076 4A68     		ldr	r2, [r1, #4]
 3251 0078 0968     		ldr	r1, [r1]
 3252 007a 0068     		ldr	r0, [r0]
 3253 007c FFF7FEFF 		bl	TIM_TI3_SetConfig
 3254 0080 2268     		ldr	r2, [r4]
 3255 0082 D369     		ldr	r3, [r2, #28]
 3256 0084 23F00C03 		bic	r3, r3, #12
 3257 0088 D361     		str	r3, [r2, #28]
 3258 008a 2268     		ldr	r2, [r4]
 3259 008c D369     		ldr	r3, [r2, #28]
 3260 008e A968     		ldr	r1, [r5, #8]
 3261 0090 0B43     		orrs	r3, r3, r1
 3262 0092 D361     		str	r3, [r2, #28]
 3263 0094 0020     		movs	r0, #0
 3264 0096 13E0     		b	.L401
 3265              	.L402:
 3266 0098 CB68     		ldr	r3, [r1, #12]
 3267 009a 4A68     		ldr	r2, [r1, #4]
 3268 009c 0968     		ldr	r1, [r1]
 3269 009e 0068     		ldr	r0, [r0]
 3270 00a0 FFF7FEFF 		bl	TIM_TI4_SetConfig
 3271 00a4 2268     		ldr	r2, [r4]
 3272 00a6 D369     		ldr	r3, [r2, #28]
 3273 00a8 23F44063 		bic	r3, r3, #3072
 3274 00ac D361     		str	r3, [r2, #28]
 3275 00ae 2268     		ldr	r2, [r4]
 3276 00b0 D369     		ldr	r3, [r2, #28]
 3277 00b2 A968     		ldr	r1, [r5, #8]
 3278 00b4 43EA0123 		orr	r3, r3, r1, lsl #8
 3279 00b8 D361     		str	r3, [r2, #28]
 3280 00ba 0020     		movs	r0, #0
 3281 00bc 00E0     		b	.L401
 3282              	.L408:
 3283 00be 0120     		movs	r0, #1
 3284              	.L401:
 3285 00c0 0023     		movs	r3, #0
 3286 00c2 84F83C30 		strb	r3, [r4, #60]
 3287              	.L400:
 3288 00c6 38BD     		pop	{r3, r4, r5, pc}
 3289              	.L407:
 3290 00c8 0220     		movs	r0, #2
 3291 00ca FCE7     		b	.L400
 3293              		.section	.text.HAL_TIM_OnePulse_ConfigChannel,"ax",%progbits
 3294              		.align	1
 3295              		.global	HAL_TIM_OnePulse_ConfigChannel
 3296              		.syntax unified
 3297              		.thumb
 3298              		.thumb_func
 3300              	HAL_TIM_OnePulse_ConfigChannel:
 3301              		@ args = 0, pretend = 0, frame = 32
 3302              		@ frame_needed = 0, uses_anonymous_args = 0
ARM GAS  /tmp/ccJhWMjo.s 			page 56


 3303 0000 9A42     		cmp	r2, r3
 3304 0002 76D0     		beq	.L418
 3305 0004 70B5     		push	{r4, r5, r6, lr}
 3306 0006 88B0     		sub	sp, sp, #32
 3307 0008 0446     		mov	r4, r0
 3308 000a 0D46     		mov	r5, r1
 3309 000c 1E46     		mov	r6, r3
 3310 000e 90F83C30 		ldrb	r3, [r0, #60]	@ zero_extendqisi2
 3311 0012 012B     		cmp	r3, #1
 3312 0014 6FD0     		beq	.L419
 3313 0016 0123     		movs	r3, #1
 3314 0018 80F83C30 		strb	r3, [r0, #60]
 3315 001c 0223     		movs	r3, #2
 3316 001e 80F83D30 		strb	r3, [r0, #61]
 3317 0022 0B68     		ldr	r3, [r1]
 3318 0024 0193     		str	r3, [sp, #4]
 3319 0026 4B68     		ldr	r3, [r1, #4]
 3320 0028 0293     		str	r3, [sp, #8]
 3321 002a 8B68     		ldr	r3, [r1, #8]
 3322 002c 0393     		str	r3, [sp, #12]
 3323 002e CB68     		ldr	r3, [r1, #12]
 3324 0030 0493     		str	r3, [sp, #16]
 3325 0032 0B69     		ldr	r3, [r1, #16]
 3326 0034 0693     		str	r3, [sp, #24]
 3327 0036 4B69     		ldr	r3, [r1, #20]
 3328 0038 0793     		str	r3, [sp, #28]
 3329 003a 52B1     		cbz	r2, .L412
 3330 003c 042A     		cmp	r2, #4
 3331 003e 11D0     		beq	.L413
 3332 0040 0120     		movs	r0, #1
 3333              	.L414:
 3334 0042 0123     		movs	r3, #1
 3335 0044 84F83D30 		strb	r3, [r4, #61]
 3336 0048 0023     		movs	r3, #0
 3337 004a 84F83C30 		strb	r3, [r4, #60]
 3338              	.L411:
 3339 004e 08B0     		add	sp, sp, #32
 3340              		@ sp needed
 3341 0050 70BD     		pop	{r4, r5, r6, pc}
 3342              	.L412:
 3343 0052 01A9     		add	r1, sp, #4
 3344 0054 0068     		ldr	r0, [r0]
 3345 0056 FFF7FEFF 		bl	TIM_OC1_SetConfig
 3346              	.L415:
 3347 005a 46B1     		cbz	r6, .L416
 3348 005c 042E     		cmp	r6, #4
 3349 005e 27D0     		beq	.L417
 3350 0060 0120     		movs	r0, #1
 3351 0062 EEE7     		b	.L414
 3352              	.L413:
 3353 0064 01A9     		add	r1, sp, #4
 3354 0066 0068     		ldr	r0, [r0]
 3355 0068 FFF7FEFF 		bl	TIM_OC2_SetConfig
 3356 006c F5E7     		b	.L415
 3357              	.L416:
 3358 006e 2B6A     		ldr	r3, [r5, #32]
 3359 0070 EA69     		ldr	r2, [r5, #28]
ARM GAS  /tmp/ccJhWMjo.s 			page 57


 3360 0072 A969     		ldr	r1, [r5, #24]
 3361 0074 2068     		ldr	r0, [r4]
 3362 0076 FFF7FEFF 		bl	TIM_TI1_SetConfig
 3363 007a 2268     		ldr	r2, [r4]
 3364 007c 9369     		ldr	r3, [r2, #24]
 3365 007e 23F00C03 		bic	r3, r3, #12
 3366 0082 9361     		str	r3, [r2, #24]
 3367 0084 2268     		ldr	r2, [r4]
 3368 0086 9368     		ldr	r3, [r2, #8]
 3369 0088 23F07003 		bic	r3, r3, #112
 3370 008c 9360     		str	r3, [r2, #8]
 3371 008e 2268     		ldr	r2, [r4]
 3372 0090 9368     		ldr	r3, [r2, #8]
 3373 0092 43F05003 		orr	r3, r3, #80
 3374 0096 9360     		str	r3, [r2, #8]
 3375 0098 2268     		ldr	r2, [r4]
 3376 009a 9368     		ldr	r3, [r2, #8]
 3377 009c 23F00703 		bic	r3, r3, #7
 3378 00a0 9360     		str	r3, [r2, #8]
 3379 00a2 2268     		ldr	r2, [r4]
 3380 00a4 9368     		ldr	r3, [r2, #8]
 3381 00a6 43F00603 		orr	r3, r3, #6
 3382 00aa 9360     		str	r3, [r2, #8]
 3383 00ac 0020     		movs	r0, #0
 3384 00ae C8E7     		b	.L414
 3385              	.L417:
 3386 00b0 2B6A     		ldr	r3, [r5, #32]
 3387 00b2 EA69     		ldr	r2, [r5, #28]
 3388 00b4 A969     		ldr	r1, [r5, #24]
 3389 00b6 2068     		ldr	r0, [r4]
 3390 00b8 FFF7FEFF 		bl	TIM_TI2_SetConfig
 3391 00bc 2268     		ldr	r2, [r4]
 3392 00be 9369     		ldr	r3, [r2, #24]
 3393 00c0 23F44063 		bic	r3, r3, #3072
 3394 00c4 9361     		str	r3, [r2, #24]
 3395 00c6 2268     		ldr	r2, [r4]
 3396 00c8 9368     		ldr	r3, [r2, #8]
 3397 00ca 23F07003 		bic	r3, r3, #112
 3398 00ce 9360     		str	r3, [r2, #8]
 3399 00d0 2268     		ldr	r2, [r4]
 3400 00d2 9368     		ldr	r3, [r2, #8]
 3401 00d4 43F06003 		orr	r3, r3, #96
 3402 00d8 9360     		str	r3, [r2, #8]
 3403 00da 2268     		ldr	r2, [r4]
 3404 00dc 9368     		ldr	r3, [r2, #8]
 3405 00de 23F00703 		bic	r3, r3, #7
 3406 00e2 9360     		str	r3, [r2, #8]
 3407 00e4 2268     		ldr	r2, [r4]
 3408 00e6 9368     		ldr	r3, [r2, #8]
 3409 00e8 43F00603 		orr	r3, r3, #6
 3410 00ec 9360     		str	r3, [r2, #8]
 3411 00ee 0020     		movs	r0, #0
 3412 00f0 A7E7     		b	.L414
 3413              	.L418:
 3414 00f2 0120     		movs	r0, #1
 3415 00f4 7047     		bx	lr
 3416              	.L419:
ARM GAS  /tmp/ccJhWMjo.s 			page 58


 3417 00f6 0220     		movs	r0, #2
 3418 00f8 A9E7     		b	.L411
 3420              		.section	.text.TIM_ETR_SetConfig,"ax",%progbits
 3421              		.align	1
 3422              		.global	TIM_ETR_SetConfig
 3423              		.syntax unified
 3424              		.thumb
 3425              		.thumb_func
 3427              	TIM_ETR_SetConfig:
 3428              		@ args = 0, pretend = 0, frame = 0
 3429              		@ frame_needed = 0, uses_anonymous_args = 0
 3430              		@ link register save eliminated.
 3431 0000 10B4     		push	{r4}
 3432 0002 8468     		ldr	r4, [r0, #8]
 3433 0004 24F47F4C 		bic	ip, r4, #65280
 3434 0008 42EA0322 		orr	r2, r2, r3, lsl #8
 3435 000c 0A43     		orrs	r2, r2, r1
 3436 000e 42EA0C02 		orr	r2, r2, ip
 3437 0012 8260     		str	r2, [r0, #8]
 3438 0014 10BC     		pop	{r4}
 3439 0016 7047     		bx	lr
 3441              		.section	.text.HAL_TIM_ConfigOCrefClear,"ax",%progbits
 3442              		.align	1
 3443              		.global	HAL_TIM_ConfigOCrefClear
 3444              		.syntax unified
 3445              		.thumb
 3446              		.thumb_func
 3448              	HAL_TIM_ConfigOCrefClear:
 3449              		@ args = 0, pretend = 0, frame = 0
 3450              		@ frame_needed = 0, uses_anonymous_args = 0
 3451 0000 90F83C30 		ldrb	r3, [r0, #60]	@ zero_extendqisi2
 3452 0004 012B     		cmp	r3, #1
 3453 0006 76D0     		beq	.L442
 3454 0008 70B5     		push	{r4, r5, r6, lr}
 3455 000a 0446     		mov	r4, r0
 3456 000c 0D46     		mov	r5, r1
 3457 000e 1646     		mov	r6, r2
 3458 0010 0123     		movs	r3, #1
 3459 0012 80F83C30 		strb	r3, [r0, #60]
 3460 0016 0223     		movs	r3, #2
 3461 0018 80F83D30 		strb	r3, [r0, #61]
 3462 001c 4B68     		ldr	r3, [r1, #4]
 3463 001e 4BB1     		cbz	r3, .L428
 3464 0020 012B     		cmp	r3, #1
 3465 0022 17D0     		beq	.L429
 3466 0024 0120     		movs	r0, #1
 3467              	.L430:
 3468 0026 0123     		movs	r3, #1
 3469 0028 84F83D30 		strb	r3, [r4, #61]
 3470 002c 0023     		movs	r3, #0
 3471 002e 84F83C30 		strb	r3, [r4, #60]
 3472              	.L427:
 3473 0032 70BD     		pop	{r4, r5, r6, pc}
 3474              	.L428:
 3475 0034 0268     		ldr	r2, [r0]
 3476 0036 9368     		ldr	r3, [r2, #8]
 3477 0038 23F47F43 		bic	r3, r3, #65280
ARM GAS  /tmp/ccJhWMjo.s 			page 59


 3478 003c 9360     		str	r3, [r2, #8]
 3479              	.L431:
 3480 003e 0C2E     		cmp	r6, #12
 3481 0040 57D8     		bhi	.L443
 3482 0042 DFE806F0 		tbb	[pc, r6]
 3483              	.L434:
 3484 0046 16       		.byte	(.L437-.L434)/2
 3485 0047 56       		.byte	(.L443-.L434)/2
 3486 0048 56       		.byte	(.L443-.L434)/2
 3487 0049 56       		.byte	(.L443-.L434)/2
 3488 004a 26       		.byte	(.L436-.L434)/2
 3489 004b 56       		.byte	(.L443-.L434)/2
 3490 004c 56       		.byte	(.L443-.L434)/2
 3491 004d 56       		.byte	(.L443-.L434)/2
 3492 004e 36       		.byte	(.L435-.L434)/2
 3493 004f 56       		.byte	(.L443-.L434)/2
 3494 0050 56       		.byte	(.L443-.L434)/2
 3495 0051 56       		.byte	(.L443-.L434)/2
 3496 0052 46       		.byte	(.L433-.L434)/2
 3497 0053 00       		.p2align 1
 3498              	.L429:
 3499 0054 C968     		ldr	r1, [r1, #12]
 3500 0056 31B1     		cbz	r1, .L432
 3501 0058 0120     		movs	r0, #1
 3502 005a 84F83D00 		strb	r0, [r4, #61]
 3503 005e 0023     		movs	r3, #0
 3504 0060 84F83C30 		strb	r3, [r4, #60]
 3505 0064 E5E7     		b	.L427
 3506              	.L432:
 3507 0066 2B69     		ldr	r3, [r5, #16]
 3508 0068 AA68     		ldr	r2, [r5, #8]
 3509 006a 0068     		ldr	r0, [r0]
 3510 006c FFF7FEFF 		bl	TIM_ETR_SetConfig
 3511 0070 E5E7     		b	.L431
 3512              	.L437:
 3513 0072 2B68     		ldr	r3, [r5]
 3514 0074 33B1     		cbz	r3, .L438
 3515 0076 2268     		ldr	r2, [r4]
 3516 0078 9369     		ldr	r3, [r2, #24]
 3517 007a 43F08003 		orr	r3, r3, #128
 3518 007e 9361     		str	r3, [r2, #24]
 3519 0080 0020     		movs	r0, #0
 3520 0082 D0E7     		b	.L430
 3521              	.L438:
 3522 0084 2268     		ldr	r2, [r4]
 3523 0086 9369     		ldr	r3, [r2, #24]
 3524 0088 23F08003 		bic	r3, r3, #128
 3525 008c 9361     		str	r3, [r2, #24]
 3526 008e 0020     		movs	r0, #0
 3527 0090 C9E7     		b	.L430
 3528              	.L436:
 3529 0092 2B68     		ldr	r3, [r5]
 3530 0094 33B1     		cbz	r3, .L439
 3531 0096 2268     		ldr	r2, [r4]
 3532 0098 9369     		ldr	r3, [r2, #24]
 3533 009a 43F40043 		orr	r3, r3, #32768
 3534 009e 9361     		str	r3, [r2, #24]
ARM GAS  /tmp/ccJhWMjo.s 			page 60


 3535 00a0 0020     		movs	r0, #0
 3536 00a2 C0E7     		b	.L430
 3537              	.L439:
 3538 00a4 2268     		ldr	r2, [r4]
 3539 00a6 9369     		ldr	r3, [r2, #24]
 3540 00a8 23F40043 		bic	r3, r3, #32768
 3541 00ac 9361     		str	r3, [r2, #24]
 3542 00ae 0020     		movs	r0, #0
 3543 00b0 B9E7     		b	.L430
 3544              	.L435:
 3545 00b2 2B68     		ldr	r3, [r5]
 3546 00b4 33B1     		cbz	r3, .L440
 3547 00b6 2268     		ldr	r2, [r4]
 3548 00b8 D369     		ldr	r3, [r2, #28]
 3549 00ba 43F08003 		orr	r3, r3, #128
 3550 00be D361     		str	r3, [r2, #28]
 3551 00c0 0020     		movs	r0, #0
 3552 00c2 B0E7     		b	.L430
 3553              	.L440:
 3554 00c4 2268     		ldr	r2, [r4]
 3555 00c6 D369     		ldr	r3, [r2, #28]
 3556 00c8 23F08003 		bic	r3, r3, #128
 3557 00cc D361     		str	r3, [r2, #28]
 3558 00ce 0020     		movs	r0, #0
 3559 00d0 A9E7     		b	.L430
 3560              	.L433:
 3561 00d2 2B68     		ldr	r3, [r5]
 3562 00d4 33B1     		cbz	r3, .L441
 3563 00d6 2268     		ldr	r2, [r4]
 3564 00d8 D369     		ldr	r3, [r2, #28]
 3565 00da 43F40043 		orr	r3, r3, #32768
 3566 00de D361     		str	r3, [r2, #28]
 3567 00e0 0020     		movs	r0, #0
 3568 00e2 A0E7     		b	.L430
 3569              	.L441:
 3570 00e4 2268     		ldr	r2, [r4]
 3571 00e6 D369     		ldr	r3, [r2, #28]
 3572 00e8 23F40043 		bic	r3, r3, #32768
 3573 00ec D361     		str	r3, [r2, #28]
 3574 00ee 0020     		movs	r0, #0
 3575 00f0 99E7     		b	.L430
 3576              	.L443:
 3577 00f2 0020     		movs	r0, #0
 3578 00f4 97E7     		b	.L430
 3579              	.L442:
 3580 00f6 0220     		movs	r0, #2
 3581 00f8 7047     		bx	lr
 3583              		.section	.text.HAL_TIM_ConfigClockSource,"ax",%progbits
 3584              		.align	1
 3585              		.global	HAL_TIM_ConfigClockSource
 3586              		.syntax unified
 3587              		.thumb
 3588              		.thumb_func
 3590              	HAL_TIM_ConfigClockSource:
 3591              		@ args = 0, pretend = 0, frame = 0
 3592              		@ frame_needed = 0, uses_anonymous_args = 0
 3593 0000 90F83C30 		ldrb	r3, [r0, #60]	@ zero_extendqisi2
ARM GAS  /tmp/ccJhWMjo.s 			page 61


 3594 0004 012B     		cmp	r3, #1
 3595 0006 78D0     		beq	.L459
 3596 0008 10B5     		push	{r4, lr}
 3597 000a 0446     		mov	r4, r0
 3598 000c 0123     		movs	r3, #1
 3599 000e 80F83C30 		strb	r3, [r0, #60]
 3600 0012 0223     		movs	r3, #2
 3601 0014 80F83D30 		strb	r3, [r0, #61]
 3602 0018 0268     		ldr	r2, [r0]
 3603 001a 9368     		ldr	r3, [r2, #8]
 3604 001c 23F47F43 		bic	r3, r3, #65280
 3605 0020 23F07703 		bic	r3, r3, #119
 3606 0024 9360     		str	r3, [r2, #8]
 3607 0026 0B68     		ldr	r3, [r1]
 3608 0028 602B     		cmp	r3, #96
 3609 002a 4CD0     		beq	.L450
 3610 002c 23D8     		bhi	.L451
 3611 002e 402B     		cmp	r3, #64
 3612 0030 54D0     		beq	.L452
 3613 0032 11D8     		bhi	.L453
 3614 0034 202B     		cmp	r3, #32
 3615 0036 03D0     		beq	.L454
 3616 0038 0AD8     		bhi	.L455
 3617 003a 0BB1     		cbz	r3, .L454
 3618 003c 102B     		cmp	r3, #16
 3619 003e 05D1     		bne	.L466
 3620              	.L454:
 3621 0040 1946     		mov	r1, r3
 3622 0042 2068     		ldr	r0, [r4]
 3623 0044 FFF7FEFF 		bl	TIM_ITRx_SetConfig
 3624 0048 0020     		movs	r0, #0
 3625 004a 28E0     		b	.L456
 3626              	.L466:
 3627 004c 0120     		movs	r0, #1
 3628 004e 26E0     		b	.L456
 3629              	.L455:
 3630 0050 302B     		cmp	r3, #48
 3631 0052 F5D0     		beq	.L454
 3632 0054 0120     		movs	r0, #1
 3633 0056 22E0     		b	.L456
 3634              	.L453:
 3635 0058 502B     		cmp	r3, #80
 3636 005a 0AD1     		bne	.L467
 3637 005c CA68     		ldr	r2, [r1, #12]
 3638 005e 4968     		ldr	r1, [r1, #4]
 3639 0060 0068     		ldr	r0, [r0]
 3640 0062 FFF7FEFF 		bl	TIM_TI1_ConfigInputStage
 3641 0066 5021     		movs	r1, #80
 3642 0068 2068     		ldr	r0, [r4]
 3643 006a FFF7FEFF 		bl	TIM_ITRx_SetConfig
 3644 006e 0020     		movs	r0, #0
 3645 0070 15E0     		b	.L456
 3646              	.L467:
 3647 0072 0120     		movs	r0, #1
 3648 0074 13E0     		b	.L456
 3649              	.L451:
 3650 0076 B3F5805F 		cmp	r3, #4096
ARM GAS  /tmp/ccJhWMjo.s 			page 62


 3651 007a 3AD0     		beq	.L460
 3652 007c B3F5005F 		cmp	r3, #8192
 3653 0080 14D0     		beq	.L458
 3654 0082 702B     		cmp	r3, #112
 3655 0084 37D1     		bne	.L461
 3656 0086 CB68     		ldr	r3, [r1, #12]
 3657 0088 4A68     		ldr	r2, [r1, #4]
 3658 008a 8968     		ldr	r1, [r1, #8]
 3659 008c 0068     		ldr	r0, [r0]
 3660 008e FFF7FEFF 		bl	TIM_ETR_SetConfig
 3661 0092 2268     		ldr	r2, [r4]
 3662 0094 9368     		ldr	r3, [r2, #8]
 3663 0096 43F07703 		orr	r3, r3, #119
 3664 009a 9360     		str	r3, [r2, #8]
 3665 009c 0020     		movs	r0, #0
 3666              	.L456:
 3667 009e 0123     		movs	r3, #1
 3668 00a0 84F83D30 		strb	r3, [r4, #61]
 3669 00a4 0023     		movs	r3, #0
 3670 00a6 84F83C30 		strb	r3, [r4, #60]
 3671 00aa 10BD     		pop	{r4, pc}
 3672              	.L458:
 3673 00ac CB68     		ldr	r3, [r1, #12]
 3674 00ae 4A68     		ldr	r2, [r1, #4]
 3675 00b0 8968     		ldr	r1, [r1, #8]
 3676 00b2 0068     		ldr	r0, [r0]
 3677 00b4 FFF7FEFF 		bl	TIM_ETR_SetConfig
 3678 00b8 2268     		ldr	r2, [r4]
 3679 00ba 9368     		ldr	r3, [r2, #8]
 3680 00bc 43F48043 		orr	r3, r3, #16384
 3681 00c0 9360     		str	r3, [r2, #8]
 3682 00c2 0020     		movs	r0, #0
 3683 00c4 EBE7     		b	.L456
 3684              	.L450:
 3685 00c6 CA68     		ldr	r2, [r1, #12]
 3686 00c8 4968     		ldr	r1, [r1, #4]
 3687 00ca 0068     		ldr	r0, [r0]
 3688 00cc FFF7FEFF 		bl	TIM_TI2_ConfigInputStage
 3689 00d0 6021     		movs	r1, #96
 3690 00d2 2068     		ldr	r0, [r4]
 3691 00d4 FFF7FEFF 		bl	TIM_ITRx_SetConfig
 3692 00d8 0020     		movs	r0, #0
 3693 00da E0E7     		b	.L456
 3694              	.L452:
 3695 00dc CA68     		ldr	r2, [r1, #12]
 3696 00de 4968     		ldr	r1, [r1, #4]
 3697 00e0 0068     		ldr	r0, [r0]
 3698 00e2 FFF7FEFF 		bl	TIM_TI1_ConfigInputStage
 3699 00e6 4021     		movs	r1, #64
 3700 00e8 2068     		ldr	r0, [r4]
 3701 00ea FFF7FEFF 		bl	TIM_ITRx_SetConfig
 3702 00ee 0020     		movs	r0, #0
 3703 00f0 D5E7     		b	.L456
 3704              	.L460:
 3705 00f2 0020     		movs	r0, #0
 3706 00f4 D3E7     		b	.L456
 3707              	.L461:
ARM GAS  /tmp/ccJhWMjo.s 			page 63


 3708 00f6 0120     		movs	r0, #1
 3709 00f8 D1E7     		b	.L456
 3710              	.L459:
 3711 00fa 0220     		movs	r0, #2
 3712 00fc 7047     		bx	lr
 3714              		.section	.text.TIM_SlaveTimer_SetConfig,"ax",%progbits
 3715              		.align	1
 3716              		.syntax unified
 3717              		.thumb
 3718              		.thumb_func
 3720              	TIM_SlaveTimer_SetConfig:
 3721              		@ args = 0, pretend = 0, frame = 0
 3722              		@ frame_needed = 0, uses_anonymous_args = 0
 3723 0000 10B5     		push	{r4, lr}
 3724 0002 0468     		ldr	r4, [r0]
 3725 0004 A268     		ldr	r2, [r4, #8]
 3726 0006 22F07002 		bic	r2, r2, #112
 3727 000a 4B68     		ldr	r3, [r1, #4]
 3728 000c 1343     		orrs	r3, r3, r2
 3729 000e 23F00703 		bic	r3, r3, #7
 3730 0012 0A68     		ldr	r2, [r1]
 3731 0014 1A43     		orrs	r2, r2, r3
 3732 0016 A260     		str	r2, [r4, #8]
 3733 0018 4B68     		ldr	r3, [r1, #4]
 3734 001a 502B     		cmp	r3, #80
 3735 001c 30D0     		beq	.L469
 3736 001e 0BD9     		bls	.L483
 3737 0020 602B     		cmp	r3, #96
 3738 0022 34D0     		beq	.L474
 3739 0024 702B     		cmp	r3, #112
 3740 0026 43D1     		bne	.L480
 3741 0028 0B69     		ldr	r3, [r1, #16]
 3742 002a 8A68     		ldr	r2, [r1, #8]
 3743 002c C968     		ldr	r1, [r1, #12]
 3744 002e 0068     		ldr	r0, [r0]
 3745 0030 FFF7FEFF 		bl	TIM_ETR_SetConfig
 3746 0034 0020     		movs	r0, #0
 3747              	.L472:
 3748 0036 10BD     		pop	{r4, pc}
 3749              	.L483:
 3750 0038 402B     		cmp	r3, #64
 3751 003a 0CD0     		beq	.L471
 3752 003c 2ED8     		bhi	.L475
 3753 003e 202B     		cmp	r3, #32
 3754 0040 2ED0     		beq	.L476
 3755 0042 04D8     		bhi	.L473
 3756 0044 73B3     		cbz	r3, .L477
 3757 0046 102B     		cmp	r3, #16
 3758 0048 2ED1     		bne	.L478
 3759 004a 0020     		movs	r0, #0
 3760 004c F3E7     		b	.L472
 3761              	.L473:
 3762 004e 302B     		cmp	r3, #48
 3763 0050 2CD1     		bne	.L479
 3764 0052 0020     		movs	r0, #0
 3765 0054 EFE7     		b	.L472
 3766              	.L471:
ARM GAS  /tmp/ccJhWMjo.s 			page 64


 3767 0056 0B68     		ldr	r3, [r1]
 3768 0058 052B     		cmp	r3, #5
 3769 005a 2BD0     		beq	.L481
 3770 005c 0368     		ldr	r3, [r0]
 3771 005e 1C6A     		ldr	r4, [r3, #32]
 3772 0060 1A6A     		ldr	r2, [r3, #32]
 3773 0062 22F00102 		bic	r2, r2, #1
 3774 0066 1A62     		str	r2, [r3, #32]
 3775 0068 0268     		ldr	r2, [r0]
 3776 006a 9369     		ldr	r3, [r2, #24]
 3777 006c 23F0F003 		bic	r3, r3, #240
 3778 0070 0969     		ldr	r1, [r1, #16]
 3779 0072 43EA0113 		orr	r3, r3, r1, lsl #4
 3780 0076 9361     		str	r3, [r2, #24]
 3781 0078 0368     		ldr	r3, [r0]
 3782 007a 1C62     		str	r4, [r3, #32]
 3783 007c 0020     		movs	r0, #0
 3784 007e DAE7     		b	.L472
 3785              	.L469:
 3786 0080 0A69     		ldr	r2, [r1, #16]
 3787 0082 8968     		ldr	r1, [r1, #8]
 3788 0084 0068     		ldr	r0, [r0]
 3789 0086 FFF7FEFF 		bl	TIM_TI1_ConfigInputStage
 3790 008a 0020     		movs	r0, #0
 3791 008c D3E7     		b	.L472
 3792              	.L474:
 3793 008e 0A69     		ldr	r2, [r1, #16]
 3794 0090 8968     		ldr	r1, [r1, #8]
 3795 0092 0068     		ldr	r0, [r0]
 3796 0094 FFF7FEFF 		bl	TIM_TI2_ConfigInputStage
 3797 0098 0020     		movs	r0, #0
 3798 009a CCE7     		b	.L472
 3799              	.L475:
 3800 009c 0120     		movs	r0, #1
 3801 009e CAE7     		b	.L472
 3802              	.L476:
 3803 00a0 0020     		movs	r0, #0
 3804 00a2 C8E7     		b	.L472
 3805              	.L477:
 3806 00a4 0020     		movs	r0, #0
 3807 00a6 C6E7     		b	.L472
 3808              	.L478:
 3809 00a8 0120     		movs	r0, #1
 3810 00aa C4E7     		b	.L472
 3811              	.L479:
 3812 00ac 0120     		movs	r0, #1
 3813 00ae C2E7     		b	.L472
 3814              	.L480:
 3815 00b0 0120     		movs	r0, #1
 3816 00b2 C0E7     		b	.L472
 3817              	.L481:
 3818 00b4 0120     		movs	r0, #1
 3819 00b6 BEE7     		b	.L472
 3821              		.section	.text.HAL_TIM_SlaveConfigSynchro,"ax",%progbits
 3822              		.align	1
 3823              		.global	HAL_TIM_SlaveConfigSynchro
 3824              		.syntax unified
ARM GAS  /tmp/ccJhWMjo.s 			page 65


 3825              		.thumb
 3826              		.thumb_func
 3828              	HAL_TIM_SlaveConfigSynchro:
 3829              		@ args = 0, pretend = 0, frame = 0
 3830              		@ frame_needed = 0, uses_anonymous_args = 0
 3831 0000 90F83C30 		ldrb	r3, [r0, #60]	@ zero_extendqisi2
 3832 0004 012B     		cmp	r3, #1
 3833 0006 22D0     		beq	.L487
 3834 0008 10B5     		push	{r4, lr}
 3835 000a 0446     		mov	r4, r0
 3836 000c 0123     		movs	r3, #1
 3837 000e 80F83C30 		strb	r3, [r0, #60]
 3838 0012 0223     		movs	r3, #2
 3839 0014 80F83D30 		strb	r3, [r0, #61]
 3840 0018 FFF7FEFF 		bl	TIM_SlaveTimer_SetConfig
 3841 001c 80B9     		cbnz	r0, .L492
 3842 001e 2268     		ldr	r2, [r4]
 3843 0020 D368     		ldr	r3, [r2, #12]
 3844 0022 23F04003 		bic	r3, r3, #64
 3845 0026 D360     		str	r3, [r2, #12]
 3846 0028 2268     		ldr	r2, [r4]
 3847 002a D368     		ldr	r3, [r2, #12]
 3848 002c 23F48043 		bic	r3, r3, #16384
 3849 0030 D360     		str	r3, [r2, #12]
 3850 0032 0123     		movs	r3, #1
 3851 0034 84F83D30 		strb	r3, [r4, #61]
 3852 0038 0023     		movs	r3, #0
 3853 003a 84F83C30 		strb	r3, [r4, #60]
 3854              	.L485:
 3855 003e 10BD     		pop	{r4, pc}
 3856              	.L492:
 3857 0040 0120     		movs	r0, #1
 3858 0042 84F83D00 		strb	r0, [r4, #61]
 3859 0046 0023     		movs	r3, #0
 3860 0048 84F83C30 		strb	r3, [r4, #60]
 3861 004c F7E7     		b	.L485
 3862              	.L487:
 3863 004e 0220     		movs	r0, #2
 3864 0050 7047     		bx	lr
 3866              		.section	.text.HAL_TIM_SlaveConfigSynchro_IT,"ax",%progbits
 3867              		.align	1
 3868              		.global	HAL_TIM_SlaveConfigSynchro_IT
 3869              		.syntax unified
 3870              		.thumb
 3871              		.thumb_func
 3873              	HAL_TIM_SlaveConfigSynchro_IT:
 3874              		@ args = 0, pretend = 0, frame = 0
 3875              		@ frame_needed = 0, uses_anonymous_args = 0
 3876 0000 90F83C30 		ldrb	r3, [r0, #60]	@ zero_extendqisi2
 3877 0004 012B     		cmp	r3, #1
 3878 0006 22D0     		beq	.L496
 3879 0008 10B5     		push	{r4, lr}
 3880 000a 0446     		mov	r4, r0
 3881 000c 0123     		movs	r3, #1
 3882 000e 80F83C30 		strb	r3, [r0, #60]
 3883 0012 0223     		movs	r3, #2
 3884 0014 80F83D30 		strb	r3, [r0, #61]
ARM GAS  /tmp/ccJhWMjo.s 			page 66


 3885 0018 FFF7FEFF 		bl	TIM_SlaveTimer_SetConfig
 3886 001c 80B9     		cbnz	r0, .L501
 3887 001e 2268     		ldr	r2, [r4]
 3888 0020 D368     		ldr	r3, [r2, #12]
 3889 0022 43F04003 		orr	r3, r3, #64
 3890 0026 D360     		str	r3, [r2, #12]
 3891 0028 2268     		ldr	r2, [r4]
 3892 002a D368     		ldr	r3, [r2, #12]
 3893 002c 23F48043 		bic	r3, r3, #16384
 3894 0030 D360     		str	r3, [r2, #12]
 3895 0032 0123     		movs	r3, #1
 3896 0034 84F83D30 		strb	r3, [r4, #61]
 3897 0038 0023     		movs	r3, #0
 3898 003a 84F83C30 		strb	r3, [r4, #60]
 3899              	.L494:
 3900 003e 10BD     		pop	{r4, pc}
 3901              	.L501:
 3902 0040 0120     		movs	r0, #1
 3903 0042 84F83D00 		strb	r0, [r4, #61]
 3904 0046 0023     		movs	r3, #0
 3905 0048 84F83C30 		strb	r3, [r4, #60]
 3906 004c F7E7     		b	.L494
 3907              	.L496:
 3908 004e 0220     		movs	r0, #2
 3909 0050 7047     		bx	lr
 3911              		.section	.text.TIM_CCxChannelCmd,"ax",%progbits
 3912              		.align	1
 3913              		.global	TIM_CCxChannelCmd
 3914              		.syntax unified
 3915              		.thumb
 3916              		.thumb_func
 3918              	TIM_CCxChannelCmd:
 3919              		@ args = 0, pretend = 0, frame = 0
 3920              		@ frame_needed = 0, uses_anonymous_args = 0
 3921              		@ link register save eliminated.
 3922 0000 01F01F01 		and	r1, r1, #31
 3923 0004 4FF0010C 		mov	ip, #1
 3924 0008 0CFA01FC 		lsl	ip, ip, r1
 3925 000c 036A     		ldr	r3, [r0, #32]
 3926 000e 23EA0C03 		bic	r3, r3, ip
 3927 0012 0362     		str	r3, [r0, #32]
 3928 0014 036A     		ldr	r3, [r0, #32]
 3929 0016 8A40     		lsls	r2, r2, r1
 3930 0018 1343     		orrs	r3, r3, r2
 3931 001a 0362     		str	r3, [r0, #32]
 3932 001c 7047     		bx	lr
 3934              		.section	.text.HAL_TIM_OC_Start,"ax",%progbits
 3935              		.align	1
 3936              		.global	HAL_TIM_OC_Start
 3937              		.syntax unified
 3938              		.thumb
 3939              		.thumb_func
 3941              	HAL_TIM_OC_Start:
 3942              		@ args = 0, pretend = 0, frame = 0
 3943              		@ frame_needed = 0, uses_anonymous_args = 0
 3944 0000 10B5     		push	{r4, lr}
 3945 0002 0446     		mov	r4, r0
ARM GAS  /tmp/ccJhWMjo.s 			page 67


 3946 0004 0846     		mov	r0, r1
 3947 0006 51BB     		cbnz	r1, .L504
 3948 0008 94F83E30 		ldrb	r3, [r4, #62]	@ zero_extendqisi2
 3949 000c DBB2     		uxtb	r3, r3
 3950 000e 013B     		subs	r3, r3, #1
 3951 0010 18BF     		it	ne
 3952 0012 0123     		movne	r3, #1
 3953              	.L505:
 3954 0014 002B     		cmp	r3, #0
 3955 0016 5BD1     		bne	.L516
 3956 0018 0028     		cmp	r0, #0
 3957 001a 39D1     		bne	.L509
 3958 001c 0223     		movs	r3, #2
 3959 001e 84F83E30 		strb	r3, [r4, #62]
 3960              	.L510:
 3961 0022 0122     		movs	r2, #1
 3962 0024 0146     		mov	r1, r0
 3963 0026 2068     		ldr	r0, [r4]
 3964 0028 FFF7FEFF 		bl	TIM_CCxChannelCmd
 3965 002c 2368     		ldr	r3, [r4]
 3966 002e 2A4A     		ldr	r2, .L524
 3967 0030 9342     		cmp	r3, r2
 3968 0032 3DD0     		beq	.L519
 3969              	.L513:
 3970 0034 2368     		ldr	r3, [r4]
 3971 0036 284A     		ldr	r2, .L524
 3972 0038 9342     		cmp	r3, r2
 3973 003a 3ED0     		beq	.L514
 3974 003c B3F1804F 		cmp	r3, #1073741824
 3975 0040 3BD0     		beq	.L514
 3976 0042 A2F59432 		sub	r2, r2, #75776
 3977 0046 9342     		cmp	r3, r2
 3978 0048 37D0     		beq	.L514
 3979 004a 02F58062 		add	r2, r2, #1024
 3980 004e 9342     		cmp	r3, r2
 3981 0050 33D0     		beq	.L514
 3982 0052 1A68     		ldr	r2, [r3]
 3983 0054 42F00102 		orr	r2, r2, #1
 3984 0058 1A60     		str	r2, [r3]
 3985 005a 0020     		movs	r0, #0
 3986 005c 39E0     		b	.L508
 3987              	.L504:
 3988 005e 0429     		cmp	r1, #4
 3989 0060 08D0     		beq	.L520
 3990 0062 0829     		cmp	r1, #8
 3991 0064 0DD0     		beq	.L521
 3992 0066 94F84130 		ldrb	r3, [r4, #65]	@ zero_extendqisi2
 3993 006a DBB2     		uxtb	r3, r3
 3994 006c 013B     		subs	r3, r3, #1
 3995 006e 18BF     		it	ne
 3996 0070 0123     		movne	r3, #1
 3997 0072 CFE7     		b	.L505
 3998              	.L520:
 3999 0074 94F83F30 		ldrb	r3, [r4, #63]	@ zero_extendqisi2
 4000 0078 DBB2     		uxtb	r3, r3
 4001 007a 013B     		subs	r3, r3, #1
 4002 007c 18BF     		it	ne
ARM GAS  /tmp/ccJhWMjo.s 			page 68


 4003 007e 0123     		movne	r3, #1
 4004 0080 C8E7     		b	.L505
 4005              	.L521:
 4006 0082 94F84030 		ldrb	r3, [r4, #64]	@ zero_extendqisi2
 4007 0086 DBB2     		uxtb	r3, r3
 4008 0088 013B     		subs	r3, r3, #1
 4009 008a 18BF     		it	ne
 4010 008c 0123     		movne	r3, #1
 4011 008e C1E7     		b	.L505
 4012              	.L509:
 4013 0090 0428     		cmp	r0, #4
 4014 0092 05D0     		beq	.L522
 4015 0094 0828     		cmp	r0, #8
 4016 0096 07D0     		beq	.L523
 4017 0098 0223     		movs	r3, #2
 4018 009a 84F84130 		strb	r3, [r4, #65]
 4019 009e C0E7     		b	.L510
 4020              	.L522:
 4021 00a0 0223     		movs	r3, #2
 4022 00a2 84F83F30 		strb	r3, [r4, #63]
 4023 00a6 BCE7     		b	.L510
 4024              	.L523:
 4025 00a8 0223     		movs	r3, #2
 4026 00aa 84F84030 		strb	r3, [r4, #64]
 4027 00ae B8E7     		b	.L510
 4028              	.L519:
 4029 00b0 5A6C     		ldr	r2, [r3, #68]
 4030 00b2 42F40042 		orr	r2, r2, #32768
 4031 00b6 5A64     		str	r2, [r3, #68]
 4032 00b8 BCE7     		b	.L513
 4033              	.L514:
 4034 00ba 9A68     		ldr	r2, [r3, #8]
 4035 00bc 02F00702 		and	r2, r2, #7
 4036 00c0 062A     		cmp	r2, #6
 4037 00c2 07D0     		beq	.L517
 4038 00c4 1A68     		ldr	r2, [r3]
 4039 00c6 42F00102 		orr	r2, r2, #1
 4040 00ca 1A60     		str	r2, [r3]
 4041 00cc 0020     		movs	r0, #0
 4042 00ce 00E0     		b	.L508
 4043              	.L516:
 4044 00d0 0120     		movs	r0, #1
 4045              	.L508:
 4046 00d2 10BD     		pop	{r4, pc}
 4047              	.L517:
 4048 00d4 0020     		movs	r0, #0
 4049 00d6 FCE7     		b	.L508
 4050              	.L525:
 4051              		.align	2
 4052              	.L524:
 4053 00d8 002C0140 		.word	1073818624
 4055              		.section	.text.HAL_TIM_OC_Stop,"ax",%progbits
 4056              		.align	1
 4057              		.global	HAL_TIM_OC_Stop
 4058              		.syntax unified
 4059              		.thumb
 4060              		.thumb_func
ARM GAS  /tmp/ccJhWMjo.s 			page 69


 4062              	HAL_TIM_OC_Stop:
 4063              		@ args = 0, pretend = 0, frame = 0
 4064              		@ frame_needed = 0, uses_anonymous_args = 0
 4065 0000 38B5     		push	{r3, r4, r5, lr}
 4066 0002 0446     		mov	r4, r0
 4067 0004 0D46     		mov	r5, r1
 4068 0006 0022     		movs	r2, #0
 4069 0008 0068     		ldr	r0, [r0]
 4070 000a FFF7FEFF 		bl	TIM_CCxChannelCmd
 4071 000e 2368     		ldr	r3, [r4]
 4072 0010 1B4A     		ldr	r2, .L537
 4073 0012 9342     		cmp	r3, r2
 4074 0014 14D0     		beq	.L534
 4075              	.L527:
 4076 0016 2368     		ldr	r3, [r4]
 4077 0018 196A     		ldr	r1, [r3, #32]
 4078 001a 41F21112 		movw	r2, #4369
 4079 001e 1142     		tst	r1, r2
 4080 0020 08D1     		bne	.L528
 4081 0022 196A     		ldr	r1, [r3, #32]
 4082 0024 40F24442 		movw	r2, #1092
 4083 0028 1142     		tst	r1, r2
 4084 002a 03D1     		bne	.L528
 4085 002c 1A68     		ldr	r2, [r3]
 4086 002e 22F00102 		bic	r2, r2, #1
 4087 0032 1A60     		str	r2, [r3]
 4088              	.L528:
 4089 0034 9DB9     		cbnz	r5, .L529
 4090 0036 0123     		movs	r3, #1
 4091 0038 84F83E30 		strb	r3, [r4, #62]
 4092              	.L530:
 4093 003c 0020     		movs	r0, #0
 4094 003e 38BD     		pop	{r3, r4, r5, pc}
 4095              	.L534:
 4096 0040 196A     		ldr	r1, [r3, #32]
 4097 0042 41F21112 		movw	r2, #4369
 4098 0046 1142     		tst	r1, r2
 4099 0048 E5D1     		bne	.L527
 4100 004a 196A     		ldr	r1, [r3, #32]
 4101 004c 40F24442 		movw	r2, #1092
 4102 0050 1142     		tst	r1, r2
 4103 0052 E0D1     		bne	.L527
 4104 0054 5A6C     		ldr	r2, [r3, #68]
 4105 0056 22F40042 		bic	r2, r2, #32768
 4106 005a 5A64     		str	r2, [r3, #68]
 4107 005c DBE7     		b	.L527
 4108              	.L529:
 4109 005e 042D     		cmp	r5, #4
 4110 0060 05D0     		beq	.L535
 4111 0062 082D     		cmp	r5, #8
 4112 0064 07D0     		beq	.L536
 4113 0066 0123     		movs	r3, #1
 4114 0068 84F84130 		strb	r3, [r4, #65]
 4115 006c E6E7     		b	.L530
 4116              	.L535:
 4117 006e 0123     		movs	r3, #1
 4118 0070 84F83F30 		strb	r3, [r4, #63]
ARM GAS  /tmp/ccJhWMjo.s 			page 70


 4119 0074 E2E7     		b	.L530
 4120              	.L536:
 4121 0076 0123     		movs	r3, #1
 4122 0078 84F84030 		strb	r3, [r4, #64]
 4123 007c DEE7     		b	.L530
 4124              	.L538:
 4125 007e 00BF     		.align	2
 4126              	.L537:
 4127 0080 002C0140 		.word	1073818624
 4129              		.section	.text.HAL_TIM_OC_Start_IT,"ax",%progbits
 4130              		.align	1
 4131              		.global	HAL_TIM_OC_Start_IT
 4132              		.syntax unified
 4133              		.thumb
 4134              		.thumb_func
 4136              	HAL_TIM_OC_Start_IT:
 4137              		@ args = 0, pretend = 0, frame = 0
 4138              		@ frame_needed = 0, uses_anonymous_args = 0
 4139 0000 10B5     		push	{r4, lr}
 4140 0002 0446     		mov	r4, r0
 4141 0004 0846     		mov	r0, r1
 4142 0006 0029     		cmp	r1, #0
 4143 0008 30D1     		bne	.L540
 4144 000a 94F83E30 		ldrb	r3, [r4, #62]	@ zero_extendqisi2
 4145 000e DBB2     		uxtb	r3, r3
 4146 0010 013B     		subs	r3, r3, #1
 4147 0012 18BF     		it	ne
 4148 0014 0123     		movne	r3, #1
 4149              	.L541:
 4150 0016 002B     		cmp	r3, #0
 4151 0018 40F09080 		bne	.L557
 4152 001c 0028     		cmp	r0, #0
 4153 001e 3ED1     		bne	.L545
 4154 0020 0223     		movs	r3, #2
 4155 0022 84F83E30 		strb	r3, [r4, #62]
 4156              	.L546:
 4157 0026 2268     		ldr	r2, [r4]
 4158 0028 D368     		ldr	r3, [r2, #12]
 4159 002a 43F00203 		orr	r3, r3, #2
 4160 002e D360     		str	r3, [r2, #12]
 4161              	.L553:
 4162 0030 0122     		movs	r2, #1
 4163 0032 0146     		mov	r1, r0
 4164 0034 2068     		ldr	r0, [r4]
 4165 0036 FFF7FEFF 		bl	TIM_CCxChannelCmd
 4166 003a 2368     		ldr	r3, [r4]
 4167 003c 424A     		ldr	r2, .L569
 4168 003e 9342     		cmp	r3, r2
 4169 0040 6CD0     		beq	.L564
 4170              	.L554:
 4171 0042 2368     		ldr	r3, [r4]
 4172 0044 404A     		ldr	r2, .L569
 4173 0046 9342     		cmp	r3, r2
 4174 0048 6DD0     		beq	.L555
 4175 004a B3F1804F 		cmp	r3, #1073741824
 4176 004e 6AD0     		beq	.L555
 4177 0050 A2F59432 		sub	r2, r2, #75776
ARM GAS  /tmp/ccJhWMjo.s 			page 71


 4178 0054 9342     		cmp	r3, r2
 4179 0056 66D0     		beq	.L555
 4180 0058 02F58062 		add	r2, r2, #1024
 4181 005c 9342     		cmp	r3, r2
 4182 005e 62D0     		beq	.L555
 4183 0060 1A68     		ldr	r2, [r3]
 4184 0062 42F00102 		orr	r2, r2, #1
 4185 0066 1A60     		str	r2, [r3]
 4186 0068 0020     		movs	r0, #0
 4187 006a 68E0     		b	.L544
 4188              	.L540:
 4189 006c 0429     		cmp	r1, #4
 4190 006e 08D0     		beq	.L565
 4191 0070 0829     		cmp	r1, #8
 4192 0072 0DD0     		beq	.L566
 4193 0074 94F84130 		ldrb	r3, [r4, #65]	@ zero_extendqisi2
 4194 0078 DBB2     		uxtb	r3, r3
 4195 007a 013B     		subs	r3, r3, #1
 4196 007c 18BF     		it	ne
 4197 007e 0123     		movne	r3, #1
 4198 0080 C9E7     		b	.L541
 4199              	.L565:
 4200 0082 94F83F30 		ldrb	r3, [r4, #63]	@ zero_extendqisi2
 4201 0086 DBB2     		uxtb	r3, r3
 4202 0088 013B     		subs	r3, r3, #1
 4203 008a 18BF     		it	ne
 4204 008c 0123     		movne	r3, #1
 4205 008e C2E7     		b	.L541
 4206              	.L566:
 4207 0090 94F84030 		ldrb	r3, [r4, #64]	@ zero_extendqisi2
 4208 0094 DBB2     		uxtb	r3, r3
 4209 0096 013B     		subs	r3, r3, #1
 4210 0098 18BF     		it	ne
 4211 009a 0123     		movne	r3, #1
 4212 009c BBE7     		b	.L541
 4213              	.L545:
 4214 009e 0428     		cmp	r0, #4
 4215 00a0 24D0     		beq	.L567
 4216 00a2 0828     		cmp	r0, #8
 4217 00a4 2BD0     		beq	.L568
 4218 00a6 0223     		movs	r3, #2
 4219 00a8 84F84130 		strb	r3, [r4, #65]
 4220 00ac 0C28     		cmp	r0, #12
 4221 00ae 47D8     		bhi	.L558
 4222 00b0 01A3     		adr	r3, .L552
 4223 00b2 53F820F0 		ldr	pc, [r3, r0, lsl #2]
 4224 00b6 00BF     		.p2align 2
 4225              	.L552:
 4226 00b8 27000000 		.word	.L546+1
 4227 00bc 41010000 		.word	.L558+1
 4228 00c0 41010000 		.word	.L558+1
 4229 00c4 41010000 		.word	.L558+1
 4230 00c8 F3000000 		.word	.L548+1
 4231 00cc 41010000 		.word	.L558+1
 4232 00d0 41010000 		.word	.L558+1
 4233 00d4 41010000 		.word	.L558+1
 4234 00d8 05010000 		.word	.L550+1
ARM GAS  /tmp/ccJhWMjo.s 			page 72


 4235 00dc 41010000 		.word	.L558+1
 4236 00e0 41010000 		.word	.L558+1
 4237 00e4 41010000 		.word	.L558+1
 4238 00e8 11010000 		.word	.L551+1
 4239              		.p2align 1
 4240              	.L567:
 4241 00ec 0223     		movs	r3, #2
 4242 00ee 84F83F30 		strb	r3, [r4, #63]
 4243              	.L548:
 4244 00f2 2268     		ldr	r2, [r4]
 4245 00f4 D368     		ldr	r3, [r2, #12]
 4246 00f6 43F00403 		orr	r3, r3, #4
 4247 00fa D360     		str	r3, [r2, #12]
 4248 00fc 98E7     		b	.L553
 4249              	.L568:
 4250 00fe 0223     		movs	r3, #2
 4251 0100 84F84030 		strb	r3, [r4, #64]
 4252              	.L550:
 4253 0104 2268     		ldr	r2, [r4]
 4254 0106 D368     		ldr	r3, [r2, #12]
 4255 0108 43F00803 		orr	r3, r3, #8
 4256 010c D360     		str	r3, [r2, #12]
 4257 010e 8FE7     		b	.L553
 4258              	.L551:
 4259 0110 2268     		ldr	r2, [r4]
 4260 0112 D368     		ldr	r3, [r2, #12]
 4261 0114 43F01003 		orr	r3, r3, #16
 4262 0118 D360     		str	r3, [r2, #12]
 4263 011a 89E7     		b	.L553
 4264              	.L564:
 4265 011c 5A6C     		ldr	r2, [r3, #68]
 4266 011e 42F40042 		orr	r2, r2, #32768
 4267 0122 5A64     		str	r2, [r3, #68]
 4268 0124 8DE7     		b	.L554
 4269              	.L555:
 4270 0126 9A68     		ldr	r2, [r3, #8]
 4271 0128 02F00702 		and	r2, r2, #7
 4272 012c 062A     		cmp	r2, #6
 4273 012e 09D0     		beq	.L559
 4274 0130 1A68     		ldr	r2, [r3]
 4275 0132 42F00102 		orr	r2, r2, #1
 4276 0136 1A60     		str	r2, [r3]
 4277 0138 0020     		movs	r0, #0
 4278 013a 00E0     		b	.L544
 4279              	.L557:
 4280 013c 0120     		movs	r0, #1
 4281              	.L544:
 4282 013e 10BD     		pop	{r4, pc}
 4283              	.L558:
 4284 0140 0120     		movs	r0, #1
 4285 0142 FCE7     		b	.L544
 4286              	.L559:
 4287 0144 0020     		movs	r0, #0
 4288 0146 FAE7     		b	.L544
 4289              	.L570:
 4290              		.align	2
 4291              	.L569:
ARM GAS  /tmp/ccJhWMjo.s 			page 73


 4292 0148 002C0140 		.word	1073818624
 4294              		.section	.text.HAL_TIM_OC_Stop_IT,"ax",%progbits
 4295              		.align	1
 4296              		.global	HAL_TIM_OC_Stop_IT
 4297              		.syntax unified
 4298              		.thumb
 4299              		.thumb_func
 4301              	HAL_TIM_OC_Stop_IT:
 4302              		@ args = 0, pretend = 0, frame = 0
 4303              		@ frame_needed = 0, uses_anonymous_args = 0
 4304 0000 38B5     		push	{r3, r4, r5, lr}
 4305 0002 0546     		mov	r5, r0
 4306 0004 0C46     		mov	r4, r1
 4307 0006 0C29     		cmp	r1, #12
 4308 0008 5FD8     		bhi	.L584
 4309 000a DFE801F0 		tbb	[pc, r1]
 4310              	.L574:
 4311 000e 07       		.byte	(.L577-.L574)/2
 4312 000f 5E       		.byte	(.L584-.L574)/2
 4313 0010 5E       		.byte	(.L584-.L574)/2
 4314 0011 5E       		.byte	(.L584-.L574)/2
 4315 0012 2A       		.byte	(.L576-.L574)/2
 4316 0013 5E       		.byte	(.L584-.L574)/2
 4317 0014 5E       		.byte	(.L584-.L574)/2
 4318 0015 5E       		.byte	(.L584-.L574)/2
 4319 0016 30       		.byte	(.L575-.L574)/2
 4320 0017 5E       		.byte	(.L584-.L574)/2
 4321 0018 5E       		.byte	(.L584-.L574)/2
 4322 0019 5E       		.byte	(.L584-.L574)/2
 4323 001a 36       		.byte	(.L573-.L574)/2
 4324 001b 00       		.p2align 1
 4325              	.L577:
 4326 001c 0268     		ldr	r2, [r0]
 4327 001e D368     		ldr	r3, [r2, #12]
 4328 0020 23F00203 		bic	r3, r3, #2
 4329 0024 D360     		str	r3, [r2, #12]
 4330              	.L578:
 4331 0026 0022     		movs	r2, #0
 4332 0028 2146     		mov	r1, r4
 4333 002a 2868     		ldr	r0, [r5]
 4334 002c FFF7FEFF 		bl	TIM_CCxChannelCmd
 4335 0030 2B68     		ldr	r3, [r5]
 4336 0032 274A     		ldr	r2, .L589
 4337 0034 9342     		cmp	r3, r2
 4338 0036 26D0     		beq	.L586
 4339              	.L579:
 4340 0038 2B68     		ldr	r3, [r5]
 4341 003a 196A     		ldr	r1, [r3, #32]
 4342 003c 41F21112 		movw	r2, #4369
 4343 0040 1142     		tst	r1, r2
 4344 0042 08D1     		bne	.L580
 4345 0044 196A     		ldr	r1, [r3, #32]
 4346 0046 40F24442 		movw	r2, #1092
 4347 004a 1142     		tst	r1, r2
 4348 004c 03D1     		bne	.L580
 4349 004e 1A68     		ldr	r2, [r3]
 4350 0050 22F00102 		bic	r2, r2, #1
ARM GAS  /tmp/ccJhWMjo.s 			page 74


 4351 0054 1A60     		str	r2, [r3]
 4352              	.L580:
 4353 0056 2CBB     		cbnz	r4, .L581
 4354 0058 0123     		movs	r3, #1
 4355 005a 85F83E30 		strb	r3, [r5, #62]
 4356 005e 0020     		movs	r0, #0
 4357 0060 34E0     		b	.L572
 4358              	.L576:
 4359 0062 0268     		ldr	r2, [r0]
 4360 0064 D368     		ldr	r3, [r2, #12]
 4361 0066 23F00403 		bic	r3, r3, #4
 4362 006a D360     		str	r3, [r2, #12]
 4363 006c DBE7     		b	.L578
 4364              	.L575:
 4365 006e 0268     		ldr	r2, [r0]
 4366 0070 D368     		ldr	r3, [r2, #12]
 4367 0072 23F00803 		bic	r3, r3, #8
 4368 0076 D360     		str	r3, [r2, #12]
 4369 0078 D5E7     		b	.L578
 4370              	.L573:
 4371 007a 0268     		ldr	r2, [r0]
 4372 007c D368     		ldr	r3, [r2, #12]
 4373 007e 23F01003 		bic	r3, r3, #16
 4374 0082 D360     		str	r3, [r2, #12]
 4375 0084 CFE7     		b	.L578
 4376              	.L586:
 4377 0086 196A     		ldr	r1, [r3, #32]
 4378 0088 41F21112 		movw	r2, #4369
 4379 008c 1142     		tst	r1, r2
 4380 008e D3D1     		bne	.L579
 4381 0090 196A     		ldr	r1, [r3, #32]
 4382 0092 40F24442 		movw	r2, #1092
 4383 0096 1142     		tst	r1, r2
 4384 0098 CED1     		bne	.L579
 4385 009a 5A6C     		ldr	r2, [r3, #68]
 4386 009c 22F40042 		bic	r2, r2, #32768
 4387 00a0 5A64     		str	r2, [r3, #68]
 4388 00a2 C9E7     		b	.L579
 4389              	.L581:
 4390 00a4 042C     		cmp	r4, #4
 4391 00a6 06D0     		beq	.L587
 4392 00a8 082C     		cmp	r4, #8
 4393 00aa 09D0     		beq	.L588
 4394 00ac 0123     		movs	r3, #1
 4395 00ae 85F84130 		strb	r3, [r5, #65]
 4396 00b2 0020     		movs	r0, #0
 4397 00b4 0AE0     		b	.L572
 4398              	.L587:
 4399 00b6 0123     		movs	r3, #1
 4400 00b8 85F83F30 		strb	r3, [r5, #63]
 4401 00bc 0020     		movs	r0, #0
 4402 00be 05E0     		b	.L572
 4403              	.L588:
 4404 00c0 0123     		movs	r3, #1
 4405 00c2 85F84030 		strb	r3, [r5, #64]
 4406 00c6 0020     		movs	r0, #0
 4407 00c8 00E0     		b	.L572
ARM GAS  /tmp/ccJhWMjo.s 			page 75


 4408              	.L584:
 4409 00ca 0120     		movs	r0, #1
 4410              	.L572:
 4411 00cc 38BD     		pop	{r3, r4, r5, pc}
 4412              	.L590:
 4413 00ce 00BF     		.align	2
 4414              	.L589:
 4415 00d0 002C0140 		.word	1073818624
 4417              		.section	.text.HAL_TIM_OC_Start_DMA,"ax",%progbits
 4418              		.align	1
 4419              		.global	HAL_TIM_OC_Start_DMA
 4420              		.syntax unified
 4421              		.thumb
 4422              		.thumb_func
 4424              	HAL_TIM_OC_Start_DMA:
 4425              		@ args = 0, pretend = 0, frame = 0
 4426              		@ frame_needed = 0, uses_anonymous_args = 0
 4427 0000 70B5     		push	{r4, r5, r6, lr}
 4428 0002 0446     		mov	r4, r0
 4429 0004 1646     		mov	r6, r2
 4430 0006 0D46     		mov	r5, r1
 4431 0008 0029     		cmp	r1, #0
 4432 000a 5AD1     		bne	.L592
 4433 000c 90F83E00 		ldrb	r0, [r0, #62]	@ zero_extendqisi2
 4434 0010 C0B2     		uxtb	r0, r0
 4435 0012 0228     		cmp	r0, #2
 4436 0014 14BF     		ite	ne
 4437 0016 0020     		movne	r0, #0
 4438 0018 0120     		moveq	r0, #1
 4439              	.L593:
 4440 001a 0028     		cmp	r0, #0
 4441 001c 40F00A81 		bne	.L613
 4442 0020 002D     		cmp	r5, #0
 4443 0022 6AD1     		bne	.L597
 4444 0024 94F83E20 		ldrb	r2, [r4, #62]	@ zero_extendqisi2
 4445 0028 D2B2     		uxtb	r2, r2
 4446 002a 012A     		cmp	r2, #1
 4447 002c 14BF     		ite	ne
 4448 002e 0022     		movne	r2, #0
 4449 0030 0122     		moveq	r2, #1
 4450              	.L598:
 4451 0032 002A     		cmp	r2, #0
 4452 0034 00F00081 		beq	.L614
 4453 0038 002E     		cmp	r6, #0
 4454 003a 00F0FF80 		beq	.L615
 4455 003e 002B     		cmp	r3, #0
 4456 0040 00F0FE80 		beq	.L616
 4457 0044 002D     		cmp	r5, #0
 4458 0046 74D1     		bne	.L601
 4459 0048 0222     		movs	r2, #2
 4460 004a 84F83E20 		strb	r2, [r4, #62]
 4461              	.L602:
 4462 004e 626A     		ldr	r2, [r4, #36]
 4463 0050 8249     		ldr	r1, .L634
 4464 0052 9162     		str	r1, [r2, #40]
 4465 0054 626A     		ldr	r2, [r4, #36]
 4466 0056 8249     		ldr	r1, .L634+4
ARM GAS  /tmp/ccJhWMjo.s 			page 76


 4467 0058 D162     		str	r1, [r2, #44]
 4468 005a 626A     		ldr	r2, [r4, #36]
 4469 005c 8149     		ldr	r1, .L634+8
 4470 005e 1163     		str	r1, [r2, #48]
 4471 0060 2268     		ldr	r2, [r4]
 4472 0062 3432     		adds	r2, r2, #52
 4473 0064 3146     		mov	r1, r6
 4474 0066 606A     		ldr	r0, [r4, #36]
 4475 0068 FFF7FEFF 		bl	HAL_DMA_Start_IT
 4476 006c 0028     		cmp	r0, #0
 4477 006e 40F0EB80 		bne	.L618
 4478 0072 2268     		ldr	r2, [r4]
 4479 0074 D368     		ldr	r3, [r2, #12]
 4480 0076 43F40073 		orr	r3, r3, #512
 4481 007a D360     		str	r3, [r2, #12]
 4482              	.L609:
 4483 007c 0122     		movs	r2, #1
 4484 007e 2946     		mov	r1, r5
 4485 0080 2068     		ldr	r0, [r4]
 4486 0082 FFF7FEFF 		bl	TIM_CCxChannelCmd
 4487 0086 2368     		ldr	r3, [r4]
 4488 0088 774A     		ldr	r2, .L634+12
 4489 008a 9342     		cmp	r3, r2
 4490 008c 00F0C280 		beq	.L627
 4491              	.L610:
 4492 0090 2368     		ldr	r3, [r4]
 4493 0092 754A     		ldr	r2, .L634+12
 4494 0094 9342     		cmp	r3, r2
 4495 0096 00F0C280 		beq	.L611
 4496 009a B3F1804F 		cmp	r3, #1073741824
 4497 009e 00F0BE80 		beq	.L611
 4498 00a2 A2F59432 		sub	r2, r2, #75776
 4499 00a6 9342     		cmp	r3, r2
 4500 00a8 00F0B980 		beq	.L611
 4501 00ac 02F58062 		add	r2, r2, #1024
 4502 00b0 9342     		cmp	r3, r2
 4503 00b2 00F0B480 		beq	.L611
 4504 00b6 1A68     		ldr	r2, [r3]
 4505 00b8 42F00102 		orr	r2, r2, #1
 4506 00bc 1A60     		str	r2, [r3]
 4507 00be 0020     		movs	r0, #0
 4508 00c0 BBE0     		b	.L596
 4509              	.L592:
 4510 00c2 0429     		cmp	r1, #4
 4511 00c4 09D0     		beq	.L628
 4512 00c6 0829     		cmp	r1, #8
 4513 00c8 0FD0     		beq	.L629
 4514 00ca 90F84100 		ldrb	r0, [r0, #65]	@ zero_extendqisi2
 4515 00ce C0B2     		uxtb	r0, r0
 4516 00d0 0228     		cmp	r0, #2
 4517 00d2 14BF     		ite	ne
 4518 00d4 0020     		movne	r0, #0
 4519 00d6 0120     		moveq	r0, #1
 4520 00d8 9FE7     		b	.L593
 4521              	.L628:
 4522 00da 90F83F00 		ldrb	r0, [r0, #63]	@ zero_extendqisi2
 4523 00de C0B2     		uxtb	r0, r0
ARM GAS  /tmp/ccJhWMjo.s 			page 77


 4524 00e0 0228     		cmp	r0, #2
 4525 00e2 14BF     		ite	ne
 4526 00e4 0020     		movne	r0, #0
 4527 00e6 0120     		moveq	r0, #1
 4528 00e8 97E7     		b	.L593
 4529              	.L629:
 4530 00ea 90F84000 		ldrb	r0, [r0, #64]	@ zero_extendqisi2
 4531 00ee C0B2     		uxtb	r0, r0
 4532 00f0 0228     		cmp	r0, #2
 4533 00f2 14BF     		ite	ne
 4534 00f4 0020     		movne	r0, #0
 4535 00f6 0120     		moveq	r0, #1
 4536 00f8 8FE7     		b	.L593
 4537              	.L597:
 4538 00fa 042D     		cmp	r5, #4
 4539 00fc 09D0     		beq	.L630
 4540 00fe 082D     		cmp	r5, #8
 4541 0100 0FD0     		beq	.L631
 4542 0102 94F84120 		ldrb	r2, [r4, #65]	@ zero_extendqisi2
 4543 0106 D2B2     		uxtb	r2, r2
 4544 0108 012A     		cmp	r2, #1
 4545 010a 14BF     		ite	ne
 4546 010c 0022     		movne	r2, #0
 4547 010e 0122     		moveq	r2, #1
 4548 0110 8FE7     		b	.L598
 4549              	.L630:
 4550 0112 94F83F20 		ldrb	r2, [r4, #63]	@ zero_extendqisi2
 4551 0116 D2B2     		uxtb	r2, r2
 4552 0118 012A     		cmp	r2, #1
 4553 011a 14BF     		ite	ne
 4554 011c 0022     		movne	r2, #0
 4555 011e 0122     		moveq	r2, #1
 4556 0120 87E7     		b	.L598
 4557              	.L631:
 4558 0122 94F84020 		ldrb	r2, [r4, #64]	@ zero_extendqisi2
 4559 0126 D2B2     		uxtb	r2, r2
 4560 0128 012A     		cmp	r2, #1
 4561 012a 14BF     		ite	ne
 4562 012c 0022     		movne	r2, #0
 4563 012e 0122     		moveq	r2, #1
 4564 0130 7FE7     		b	.L598
 4565              	.L601:
 4566 0132 042D     		cmp	r5, #4
 4567 0134 24D0     		beq	.L632
 4568 0136 082D     		cmp	r5, #8
 4569 0138 3CD0     		beq	.L633
 4570 013a 0222     		movs	r2, #2
 4571 013c 84F84120 		strb	r2, [r4, #65]
 4572 0140 0C2D     		cmp	r5, #12
 4573 0142 7FD8     		bhi	.L617
 4574 0144 01A2     		adr	r2, .L608
 4575 0146 52F825F0 		ldr	pc, [r2, r5, lsl #2]
 4576 014a 00BF     		.p2align 2
 4577              	.L608:
 4578 014c 4F000000 		.word	.L602+1
 4579 0150 45020000 		.word	.L617+1
 4580 0154 45020000 		.word	.L617+1
ARM GAS  /tmp/ccJhWMjo.s 			page 78


 4581 0158 45020000 		.word	.L617+1
 4582 015c 87010000 		.word	.L604+1
 4583 0160 45020000 		.word	.L617+1
 4584 0164 45020000 		.word	.L617+1
 4585 0168 45020000 		.word	.L617+1
 4586 016c BB010000 		.word	.L606+1
 4587 0170 45020000 		.word	.L617+1
 4588 0174 45020000 		.word	.L617+1
 4589 0178 45020000 		.word	.L617+1
 4590 017c E9010000 		.word	.L607+1
 4591              		.p2align 1
 4592              	.L632:
 4593 0180 0222     		movs	r2, #2
 4594 0182 84F83F20 		strb	r2, [r4, #63]
 4595              	.L604:
 4596 0186 A26A     		ldr	r2, [r4, #40]
 4597 0188 3449     		ldr	r1, .L634
 4598 018a 9162     		str	r1, [r2, #40]
 4599 018c A26A     		ldr	r2, [r4, #40]
 4600 018e 3449     		ldr	r1, .L634+4
 4601 0190 D162     		str	r1, [r2, #44]
 4602 0192 A26A     		ldr	r2, [r4, #40]
 4603 0194 3349     		ldr	r1, .L634+8
 4604 0196 1163     		str	r1, [r2, #48]
 4605 0198 2268     		ldr	r2, [r4]
 4606 019a 3832     		adds	r2, r2, #56
 4607 019c 3146     		mov	r1, r6
 4608 019e A06A     		ldr	r0, [r4, #40]
 4609 01a0 FFF7FEFF 		bl	HAL_DMA_Start_IT
 4610 01a4 0028     		cmp	r0, #0
 4611 01a6 51D1     		bne	.L619
 4612 01a8 2268     		ldr	r2, [r4]
 4613 01aa D368     		ldr	r3, [r2, #12]
 4614 01ac 43F48063 		orr	r3, r3, #1024
 4615 01b0 D360     		str	r3, [r2, #12]
 4616 01b2 63E7     		b	.L609
 4617              	.L633:
 4618 01b4 0222     		movs	r2, #2
 4619 01b6 84F84020 		strb	r2, [r4, #64]
 4620              	.L606:
 4621 01ba E26A     		ldr	r2, [r4, #44]
 4622 01bc 2749     		ldr	r1, .L634
 4623 01be 9162     		str	r1, [r2, #40]
 4624 01c0 E26A     		ldr	r2, [r4, #44]
 4625 01c2 2749     		ldr	r1, .L634+4
 4626 01c4 D162     		str	r1, [r2, #44]
 4627 01c6 E26A     		ldr	r2, [r4, #44]
 4628 01c8 2649     		ldr	r1, .L634+8
 4629 01ca 1163     		str	r1, [r2, #48]
 4630 01cc 2268     		ldr	r2, [r4]
 4631 01ce 3C32     		adds	r2, r2, #60
 4632 01d0 3146     		mov	r1, r6
 4633 01d2 E06A     		ldr	r0, [r4, #44]
 4634 01d4 FFF7FEFF 		bl	HAL_DMA_Start_IT
 4635 01d8 0028     		cmp	r0, #0
 4636 01da 39D1     		bne	.L620
 4637 01dc 2268     		ldr	r2, [r4]
ARM GAS  /tmp/ccJhWMjo.s 			page 79


 4638 01de D368     		ldr	r3, [r2, #12]
 4639 01e0 43F40063 		orr	r3, r3, #2048
 4640 01e4 D360     		str	r3, [r2, #12]
 4641 01e6 49E7     		b	.L609
 4642              	.L607:
 4643 01e8 226B     		ldr	r2, [r4, #48]
 4644 01ea 1C49     		ldr	r1, .L634
 4645 01ec 9162     		str	r1, [r2, #40]
 4646 01ee 226B     		ldr	r2, [r4, #48]
 4647 01f0 1B49     		ldr	r1, .L634+4
 4648 01f2 D162     		str	r1, [r2, #44]
 4649 01f4 226B     		ldr	r2, [r4, #48]
 4650 01f6 1B49     		ldr	r1, .L634+8
 4651 01f8 1163     		str	r1, [r2, #48]
 4652 01fa 2268     		ldr	r2, [r4]
 4653 01fc 4032     		adds	r2, r2, #64
 4654 01fe 3146     		mov	r1, r6
 4655 0200 206B     		ldr	r0, [r4, #48]
 4656 0202 FFF7FEFF 		bl	HAL_DMA_Start_IT
 4657 0206 28BB     		cbnz	r0, .L621
 4658 0208 2268     		ldr	r2, [r4]
 4659 020a D368     		ldr	r3, [r2, #12]
 4660 020c 43F48053 		orr	r3, r3, #4096
 4661 0210 D360     		str	r3, [r2, #12]
 4662 0212 33E7     		b	.L609
 4663              	.L627:
 4664 0214 5A6C     		ldr	r2, [r3, #68]
 4665 0216 42F40042 		orr	r2, r2, #32768
 4666 021a 5A64     		str	r2, [r3, #68]
 4667 021c 38E7     		b	.L610
 4668              	.L611:
 4669 021e 9A68     		ldr	r2, [r3, #8]
 4670 0220 02F00702 		and	r2, r2, #7
 4671 0224 062A     		cmp	r2, #6
 4672 0226 17D0     		beq	.L622
 4673 0228 1A68     		ldr	r2, [r3]
 4674 022a 42F00102 		orr	r2, r2, #1
 4675 022e 1A60     		str	r2, [r3]
 4676 0230 0020     		movs	r0, #0
 4677 0232 02E0     		b	.L596
 4678              	.L613:
 4679 0234 0220     		movs	r0, #2
 4680 0236 00E0     		b	.L596
 4681              	.L614:
 4682 0238 0120     		movs	r0, #1
 4683              	.L596:
 4684 023a 70BD     		pop	{r4, r5, r6, pc}
 4685              	.L615:
 4686 023c 0120     		movs	r0, #1
 4687 023e FCE7     		b	.L596
 4688              	.L616:
 4689 0240 0120     		movs	r0, #1
 4690 0242 FAE7     		b	.L596
 4691              	.L617:
 4692 0244 0120     		movs	r0, #1
 4693 0246 F8E7     		b	.L596
 4694              	.L618:
ARM GAS  /tmp/ccJhWMjo.s 			page 80


 4695 0248 0120     		movs	r0, #1
 4696 024a F6E7     		b	.L596
 4697              	.L619:
 4698 024c 0120     		movs	r0, #1
 4699 024e F4E7     		b	.L596
 4700              	.L620:
 4701 0250 0120     		movs	r0, #1
 4702 0252 F2E7     		b	.L596
 4703              	.L621:
 4704 0254 0120     		movs	r0, #1
 4705 0256 F0E7     		b	.L596
 4706              	.L622:
 4707 0258 0020     		movs	r0, #0
 4708 025a EEE7     		b	.L596
 4709              	.L635:
 4710              		.align	2
 4711              	.L634:
 4712 025c 00000000 		.word	TIM_DMADelayPulseCplt
 4713 0260 00000000 		.word	TIM_DMADelayPulseHalfCplt
 4714 0264 00000000 		.word	TIM_DMAError
 4715 0268 002C0140 		.word	1073818624
 4717              		.section	.text.HAL_TIM_OC_Stop_DMA,"ax",%progbits
 4718              		.align	1
 4719              		.global	HAL_TIM_OC_Stop_DMA
 4720              		.syntax unified
 4721              		.thumb
 4722              		.thumb_func
 4724              	HAL_TIM_OC_Stop_DMA:
 4725              		@ args = 0, pretend = 0, frame = 0
 4726              		@ frame_needed = 0, uses_anonymous_args = 0
 4727 0000 38B5     		push	{r3, r4, r5, lr}
 4728 0002 0446     		mov	r4, r0
 4729 0004 0D46     		mov	r5, r1
 4730 0006 0C29     		cmp	r1, #12
 4731 0008 6CD8     		bhi	.L649
 4732 000a DFE801F0 		tbb	[pc, r1]
 4733              	.L639:
 4734 000e 07       		.byte	(.L642-.L639)/2
 4735 000f 6B       		.byte	(.L649-.L639)/2
 4736 0010 6B       		.byte	(.L649-.L639)/2
 4737 0011 6B       		.byte	(.L649-.L639)/2
 4738 0012 2E       		.byte	(.L641-.L639)/2
 4739 0013 6B       		.byte	(.L649-.L639)/2
 4740 0014 6B       		.byte	(.L649-.L639)/2
 4741 0015 6B       		.byte	(.L649-.L639)/2
 4742 0016 37       		.byte	(.L640-.L639)/2
 4743 0017 6B       		.byte	(.L649-.L639)/2
 4744 0018 6B       		.byte	(.L649-.L639)/2
 4745 0019 6B       		.byte	(.L649-.L639)/2
 4746 001a 40       		.byte	(.L638-.L639)/2
 4747 001b 00       		.p2align 1
 4748              	.L642:
 4749 001c 0268     		ldr	r2, [r0]
 4750 001e D368     		ldr	r3, [r2, #12]
 4751 0020 23F40073 		bic	r3, r3, #512
 4752 0024 D360     		str	r3, [r2, #12]
 4753 0026 406A     		ldr	r0, [r0, #36]
ARM GAS  /tmp/ccJhWMjo.s 			page 81


 4754 0028 FFF7FEFF 		bl	HAL_DMA_Abort_IT
 4755              	.L643:
 4756 002c 0022     		movs	r2, #0
 4757 002e 2946     		mov	r1, r5
 4758 0030 2068     		ldr	r0, [r4]
 4759 0032 FFF7FEFF 		bl	TIM_CCxChannelCmd
 4760 0036 2368     		ldr	r3, [r4]
 4761 0038 2B4A     		ldr	r2, .L654
 4762 003a 9342     		cmp	r3, r2
 4763 003c 30D0     		beq	.L651
 4764              	.L644:
 4765 003e 2368     		ldr	r3, [r4]
 4766 0040 196A     		ldr	r1, [r3, #32]
 4767 0042 41F21112 		movw	r2, #4369
 4768 0046 1142     		tst	r1, r2
 4769 0048 08D1     		bne	.L645
 4770 004a 196A     		ldr	r1, [r3, #32]
 4771 004c 40F24442 		movw	r2, #1092
 4772 0050 1142     		tst	r1, r2
 4773 0052 03D1     		bne	.L645
 4774 0054 1A68     		ldr	r2, [r3]
 4775 0056 22F00102 		bic	r2, r2, #1
 4776 005a 1A60     		str	r2, [r3]
 4777              	.L645:
 4778 005c 002D     		cmp	r5, #0
 4779 005e 2ED1     		bne	.L646
 4780 0060 0123     		movs	r3, #1
 4781 0062 84F83E30 		strb	r3, [r4, #62]
 4782 0066 0020     		movs	r0, #0
 4783 0068 3DE0     		b	.L637
 4784              	.L641:
 4785 006a 0268     		ldr	r2, [r0]
 4786 006c D368     		ldr	r3, [r2, #12]
 4787 006e 23F48063 		bic	r3, r3, #1024
 4788 0072 D360     		str	r3, [r2, #12]
 4789 0074 806A     		ldr	r0, [r0, #40]
 4790 0076 FFF7FEFF 		bl	HAL_DMA_Abort_IT
 4791 007a D7E7     		b	.L643
 4792              	.L640:
 4793 007c 0268     		ldr	r2, [r0]
 4794 007e D368     		ldr	r3, [r2, #12]
 4795 0080 23F40063 		bic	r3, r3, #2048
 4796 0084 D360     		str	r3, [r2, #12]
 4797 0086 C06A     		ldr	r0, [r0, #44]
 4798 0088 FFF7FEFF 		bl	HAL_DMA_Abort_IT
 4799 008c CEE7     		b	.L643
 4800              	.L638:
 4801 008e 0268     		ldr	r2, [r0]
 4802 0090 D368     		ldr	r3, [r2, #12]
 4803 0092 23F48053 		bic	r3, r3, #4096
 4804 0096 D360     		str	r3, [r2, #12]
 4805 0098 006B     		ldr	r0, [r0, #48]
 4806 009a FFF7FEFF 		bl	HAL_DMA_Abort_IT
 4807 009e C5E7     		b	.L643
 4808              	.L651:
 4809 00a0 196A     		ldr	r1, [r3, #32]
 4810 00a2 41F21112 		movw	r2, #4369
ARM GAS  /tmp/ccJhWMjo.s 			page 82


 4811 00a6 1142     		tst	r1, r2
 4812 00a8 C9D1     		bne	.L644
 4813 00aa 196A     		ldr	r1, [r3, #32]
 4814 00ac 40F24442 		movw	r2, #1092
 4815 00b0 1142     		tst	r1, r2
 4816 00b2 C4D1     		bne	.L644
 4817 00b4 5A6C     		ldr	r2, [r3, #68]
 4818 00b6 22F40042 		bic	r2, r2, #32768
 4819 00ba 5A64     		str	r2, [r3, #68]
 4820 00bc BFE7     		b	.L644
 4821              	.L646:
 4822 00be 042D     		cmp	r5, #4
 4823 00c0 06D0     		beq	.L652
 4824 00c2 082D     		cmp	r5, #8
 4825 00c4 09D0     		beq	.L653
 4826 00c6 0123     		movs	r3, #1
 4827 00c8 84F84130 		strb	r3, [r4, #65]
 4828 00cc 0020     		movs	r0, #0
 4829 00ce 0AE0     		b	.L637
 4830              	.L652:
 4831 00d0 0123     		movs	r3, #1
 4832 00d2 84F83F30 		strb	r3, [r4, #63]
 4833 00d6 0020     		movs	r0, #0
 4834 00d8 05E0     		b	.L637
 4835              	.L653:
 4836 00da 0123     		movs	r3, #1
 4837 00dc 84F84030 		strb	r3, [r4, #64]
 4838 00e0 0020     		movs	r0, #0
 4839 00e2 00E0     		b	.L637
 4840              	.L649:
 4841 00e4 0120     		movs	r0, #1
 4842              	.L637:
 4843 00e6 38BD     		pop	{r3, r4, r5, pc}
 4844              	.L655:
 4845              		.align	2
 4846              	.L654:
 4847 00e8 002C0140 		.word	1073818624
 4849              		.section	.text.HAL_TIM_PWM_Start,"ax",%progbits
 4850              		.align	1
 4851              		.global	HAL_TIM_PWM_Start
 4852              		.syntax unified
 4853              		.thumb
 4854              		.thumb_func
 4856              	HAL_TIM_PWM_Start:
 4857              		@ args = 0, pretend = 0, frame = 0
 4858              		@ frame_needed = 0, uses_anonymous_args = 0
 4859 0000 10B5     		push	{r4, lr}
 4860 0002 0446     		mov	r4, r0
 4861 0004 0846     		mov	r0, r1
 4862 0006 51BB     		cbnz	r1, .L657
 4863 0008 94F83E30 		ldrb	r3, [r4, #62]	@ zero_extendqisi2
 4864 000c DBB2     		uxtb	r3, r3
 4865 000e 013B     		subs	r3, r3, #1
 4866 0010 18BF     		it	ne
 4867 0012 0123     		movne	r3, #1
 4868              	.L658:
 4869 0014 002B     		cmp	r3, #0
ARM GAS  /tmp/ccJhWMjo.s 			page 83


 4870 0016 5BD1     		bne	.L669
 4871 0018 0028     		cmp	r0, #0
 4872 001a 39D1     		bne	.L662
 4873 001c 0223     		movs	r3, #2
 4874 001e 84F83E30 		strb	r3, [r4, #62]
 4875              	.L663:
 4876 0022 0122     		movs	r2, #1
 4877 0024 0146     		mov	r1, r0
 4878 0026 2068     		ldr	r0, [r4]
 4879 0028 FFF7FEFF 		bl	TIM_CCxChannelCmd
 4880 002c 2368     		ldr	r3, [r4]
 4881 002e 2A4A     		ldr	r2, .L677
 4882 0030 9342     		cmp	r3, r2
 4883 0032 3DD0     		beq	.L672
 4884              	.L666:
 4885 0034 2368     		ldr	r3, [r4]
 4886 0036 284A     		ldr	r2, .L677
 4887 0038 9342     		cmp	r3, r2
 4888 003a 3ED0     		beq	.L667
 4889 003c B3F1804F 		cmp	r3, #1073741824
 4890 0040 3BD0     		beq	.L667
 4891 0042 A2F59432 		sub	r2, r2, #75776
 4892 0046 9342     		cmp	r3, r2
 4893 0048 37D0     		beq	.L667
 4894 004a 02F58062 		add	r2, r2, #1024
 4895 004e 9342     		cmp	r3, r2
 4896 0050 33D0     		beq	.L667
 4897 0052 1A68     		ldr	r2, [r3]
 4898 0054 42F00102 		orr	r2, r2, #1
 4899 0058 1A60     		str	r2, [r3]
 4900 005a 0020     		movs	r0, #0
 4901 005c 39E0     		b	.L661
 4902              	.L657:
 4903 005e 0429     		cmp	r1, #4
 4904 0060 08D0     		beq	.L673
 4905 0062 0829     		cmp	r1, #8
 4906 0064 0DD0     		beq	.L674
 4907 0066 94F84130 		ldrb	r3, [r4, #65]	@ zero_extendqisi2
 4908 006a DBB2     		uxtb	r3, r3
 4909 006c 013B     		subs	r3, r3, #1
 4910 006e 18BF     		it	ne
 4911 0070 0123     		movne	r3, #1
 4912 0072 CFE7     		b	.L658
 4913              	.L673:
 4914 0074 94F83F30 		ldrb	r3, [r4, #63]	@ zero_extendqisi2
 4915 0078 DBB2     		uxtb	r3, r3
 4916 007a 013B     		subs	r3, r3, #1
 4917 007c 18BF     		it	ne
 4918 007e 0123     		movne	r3, #1
 4919 0080 C8E7     		b	.L658
 4920              	.L674:
 4921 0082 94F84030 		ldrb	r3, [r4, #64]	@ zero_extendqisi2
 4922 0086 DBB2     		uxtb	r3, r3
 4923 0088 013B     		subs	r3, r3, #1
 4924 008a 18BF     		it	ne
 4925 008c 0123     		movne	r3, #1
 4926 008e C1E7     		b	.L658
ARM GAS  /tmp/ccJhWMjo.s 			page 84


 4927              	.L662:
 4928 0090 0428     		cmp	r0, #4
 4929 0092 05D0     		beq	.L675
 4930 0094 0828     		cmp	r0, #8
 4931 0096 07D0     		beq	.L676
 4932 0098 0223     		movs	r3, #2
 4933 009a 84F84130 		strb	r3, [r4, #65]
 4934 009e C0E7     		b	.L663
 4935              	.L675:
 4936 00a0 0223     		movs	r3, #2
 4937 00a2 84F83F30 		strb	r3, [r4, #63]
 4938 00a6 BCE7     		b	.L663
 4939              	.L676:
 4940 00a8 0223     		movs	r3, #2
 4941 00aa 84F84030 		strb	r3, [r4, #64]
 4942 00ae B8E7     		b	.L663
 4943              	.L672:
 4944 00b0 5A6C     		ldr	r2, [r3, #68]
 4945 00b2 42F40042 		orr	r2, r2, #32768
 4946 00b6 5A64     		str	r2, [r3, #68]
 4947 00b8 BCE7     		b	.L666
 4948              	.L667:
 4949 00ba 9A68     		ldr	r2, [r3, #8]
 4950 00bc 02F00702 		and	r2, r2, #7
 4951 00c0 062A     		cmp	r2, #6
 4952 00c2 07D0     		beq	.L670
 4953 00c4 1A68     		ldr	r2, [r3]
 4954 00c6 42F00102 		orr	r2, r2, #1
 4955 00ca 1A60     		str	r2, [r3]
 4956 00cc 0020     		movs	r0, #0
 4957 00ce 00E0     		b	.L661
 4958              	.L669:
 4959 00d0 0120     		movs	r0, #1
 4960              	.L661:
 4961 00d2 10BD     		pop	{r4, pc}
 4962              	.L670:
 4963 00d4 0020     		movs	r0, #0
 4964 00d6 FCE7     		b	.L661
 4965              	.L678:
 4966              		.align	2
 4967              	.L677:
 4968 00d8 002C0140 		.word	1073818624
 4970              		.section	.text.HAL_TIM_PWM_Stop,"ax",%progbits
 4971              		.align	1
 4972              		.global	HAL_TIM_PWM_Stop
 4973              		.syntax unified
 4974              		.thumb
 4975              		.thumb_func
 4977              	HAL_TIM_PWM_Stop:
 4978              		@ args = 0, pretend = 0, frame = 0
 4979              		@ frame_needed = 0, uses_anonymous_args = 0
 4980 0000 38B5     		push	{r3, r4, r5, lr}
 4981 0002 0446     		mov	r4, r0
 4982 0004 0D46     		mov	r5, r1
 4983 0006 0022     		movs	r2, #0
 4984 0008 0068     		ldr	r0, [r0]
 4985 000a FFF7FEFF 		bl	TIM_CCxChannelCmd
ARM GAS  /tmp/ccJhWMjo.s 			page 85


 4986 000e 2368     		ldr	r3, [r4]
 4987 0010 1B4A     		ldr	r2, .L690
 4988 0012 9342     		cmp	r3, r2
 4989 0014 14D0     		beq	.L687
 4990              	.L680:
 4991 0016 2368     		ldr	r3, [r4]
 4992 0018 196A     		ldr	r1, [r3, #32]
 4993 001a 41F21112 		movw	r2, #4369
 4994 001e 1142     		tst	r1, r2
 4995 0020 08D1     		bne	.L681
 4996 0022 196A     		ldr	r1, [r3, #32]
 4997 0024 40F24442 		movw	r2, #1092
 4998 0028 1142     		tst	r1, r2
 4999 002a 03D1     		bne	.L681
 5000 002c 1A68     		ldr	r2, [r3]
 5001 002e 22F00102 		bic	r2, r2, #1
 5002 0032 1A60     		str	r2, [r3]
 5003              	.L681:
 5004 0034 9DB9     		cbnz	r5, .L682
 5005 0036 0123     		movs	r3, #1
 5006 0038 84F83E30 		strb	r3, [r4, #62]
 5007              	.L683:
 5008 003c 0020     		movs	r0, #0
 5009 003e 38BD     		pop	{r3, r4, r5, pc}
 5010              	.L687:
 5011 0040 196A     		ldr	r1, [r3, #32]
 5012 0042 41F21112 		movw	r2, #4369
 5013 0046 1142     		tst	r1, r2
 5014 0048 E5D1     		bne	.L680
 5015 004a 196A     		ldr	r1, [r3, #32]
 5016 004c 40F24442 		movw	r2, #1092
 5017 0050 1142     		tst	r1, r2
 5018 0052 E0D1     		bne	.L680
 5019 0054 5A6C     		ldr	r2, [r3, #68]
 5020 0056 22F40042 		bic	r2, r2, #32768
 5021 005a 5A64     		str	r2, [r3, #68]
 5022 005c DBE7     		b	.L680
 5023              	.L682:
 5024 005e 042D     		cmp	r5, #4
 5025 0060 05D0     		beq	.L688
 5026 0062 082D     		cmp	r5, #8
 5027 0064 07D0     		beq	.L689
 5028 0066 0123     		movs	r3, #1
 5029 0068 84F84130 		strb	r3, [r4, #65]
 5030 006c E6E7     		b	.L683
 5031              	.L688:
 5032 006e 0123     		movs	r3, #1
 5033 0070 84F83F30 		strb	r3, [r4, #63]
 5034 0074 E2E7     		b	.L683
 5035              	.L689:
 5036 0076 0123     		movs	r3, #1
 5037 0078 84F84030 		strb	r3, [r4, #64]
 5038 007c DEE7     		b	.L683
 5039              	.L691:
 5040 007e 00BF     		.align	2
 5041              	.L690:
 5042 0080 002C0140 		.word	1073818624
ARM GAS  /tmp/ccJhWMjo.s 			page 86


 5044              		.section	.text.HAL_TIM_PWM_Start_IT,"ax",%progbits
 5045              		.align	1
 5046              		.global	HAL_TIM_PWM_Start_IT
 5047              		.syntax unified
 5048              		.thumb
 5049              		.thumb_func
 5051              	HAL_TIM_PWM_Start_IT:
 5052              		@ args = 0, pretend = 0, frame = 0
 5053              		@ frame_needed = 0, uses_anonymous_args = 0
 5054 0000 10B5     		push	{r4, lr}
 5055 0002 0446     		mov	r4, r0
 5056 0004 0846     		mov	r0, r1
 5057 0006 0029     		cmp	r1, #0
 5058 0008 30D1     		bne	.L693
 5059 000a 94F83E30 		ldrb	r3, [r4, #62]	@ zero_extendqisi2
 5060 000e DBB2     		uxtb	r3, r3
 5061 0010 013B     		subs	r3, r3, #1
 5062 0012 18BF     		it	ne
 5063 0014 0123     		movne	r3, #1
 5064              	.L694:
 5065 0016 002B     		cmp	r3, #0
 5066 0018 40F09080 		bne	.L710
 5067 001c 0028     		cmp	r0, #0
 5068 001e 3ED1     		bne	.L698
 5069 0020 0223     		movs	r3, #2
 5070 0022 84F83E30 		strb	r3, [r4, #62]
 5071              	.L699:
 5072 0026 2268     		ldr	r2, [r4]
 5073 0028 D368     		ldr	r3, [r2, #12]
 5074 002a 43F00203 		orr	r3, r3, #2
 5075 002e D360     		str	r3, [r2, #12]
 5076              	.L706:
 5077 0030 0122     		movs	r2, #1
 5078 0032 0146     		mov	r1, r0
 5079 0034 2068     		ldr	r0, [r4]
 5080 0036 FFF7FEFF 		bl	TIM_CCxChannelCmd
 5081 003a 2368     		ldr	r3, [r4]
 5082 003c 424A     		ldr	r2, .L722
 5083 003e 9342     		cmp	r3, r2
 5084 0040 6CD0     		beq	.L717
 5085              	.L707:
 5086 0042 2368     		ldr	r3, [r4]
 5087 0044 404A     		ldr	r2, .L722
 5088 0046 9342     		cmp	r3, r2
 5089 0048 6DD0     		beq	.L708
 5090 004a B3F1804F 		cmp	r3, #1073741824
 5091 004e 6AD0     		beq	.L708
 5092 0050 A2F59432 		sub	r2, r2, #75776
 5093 0054 9342     		cmp	r3, r2
 5094 0056 66D0     		beq	.L708
 5095 0058 02F58062 		add	r2, r2, #1024
 5096 005c 9342     		cmp	r3, r2
 5097 005e 62D0     		beq	.L708
 5098 0060 1A68     		ldr	r2, [r3]
 5099 0062 42F00102 		orr	r2, r2, #1
 5100 0066 1A60     		str	r2, [r3]
 5101 0068 0020     		movs	r0, #0
ARM GAS  /tmp/ccJhWMjo.s 			page 87


 5102 006a 68E0     		b	.L697
 5103              	.L693:
 5104 006c 0429     		cmp	r1, #4
 5105 006e 08D0     		beq	.L718
 5106 0070 0829     		cmp	r1, #8
 5107 0072 0DD0     		beq	.L719
 5108 0074 94F84130 		ldrb	r3, [r4, #65]	@ zero_extendqisi2
 5109 0078 DBB2     		uxtb	r3, r3
 5110 007a 013B     		subs	r3, r3, #1
 5111 007c 18BF     		it	ne
 5112 007e 0123     		movne	r3, #1
 5113 0080 C9E7     		b	.L694
 5114              	.L718:
 5115 0082 94F83F30 		ldrb	r3, [r4, #63]	@ zero_extendqisi2
 5116 0086 DBB2     		uxtb	r3, r3
 5117 0088 013B     		subs	r3, r3, #1
 5118 008a 18BF     		it	ne
 5119 008c 0123     		movne	r3, #1
 5120 008e C2E7     		b	.L694
 5121              	.L719:
 5122 0090 94F84030 		ldrb	r3, [r4, #64]	@ zero_extendqisi2
 5123 0094 DBB2     		uxtb	r3, r3
 5124 0096 013B     		subs	r3, r3, #1
 5125 0098 18BF     		it	ne
 5126 009a 0123     		movne	r3, #1
 5127 009c BBE7     		b	.L694
 5128              	.L698:
 5129 009e 0428     		cmp	r0, #4
 5130 00a0 24D0     		beq	.L720
 5131 00a2 0828     		cmp	r0, #8
 5132 00a4 2BD0     		beq	.L721
 5133 00a6 0223     		movs	r3, #2
 5134 00a8 84F84130 		strb	r3, [r4, #65]
 5135 00ac 0C28     		cmp	r0, #12
 5136 00ae 47D8     		bhi	.L711
 5137 00b0 01A3     		adr	r3, .L705
 5138 00b2 53F820F0 		ldr	pc, [r3, r0, lsl #2]
 5139 00b6 00BF     		.p2align 2
 5140              	.L705:
 5141 00b8 27000000 		.word	.L699+1
 5142 00bc 41010000 		.word	.L711+1
 5143 00c0 41010000 		.word	.L711+1
 5144 00c4 41010000 		.word	.L711+1
 5145 00c8 F3000000 		.word	.L701+1
 5146 00cc 41010000 		.word	.L711+1
 5147 00d0 41010000 		.word	.L711+1
 5148 00d4 41010000 		.word	.L711+1
 5149 00d8 05010000 		.word	.L703+1
 5150 00dc 41010000 		.word	.L711+1
 5151 00e0 41010000 		.word	.L711+1
 5152 00e4 41010000 		.word	.L711+1
 5153 00e8 11010000 		.word	.L704+1
 5154              		.p2align 1
 5155              	.L720:
 5156 00ec 0223     		movs	r3, #2
 5157 00ee 84F83F30 		strb	r3, [r4, #63]
 5158              	.L701:
ARM GAS  /tmp/ccJhWMjo.s 			page 88


 5159 00f2 2268     		ldr	r2, [r4]
 5160 00f4 D368     		ldr	r3, [r2, #12]
 5161 00f6 43F00403 		orr	r3, r3, #4
 5162 00fa D360     		str	r3, [r2, #12]
 5163 00fc 98E7     		b	.L706
 5164              	.L721:
 5165 00fe 0223     		movs	r3, #2
 5166 0100 84F84030 		strb	r3, [r4, #64]
 5167              	.L703:
 5168 0104 2268     		ldr	r2, [r4]
 5169 0106 D368     		ldr	r3, [r2, #12]
 5170 0108 43F00803 		orr	r3, r3, #8
 5171 010c D360     		str	r3, [r2, #12]
 5172 010e 8FE7     		b	.L706
 5173              	.L704:
 5174 0110 2268     		ldr	r2, [r4]
 5175 0112 D368     		ldr	r3, [r2, #12]
 5176 0114 43F01003 		orr	r3, r3, #16
 5177 0118 D360     		str	r3, [r2, #12]
 5178 011a 89E7     		b	.L706
 5179              	.L717:
 5180 011c 5A6C     		ldr	r2, [r3, #68]
 5181 011e 42F40042 		orr	r2, r2, #32768
 5182 0122 5A64     		str	r2, [r3, #68]
 5183 0124 8DE7     		b	.L707
 5184              	.L708:
 5185 0126 9A68     		ldr	r2, [r3, #8]
 5186 0128 02F00702 		and	r2, r2, #7
 5187 012c 062A     		cmp	r2, #6
 5188 012e 09D0     		beq	.L712
 5189 0130 1A68     		ldr	r2, [r3]
 5190 0132 42F00102 		orr	r2, r2, #1
 5191 0136 1A60     		str	r2, [r3]
 5192 0138 0020     		movs	r0, #0
 5193 013a 00E0     		b	.L697
 5194              	.L710:
 5195 013c 0120     		movs	r0, #1
 5196              	.L697:
 5197 013e 10BD     		pop	{r4, pc}
 5198              	.L711:
 5199 0140 0120     		movs	r0, #1
 5200 0142 FCE7     		b	.L697
 5201              	.L712:
 5202 0144 0020     		movs	r0, #0
 5203 0146 FAE7     		b	.L697
 5204              	.L723:
 5205              		.align	2
 5206              	.L722:
 5207 0148 002C0140 		.word	1073818624
 5209              		.section	.text.HAL_TIM_PWM_Stop_IT,"ax",%progbits
 5210              		.align	1
 5211              		.global	HAL_TIM_PWM_Stop_IT
 5212              		.syntax unified
 5213              		.thumb
 5214              		.thumb_func
 5216              	HAL_TIM_PWM_Stop_IT:
 5217              		@ args = 0, pretend = 0, frame = 0
ARM GAS  /tmp/ccJhWMjo.s 			page 89


 5218              		@ frame_needed = 0, uses_anonymous_args = 0
 5219 0000 38B5     		push	{r3, r4, r5, lr}
 5220 0002 0546     		mov	r5, r0
 5221 0004 0C46     		mov	r4, r1
 5222 0006 0C29     		cmp	r1, #12
 5223 0008 5FD8     		bhi	.L737
 5224 000a DFE801F0 		tbb	[pc, r1]
 5225              	.L727:
 5226 000e 07       		.byte	(.L730-.L727)/2
 5227 000f 5E       		.byte	(.L737-.L727)/2
 5228 0010 5E       		.byte	(.L737-.L727)/2
 5229 0011 5E       		.byte	(.L737-.L727)/2
 5230 0012 2A       		.byte	(.L729-.L727)/2
 5231 0013 5E       		.byte	(.L737-.L727)/2
 5232 0014 5E       		.byte	(.L737-.L727)/2
 5233 0015 5E       		.byte	(.L737-.L727)/2
 5234 0016 30       		.byte	(.L728-.L727)/2
 5235 0017 5E       		.byte	(.L737-.L727)/2
 5236 0018 5E       		.byte	(.L737-.L727)/2
 5237 0019 5E       		.byte	(.L737-.L727)/2
 5238 001a 36       		.byte	(.L726-.L727)/2
 5239 001b 00       		.p2align 1
 5240              	.L730:
 5241 001c 0268     		ldr	r2, [r0]
 5242 001e D368     		ldr	r3, [r2, #12]
 5243 0020 23F00203 		bic	r3, r3, #2
 5244 0024 D360     		str	r3, [r2, #12]
 5245              	.L731:
 5246 0026 0022     		movs	r2, #0
 5247 0028 2146     		mov	r1, r4
 5248 002a 2868     		ldr	r0, [r5]
 5249 002c FFF7FEFF 		bl	TIM_CCxChannelCmd
 5250 0030 2B68     		ldr	r3, [r5]
 5251 0032 274A     		ldr	r2, .L742
 5252 0034 9342     		cmp	r3, r2
 5253 0036 26D0     		beq	.L739
 5254              	.L732:
 5255 0038 2B68     		ldr	r3, [r5]
 5256 003a 196A     		ldr	r1, [r3, #32]
 5257 003c 41F21112 		movw	r2, #4369
 5258 0040 1142     		tst	r1, r2
 5259 0042 08D1     		bne	.L733
 5260 0044 196A     		ldr	r1, [r3, #32]
 5261 0046 40F24442 		movw	r2, #1092
 5262 004a 1142     		tst	r1, r2
 5263 004c 03D1     		bne	.L733
 5264 004e 1A68     		ldr	r2, [r3]
 5265 0050 22F00102 		bic	r2, r2, #1
 5266 0054 1A60     		str	r2, [r3]
 5267              	.L733:
 5268 0056 2CBB     		cbnz	r4, .L734
 5269 0058 0123     		movs	r3, #1
 5270 005a 85F83E30 		strb	r3, [r5, #62]
 5271 005e 0020     		movs	r0, #0
 5272 0060 34E0     		b	.L725
 5273              	.L729:
 5274 0062 0268     		ldr	r2, [r0]
ARM GAS  /tmp/ccJhWMjo.s 			page 90


 5275 0064 D368     		ldr	r3, [r2, #12]
 5276 0066 23F00403 		bic	r3, r3, #4
 5277 006a D360     		str	r3, [r2, #12]
 5278 006c DBE7     		b	.L731
 5279              	.L728:
 5280 006e 0268     		ldr	r2, [r0]
 5281 0070 D368     		ldr	r3, [r2, #12]
 5282 0072 23F00803 		bic	r3, r3, #8
 5283 0076 D360     		str	r3, [r2, #12]
 5284 0078 D5E7     		b	.L731
 5285              	.L726:
 5286 007a 0268     		ldr	r2, [r0]
 5287 007c D368     		ldr	r3, [r2, #12]
 5288 007e 23F01003 		bic	r3, r3, #16
 5289 0082 D360     		str	r3, [r2, #12]
 5290 0084 CFE7     		b	.L731
 5291              	.L739:
 5292 0086 196A     		ldr	r1, [r3, #32]
 5293 0088 41F21112 		movw	r2, #4369
 5294 008c 1142     		tst	r1, r2
 5295 008e D3D1     		bne	.L732
 5296 0090 196A     		ldr	r1, [r3, #32]
 5297 0092 40F24442 		movw	r2, #1092
 5298 0096 1142     		tst	r1, r2
 5299 0098 CED1     		bne	.L732
 5300 009a 5A6C     		ldr	r2, [r3, #68]
 5301 009c 22F40042 		bic	r2, r2, #32768
 5302 00a0 5A64     		str	r2, [r3, #68]
 5303 00a2 C9E7     		b	.L732
 5304              	.L734:
 5305 00a4 042C     		cmp	r4, #4
 5306 00a6 06D0     		beq	.L740
 5307 00a8 082C     		cmp	r4, #8
 5308 00aa 09D0     		beq	.L741
 5309 00ac 0123     		movs	r3, #1
 5310 00ae 85F84130 		strb	r3, [r5, #65]
 5311 00b2 0020     		movs	r0, #0
 5312 00b4 0AE0     		b	.L725
 5313              	.L740:
 5314 00b6 0123     		movs	r3, #1
 5315 00b8 85F83F30 		strb	r3, [r5, #63]
 5316 00bc 0020     		movs	r0, #0
 5317 00be 05E0     		b	.L725
 5318              	.L741:
 5319 00c0 0123     		movs	r3, #1
 5320 00c2 85F84030 		strb	r3, [r5, #64]
 5321 00c6 0020     		movs	r0, #0
 5322 00c8 00E0     		b	.L725
 5323              	.L737:
 5324 00ca 0120     		movs	r0, #1
 5325              	.L725:
 5326 00cc 38BD     		pop	{r3, r4, r5, pc}
 5327              	.L743:
 5328 00ce 00BF     		.align	2
 5329              	.L742:
 5330 00d0 002C0140 		.word	1073818624
 5332              		.section	.text.HAL_TIM_PWM_Start_DMA,"ax",%progbits
ARM GAS  /tmp/ccJhWMjo.s 			page 91


 5333              		.align	1
 5334              		.global	HAL_TIM_PWM_Start_DMA
 5335              		.syntax unified
 5336              		.thumb
 5337              		.thumb_func
 5339              	HAL_TIM_PWM_Start_DMA:
 5340              		@ args = 0, pretend = 0, frame = 0
 5341              		@ frame_needed = 0, uses_anonymous_args = 0
 5342 0000 70B5     		push	{r4, r5, r6, lr}
 5343 0002 0446     		mov	r4, r0
 5344 0004 1646     		mov	r6, r2
 5345 0006 0D46     		mov	r5, r1
 5346 0008 0029     		cmp	r1, #0
 5347 000a 5AD1     		bne	.L745
 5348 000c 90F83E00 		ldrb	r0, [r0, #62]	@ zero_extendqisi2
 5349 0010 C0B2     		uxtb	r0, r0
 5350 0012 0228     		cmp	r0, #2
 5351 0014 14BF     		ite	ne
 5352 0016 0020     		movne	r0, #0
 5353 0018 0120     		moveq	r0, #1
 5354              	.L746:
 5355 001a 0028     		cmp	r0, #0
 5356 001c 40F00A81 		bne	.L766
 5357 0020 002D     		cmp	r5, #0
 5358 0022 6AD1     		bne	.L750
 5359 0024 94F83E20 		ldrb	r2, [r4, #62]	@ zero_extendqisi2
 5360 0028 D2B2     		uxtb	r2, r2
 5361 002a 012A     		cmp	r2, #1
 5362 002c 14BF     		ite	ne
 5363 002e 0022     		movne	r2, #0
 5364 0030 0122     		moveq	r2, #1
 5365              	.L751:
 5366 0032 002A     		cmp	r2, #0
 5367 0034 00F00081 		beq	.L767
 5368 0038 002E     		cmp	r6, #0
 5369 003a 00F0FF80 		beq	.L768
 5370 003e 002B     		cmp	r3, #0
 5371 0040 00F0FE80 		beq	.L769
 5372 0044 002D     		cmp	r5, #0
 5373 0046 74D1     		bne	.L754
 5374 0048 0222     		movs	r2, #2
 5375 004a 84F83E20 		strb	r2, [r4, #62]
 5376              	.L755:
 5377 004e 626A     		ldr	r2, [r4, #36]
 5378 0050 8249     		ldr	r1, .L787
 5379 0052 9162     		str	r1, [r2, #40]
 5380 0054 626A     		ldr	r2, [r4, #36]
 5381 0056 8249     		ldr	r1, .L787+4
 5382 0058 D162     		str	r1, [r2, #44]
 5383 005a 626A     		ldr	r2, [r4, #36]
 5384 005c 8149     		ldr	r1, .L787+8
 5385 005e 1163     		str	r1, [r2, #48]
 5386 0060 2268     		ldr	r2, [r4]
 5387 0062 3432     		adds	r2, r2, #52
 5388 0064 3146     		mov	r1, r6
 5389 0066 606A     		ldr	r0, [r4, #36]
 5390 0068 FFF7FEFF 		bl	HAL_DMA_Start_IT
ARM GAS  /tmp/ccJhWMjo.s 			page 92


 5391 006c 0028     		cmp	r0, #0
 5392 006e 40F0EB80 		bne	.L771
 5393 0072 2268     		ldr	r2, [r4]
 5394 0074 D368     		ldr	r3, [r2, #12]
 5395 0076 43F40073 		orr	r3, r3, #512
 5396 007a D360     		str	r3, [r2, #12]
 5397              	.L762:
 5398 007c 0122     		movs	r2, #1
 5399 007e 2946     		mov	r1, r5
 5400 0080 2068     		ldr	r0, [r4]
 5401 0082 FFF7FEFF 		bl	TIM_CCxChannelCmd
 5402 0086 2368     		ldr	r3, [r4]
 5403 0088 774A     		ldr	r2, .L787+12
 5404 008a 9342     		cmp	r3, r2
 5405 008c 00F0C280 		beq	.L780
 5406              	.L763:
 5407 0090 2368     		ldr	r3, [r4]
 5408 0092 754A     		ldr	r2, .L787+12
 5409 0094 9342     		cmp	r3, r2
 5410 0096 00F0C280 		beq	.L764
 5411 009a B3F1804F 		cmp	r3, #1073741824
 5412 009e 00F0BE80 		beq	.L764
 5413 00a2 A2F59432 		sub	r2, r2, #75776
 5414 00a6 9342     		cmp	r3, r2
 5415 00a8 00F0B980 		beq	.L764
 5416 00ac 02F58062 		add	r2, r2, #1024
 5417 00b0 9342     		cmp	r3, r2
 5418 00b2 00F0B480 		beq	.L764
 5419 00b6 1A68     		ldr	r2, [r3]
 5420 00b8 42F00102 		orr	r2, r2, #1
 5421 00bc 1A60     		str	r2, [r3]
 5422 00be 0020     		movs	r0, #0
 5423 00c0 BBE0     		b	.L749
 5424              	.L745:
 5425 00c2 0429     		cmp	r1, #4
 5426 00c4 09D0     		beq	.L781
 5427 00c6 0829     		cmp	r1, #8
 5428 00c8 0FD0     		beq	.L782
 5429 00ca 90F84100 		ldrb	r0, [r0, #65]	@ zero_extendqisi2
 5430 00ce C0B2     		uxtb	r0, r0
 5431 00d0 0228     		cmp	r0, #2
 5432 00d2 14BF     		ite	ne
 5433 00d4 0020     		movne	r0, #0
 5434 00d6 0120     		moveq	r0, #1
 5435 00d8 9FE7     		b	.L746
 5436              	.L781:
 5437 00da 90F83F00 		ldrb	r0, [r0, #63]	@ zero_extendqisi2
 5438 00de C0B2     		uxtb	r0, r0
 5439 00e0 0228     		cmp	r0, #2
 5440 00e2 14BF     		ite	ne
 5441 00e4 0020     		movne	r0, #0
 5442 00e6 0120     		moveq	r0, #1
 5443 00e8 97E7     		b	.L746
 5444              	.L782:
 5445 00ea 90F84000 		ldrb	r0, [r0, #64]	@ zero_extendqisi2
 5446 00ee C0B2     		uxtb	r0, r0
 5447 00f0 0228     		cmp	r0, #2
ARM GAS  /tmp/ccJhWMjo.s 			page 93


 5448 00f2 14BF     		ite	ne
 5449 00f4 0020     		movne	r0, #0
 5450 00f6 0120     		moveq	r0, #1
 5451 00f8 8FE7     		b	.L746
 5452              	.L750:
 5453 00fa 042D     		cmp	r5, #4
 5454 00fc 09D0     		beq	.L783
 5455 00fe 082D     		cmp	r5, #8
 5456 0100 0FD0     		beq	.L784
 5457 0102 94F84120 		ldrb	r2, [r4, #65]	@ zero_extendqisi2
 5458 0106 D2B2     		uxtb	r2, r2
 5459 0108 012A     		cmp	r2, #1
 5460 010a 14BF     		ite	ne
 5461 010c 0022     		movne	r2, #0
 5462 010e 0122     		moveq	r2, #1
 5463 0110 8FE7     		b	.L751
 5464              	.L783:
 5465 0112 94F83F20 		ldrb	r2, [r4, #63]	@ zero_extendqisi2
 5466 0116 D2B2     		uxtb	r2, r2
 5467 0118 012A     		cmp	r2, #1
 5468 011a 14BF     		ite	ne
 5469 011c 0022     		movne	r2, #0
 5470 011e 0122     		moveq	r2, #1
 5471 0120 87E7     		b	.L751
 5472              	.L784:
 5473 0122 94F84020 		ldrb	r2, [r4, #64]	@ zero_extendqisi2
 5474 0126 D2B2     		uxtb	r2, r2
 5475 0128 012A     		cmp	r2, #1
 5476 012a 14BF     		ite	ne
 5477 012c 0022     		movne	r2, #0
 5478 012e 0122     		moveq	r2, #1
 5479 0130 7FE7     		b	.L751
 5480              	.L754:
 5481 0132 042D     		cmp	r5, #4
 5482 0134 24D0     		beq	.L785
 5483 0136 082D     		cmp	r5, #8
 5484 0138 3CD0     		beq	.L786
 5485 013a 0222     		movs	r2, #2
 5486 013c 84F84120 		strb	r2, [r4, #65]
 5487 0140 0C2D     		cmp	r5, #12
 5488 0142 7FD8     		bhi	.L770
 5489 0144 01A2     		adr	r2, .L761
 5490 0146 52F825F0 		ldr	pc, [r2, r5, lsl #2]
 5491 014a 00BF     		.p2align 2
 5492              	.L761:
 5493 014c 4F000000 		.word	.L755+1
 5494 0150 45020000 		.word	.L770+1
 5495 0154 45020000 		.word	.L770+1
 5496 0158 45020000 		.word	.L770+1
 5497 015c 87010000 		.word	.L757+1
 5498 0160 45020000 		.word	.L770+1
 5499 0164 45020000 		.word	.L770+1
 5500 0168 45020000 		.word	.L770+1
 5501 016c BB010000 		.word	.L759+1
 5502 0170 45020000 		.word	.L770+1
 5503 0174 45020000 		.word	.L770+1
 5504 0178 45020000 		.word	.L770+1
ARM GAS  /tmp/ccJhWMjo.s 			page 94


 5505 017c E9010000 		.word	.L760+1
 5506              		.p2align 1
 5507              	.L785:
 5508 0180 0222     		movs	r2, #2
 5509 0182 84F83F20 		strb	r2, [r4, #63]
 5510              	.L757:
 5511 0186 A26A     		ldr	r2, [r4, #40]
 5512 0188 3449     		ldr	r1, .L787
 5513 018a 9162     		str	r1, [r2, #40]
 5514 018c A26A     		ldr	r2, [r4, #40]
 5515 018e 3449     		ldr	r1, .L787+4
 5516 0190 D162     		str	r1, [r2, #44]
 5517 0192 A26A     		ldr	r2, [r4, #40]
 5518 0194 3349     		ldr	r1, .L787+8
 5519 0196 1163     		str	r1, [r2, #48]
 5520 0198 2268     		ldr	r2, [r4]
 5521 019a 3832     		adds	r2, r2, #56
 5522 019c 3146     		mov	r1, r6
 5523 019e A06A     		ldr	r0, [r4, #40]
 5524 01a0 FFF7FEFF 		bl	HAL_DMA_Start_IT
 5525 01a4 0028     		cmp	r0, #0
 5526 01a6 51D1     		bne	.L772
 5527 01a8 2268     		ldr	r2, [r4]
 5528 01aa D368     		ldr	r3, [r2, #12]
 5529 01ac 43F48063 		orr	r3, r3, #1024
 5530 01b0 D360     		str	r3, [r2, #12]
 5531 01b2 63E7     		b	.L762
 5532              	.L786:
 5533 01b4 0222     		movs	r2, #2
 5534 01b6 84F84020 		strb	r2, [r4, #64]
 5535              	.L759:
 5536 01ba E26A     		ldr	r2, [r4, #44]
 5537 01bc 2749     		ldr	r1, .L787
 5538 01be 9162     		str	r1, [r2, #40]
 5539 01c0 E26A     		ldr	r2, [r4, #44]
 5540 01c2 2749     		ldr	r1, .L787+4
 5541 01c4 D162     		str	r1, [r2, #44]
 5542 01c6 E26A     		ldr	r2, [r4, #44]
 5543 01c8 2649     		ldr	r1, .L787+8
 5544 01ca 1163     		str	r1, [r2, #48]
 5545 01cc 2268     		ldr	r2, [r4]
 5546 01ce 3C32     		adds	r2, r2, #60
 5547 01d0 3146     		mov	r1, r6
 5548 01d2 E06A     		ldr	r0, [r4, #44]
 5549 01d4 FFF7FEFF 		bl	HAL_DMA_Start_IT
 5550 01d8 0028     		cmp	r0, #0
 5551 01da 39D1     		bne	.L773
 5552 01dc 2268     		ldr	r2, [r4]
 5553 01de D368     		ldr	r3, [r2, #12]
 5554 01e0 43F40063 		orr	r3, r3, #2048
 5555 01e4 D360     		str	r3, [r2, #12]
 5556 01e6 49E7     		b	.L762
 5557              	.L760:
 5558 01e8 226B     		ldr	r2, [r4, #48]
 5559 01ea 1C49     		ldr	r1, .L787
 5560 01ec 9162     		str	r1, [r2, #40]
 5561 01ee 226B     		ldr	r2, [r4, #48]
ARM GAS  /tmp/ccJhWMjo.s 			page 95


 5562 01f0 1B49     		ldr	r1, .L787+4
 5563 01f2 D162     		str	r1, [r2, #44]
 5564 01f4 226B     		ldr	r2, [r4, #48]
 5565 01f6 1B49     		ldr	r1, .L787+8
 5566 01f8 1163     		str	r1, [r2, #48]
 5567 01fa 2268     		ldr	r2, [r4]
 5568 01fc 4032     		adds	r2, r2, #64
 5569 01fe 3146     		mov	r1, r6
 5570 0200 206B     		ldr	r0, [r4, #48]
 5571 0202 FFF7FEFF 		bl	HAL_DMA_Start_IT
 5572 0206 28BB     		cbnz	r0, .L774
 5573 0208 2268     		ldr	r2, [r4]
 5574 020a D368     		ldr	r3, [r2, #12]
 5575 020c 43F48053 		orr	r3, r3, #4096
 5576 0210 D360     		str	r3, [r2, #12]
 5577 0212 33E7     		b	.L762
 5578              	.L780:
 5579 0214 5A6C     		ldr	r2, [r3, #68]
 5580 0216 42F40042 		orr	r2, r2, #32768
 5581 021a 5A64     		str	r2, [r3, #68]
 5582 021c 38E7     		b	.L763
 5583              	.L764:
 5584 021e 9A68     		ldr	r2, [r3, #8]
 5585 0220 02F00702 		and	r2, r2, #7
 5586 0224 062A     		cmp	r2, #6
 5587 0226 17D0     		beq	.L775
 5588 0228 1A68     		ldr	r2, [r3]
 5589 022a 42F00102 		orr	r2, r2, #1
 5590 022e 1A60     		str	r2, [r3]
 5591 0230 0020     		movs	r0, #0
 5592 0232 02E0     		b	.L749
 5593              	.L766:
 5594 0234 0220     		movs	r0, #2
 5595 0236 00E0     		b	.L749
 5596              	.L767:
 5597 0238 0120     		movs	r0, #1
 5598              	.L749:
 5599 023a 70BD     		pop	{r4, r5, r6, pc}
 5600              	.L768:
 5601 023c 0120     		movs	r0, #1
 5602 023e FCE7     		b	.L749
 5603              	.L769:
 5604 0240 0120     		movs	r0, #1
 5605 0242 FAE7     		b	.L749
 5606              	.L770:
 5607 0244 0120     		movs	r0, #1
 5608 0246 F8E7     		b	.L749
 5609              	.L771:
 5610 0248 0120     		movs	r0, #1
 5611 024a F6E7     		b	.L749
 5612              	.L772:
 5613 024c 0120     		movs	r0, #1
 5614 024e F4E7     		b	.L749
 5615              	.L773:
 5616 0250 0120     		movs	r0, #1
 5617 0252 F2E7     		b	.L749
 5618              	.L774:
ARM GAS  /tmp/ccJhWMjo.s 			page 96


 5619 0254 0120     		movs	r0, #1
 5620 0256 F0E7     		b	.L749
 5621              	.L775:
 5622 0258 0020     		movs	r0, #0
 5623 025a EEE7     		b	.L749
 5624              	.L788:
 5625              		.align	2
 5626              	.L787:
 5627 025c 00000000 		.word	TIM_DMADelayPulseCplt
 5628 0260 00000000 		.word	TIM_DMADelayPulseHalfCplt
 5629 0264 00000000 		.word	TIM_DMAError
 5630 0268 002C0140 		.word	1073818624
 5632              		.section	.text.HAL_TIM_PWM_Stop_DMA,"ax",%progbits
 5633              		.align	1
 5634              		.global	HAL_TIM_PWM_Stop_DMA
 5635              		.syntax unified
 5636              		.thumb
 5637              		.thumb_func
 5639              	HAL_TIM_PWM_Stop_DMA:
 5640              		@ args = 0, pretend = 0, frame = 0
 5641              		@ frame_needed = 0, uses_anonymous_args = 0
 5642 0000 38B5     		push	{r3, r4, r5, lr}
 5643 0002 0446     		mov	r4, r0
 5644 0004 0D46     		mov	r5, r1
 5645 0006 0C29     		cmp	r1, #12
 5646 0008 6CD8     		bhi	.L802
 5647 000a DFE801F0 		tbb	[pc, r1]
 5648              	.L792:
 5649 000e 07       		.byte	(.L795-.L792)/2
 5650 000f 6B       		.byte	(.L802-.L792)/2
 5651 0010 6B       		.byte	(.L802-.L792)/2
 5652 0011 6B       		.byte	(.L802-.L792)/2
 5653 0012 2E       		.byte	(.L794-.L792)/2
 5654 0013 6B       		.byte	(.L802-.L792)/2
 5655 0014 6B       		.byte	(.L802-.L792)/2
 5656 0015 6B       		.byte	(.L802-.L792)/2
 5657 0016 37       		.byte	(.L793-.L792)/2
 5658 0017 6B       		.byte	(.L802-.L792)/2
 5659 0018 6B       		.byte	(.L802-.L792)/2
 5660 0019 6B       		.byte	(.L802-.L792)/2
 5661 001a 40       		.byte	(.L791-.L792)/2
 5662 001b 00       		.p2align 1
 5663              	.L795:
 5664 001c 0268     		ldr	r2, [r0]
 5665 001e D368     		ldr	r3, [r2, #12]
 5666 0020 23F40073 		bic	r3, r3, #512
 5667 0024 D360     		str	r3, [r2, #12]
 5668 0026 406A     		ldr	r0, [r0, #36]
 5669 0028 FFF7FEFF 		bl	HAL_DMA_Abort_IT
 5670              	.L796:
 5671 002c 0022     		movs	r2, #0
 5672 002e 2946     		mov	r1, r5
 5673 0030 2068     		ldr	r0, [r4]
 5674 0032 FFF7FEFF 		bl	TIM_CCxChannelCmd
 5675 0036 2368     		ldr	r3, [r4]
 5676 0038 2B4A     		ldr	r2, .L807
 5677 003a 9342     		cmp	r3, r2
ARM GAS  /tmp/ccJhWMjo.s 			page 97


 5678 003c 30D0     		beq	.L804
 5679              	.L797:
 5680 003e 2368     		ldr	r3, [r4]
 5681 0040 196A     		ldr	r1, [r3, #32]
 5682 0042 41F21112 		movw	r2, #4369
 5683 0046 1142     		tst	r1, r2
 5684 0048 08D1     		bne	.L798
 5685 004a 196A     		ldr	r1, [r3, #32]
 5686 004c 40F24442 		movw	r2, #1092
 5687 0050 1142     		tst	r1, r2
 5688 0052 03D1     		bne	.L798
 5689 0054 1A68     		ldr	r2, [r3]
 5690 0056 22F00102 		bic	r2, r2, #1
 5691 005a 1A60     		str	r2, [r3]
 5692              	.L798:
 5693 005c 002D     		cmp	r5, #0
 5694 005e 2ED1     		bne	.L799
 5695 0060 0123     		movs	r3, #1
 5696 0062 84F83E30 		strb	r3, [r4, #62]
 5697 0066 0020     		movs	r0, #0
 5698 0068 3DE0     		b	.L790
 5699              	.L794:
 5700 006a 0268     		ldr	r2, [r0]
 5701 006c D368     		ldr	r3, [r2, #12]
 5702 006e 23F48063 		bic	r3, r3, #1024
 5703 0072 D360     		str	r3, [r2, #12]
 5704 0074 806A     		ldr	r0, [r0, #40]
 5705 0076 FFF7FEFF 		bl	HAL_DMA_Abort_IT
 5706 007a D7E7     		b	.L796
 5707              	.L793:
 5708 007c 0268     		ldr	r2, [r0]
 5709 007e D368     		ldr	r3, [r2, #12]
 5710 0080 23F40063 		bic	r3, r3, #2048
 5711 0084 D360     		str	r3, [r2, #12]
 5712 0086 C06A     		ldr	r0, [r0, #44]
 5713 0088 FFF7FEFF 		bl	HAL_DMA_Abort_IT
 5714 008c CEE7     		b	.L796
 5715              	.L791:
 5716 008e 0268     		ldr	r2, [r0]
 5717 0090 D368     		ldr	r3, [r2, #12]
 5718 0092 23F48053 		bic	r3, r3, #4096
 5719 0096 D360     		str	r3, [r2, #12]
 5720 0098 006B     		ldr	r0, [r0, #48]
 5721 009a FFF7FEFF 		bl	HAL_DMA_Abort_IT
 5722 009e C5E7     		b	.L796
 5723              	.L804:
 5724 00a0 196A     		ldr	r1, [r3, #32]
 5725 00a2 41F21112 		movw	r2, #4369
 5726 00a6 1142     		tst	r1, r2
 5727 00a8 C9D1     		bne	.L797
 5728 00aa 196A     		ldr	r1, [r3, #32]
 5729 00ac 40F24442 		movw	r2, #1092
 5730 00b0 1142     		tst	r1, r2
 5731 00b2 C4D1     		bne	.L797
 5732 00b4 5A6C     		ldr	r2, [r3, #68]
 5733 00b6 22F40042 		bic	r2, r2, #32768
 5734 00ba 5A64     		str	r2, [r3, #68]
ARM GAS  /tmp/ccJhWMjo.s 			page 98


 5735 00bc BFE7     		b	.L797
 5736              	.L799:
 5737 00be 042D     		cmp	r5, #4
 5738 00c0 06D0     		beq	.L805
 5739 00c2 082D     		cmp	r5, #8
 5740 00c4 09D0     		beq	.L806
 5741 00c6 0123     		movs	r3, #1
 5742 00c8 84F84130 		strb	r3, [r4, #65]
 5743 00cc 0020     		movs	r0, #0
 5744 00ce 0AE0     		b	.L790
 5745              	.L805:
 5746 00d0 0123     		movs	r3, #1
 5747 00d2 84F83F30 		strb	r3, [r4, #63]
 5748 00d6 0020     		movs	r0, #0
 5749 00d8 05E0     		b	.L790
 5750              	.L806:
 5751 00da 0123     		movs	r3, #1
 5752 00dc 84F84030 		strb	r3, [r4, #64]
 5753 00e0 0020     		movs	r0, #0
 5754 00e2 00E0     		b	.L790
 5755              	.L802:
 5756 00e4 0120     		movs	r0, #1
 5757              	.L790:
 5758 00e6 38BD     		pop	{r3, r4, r5, pc}
 5759              	.L808:
 5760              		.align	2
 5761              	.L807:
 5762 00e8 002C0140 		.word	1073818624
 5764              		.section	.text.HAL_TIM_IC_Start,"ax",%progbits
 5765              		.align	1
 5766              		.global	HAL_TIM_IC_Start
 5767              		.syntax unified
 5768              		.thumb
 5769              		.thumb_func
 5771              	HAL_TIM_IC_Start:
 5772              		@ args = 0, pretend = 0, frame = 0
 5773              		@ frame_needed = 0, uses_anonymous_args = 0
 5774 0000 10B5     		push	{r4, lr}
 5775 0002 0446     		mov	r4, r0
 5776 0004 0B46     		mov	r3, r1
 5777 0006 61BB     		cbnz	r1, .L810
 5778 0008 90F83E00 		ldrb	r0, [r0, #62]	@ zero_extendqisi2
 5779 000c C0B2     		uxtb	r0, r0
 5780              	.L811:
 5781 000e 002B     		cmp	r3, #0
 5782 0010 37D1     		bne	.L814
 5783 0012 94F84220 		ldrb	r2, [r4, #66]	@ zero_extendqisi2
 5784 0016 D2B2     		uxtb	r2, r2
 5785              	.L815:
 5786 0018 0128     		cmp	r0, #1
 5787 001a 6CD1     		bne	.L828
 5788 001c 012A     		cmp	r2, #1
 5789 001e 6BD1     		bne	.L818
 5790 0020 002B     		cmp	r3, #0
 5791 0022 3ED1     		bne	.L819
 5792 0024 0222     		movs	r2, #2
 5793 0026 84F83E20 		strb	r2, [r4, #62]
ARM GAS  /tmp/ccJhWMjo.s 			page 99


 5794 002a 84F84220 		strb	r2, [r4, #66]
 5795              	.L820:
 5796 002e 0122     		movs	r2, #1
 5797 0030 1946     		mov	r1, r3
 5798 0032 2068     		ldr	r0, [r4]
 5799 0034 FFF7FEFF 		bl	TIM_CCxChannelCmd
 5800 0038 2368     		ldr	r3, [r4]
 5801 003a 314A     		ldr	r2, .L839
 5802 003c 9342     		cmp	r3, r2
 5803 003e 4FD0     		beq	.L826
 5804 0040 B3F1804F 		cmp	r3, #1073741824
 5805 0044 4CD0     		beq	.L826
 5806 0046 A2F59432 		sub	r2, r2, #75776
 5807 004a 9342     		cmp	r3, r2
 5808 004c 48D0     		beq	.L826
 5809 004e 02F58062 		add	r2, r2, #1024
 5810 0052 9342     		cmp	r3, r2
 5811 0054 44D0     		beq	.L826
 5812 0056 1A68     		ldr	r2, [r3]
 5813 0058 42F00102 		orr	r2, r2, #1
 5814 005c 1A60     		str	r2, [r3]
 5815 005e 0020     		movs	r0, #0
 5816 0060 4AE0     		b	.L818
 5817              	.L810:
 5818 0062 0429     		cmp	r1, #4
 5819 0064 05D0     		beq	.L831
 5820 0066 0829     		cmp	r1, #8
 5821 0068 07D0     		beq	.L832
 5822 006a 90F84100 		ldrb	r0, [r0, #65]	@ zero_extendqisi2
 5823 006e C0B2     		uxtb	r0, r0
 5824 0070 CDE7     		b	.L811
 5825              	.L831:
 5826 0072 90F83F00 		ldrb	r0, [r0, #63]	@ zero_extendqisi2
 5827 0076 C0B2     		uxtb	r0, r0
 5828 0078 C9E7     		b	.L811
 5829              	.L832:
 5830 007a 90F84000 		ldrb	r0, [r0, #64]	@ zero_extendqisi2
 5831 007e C0B2     		uxtb	r0, r0
 5832 0080 C5E7     		b	.L811
 5833              	.L814:
 5834 0082 042B     		cmp	r3, #4
 5835 0084 05D0     		beq	.L833
 5836 0086 082B     		cmp	r3, #8
 5837 0088 07D0     		beq	.L834
 5838 008a 94F84520 		ldrb	r2, [r4, #69]	@ zero_extendqisi2
 5839 008e D2B2     		uxtb	r2, r2
 5840 0090 C2E7     		b	.L815
 5841              	.L833:
 5842 0092 94F84320 		ldrb	r2, [r4, #67]	@ zero_extendqisi2
 5843 0096 D2B2     		uxtb	r2, r2
 5844 0098 BEE7     		b	.L815
 5845              	.L834:
 5846 009a 94F84420 		ldrb	r2, [r4, #68]	@ zero_extendqisi2
 5847 009e D2B2     		uxtb	r2, r2
 5848 00a0 BAE7     		b	.L815
 5849              	.L819:
 5850 00a2 042B     		cmp	r3, #4
ARM GAS  /tmp/ccJhWMjo.s 			page 100


 5851 00a4 0CD0     		beq	.L835
 5852 00a6 082B     		cmp	r3, #8
 5853 00a8 0ED0     		beq	.L836
 5854 00aa 0222     		movs	r2, #2
 5855 00ac 84F84120 		strb	r2, [r4, #65]
 5856              	.L822:
 5857 00b0 042B     		cmp	r3, #4
 5858 00b2 0DD0     		beq	.L837
 5859 00b4 082B     		cmp	r3, #8
 5860 00b6 0FD0     		beq	.L838
 5861 00b8 0222     		movs	r2, #2
 5862 00ba 84F84520 		strb	r2, [r4, #69]
 5863 00be B6E7     		b	.L820
 5864              	.L835:
 5865 00c0 0222     		movs	r2, #2
 5866 00c2 84F83F20 		strb	r2, [r4, #63]
 5867 00c6 F3E7     		b	.L822
 5868              	.L836:
 5869 00c8 0222     		movs	r2, #2
 5870 00ca 84F84020 		strb	r2, [r4, #64]
 5871 00ce EFE7     		b	.L822
 5872              	.L837:
 5873 00d0 0222     		movs	r2, #2
 5874 00d2 84F84320 		strb	r2, [r4, #67]
 5875 00d6 AAE7     		b	.L820
 5876              	.L838:
 5877 00d8 0222     		movs	r2, #2
 5878 00da 84F84420 		strb	r2, [r4, #68]
 5879 00de A6E7     		b	.L820
 5880              	.L826:
 5881 00e0 9A68     		ldr	r2, [r3, #8]
 5882 00e2 02F00702 		and	r2, r2, #7
 5883 00e6 062A     		cmp	r2, #6
 5884 00e8 07D0     		beq	.L829
 5885 00ea 1A68     		ldr	r2, [r3]
 5886 00ec 42F00102 		orr	r2, r2, #1
 5887 00f0 1A60     		str	r2, [r3]
 5888 00f2 0020     		movs	r0, #0
 5889 00f4 00E0     		b	.L818
 5890              	.L828:
 5891 00f6 0120     		movs	r0, #1
 5892              	.L818:
 5893 00f8 10BD     		pop	{r4, pc}
 5894              	.L829:
 5895 00fa 0020     		movs	r0, #0
 5896 00fc FCE7     		b	.L818
 5897              	.L840:
 5898 00fe 00BF     		.align	2
 5899              	.L839:
 5900 0100 002C0140 		.word	1073818624
 5902              		.section	.text.HAL_TIM_IC_Stop,"ax",%progbits
 5903              		.align	1
 5904              		.global	HAL_TIM_IC_Stop
 5905              		.syntax unified
 5906              		.thumb
 5907              		.thumb_func
 5909              	HAL_TIM_IC_Stop:
ARM GAS  /tmp/ccJhWMjo.s 			page 101


 5910              		@ args = 0, pretend = 0, frame = 0
 5911              		@ frame_needed = 0, uses_anonymous_args = 0
 5912 0000 38B5     		push	{r3, r4, r5, lr}
 5913 0002 0446     		mov	r4, r0
 5914 0004 0D46     		mov	r5, r1
 5915 0006 0022     		movs	r2, #0
 5916 0008 0068     		ldr	r0, [r0]
 5917 000a FFF7FEFF 		bl	TIM_CCxChannelCmd
 5918 000e 2368     		ldr	r3, [r4]
 5919 0010 196A     		ldr	r1, [r3, #32]
 5920 0012 41F21112 		movw	r2, #4369
 5921 0016 1142     		tst	r1, r2
 5922 0018 08D1     		bne	.L842
 5923 001a 196A     		ldr	r1, [r3, #32]
 5924 001c 40F24442 		movw	r2, #1092
 5925 0020 1142     		tst	r1, r2
 5926 0022 03D1     		bne	.L842
 5927 0024 1A68     		ldr	r2, [r3]
 5928 0026 22F00102 		bic	r2, r2, #1
 5929 002a 1A60     		str	r2, [r3]
 5930              	.L842:
 5931 002c 35B9     		cbnz	r5, .L843
 5932 002e 0123     		movs	r3, #1
 5933 0030 84F83E30 		strb	r3, [r4, #62]
 5934 0034 84F84230 		strb	r3, [r4, #66]
 5935              	.L844:
 5936 0038 0020     		movs	r0, #0
 5937 003a 38BD     		pop	{r3, r4, r5, pc}
 5938              	.L843:
 5939 003c 042D     		cmp	r5, #4
 5940 003e 0CD0     		beq	.L851
 5941 0040 082D     		cmp	r5, #8
 5942 0042 0ED0     		beq	.L852
 5943 0044 0123     		movs	r3, #1
 5944 0046 84F84130 		strb	r3, [r4, #65]
 5945              	.L846:
 5946 004a 042D     		cmp	r5, #4
 5947 004c 0DD0     		beq	.L853
 5948 004e 082D     		cmp	r5, #8
 5949 0050 0FD0     		beq	.L854
 5950 0052 0123     		movs	r3, #1
 5951 0054 84F84530 		strb	r3, [r4, #69]
 5952 0058 EEE7     		b	.L844
 5953              	.L851:
 5954 005a 0123     		movs	r3, #1
 5955 005c 84F83F30 		strb	r3, [r4, #63]
 5956 0060 F3E7     		b	.L846
 5957              	.L852:
 5958 0062 0123     		movs	r3, #1
 5959 0064 84F84030 		strb	r3, [r4, #64]
 5960 0068 EFE7     		b	.L846
 5961              	.L853:
 5962 006a 0123     		movs	r3, #1
 5963 006c 84F84330 		strb	r3, [r4, #67]
 5964 0070 E2E7     		b	.L844
 5965              	.L854:
 5966 0072 0123     		movs	r3, #1
ARM GAS  /tmp/ccJhWMjo.s 			page 102


 5967 0074 84F84430 		strb	r3, [r4, #68]
 5968 0078 DEE7     		b	.L844
 5970              		.section	.text.HAL_TIM_IC_Start_IT,"ax",%progbits
 5971              		.align	1
 5972              		.global	HAL_TIM_IC_Start_IT
 5973              		.syntax unified
 5974              		.thumb
 5975              		.thumb_func
 5977              	HAL_TIM_IC_Start_IT:
 5978              		@ args = 0, pretend = 0, frame = 0
 5979              		@ frame_needed = 0, uses_anonymous_args = 0
 5980 0000 10B5     		push	{r4, lr}
 5981 0002 0446     		mov	r4, r0
 5982 0004 0B46     		mov	r3, r1
 5983 0006 F1B9     		cbnz	r1, .L856
 5984 0008 90F83E00 		ldrb	r0, [r0, #62]	@ zero_extendqisi2
 5985 000c C0B2     		uxtb	r0, r0
 5986              	.L857:
 5987 000e 53BB     		cbnz	r3, .L860
 5988 0010 94F84220 		ldrb	r2, [r4, #66]	@ zero_extendqisi2
 5989 0014 D2B2     		uxtb	r2, r2
 5990              	.L861:
 5991 0016 0128     		cmp	r0, #1
 5992 0018 40F08E80 		bne	.L880
 5993 001c 012A     		cmp	r2, #1
 5994 001e 40F08C80 		bne	.L864
 5995 0022 83BB     		cbnz	r3, .L865
 5996 0024 0221     		movs	r1, #2
 5997 0026 84F83E10 		strb	r1, [r4, #62]
 5998 002a 84F84210 		strb	r1, [r4, #66]
 5999              	.L866:
 6000 002e 0C2B     		cmp	r3, #12
 6001 0030 00F28480 		bhi	.L881
 6002 0034 DFE803F0 		tbb	[pc, r3]
 6003              	.L875:
 6004 0038 69       		.byte	(.L876-.L875)/2
 6005 0039 82       		.byte	(.L881-.L875)/2
 6006 003a 82       		.byte	(.L881-.L875)/2
 6007 003b 82       		.byte	(.L881-.L875)/2
 6008 003c 41       		.byte	(.L871-.L875)/2
 6009 003d 82       		.byte	(.L881-.L875)/2
 6010 003e 82       		.byte	(.L881-.L875)/2
 6011 003f 82       		.byte	(.L881-.L875)/2
 6012 0040 63       		.byte	(.L873-.L875)/2
 6013 0041 82       		.byte	(.L881-.L875)/2
 6014 0042 82       		.byte	(.L881-.L875)/2
 6015 0043 82       		.byte	(.L881-.L875)/2
 6016 0044 6F       		.byte	(.L874-.L875)/2
 6017 0045 00       		.p2align 1
 6018              	.L856:
 6019 0046 0429     		cmp	r1, #4
 6020 0048 05D0     		beq	.L886
 6021 004a 0829     		cmp	r1, #8
 6022 004c 07D0     		beq	.L887
 6023 004e 90F84100 		ldrb	r0, [r0, #65]	@ zero_extendqisi2
 6024 0052 C0B2     		uxtb	r0, r0
 6025 0054 DBE7     		b	.L857
ARM GAS  /tmp/ccJhWMjo.s 			page 103


 6026              	.L886:
 6027 0056 90F83F00 		ldrb	r0, [r0, #63]	@ zero_extendqisi2
 6028 005a C0B2     		uxtb	r0, r0
 6029 005c D7E7     		b	.L857
 6030              	.L887:
 6031 005e 90F84000 		ldrb	r0, [r0, #64]	@ zero_extendqisi2
 6032 0062 C0B2     		uxtb	r0, r0
 6033 0064 D3E7     		b	.L857
 6034              	.L860:
 6035 0066 042B     		cmp	r3, #4
 6036 0068 05D0     		beq	.L888
 6037 006a 082B     		cmp	r3, #8
 6038 006c 07D0     		beq	.L889
 6039 006e 94F84520 		ldrb	r2, [r4, #69]	@ zero_extendqisi2
 6040 0072 D2B2     		uxtb	r2, r2
 6041 0074 CFE7     		b	.L861
 6042              	.L888:
 6043 0076 94F84320 		ldrb	r2, [r4, #67]	@ zero_extendqisi2
 6044 007a D2B2     		uxtb	r2, r2
 6045 007c CBE7     		b	.L861
 6046              	.L889:
 6047 007e 94F84420 		ldrb	r2, [r4, #68]	@ zero_extendqisi2
 6048 0082 D2B2     		uxtb	r2, r2
 6049 0084 C7E7     		b	.L861
 6050              	.L865:
 6051 0086 042B     		cmp	r3, #4
 6052 0088 0CD0     		beq	.L890
 6053 008a 082B     		cmp	r3, #8
 6054 008c 0ED0     		beq	.L891
 6055 008e 0221     		movs	r1, #2
 6056 0090 84F84110 		strb	r1, [r4, #65]
 6057              	.L868:
 6058 0094 042B     		cmp	r3, #4
 6059 0096 0DD0     		beq	.L892
 6060 0098 082B     		cmp	r3, #8
 6061 009a 2DD0     		beq	.L893
 6062 009c 0221     		movs	r1, #2
 6063 009e 84F84510 		strb	r1, [r4, #69]
 6064 00a2 C4E7     		b	.L866
 6065              	.L890:
 6066 00a4 0221     		movs	r1, #2
 6067 00a6 84F83F10 		strb	r1, [r4, #63]
 6068 00aa F3E7     		b	.L868
 6069              	.L891:
 6070 00ac 0221     		movs	r1, #2
 6071 00ae 84F84010 		strb	r1, [r4, #64]
 6072 00b2 EFE7     		b	.L868
 6073              	.L892:
 6074 00b4 0222     		movs	r2, #2
 6075 00b6 84F84320 		strb	r2, [r4, #67]
 6076              	.L871:
 6077 00ba 2168     		ldr	r1, [r4]
 6078 00bc CA68     		ldr	r2, [r1, #12]
 6079 00be 42F00402 		orr	r2, r2, #4
 6080 00c2 CA60     		str	r2, [r1, #12]
 6081              	.L877:
 6082 00c4 0122     		movs	r2, #1
ARM GAS  /tmp/ccJhWMjo.s 			page 104


 6083 00c6 1946     		mov	r1, r3
 6084 00c8 2068     		ldr	r0, [r4]
 6085 00ca FFF7FEFF 		bl	TIM_CCxChannelCmd
 6086 00ce 2368     		ldr	r3, [r4]
 6087 00d0 1C4A     		ldr	r2, .L894
 6088 00d2 9342     		cmp	r3, r2
 6089 00d4 25D0     		beq	.L878
 6090 00d6 B3F1804F 		cmp	r3, #1073741824
 6091 00da 22D0     		beq	.L878
 6092 00dc A2F59432 		sub	r2, r2, #75776
 6093 00e0 9342     		cmp	r3, r2
 6094 00e2 1ED0     		beq	.L878
 6095 00e4 02F58062 		add	r2, r2, #1024
 6096 00e8 9342     		cmp	r3, r2
 6097 00ea 1AD0     		beq	.L878
 6098 00ec 1A68     		ldr	r2, [r3]
 6099 00ee 42F00102 		orr	r2, r2, #1
 6100 00f2 1A60     		str	r2, [r3]
 6101 00f4 0020     		movs	r0, #0
 6102 00f6 20E0     		b	.L864
 6103              	.L893:
 6104 00f8 0222     		movs	r2, #2
 6105 00fa 84F84420 		strb	r2, [r4, #68]
 6106              	.L873:
 6107 00fe 2168     		ldr	r1, [r4]
 6108 0100 CA68     		ldr	r2, [r1, #12]
 6109 0102 42F00802 		orr	r2, r2, #8
 6110 0106 CA60     		str	r2, [r1, #12]
 6111 0108 DCE7     		b	.L877
 6112              	.L876:
 6113 010a 2168     		ldr	r1, [r4]
 6114 010c CA68     		ldr	r2, [r1, #12]
 6115 010e 42F00202 		orr	r2, r2, #2
 6116 0112 CA60     		str	r2, [r1, #12]
 6117 0114 D6E7     		b	.L877
 6118              	.L874:
 6119 0116 2168     		ldr	r1, [r4]
 6120 0118 CA68     		ldr	r2, [r1, #12]
 6121 011a 42F01002 		orr	r2, r2, #16
 6122 011e CA60     		str	r2, [r1, #12]
 6123 0120 D0E7     		b	.L877
 6124              	.L878:
 6125 0122 9A68     		ldr	r2, [r3, #8]
 6126 0124 02F00702 		and	r2, r2, #7
 6127 0128 062A     		cmp	r2, #6
 6128 012a 09D0     		beq	.L882
 6129 012c 1A68     		ldr	r2, [r3]
 6130 012e 42F00102 		orr	r2, r2, #1
 6131 0132 1A60     		str	r2, [r3]
 6132 0134 0020     		movs	r0, #0
 6133 0136 00E0     		b	.L864
 6134              	.L880:
 6135 0138 0120     		movs	r0, #1
 6136              	.L864:
 6137 013a 10BD     		pop	{r4, pc}
 6138              	.L881:
 6139 013c 1046     		mov	r0, r2
ARM GAS  /tmp/ccJhWMjo.s 			page 105


 6140 013e FCE7     		b	.L864
 6141              	.L882:
 6142 0140 0020     		movs	r0, #0
 6143 0142 FAE7     		b	.L864
 6144              	.L895:
 6145              		.align	2
 6146              	.L894:
 6147 0144 002C0140 		.word	1073818624
 6149              		.section	.text.HAL_TIM_IC_Stop_IT,"ax",%progbits
 6150              		.align	1
 6151              		.global	HAL_TIM_IC_Stop_IT
 6152              		.syntax unified
 6153              		.thumb
 6154              		.thumb_func
 6156              	HAL_TIM_IC_Stop_IT:
 6157              		@ args = 0, pretend = 0, frame = 0
 6158              		@ frame_needed = 0, uses_anonymous_args = 0
 6159 0000 38B5     		push	{r3, r4, r5, lr}
 6160 0002 0546     		mov	r5, r0
 6161 0004 0C46     		mov	r4, r1
 6162 0006 0C29     		cmp	r1, #12
 6163 0008 5DD8     		bhi	.L911
 6164 000a DFE801F0 		tbb	[pc, r1]
 6165              	.L899:
 6166 000e 07       		.byte	(.L902-.L899)/2
 6167 000f 5C       		.byte	(.L911-.L899)/2
 6168 0010 5C       		.byte	(.L911-.L899)/2
 6169 0011 5C       		.byte	(.L911-.L899)/2
 6170 0012 28       		.byte	(.L901-.L899)/2
 6171 0013 5C       		.byte	(.L911-.L899)/2
 6172 0014 5C       		.byte	(.L911-.L899)/2
 6173 0015 5C       		.byte	(.L911-.L899)/2
 6174 0016 2E       		.byte	(.L900-.L899)/2
 6175 0017 5C       		.byte	(.L911-.L899)/2
 6176 0018 5C       		.byte	(.L911-.L899)/2
 6177 0019 5C       		.byte	(.L911-.L899)/2
 6178 001a 34       		.byte	(.L898-.L899)/2
 6179 001b 00       		.p2align 1
 6180              	.L902:
 6181 001c 0268     		ldr	r2, [r0]
 6182 001e D368     		ldr	r3, [r2, #12]
 6183 0020 23F00203 		bic	r3, r3, #2
 6184 0024 D360     		str	r3, [r2, #12]
 6185              	.L903:
 6186 0026 0022     		movs	r2, #0
 6187 0028 2146     		mov	r1, r4
 6188 002a 2868     		ldr	r0, [r5]
 6189 002c FFF7FEFF 		bl	TIM_CCxChannelCmd
 6190 0030 2B68     		ldr	r3, [r5]
 6191 0032 196A     		ldr	r1, [r3, #32]
 6192 0034 41F21112 		movw	r2, #4369
 6193 0038 1142     		tst	r1, r2
 6194 003a 08D1     		bne	.L904
 6195 003c 196A     		ldr	r1, [r3, #32]
 6196 003e 40F24442 		movw	r2, #1092
 6197 0042 1142     		tst	r1, r2
 6198 0044 03D1     		bne	.L904
ARM GAS  /tmp/ccJhWMjo.s 			page 106


 6199 0046 1A68     		ldr	r2, [r3]
 6200 0048 22F00102 		bic	r2, r2, #1
 6201 004c 1A60     		str	r2, [r3]
 6202              	.L904:
 6203 004e C4B9     		cbnz	r4, .L905
 6204 0050 0123     		movs	r3, #1
 6205 0052 85F83E30 		strb	r3, [r5, #62]
 6206 0056 85F84230 		strb	r3, [r5, #66]
 6207 005a 0020     		movs	r0, #0
 6208 005c 34E0     		b	.L897
 6209              	.L901:
 6210 005e 0268     		ldr	r2, [r0]
 6211 0060 D368     		ldr	r3, [r2, #12]
 6212 0062 23F00403 		bic	r3, r3, #4
 6213 0066 D360     		str	r3, [r2, #12]
 6214 0068 DDE7     		b	.L903
 6215              	.L900:
 6216 006a 0268     		ldr	r2, [r0]
 6217 006c D368     		ldr	r3, [r2, #12]
 6218 006e 23F00803 		bic	r3, r3, #8
 6219 0072 D360     		str	r3, [r2, #12]
 6220 0074 D7E7     		b	.L903
 6221              	.L898:
 6222 0076 0268     		ldr	r2, [r0]
 6223 0078 D368     		ldr	r3, [r2, #12]
 6224 007a 23F01003 		bic	r3, r3, #16
 6225 007e D360     		str	r3, [r2, #12]
 6226 0080 D1E7     		b	.L903
 6227              	.L905:
 6228 0082 042C     		cmp	r4, #4
 6229 0084 0DD0     		beq	.L913
 6230 0086 082C     		cmp	r4, #8
 6231 0088 0FD0     		beq	.L914
 6232 008a 0123     		movs	r3, #1
 6233 008c 85F84130 		strb	r3, [r5, #65]
 6234              	.L907:
 6235 0090 042C     		cmp	r4, #4
 6236 0092 0ED0     		beq	.L915
 6237 0094 082C     		cmp	r4, #8
 6238 0096 11D0     		beq	.L916
 6239 0098 0123     		movs	r3, #1
 6240 009a 85F84530 		strb	r3, [r5, #69]
 6241 009e 0020     		movs	r0, #0
 6242 00a0 12E0     		b	.L897
 6243              	.L913:
 6244 00a2 0123     		movs	r3, #1
 6245 00a4 85F83F30 		strb	r3, [r5, #63]
 6246 00a8 F2E7     		b	.L907
 6247              	.L914:
 6248 00aa 0123     		movs	r3, #1
 6249 00ac 85F84030 		strb	r3, [r5, #64]
 6250 00b0 EEE7     		b	.L907
 6251              	.L915:
 6252 00b2 0123     		movs	r3, #1
 6253 00b4 85F84330 		strb	r3, [r5, #67]
 6254 00b8 0020     		movs	r0, #0
 6255 00ba 05E0     		b	.L897
ARM GAS  /tmp/ccJhWMjo.s 			page 107


 6256              	.L916:
 6257 00bc 0123     		movs	r3, #1
 6258 00be 85F84430 		strb	r3, [r5, #68]
 6259 00c2 0020     		movs	r0, #0
 6260 00c4 00E0     		b	.L897
 6261              	.L911:
 6262 00c6 0120     		movs	r0, #1
 6263              	.L897:
 6264 00c8 38BD     		pop	{r3, r4, r5, pc}
 6266              		.section	.text.HAL_TIM_IC_Start_DMA,"ax",%progbits
 6267              		.align	1
 6268              		.global	HAL_TIM_IC_Start_DMA
 6269              		.syntax unified
 6270              		.thumb
 6271              		.thumb_func
 6273              	HAL_TIM_IC_Start_DMA:
 6274              		@ args = 0, pretend = 0, frame = 0
 6275              		@ frame_needed = 0, uses_anonymous_args = 0
 6276 0000 2DE9F041 		push	{r4, r5, r6, r7, r8, lr}
 6277 0004 0446     		mov	r4, r0
 6278 0006 1646     		mov	r6, r2
 6279 0008 1F46     		mov	r7, r3
 6280 000a 0D46     		mov	r5, r1
 6281 000c 99BB     		cbnz	r1, .L918
 6282 000e 90F83E10 		ldrb	r1, [r0, #62]	@ zero_extendqisi2
 6283 0012 C8B2     		uxtb	r0, r1
 6284              	.L919:
 6285 0014 002D     		cmp	r5, #0
 6286 0016 3ED1     		bne	.L922
 6287 0018 94F84280 		ldrb	r8, [r4, #66]	@ zero_extendqisi2
 6288 001c 5FFA88F8 		uxtb	r8, r8
 6289              	.L923:
 6290 0020 0228     		cmp	r0, #2
 6291 0022 00F0EF80 		beq	.L926
 6292 0026 B8F1020F 		cmp	r8, #2
 6293 002a 00F0E880 		beq	.L942
 6294 002e 0128     		cmp	r0, #1
 6295 0030 40F0E780 		bne	.L943
 6296 0034 B8F1010F 		cmp	r8, #1
 6297 0038 40F0E480 		bne	.L926
 6298 003c 002E     		cmp	r6, #0
 6299 003e 00F0E380 		beq	.L944
 6300 0042 002F     		cmp	r7, #0
 6301 0044 00F0E280 		beq	.L945
 6302 0048 002D     		cmp	r5, #0
 6303 004a 37D1     		bne	.L927
 6304 004c 0223     		movs	r3, #2
 6305 004e 84F83E30 		strb	r3, [r4, #62]
 6306 0052 84F84230 		strb	r3, [r4, #66]
 6307              	.L928:
 6308 0056 0122     		movs	r2, #1
 6309 0058 2946     		mov	r1, r5
 6310 005a 2068     		ldr	r0, [r4]
 6311 005c FFF7FEFF 		bl	TIM_CCxChannelCmd
 6312 0060 0C2D     		cmp	r5, #12
 6313 0062 62D8     		bhi	.L934
 6314 0064 DFE805F0 		tbb	[pc, r5]
ARM GAS  /tmp/ccJhWMjo.s 			page 108


 6315              	.L936:
 6316 0068 49       		.byte	(.L939-.L936)/2
 6317 0069 61       		.byte	(.L934-.L936)/2
 6318 006a 61       		.byte	(.L934-.L936)/2
 6319 006b 61       		.byte	(.L934-.L936)/2
 6320 006c 76       		.byte	(.L938-.L936)/2
 6321 006d 61       		.byte	(.L934-.L936)/2
 6322 006e 61       		.byte	(.L934-.L936)/2
 6323 006f 61       		.byte	(.L934-.L936)/2
 6324 0070 8F       		.byte	(.L937-.L936)/2
 6325 0071 61       		.byte	(.L934-.L936)/2
 6326 0072 61       		.byte	(.L934-.L936)/2
 6327 0073 61       		.byte	(.L934-.L936)/2
 6328 0074 A8       		.byte	(.L935-.L936)/2
 6329 0075 00       		.p2align 1
 6330              	.L918:
 6331 0076 0429     		cmp	r1, #4
 6332 0078 05D0     		beq	.L953
 6333 007a 0829     		cmp	r1, #8
 6334 007c 07D0     		beq	.L954
 6335 007e 90F84110 		ldrb	r1, [r0, #65]	@ zero_extendqisi2
 6336 0082 C8B2     		uxtb	r0, r1
 6337 0084 C6E7     		b	.L919
 6338              	.L953:
 6339 0086 90F83F10 		ldrb	r1, [r0, #63]	@ zero_extendqisi2
 6340 008a C8B2     		uxtb	r0, r1
 6341 008c C2E7     		b	.L919
 6342              	.L954:
 6343 008e 90F84000 		ldrb	r0, [r0, #64]	@ zero_extendqisi2
 6344 0092 C0B2     		uxtb	r0, r0
 6345 0094 BEE7     		b	.L919
 6346              	.L922:
 6347 0096 042D     		cmp	r5, #4
 6348 0098 06D0     		beq	.L955
 6349 009a 082D     		cmp	r5, #8
 6350 009c 09D0     		beq	.L956
 6351 009e 94F84580 		ldrb	r8, [r4, #69]	@ zero_extendqisi2
 6352 00a2 5FFA88F8 		uxtb	r8, r8
 6353 00a6 BBE7     		b	.L923
 6354              	.L955:
 6355 00a8 94F84380 		ldrb	r8, [r4, #67]	@ zero_extendqisi2
 6356 00ac 5FFA88F8 		uxtb	r8, r8
 6357 00b0 B6E7     		b	.L923
 6358              	.L956:
 6359 00b2 94F84480 		ldrb	r8, [r4, #68]	@ zero_extendqisi2
 6360 00b6 5FFA88F8 		uxtb	r8, r8
 6361 00ba B1E7     		b	.L923
 6362              	.L927:
 6363 00bc 042D     		cmp	r5, #4
 6364 00be 0CD0     		beq	.L957
 6365 00c0 082D     		cmp	r5, #8
 6366 00c2 0ED0     		beq	.L958
 6367 00c4 0223     		movs	r3, #2
 6368 00c6 84F84130 		strb	r3, [r4, #65]
 6369              	.L930:
 6370 00ca 042D     		cmp	r5, #4
 6371 00cc 0DD0     		beq	.L959
ARM GAS  /tmp/ccJhWMjo.s 			page 109


 6372 00ce 082D     		cmp	r5, #8
 6373 00d0 0FD0     		beq	.L960
 6374 00d2 0223     		movs	r3, #2
 6375 00d4 84F84530 		strb	r3, [r4, #69]
 6376 00d8 BDE7     		b	.L928
 6377              	.L957:
 6378 00da 0223     		movs	r3, #2
 6379 00dc 84F83F30 		strb	r3, [r4, #63]
 6380 00e0 F3E7     		b	.L930
 6381              	.L958:
 6382 00e2 0223     		movs	r3, #2
 6383 00e4 84F84030 		strb	r3, [r4, #64]
 6384 00e8 EFE7     		b	.L930
 6385              	.L959:
 6386 00ea 0223     		movs	r3, #2
 6387 00ec 84F84330 		strb	r3, [r4, #67]
 6388 00f0 B1E7     		b	.L928
 6389              	.L960:
 6390 00f2 0223     		movs	r3, #2
 6391 00f4 84F84430 		strb	r3, [r4, #68]
 6392 00f8 ADE7     		b	.L928
 6393              	.L939:
 6394 00fa 636A     		ldr	r3, [r4, #36]
 6395 00fc 494A     		ldr	r2, .L961
 6396 00fe 9A62     		str	r2, [r3, #40]
 6397 0100 636A     		ldr	r3, [r4, #36]
 6398 0102 494A     		ldr	r2, .L961+4
 6399 0104 DA62     		str	r2, [r3, #44]
 6400 0106 636A     		ldr	r3, [r4, #36]
 6401 0108 484A     		ldr	r2, .L961+8
 6402 010a 1A63     		str	r2, [r3, #48]
 6403 010c 2168     		ldr	r1, [r4]
 6404 010e 3B46     		mov	r3, r7
 6405 0110 3246     		mov	r2, r6
 6406 0112 3431     		adds	r1, r1, #52
 6407 0114 606A     		ldr	r0, [r4, #36]
 6408 0116 FFF7FEFF 		bl	HAL_DMA_Start_IT
 6409 011a 0028     		cmp	r0, #0
 6410 011c 78D1     		bne	.L946
 6411 011e 2268     		ldr	r2, [r4]
 6412 0120 D368     		ldr	r3, [r2, #12]
 6413 0122 43F40073 		orr	r3, r3, #512
 6414 0126 D360     		str	r3, [r2, #12]
 6415 0128 8046     		mov	r8, r0
 6416              	.L934:
 6417 012a 2368     		ldr	r3, [r4]
 6418 012c 404A     		ldr	r2, .L961+12
 6419 012e 9342     		cmp	r3, r2
 6420 0130 5AD0     		beq	.L940
 6421 0132 B3F1804F 		cmp	r3, #1073741824
 6422 0136 57D0     		beq	.L940
 6423 0138 A2F59432 		sub	r2, r2, #75776
 6424 013c 9342     		cmp	r3, r2
 6425 013e 53D0     		beq	.L940
 6426 0140 02F58062 		add	r2, r2, #1024
 6427 0144 9342     		cmp	r3, r2
 6428 0146 4FD0     		beq	.L940
ARM GAS  /tmp/ccJhWMjo.s 			page 110


 6429 0148 1A68     		ldr	r2, [r3]
 6430 014a 42F00102 		orr	r2, r2, #1
 6431 014e 1A60     		str	r2, [r3]
 6432 0150 4046     		mov	r0, r8
 6433 0152 57E0     		b	.L926
 6434              	.L938:
 6435 0154 A36A     		ldr	r3, [r4, #40]
 6436 0156 334A     		ldr	r2, .L961
 6437 0158 9A62     		str	r2, [r3, #40]
 6438 015a A36A     		ldr	r3, [r4, #40]
 6439 015c 324A     		ldr	r2, .L961+4
 6440 015e DA62     		str	r2, [r3, #44]
 6441 0160 A36A     		ldr	r3, [r4, #40]
 6442 0162 324A     		ldr	r2, .L961+8
 6443 0164 1A63     		str	r2, [r3, #48]
 6444 0166 2168     		ldr	r1, [r4]
 6445 0168 3B46     		mov	r3, r7
 6446 016a 3246     		mov	r2, r6
 6447 016c 3831     		adds	r1, r1, #56
 6448 016e A06A     		ldr	r0, [r4, #40]
 6449 0170 FFF7FEFF 		bl	HAL_DMA_Start_IT
 6450 0174 0028     		cmp	r0, #0
 6451 0176 4DD1     		bne	.L947
 6452 0178 2268     		ldr	r2, [r4]
 6453 017a D368     		ldr	r3, [r2, #12]
 6454 017c 43F48063 		orr	r3, r3, #1024
 6455 0180 D360     		str	r3, [r2, #12]
 6456 0182 8046     		mov	r8, r0
 6457 0184 D1E7     		b	.L934
 6458              	.L937:
 6459 0186 E36A     		ldr	r3, [r4, #44]
 6460 0188 264A     		ldr	r2, .L961
 6461 018a 9A62     		str	r2, [r3, #40]
 6462 018c E36A     		ldr	r3, [r4, #44]
 6463 018e 264A     		ldr	r2, .L961+4
 6464 0190 DA62     		str	r2, [r3, #44]
 6465 0192 E36A     		ldr	r3, [r4, #44]
 6466 0194 254A     		ldr	r2, .L961+8
 6467 0196 1A63     		str	r2, [r3, #48]
 6468 0198 2168     		ldr	r1, [r4]
 6469 019a 3B46     		mov	r3, r7
 6470 019c 3246     		mov	r2, r6
 6471 019e 3C31     		adds	r1, r1, #60
 6472 01a0 E06A     		ldr	r0, [r4, #44]
 6473 01a2 FFF7FEFF 		bl	HAL_DMA_Start_IT
 6474 01a6 0028     		cmp	r0, #0
 6475 01a8 36D1     		bne	.L948
 6476 01aa 2268     		ldr	r2, [r4]
 6477 01ac D368     		ldr	r3, [r2, #12]
 6478 01ae 43F40063 		orr	r3, r3, #2048
 6479 01b2 D360     		str	r3, [r2, #12]
 6480 01b4 8046     		mov	r8, r0
 6481 01b6 B8E7     		b	.L934
 6482              	.L935:
 6483 01b8 236B     		ldr	r3, [r4, #48]
 6484 01ba 1A4A     		ldr	r2, .L961
 6485 01bc 9A62     		str	r2, [r3, #40]
ARM GAS  /tmp/ccJhWMjo.s 			page 111


 6486 01be 236B     		ldr	r3, [r4, #48]
 6487 01c0 194A     		ldr	r2, .L961+4
 6488 01c2 DA62     		str	r2, [r3, #44]
 6489 01c4 236B     		ldr	r3, [r4, #48]
 6490 01c6 194A     		ldr	r2, .L961+8
 6491 01c8 1A63     		str	r2, [r3, #48]
 6492 01ca 2168     		ldr	r1, [r4]
 6493 01cc 3B46     		mov	r3, r7
 6494 01ce 3246     		mov	r2, r6
 6495 01d0 4031     		adds	r1, r1, #64
 6496 01d2 206B     		ldr	r0, [r4, #48]
 6497 01d4 FFF7FEFF 		bl	HAL_DMA_Start_IT
 6498 01d8 00BB     		cbnz	r0, .L949
 6499 01da 2268     		ldr	r2, [r4]
 6500 01dc D368     		ldr	r3, [r2, #12]
 6501 01de 43F48053 		orr	r3, r3, #4096
 6502 01e2 D360     		str	r3, [r2, #12]
 6503 01e4 8046     		mov	r8, r0
 6504 01e6 A0E7     		b	.L934
 6505              	.L940:
 6506 01e8 9A68     		ldr	r2, [r3, #8]
 6507 01ea 02F00702 		and	r2, r2, #7
 6508 01ee 062A     		cmp	r2, #6
 6509 01f0 16D0     		beq	.L950
 6510 01f2 1A68     		ldr	r2, [r3]
 6511 01f4 42F00102 		orr	r2, r2, #1
 6512 01f8 1A60     		str	r2, [r3]
 6513 01fa 4046     		mov	r0, r8
 6514 01fc 02E0     		b	.L926
 6515              	.L942:
 6516 01fe 4046     		mov	r0, r8
 6517 0200 00E0     		b	.L926
 6518              	.L943:
 6519 0202 0120     		movs	r0, #1
 6520              	.L926:
 6521 0204 BDE8F081 		pop	{r4, r5, r6, r7, r8, pc}
 6522              	.L944:
 6523 0208 4046     		mov	r0, r8
 6524 020a FBE7     		b	.L926
 6525              	.L945:
 6526 020c 4046     		mov	r0, r8
 6527 020e F9E7     		b	.L926
 6528              	.L946:
 6529 0210 4046     		mov	r0, r8
 6530 0212 F7E7     		b	.L926
 6531              	.L947:
 6532 0214 4046     		mov	r0, r8
 6533 0216 F5E7     		b	.L926
 6534              	.L948:
 6535 0218 4046     		mov	r0, r8
 6536 021a F3E7     		b	.L926
 6537              	.L949:
 6538 021c 4046     		mov	r0, r8
 6539 021e F1E7     		b	.L926
 6540              	.L950:
 6541 0220 4046     		mov	r0, r8
 6542 0222 EFE7     		b	.L926
ARM GAS  /tmp/ccJhWMjo.s 			page 112


 6543              	.L962:
 6544              		.align	2
 6545              	.L961:
 6546 0224 00000000 		.word	TIM_DMACaptureCplt
 6547 0228 00000000 		.word	TIM_DMACaptureHalfCplt
 6548 022c 00000000 		.word	TIM_DMAError
 6549 0230 002C0140 		.word	1073818624
 6551              		.section	.text.HAL_TIM_IC_Stop_DMA,"ax",%progbits
 6552              		.align	1
 6553              		.global	HAL_TIM_IC_Stop_DMA
 6554              		.syntax unified
 6555              		.thumb
 6556              		.thumb_func
 6558              	HAL_TIM_IC_Stop_DMA:
 6559              		@ args = 0, pretend = 0, frame = 0
 6560              		@ frame_needed = 0, uses_anonymous_args = 0
 6561 0000 38B5     		push	{r3, r4, r5, lr}
 6562 0002 0446     		mov	r4, r0
 6563 0004 0D46     		mov	r5, r1
 6564 0006 0022     		movs	r2, #0
 6565 0008 0068     		ldr	r0, [r0]
 6566 000a FFF7FEFF 		bl	TIM_CCxChannelCmd
 6567 000e 0C2D     		cmp	r5, #12
 6568 0010 64D8     		bhi	.L978
 6569 0012 DFE805F0 		tbb	[pc, r5]
 6570              	.L966:
 6571 0016 07       		.byte	(.L969-.L966)/2
 6572 0017 63       		.byte	(.L978-.L966)/2
 6573 0018 63       		.byte	(.L978-.L966)/2
 6574 0019 63       		.byte	(.L978-.L966)/2
 6575 001a 26       		.byte	(.L968-.L966)/2
 6576 001b 63       		.byte	(.L978-.L966)/2
 6577 001c 63       		.byte	(.L978-.L966)/2
 6578 001d 63       		.byte	(.L978-.L966)/2
 6579 001e 2F       		.byte	(.L967-.L966)/2
 6580 001f 63       		.byte	(.L978-.L966)/2
 6581 0020 63       		.byte	(.L978-.L966)/2
 6582 0021 63       		.byte	(.L978-.L966)/2
 6583 0022 38       		.byte	(.L965-.L966)/2
 6584 0023 00       		.p2align 1
 6585              	.L969:
 6586 0024 2268     		ldr	r2, [r4]
 6587 0026 D368     		ldr	r3, [r2, #12]
 6588 0028 23F40073 		bic	r3, r3, #512
 6589 002c D360     		str	r3, [r2, #12]
 6590 002e 606A     		ldr	r0, [r4, #36]
 6591 0030 FFF7FEFF 		bl	HAL_DMA_Abort_IT
 6592              	.L970:
 6593 0034 2368     		ldr	r3, [r4]
 6594 0036 196A     		ldr	r1, [r3, #32]
 6595 0038 41F21112 		movw	r2, #4369
 6596 003c 1142     		tst	r1, r2
 6597 003e 08D1     		bne	.L971
 6598 0040 196A     		ldr	r1, [r3, #32]
 6599 0042 40F24442 		movw	r2, #1092
 6600 0046 1142     		tst	r1, r2
 6601 0048 03D1     		bne	.L971
ARM GAS  /tmp/ccJhWMjo.s 			page 113


 6602 004a 1A68     		ldr	r2, [r3]
 6603 004c 22F00102 		bic	r2, r2, #1
 6604 0050 1A60     		str	r2, [r3]
 6605              	.L971:
 6606 0052 0DBB     		cbnz	r5, .L972
 6607 0054 0123     		movs	r3, #1
 6608 0056 84F83E30 		strb	r3, [r4, #62]
 6609 005a 84F84230 		strb	r3, [r4, #66]
 6610 005e 0020     		movs	r0, #0
 6611 0060 3DE0     		b	.L964
 6612              	.L968:
 6613 0062 2268     		ldr	r2, [r4]
 6614 0064 D368     		ldr	r3, [r2, #12]
 6615 0066 23F48063 		bic	r3, r3, #1024
 6616 006a D360     		str	r3, [r2, #12]
 6617 006c A06A     		ldr	r0, [r4, #40]
 6618 006e FFF7FEFF 		bl	HAL_DMA_Abort_IT
 6619 0072 DFE7     		b	.L970
 6620              	.L967:
 6621 0074 2268     		ldr	r2, [r4]
 6622 0076 D368     		ldr	r3, [r2, #12]
 6623 0078 23F40063 		bic	r3, r3, #2048
 6624 007c D360     		str	r3, [r2, #12]
 6625 007e E06A     		ldr	r0, [r4, #44]
 6626 0080 FFF7FEFF 		bl	HAL_DMA_Abort_IT
 6627 0084 D6E7     		b	.L970
 6628              	.L965:
 6629 0086 2268     		ldr	r2, [r4]
 6630 0088 D368     		ldr	r3, [r2, #12]
 6631 008a 23F48053 		bic	r3, r3, #4096
 6632 008e D360     		str	r3, [r2, #12]
 6633 0090 206B     		ldr	r0, [r4, #48]
 6634 0092 FFF7FEFF 		bl	HAL_DMA_Abort_IT
 6635 0096 CDE7     		b	.L970
 6636              	.L972:
 6637 0098 042D     		cmp	r5, #4
 6638 009a 0DD0     		beq	.L980
 6639 009c 082D     		cmp	r5, #8
 6640 009e 0FD0     		beq	.L981
 6641 00a0 0123     		movs	r3, #1
 6642 00a2 84F84130 		strb	r3, [r4, #65]
 6643              	.L974:
 6644 00a6 042D     		cmp	r5, #4
 6645 00a8 0ED0     		beq	.L982
 6646 00aa 082D     		cmp	r5, #8
 6647 00ac 11D0     		beq	.L983
 6648 00ae 0123     		movs	r3, #1
 6649 00b0 84F84530 		strb	r3, [r4, #69]
 6650 00b4 0020     		movs	r0, #0
 6651 00b6 12E0     		b	.L964
 6652              	.L980:
 6653 00b8 0123     		movs	r3, #1
 6654 00ba 84F83F30 		strb	r3, [r4, #63]
 6655 00be F2E7     		b	.L974
 6656              	.L981:
 6657 00c0 0123     		movs	r3, #1
 6658 00c2 84F84030 		strb	r3, [r4, #64]
ARM GAS  /tmp/ccJhWMjo.s 			page 114


 6659 00c6 EEE7     		b	.L974
 6660              	.L982:
 6661 00c8 0123     		movs	r3, #1
 6662 00ca 84F84330 		strb	r3, [r4, #67]
 6663 00ce 0020     		movs	r0, #0
 6664 00d0 05E0     		b	.L964
 6665              	.L983:
 6666 00d2 0123     		movs	r3, #1
 6667 00d4 84F84430 		strb	r3, [r4, #68]
 6668 00d8 0020     		movs	r0, #0
 6669 00da 00E0     		b	.L964
 6670              	.L978:
 6671 00dc 0120     		movs	r0, #1
 6672              	.L964:
 6673 00de 38BD     		pop	{r3, r4, r5, pc}
 6675              		.section	.text.HAL_TIM_OnePulse_Start,"ax",%progbits
 6676              		.align	1
 6677              		.global	HAL_TIM_OnePulse_Start
 6678              		.syntax unified
 6679              		.thumb
 6680              		.thumb_func
 6682              	HAL_TIM_OnePulse_Start:
 6683              		@ args = 0, pretend = 0, frame = 0
 6684              		@ frame_needed = 0, uses_anonymous_args = 0
 6685 0000 10B5     		push	{r4, lr}
 6686 0002 0446     		mov	r4, r0
 6687 0004 90F83E00 		ldrb	r0, [r0, #62]	@ zero_extendqisi2
 6688 0008 C0B2     		uxtb	r0, r0
 6689 000a 94F83F30 		ldrb	r3, [r4, #63]	@ zero_extendqisi2
 6690 000e 94F84220 		ldrb	r2, [r4, #66]	@ zero_extendqisi2
 6691 0012 94F84310 		ldrb	r1, [r4, #67]	@ zero_extendqisi2
 6692 0016 0128     		cmp	r0, #1
 6693 0018 28D1     		bne	.L986
 6694 001a DBB2     		uxtb	r3, r3
 6695 001c D2B2     		uxtb	r2, r2
 6696 001e C9B2     		uxtb	r1, r1
 6697 0020 012B     		cmp	r3, #1
 6698 0022 24D1     		bne	.L985
 6699 0024 012A     		cmp	r2, #1
 6700 0026 23D1     		bne	.L987
 6701 0028 0129     		cmp	r1, #1
 6702 002a 01D0     		beq	.L991
 6703 002c 1046     		mov	r0, r2
 6704 002e 1EE0     		b	.L985
 6705              	.L991:
 6706 0030 0223     		movs	r3, #2
 6707 0032 84F83E30 		strb	r3, [r4, #62]
 6708 0036 84F83F30 		strb	r3, [r4, #63]
 6709 003a 84F84230 		strb	r3, [r4, #66]
 6710 003e 84F84330 		strb	r3, [r4, #67]
 6711 0042 0021     		movs	r1, #0
 6712 0044 2068     		ldr	r0, [r4]
 6713 0046 FFF7FEFF 		bl	TIM_CCxChannelCmd
 6714 004a 0122     		movs	r2, #1
 6715 004c 0421     		movs	r1, #4
 6716 004e 2068     		ldr	r0, [r4]
 6717 0050 FFF7FEFF 		bl	TIM_CCxChannelCmd
ARM GAS  /tmp/ccJhWMjo.s 			page 115


 6718 0054 2368     		ldr	r3, [r4]
 6719 0056 074A     		ldr	r2, .L993
 6720 0058 9342     		cmp	r3, r2
 6721 005a 01D0     		beq	.L992
 6722 005c 0020     		movs	r0, #0
 6723 005e 06E0     		b	.L985
 6724              	.L992:
 6725 0060 5A6C     		ldr	r2, [r3, #68]
 6726 0062 42F40042 		orr	r2, r2, #32768
 6727 0066 5A64     		str	r2, [r3, #68]
 6728 0068 0020     		movs	r0, #0
 6729 006a 00E0     		b	.L985
 6730              	.L986:
 6731 006c 0120     		movs	r0, #1
 6732              	.L985:
 6733 006e 10BD     		pop	{r4, pc}
 6734              	.L987:
 6735 0070 1846     		mov	r0, r3
 6736 0072 FCE7     		b	.L985
 6737              	.L994:
 6738              		.align	2
 6739              	.L993:
 6740 0074 002C0140 		.word	1073818624
 6742              		.section	.text.HAL_TIM_OnePulse_Stop,"ax",%progbits
 6743              		.align	1
 6744              		.global	HAL_TIM_OnePulse_Stop
 6745              		.syntax unified
 6746              		.thumb
 6747              		.thumb_func
 6749              	HAL_TIM_OnePulse_Stop:
 6750              		@ args = 0, pretend = 0, frame = 0
 6751              		@ frame_needed = 0, uses_anonymous_args = 0
 6752 0000 10B5     		push	{r4, lr}
 6753 0002 0446     		mov	r4, r0
 6754 0004 0022     		movs	r2, #0
 6755 0006 1146     		mov	r1, r2
 6756 0008 0068     		ldr	r0, [r0]
 6757 000a FFF7FEFF 		bl	TIM_CCxChannelCmd
 6758 000e 0022     		movs	r2, #0
 6759 0010 0421     		movs	r1, #4
 6760 0012 2068     		ldr	r0, [r4]
 6761 0014 FFF7FEFF 		bl	TIM_CCxChannelCmd
 6762 0018 2368     		ldr	r3, [r4]
 6763 001a 164A     		ldr	r2, .L1000
 6764 001c 9342     		cmp	r3, r2
 6765 001e 19D0     		beq	.L999
 6766              	.L996:
 6767 0020 2368     		ldr	r3, [r4]
 6768 0022 196A     		ldr	r1, [r3, #32]
 6769 0024 41F21112 		movw	r2, #4369
 6770 0028 1142     		tst	r1, r2
 6771 002a 08D1     		bne	.L997
 6772 002c 196A     		ldr	r1, [r3, #32]
 6773 002e 40F24442 		movw	r2, #1092
 6774 0032 1142     		tst	r1, r2
 6775 0034 03D1     		bne	.L997
 6776 0036 1A68     		ldr	r2, [r3]
ARM GAS  /tmp/ccJhWMjo.s 			page 116


 6777 0038 22F00102 		bic	r2, r2, #1
 6778 003c 1A60     		str	r2, [r3]
 6779              	.L997:
 6780 003e 0123     		movs	r3, #1
 6781 0040 84F83E30 		strb	r3, [r4, #62]
 6782 0044 84F83F30 		strb	r3, [r4, #63]
 6783 0048 84F84230 		strb	r3, [r4, #66]
 6784 004c 84F84330 		strb	r3, [r4, #67]
 6785 0050 0020     		movs	r0, #0
 6786 0052 10BD     		pop	{r4, pc}
 6787              	.L999:
 6788 0054 196A     		ldr	r1, [r3, #32]
 6789 0056 41F21112 		movw	r2, #4369
 6790 005a 1142     		tst	r1, r2
 6791 005c E0D1     		bne	.L996
 6792 005e 196A     		ldr	r1, [r3, #32]
 6793 0060 40F24442 		movw	r2, #1092
 6794 0064 1142     		tst	r1, r2
 6795 0066 DBD1     		bne	.L996
 6796 0068 5A6C     		ldr	r2, [r3, #68]
 6797 006a 22F40042 		bic	r2, r2, #32768
