ARM GAS  /tmp/ccohHqgV.s 			page 1


   1              		.cpu cortex-m3
   2              		.arch armv7-m
   3              		.fpu softvfp
   4              		.eabi_attribute 20, 1
   5              		.eabi_attribute 21, 1
   6              		.eabi_attribute 23, 3
   7              		.eabi_attribute 24, 1
   8              		.eabi_attribute 25, 1
   9              		.eabi_attribute 26, 1
  10              		.eabi_attribute 30, 1
  11              		.eabi_attribute 34, 1
  12              		.eabi_attribute 18, 4
  13              		.file	"stm32f1xx_hal_flash_ex.c"
  14              		.text
  15              		.section	.text.FLASH_MassErase,"ax",%progbits
  16              		.align	1
  17              		.syntax unified
  18              		.thumb
  19              		.thumb_func
  21              	FLASH_MassErase:
  22              		@ args = 0, pretend = 0, frame = 0
  23              		@ frame_needed = 0, uses_anonymous_args = 0
  24              		@ link register save eliminated.
  25 0000 064B     		ldr	r3, .L2
  26 0002 0022     		movs	r2, #0
  27 0004 DA61     		str	r2, [r3, #28]
  28 0006 064B     		ldr	r3, .L2+4
  29 0008 1A69     		ldr	r2, [r3, #16]
  30 000a 42F00402 		orr	r2, r2, #4
  31 000e 1A61     		str	r2, [r3, #16]
  32 0010 1A69     		ldr	r2, [r3, #16]
  33 0012 42F04002 		orr	r2, r2, #64
  34 0016 1A61     		str	r2, [r3, #16]
  35 0018 7047     		bx	lr
  36              	.L3:
  37 001a 00BF     		.align	2
  38              	.L2:
  39 001c 00000000 		.word	pFlash
  40 0020 00200240 		.word	1073881088
  42              		.section	.text.FLASH_OB_GetWRP,"ax",%progbits
  43              		.align	1
  44              		.syntax unified
  45              		.thumb
  46              		.thumb_func
  48              	FLASH_OB_GetWRP:
  49              		@ args = 0, pretend = 0, frame = 0
  50              		@ frame_needed = 0, uses_anonymous_args = 0
  51              		@ link register save eliminated.
  52 0000 014B     		ldr	r3, .L5
  53 0002 186A     		ldr	r0, [r3, #32]
  54 0004 7047     		bx	lr
  55              	.L6:
  56 0006 00BF     		.align	2
  57              	.L5:
  58 0008 00200240 		.word	1073881088
  60              		.section	.text.FLASH_OB_GetRDP,"ax",%progbits
  61              		.align	1
ARM GAS  /tmp/ccohHqgV.s 			page 2


  62              		.syntax unified
  63              		.thumb
  64              		.thumb_func
  66              	FLASH_OB_GetRDP:
  67              		@ args = 0, pretend = 0, frame = 0
  68              		@ frame_needed = 0, uses_anonymous_args = 0
  69              		@ link register save eliminated.
  70 0000 044B     		ldr	r3, .L10
  71 0002 DB69     		ldr	r3, [r3, #28]
  72 0004 13F0020F 		tst	r3, #2
  73 0008 01D0     		beq	.L9
  74 000a 0020     		movs	r0, #0
  75 000c 7047     		bx	lr
  76              	.L9:
  77 000e A520     		movs	r0, #165
  78 0010 7047     		bx	lr
  79              	.L11:
  80 0012 00BF     		.align	2
  81              	.L10:
  82 0014 00200240 		.word	1073881088
  84              		.section	.text.FLASH_OB_GetUser,"ax",%progbits
  85              		.align	1
  86              		.syntax unified
  87              		.thumb
  88              		.thumb_func
  90              	FLASH_OB_GetUser:
  91              		@ args = 0, pretend = 0, frame = 0
  92              		@ frame_needed = 0, uses_anonymous_args = 0
  93              		@ link register save eliminated.
  94 0000 024B     		ldr	r3, .L13
  95 0002 D869     		ldr	r0, [r3, #28]
  96 0004 C0F38200 		ubfx	r0, r0, #2, #3
  97 0008 7047     		bx	lr
  98              	.L14:
  99 000a 00BF     		.align	2
 100              	.L13:
 101 000c 00200240 		.word	1073881088
 103              		.section	.text.FLASH_OB_RDP_LevelConfig,"ax",%progbits
 104              		.align	1
 105              		.syntax unified
 106              		.thumb
 107              		.thumb_func
 109              	FLASH_OB_RDP_LevelConfig:
 110              		@ args = 0, pretend = 0, frame = 0
 111              		@ frame_needed = 0, uses_anonymous_args = 0
 112 0000 38B5     		push	{r3, r4, r5, lr}
 113 0002 0546     		mov	r5, r0
 114 0004 4CF25030 		movw	r0, #50000
 115 0008 FFF7FEFF 		bl	FLASH_WaitForLastOperation
 116 000c 00B1     		cbz	r0, .L18
 117              	.L16:
 118 000e 38BD     		pop	{r3, r4, r5, pc}
 119              	.L18:
 120 0010 124B     		ldr	r3, .L19
 121 0012 0022     		movs	r2, #0
 122 0014 DA61     		str	r2, [r3, #28]
 123 0016 124C     		ldr	r4, .L19+4
ARM GAS  /tmp/ccohHqgV.s 			page 3


 124 0018 2369     		ldr	r3, [r4, #16]
 125 001a 43F02003 		orr	r3, r3, #32
 126 001e 2361     		str	r3, [r4, #16]
 127 0020 2369     		ldr	r3, [r4, #16]
 128 0022 43F04003 		orr	r3, r3, #64
 129 0026 2361     		str	r3, [r4, #16]
 130 0028 4CF25030 		movw	r0, #50000
 131 002c FFF7FEFF 		bl	FLASH_WaitForLastOperation
 132 0030 2369     		ldr	r3, [r4, #16]
 133 0032 23F02003 		bic	r3, r3, #32
 134 0036 2361     		str	r3, [r4, #16]
 135 0038 0028     		cmp	r0, #0
 136 003a E8D1     		bne	.L16
 137 003c 2369     		ldr	r3, [r4, #16]
 138 003e 43F01003 		orr	r3, r3, #16
 139 0042 2361     		str	r3, [r4, #16]
 140 0044 074B     		ldr	r3, .L19+8
 141 0046 1D80     		strh	r5, [r3]	@ movhi
 142 0048 4CF25030 		movw	r0, #50000
 143 004c FFF7FEFF 		bl	FLASH_WaitForLastOperation
 144 0050 2369     		ldr	r3, [r4, #16]
 145 0052 23F01003 		bic	r3, r3, #16
 146 0056 2361     		str	r3, [r4, #16]
 147 0058 D9E7     		b	.L16
 148              	.L20:
 149 005a 00BF     		.align	2
 150              	.L19:
 151 005c 00000000 		.word	pFlash
 152 0060 00200240 		.word	1073881088
 153 0064 00F8FF1F 		.word	536868864
 155              		.section	.text.FLASH_OB_UserConfig,"ax",%progbits
 156              		.align	1
 157              		.syntax unified
 158              		.thumb
 159              		.thumb_func
 161              	FLASH_OB_UserConfig:
 162              		@ args = 0, pretend = 0, frame = 0
 163              		@ frame_needed = 0, uses_anonymous_args = 0
 164 0000 38B5     		push	{r3, r4, r5, lr}
 165 0002 0446     		mov	r4, r0
 166 0004 4CF25030 		movw	r0, #50000
 167 0008 FFF7FEFF 		bl	FLASH_WaitForLastOperation
 168 000c 00B1     		cbz	r0, .L24
 169              	.L22:
 170 000e 38BD     		pop	{r3, r4, r5, pc}
 171              	.L24:
 172 0010 0A4B     		ldr	r3, .L25
 173 0012 0022     		movs	r2, #0
 174 0014 DA61     		str	r2, [r3, #28]
 175 0016 0A4D     		ldr	r5, .L25+4
 176 0018 2B69     		ldr	r3, [r5, #16]
 177 001a 43F01003 		orr	r3, r3, #16
 178 001e 2B61     		str	r3, [r5, #16]
 179 0020 44F08800 		orr	r0, r4, #136
 180 0024 074B     		ldr	r3, .L25+8
 181 0026 5880     		strh	r0, [r3, #2]	@ movhi
 182 0028 4CF25030 		movw	r0, #50000
ARM GAS  /tmp/ccohHqgV.s 			page 4


 183 002c FFF7FEFF 		bl	FLASH_WaitForLastOperation
 184 0030 2B69     		ldr	r3, [r5, #16]
 185 0032 23F01003 		bic	r3, r3, #16
 186 0036 2B61     		str	r3, [r5, #16]
 187 0038 E9E7     		b	.L22
 188              	.L26:
 189 003a 00BF     		.align	2
 190              	.L25:
 191 003c 00000000 		.word	pFlash
 192 0040 00200240 		.word	1073881088
 193 0044 00F8FF1F 		.word	536868864
 195              		.section	.text.FLASH_OB_ProgramData,"ax",%progbits
 196              		.align	1
 197              		.syntax unified
 198              		.thumb
 199              		.thumb_func
 201              	FLASH_OB_ProgramData:
 202              		@ args = 0, pretend = 0, frame = 0
 203              		@ frame_needed = 0, uses_anonymous_args = 0
 204 0000 70B5     		push	{r4, r5, r6, lr}
 205 0002 0546     		mov	r5, r0
 206 0004 0C46     		mov	r4, r1
 207 0006 4CF25030 		movw	r0, #50000
 208 000a FFF7FEFF 		bl	FLASH_WaitForLastOperation
 209 000e 00B1     		cbz	r0, .L30
 210              	.L28:
 211 0010 70BD     		pop	{r4, r5, r6, pc}
 212              	.L30:
 213 0012 094B     		ldr	r3, .L31
 214 0014 0022     		movs	r2, #0
 215 0016 DA61     		str	r2, [r3, #28]
 216 0018 084E     		ldr	r6, .L31+4
 217 001a 3369     		ldr	r3, [r6, #16]
 218 001c 43F01003 		orr	r3, r3, #16
 219 0020 3361     		str	r3, [r6, #16]
 220 0022 2C80     		strh	r4, [r5]	@ movhi
 221 0024 4CF25030 		movw	r0, #50000
 222 0028 FFF7FEFF 		bl	FLASH_WaitForLastOperation
 223 002c 3369     		ldr	r3, [r6, #16]
 224 002e 23F01003 		bic	r3, r3, #16
 225 0032 3361     		str	r3, [r6, #16]
 226 0034 ECE7     		b	.L28
 227              	.L32:
 228 0036 00BF     		.align	2
 229              	.L31:
 230 0038 00000000 		.word	pFlash
 231 003c 00200240 		.word	1073881088
 233              		.section	.text.HAL_FLASHEx_OBErase,"ax",%progbits
 234              		.align	1
 235              		.global	HAL_FLASHEx_OBErase
 236              		.syntax unified
 237              		.thumb
 238              		.thumb_func
 240              	HAL_FLASHEx_OBErase:
 241              		@ args = 0, pretend = 0, frame = 0
 242              		@ frame_needed = 0, uses_anonymous_args = 0
 243 0000 38B5     		push	{r3, r4, r5, lr}
ARM GAS  /tmp/ccohHqgV.s 			page 5


 244 0002 FFF7FEFF 		bl	FLASH_OB_GetRDP
 245 0006 C5B2     		uxtb	r5, r0
 246 0008 4CF25030 		movw	r0, #50000
 247 000c FFF7FEFF 		bl	FLASH_WaitForLastOperation
 248 0010 00B1     		cbz	r0, .L36
 249              	.L34:
 250 0012 38BD     		pop	{r3, r4, r5, pc}
 251              	.L36:
 252 0014 0C4B     		ldr	r3, .L37
 253 0016 0022     		movs	r2, #0
 254 0018 DA61     		str	r2, [r3, #28]
 255 001a 0C4C     		ldr	r4, .L37+4
 256 001c 2369     		ldr	r3, [r4, #16]
 257 001e 43F02003 		orr	r3, r3, #32
 258 0022 2361     		str	r3, [r4, #16]
 259 0024 2369     		ldr	r3, [r4, #16]
 260 0026 43F04003 		orr	r3, r3, #64
 261 002a 2361     		str	r3, [r4, #16]
 262 002c 4CF25030 		movw	r0, #50000
 263 0030 FFF7FEFF 		bl	FLASH_WaitForLastOperation
 264 0034 2369     		ldr	r3, [r4, #16]
 265 0036 23F02003 		bic	r3, r3, #32
 266 003a 2361     		str	r3, [r4, #16]
 267 003c 0028     		cmp	r0, #0
 268 003e E8D1     		bne	.L34
 269 0040 2846     		mov	r0, r5
 270 0042 FFF7FEFF 		bl	FLASH_OB_RDP_LevelConfig
 271 0046 E4E7     		b	.L34
 272              	.L38:
 273              		.align	2
 274              	.L37:
 275 0048 00000000 		.word	pFlash
 276 004c 00200240 		.word	1073881088
 278              		.section	.text.FLASH_OB_EnableWRP,"ax",%progbits
 279              		.align	1
 280              		.syntax unified
 281              		.thumb
 282              		.thumb_func
 284              	FLASH_OB_EnableWRP:
 285              		@ args = 0, pretend = 0, frame = 0
 286              		@ frame_needed = 0, uses_anonymous_args = 0
 287 0000 F8B5     		push	{r3, r4, r5, r6, r7, lr}
 288 0002 0446     		mov	r4, r0
 289 0004 FFF7FEFF 		bl	FLASH_OB_GetWRP
 290 0008 20EA0400 		bic	r0, r0, r4
 291 000c C5B2     		uxtb	r5, r0
 292 000e C0F30727 		ubfx	r7, r0, #8, #8
 293 0012 C0F30746 		ubfx	r6, r0, #16, #8
 294 0016 040E     		lsrs	r4, r0, #24
 295 0018 4CF25030 		movw	r0, #50000
 296 001c FFF7FEFF 		bl	FLASH_WaitForLastOperation
 297 0020 0346     		mov	r3, r0
 298 0022 08B1     		cbz	r0, .L46
 299              	.L40:
 300 0024 1846     		mov	r0, r3
 301 0026 F8BD     		pop	{r3, r4, r5, r6, r7, pc}
 302              	.L46:
ARM GAS  /tmp/ccohHqgV.s 			page 6


 303 0028 234B     		ldr	r3, .L51
 304 002a 0022     		movs	r2, #0
 305 002c DA61     		str	r2, [r3, #28]
 306 002e FFF7FEFF 		bl	HAL_FLASHEx_OBErase
 307 0032 0346     		mov	r3, r0
 308 0034 0028     		cmp	r0, #0
 309 0036 F5D1     		bne	.L40
 310 0038 2049     		ldr	r1, .L51+4
 311 003a 0A69     		ldr	r2, [r1, #16]
 312 003c 42F01002 		orr	r2, r2, #16
 313 0040 0A61     		str	r2, [r1, #16]
 314 0042 FF2D     		cmp	r5, #255
 315 0044 0ED1     		bne	.L47
 316              	.L41:
 317 0046 23B9     		cbnz	r3, .L42
 318 0048 FF2F     		cmp	r7, #255
 319 004a 15D1     		bne	.L48
 320              	.L43:
 321 004c 23B9     		cbnz	r3, .L44
 322 004e FF2E     		cmp	r6, #255
 323 0050 1CD1     		bne	.L49
 324              	.L42:
 325 0052 0BB9     		cbnz	r3, .L44
 326 0054 FF2C     		cmp	r4, #255
 327 0056 23D1     		bne	.L50
 328              	.L44:
 329 0058 1849     		ldr	r1, .L51+4
 330 005a 0A69     		ldr	r2, [r1, #16]
 331 005c 22F01002 		bic	r2, r2, #16
 332 0060 0A61     		str	r2, [r1, #16]
 333 0062 DFE7     		b	.L40
 334              	.L47:
 335 0064 164B     		ldr	r3, .L51+8
 336 0066 1A89     		ldrh	r2, [r3, #8]
 337 0068 1540     		ands	r5, r5, r2
 338 006a 1D81     		strh	r5, [r3, #8]	@ movhi
 339 006c 4CF25030 		movw	r0, #50000
 340 0070 FFF7FEFF 		bl	FLASH_WaitForLastOperation
 341 0074 0346     		mov	r3, r0
 342 0076 E6E7     		b	.L41
 343              	.L48:
 344 0078 114B     		ldr	r3, .L51+8
 345 007a 5A89     		ldrh	r2, [r3, #10]
 346 007c 1740     		ands	r7, r7, r2
 347 007e 5F81     		strh	r7, [r3, #10]	@ movhi
 348 0080 4CF25030 		movw	r0, #50000
 349 0084 FFF7FEFF 		bl	FLASH_WaitForLastOperation
 350 0088 0346     		mov	r3, r0
 351 008a DFE7     		b	.L43
 352              	.L49:
 353 008c 0C4B     		ldr	r3, .L51+8
 354 008e 9A89     		ldrh	r2, [r3, #12]
 355 0090 1640     		ands	r6, r6, r2
 356 0092 9E81     		strh	r6, [r3, #12]	@ movhi
 357 0094 4CF25030 		movw	r0, #50000
 358 0098 FFF7FEFF 		bl	FLASH_WaitForLastOperation
 359 009c 0346     		mov	r3, r0
ARM GAS  /tmp/ccohHqgV.s 			page 7


 360 009e D8E7     		b	.L42
 361              	.L50:
 362 00a0 074B     		ldr	r3, .L51+8
 363 00a2 DA89     		ldrh	r2, [r3, #14]
 364 00a4 04EA0200 		and	r0, r4, r2
 365 00a8 D881     		strh	r0, [r3, #14]	@ movhi
 366 00aa 4CF25030 		movw	r0, #50000
 367 00ae FFF7FEFF 		bl	FLASH_WaitForLastOperation
 368 00b2 0346     		mov	r3, r0
 369 00b4 D0E7     		b	.L44
 370              	.L52:
 371 00b6 00BF     		.align	2
 372              	.L51:
 373 00b8 00000000 		.word	pFlash
 374 00bc 00200240 		.word	1073881088
 375 00c0 00F8FF1F 		.word	536868864
 377              		.section	.text.FLASH_OB_DisableWRP,"ax",%progbits
 378              		.align	1
 379              		.syntax unified
 380              		.thumb
 381              		.thumb_func
 383              	FLASH_OB_DisableWRP:
 384              		@ args = 0, pretend = 0, frame = 0
 385              		@ frame_needed = 0, uses_anonymous_args = 0
 386 0000 F8B5     		push	{r3, r4, r5, r6, r7, lr}
 387 0002 0446     		mov	r4, r0
 388 0004 FFF7FEFF 		bl	FLASH_OB_GetWRP
 389 0008 2043     		orrs	r0, r0, r4
 390 000a C5B2     		uxtb	r5, r0
 391 000c C0F30727 		ubfx	r7, r0, #8, #8
 392 0010 C0F30746 		ubfx	r6, r0, #16, #8
 393 0014 040E     		lsrs	r4, r0, #24
 394 0016 4CF25030 		movw	r0, #50000
 395 001a FFF7FEFF 		bl	FLASH_WaitForLastOperation
 396 001e 0346     		mov	r3, r0
 397 0020 08B1     		cbz	r0, .L60
 398              	.L54:
 399 0022 1846     		mov	r0, r3
 400 0024 F8BD     		pop	{r3, r4, r5, r6, r7, pc}
 401              	.L60:
 402 0026 254B     		ldr	r3, .L65
 403 0028 0022     		movs	r2, #0
 404 002a DA61     		str	r2, [r3, #28]
 405 002c FFF7FEFF 		bl	HAL_FLASHEx_OBErase
 406 0030 0346     		mov	r3, r0
 407 0032 0028     		cmp	r0, #0
 408 0034 F5D1     		bne	.L54
 409 0036 2249     		ldr	r1, .L65+4
 410 0038 0A69     		ldr	r2, [r1, #16]
 411 003a 42F01002 		orr	r2, r2, #16
 412 003e 0A61     		str	r2, [r1, #16]
 413 0040 FF2D     		cmp	r5, #255
 414 0042 0ED1     		bne	.L61
 415              	.L55:
 416 0044 23B9     		cbnz	r3, .L56
 417 0046 FF2F     		cmp	r7, #255
 418 0048 16D1     		bne	.L62
ARM GAS  /tmp/ccohHqgV.s 			page 8


 419              	.L57:
 420 004a 23B9     		cbnz	r3, .L58
 421 004c FF2E     		cmp	r6, #255
 422 004e 1ED1     		bne	.L63
 423              	.L56:
 424 0050 0BB9     		cbnz	r3, .L58
 425 0052 FF2C     		cmp	r4, #255
 426 0054 26D1     		bne	.L64
 427              	.L58:
 428 0056 1A49     		ldr	r1, .L65+4
 429 0058 0A69     		ldr	r2, [r1, #16]
 430 005a 22F01002 		bic	r2, r2, #16
 431 005e 0A61     		str	r2, [r1, #16]
 432 0060 DFE7     		b	.L54
 433              	.L61:
 434 0062 184A     		ldr	r2, .L65+8
 435 0064 1389     		ldrh	r3, [r2, #8]
 436 0066 9BB2     		uxth	r3, r3
 437 0068 2B43     		orrs	r3, r3, r5
 438 006a 1381     		strh	r3, [r2, #8]	@ movhi
 439 006c 4CF25030 		movw	r0, #50000
 440 0070 FFF7FEFF 		bl	FLASH_WaitForLastOperation
 441 0074 0346     		mov	r3, r0
 442 0076 E5E7     		b	.L55
 443              	.L62:
 444 0078 124A     		ldr	r2, .L65+8
 445 007a 5389     		ldrh	r3, [r2, #10]
 446 007c 9BB2     		uxth	r3, r3
 447 007e 3B43     		orrs	r3, r3, r7
 448 0080 5381     		strh	r3, [r2, #10]	@ movhi
 449 0082 4CF25030 		movw	r0, #50000
 450 0086 FFF7FEFF 		bl	FLASH_WaitForLastOperation
 451 008a 0346     		mov	r3, r0
 452 008c DDE7     		b	.L57
 453              	.L63:
 454 008e 0D4A     		ldr	r2, .L65+8
 455 0090 9389     		ldrh	r3, [r2, #12]
 456 0092 9BB2     		uxth	r3, r3
 457 0094 3343     		orrs	r3, r3, r6
 458 0096 9381     		strh	r3, [r2, #12]	@ movhi
 459 0098 4CF25030 		movw	r0, #50000
 460 009c FFF7FEFF 		bl	FLASH_WaitForLastOperation
 461 00a0 0346     		mov	r3, r0
 462 00a2 D5E7     		b	.L56
 463              	.L64:
 464 00a4 074A     		ldr	r2, .L65+8
 465 00a6 D389     		ldrh	r3, [r2, #14]
 466 00a8 9BB2     		uxth	r3, r3
 467 00aa 2343     		orrs	r3, r3, r4
 468 00ac D381     		strh	r3, [r2, #14]	@ movhi
 469 00ae 4CF25030 		movw	r0, #50000
 470 00b2 FFF7FEFF 		bl	FLASH_WaitForLastOperation
 471 00b6 0346     		mov	r3, r0
 472 00b8 CDE7     		b	.L58
 473              	.L66:
 474 00ba 00BF     		.align	2
 475              	.L65:
ARM GAS  /tmp/ccohHqgV.s 			page 9


 476 00bc 00000000 		.word	pFlash
 477 00c0 00200240 		.word	1073881088
 478 00c4 00F8FF1F 		.word	536868864
 480              		.section	.text.HAL_FLASHEx_OBProgram,"ax",%progbits
 481              		.align	1
 482              		.global	HAL_FLASHEx_OBProgram
 483              		.syntax unified
 484              		.thumb
 485              		.thumb_func
 487              	HAL_FLASHEx_OBProgram:
 488              		@ args = 0, pretend = 0, frame = 0
 489              		@ frame_needed = 0, uses_anonymous_args = 0
 490 0000 254B     		ldr	r3, .L85
 491 0002 1B7E     		ldrb	r3, [r3, #24]	@ zero_extendqisi2
 492 0004 012B     		cmp	r3, #1
 493 0006 44D0     		beq	.L75
 494 0008 10B5     		push	{r4, lr}
 495 000a 0446     		mov	r4, r0
 496 000c 224B     		ldr	r3, .L85
 497 000e 0122     		movs	r2, #1
 498 0010 1A76     		strb	r2, [r3, #24]
 499 0012 0368     		ldr	r3, [r0]
 500 0014 13F0010F 		tst	r3, #1
 501 0018 0ED0     		beq	.L76
 502 001a 4368     		ldr	r3, [r0, #4]
 503 001c 9342     		cmp	r3, r2
 504 001e 07D0     		beq	.L81
 505 0020 8068     		ldr	r0, [r0, #8]
 506 0022 FFF7FEFF 		bl	FLASH_OB_DisableWRP
 507              	.L71:
 508 0026 40B1     		cbz	r0, .L69
 509 0028 1B4B     		ldr	r3, .L85
 510 002a 0022     		movs	r2, #0
 511 002c 1A76     		strb	r2, [r3, #24]
 512 002e 13E0     		b	.L68
 513              	.L81:
 514 0030 8068     		ldr	r0, [r0, #8]
 515 0032 FFF7FEFF 		bl	FLASH_OB_EnableWRP
 516 0036 F6E7     		b	.L71
 517              	.L76:
 518 0038 0120     		movs	r0, #1
 519              	.L69:
 520 003a 2368     		ldr	r3, [r4]
 521 003c 13F0020F 		tst	r3, #2
 522 0040 0BD1     		bne	.L82
 523              	.L72:
 524 0042 2368     		ldr	r3, [r4]
 525 0044 13F0040F 		tst	r3, #4
 526 0048 10D1     		bne	.L83
 527              	.L73:
 528 004a 2368     		ldr	r3, [r4]
 529 004c 13F0080F 		tst	r3, #8
 530 0050 15D1     		bne	.L84
 531              	.L74:
 532 0052 114B     		ldr	r3, .L85
 533 0054 0022     		movs	r2, #0
 534 0056 1A76     		strb	r2, [r3, #24]
ARM GAS  /tmp/ccohHqgV.s 			page 10


 535              	.L68:
 536 0058 10BD     		pop	{r4, pc}
 537              	.L82:
 538 005a 207C     		ldrb	r0, [r4, #16]	@ zero_extendqisi2
 539 005c FFF7FEFF 		bl	FLASH_OB_RDP_LevelConfig
 540 0060 0028     		cmp	r0, #0
 541 0062 EED0     		beq	.L72
 542 0064 0C4B     		ldr	r3, .L85
 543 0066 0022     		movs	r2, #0
 544 0068 1A76     		strb	r2, [r3, #24]
 545 006a F5E7     		b	.L68
 546              	.L83:
 547 006c 607C     		ldrb	r0, [r4, #17]	@ zero_extendqisi2
 548 006e FFF7FEFF 		bl	FLASH_OB_UserConfig
 549 0072 0028     		cmp	r0, #0
 550 0074 E9D0     		beq	.L73
 551 0076 084B     		ldr	r3, .L85
 552 0078 0022     		movs	r2, #0
 553 007a 1A76     		strb	r2, [r3, #24]
 554 007c ECE7     		b	.L68
 555              	.L84:
 556 007e 217E     		ldrb	r1, [r4, #24]	@ zero_extendqisi2
 557 0080 6069     		ldr	r0, [r4, #20]
 558 0082 FFF7FEFF 		bl	FLASH_OB_ProgramData
 559 0086 0028     		cmp	r0, #0
 560 0088 E3D0     		beq	.L74
 561 008a 034B     		ldr	r3, .L85
 562 008c 0022     		movs	r2, #0
 563 008e 1A76     		strb	r2, [r3, #24]
 564 0090 E2E7     		b	.L68
 565              	.L75:
 566 0092 0220     		movs	r0, #2
 567 0094 7047     		bx	lr
 568              	.L86:
 569 0096 00BF     		.align	2
 570              	.L85:
 571 0098 00000000 		.word	pFlash
 573              		.section	.text.HAL_FLASHEx_OBGetConfig,"ax",%progbits
 574              		.align	1
 575              		.global	HAL_FLASHEx_OBGetConfig
 576              		.syntax unified
 577              		.thumb
 578              		.thumb_func
 580              	HAL_FLASHEx_OBGetConfig:
 581              		@ args = 0, pretend = 0, frame = 0
 582              		@ frame_needed = 0, uses_anonymous_args = 0
 583 0000 10B5     		push	{r4, lr}
 584 0002 0446     		mov	r4, r0
 585 0004 0723     		movs	r3, #7
 586 0006 0360     		str	r3, [r0]
 587 0008 FFF7FEFF 		bl	FLASH_OB_GetWRP
 588 000c A060     		str	r0, [r4, #8]
 589 000e FFF7FEFF 		bl	FLASH_OB_GetRDP
 590 0012 2074     		strb	r0, [r4, #16]
 591 0014 FFF7FEFF 		bl	FLASH_OB_GetUser
 592 0018 6074     		strb	r0, [r4, #17]
 593 001a 10BD     		pop	{r4, pc}
ARM GAS  /tmp/ccohHqgV.s 			page 11


 595              		.section	.text.HAL_FLASHEx_OBGetUserData,"ax",%progbits
 596              		.align	1
 597              		.global	HAL_FLASHEx_OBGetUserData
 598              		.syntax unified
 599              		.thumb
 600              		.thumb_func
 602              	HAL_FLASHEx_OBGetUserData:
 603              		@ args = 0, pretend = 0, frame = 0
 604              		@ frame_needed = 0, uses_anonymous_args = 0
 605              		@ link register save eliminated.
 606 0000 064B     		ldr	r3, .L93
 607 0002 9842     		cmp	r0, r3
 608 0004 04D0     		beq	.L92
 609 0006 064B     		ldr	r3, .L93+4
 610 0008 D869     		ldr	r0, [r3, #28]
 611 000a C0F38740 		ubfx	r0, r0, #18, #8
 612 000e 7047     		bx	lr
 613              	.L92:
 614 0010 034B     		ldr	r3, .L93+4
 615 0012 D869     		ldr	r0, [r3, #28]
 616 0014 C0F38720 		ubfx	r0, r0, #10, #8
 617 0018 7047     		bx	lr
 618              	.L94:
 619 001a 00BF     		.align	2
 620              	.L93:
 621 001c 04F8FF1F 		.word	536868868
 622 0020 00200240 		.word	1073881088
 624              		.section	.text.FLASH_PageErase,"ax",%progbits
 625              		.align	1
 626              		.global	FLASH_PageErase
 627              		.syntax unified
 628              		.thumb
 629              		.thumb_func
 631              	FLASH_PageErase:
 632              		@ args = 0, pretend = 0, frame = 0
 633              		@ frame_needed = 0, uses_anonymous_args = 0
 634              		@ link register save eliminated.
 635 0000 064B     		ldr	r3, .L96
 636 0002 0022     		movs	r2, #0
 637 0004 DA61     		str	r2, [r3, #28]
 638 0006 064B     		ldr	r3, .L96+4
 639 0008 1A69     		ldr	r2, [r3, #16]
 640 000a 42F00202 		orr	r2, r2, #2
 641 000e 1A61     		str	r2, [r3, #16]
 642 0010 5861     		str	r0, [r3, #20]
 643 0012 1A69     		ldr	r2, [r3, #16]
 644 0014 42F04002 		orr	r2, r2, #64
 645 0018 1A61     		str	r2, [r3, #16]
 646 001a 7047     		bx	lr
 647              	.L97:
 648              		.align	2
 649              	.L96:
 650 001c 00000000 		.word	pFlash
 651 0020 00200240 		.word	1073881088
 653              		.section	.text.HAL_FLASHEx_Erase,"ax",%progbits
 654              		.align	1
 655              		.global	HAL_FLASHEx_Erase
ARM GAS  /tmp/ccohHqgV.s 			page 12


 656              		.syntax unified
 657              		.thumb
 658              		.thumb_func
 660              	HAL_FLASHEx_Erase:
 661              		@ args = 0, pretend = 0, frame = 0
 662              		@ frame_needed = 0, uses_anonymous_args = 0
 663 0000 264B     		ldr	r3, .L115
 664 0002 1B7E     		ldrb	r3, [r3, #24]	@ zero_extendqisi2
 665 0004 012B     		cmp	r3, #1
 666 0006 46D0     		beq	.L105
 667 0008 70B5     		push	{r4, r5, r6, lr}
 668 000a 0546     		mov	r5, r0
 669 000c 0E46     		mov	r6, r1
 670 000e 234B     		ldr	r3, .L115
 671 0010 0122     		movs	r2, #1
 672 0012 1A76     		strb	r2, [r3, #24]
 673 0014 0368     		ldr	r3, [r0]
 674 0016 022B     		cmp	r3, #2
 675 0018 20D0     		beq	.L112
 676 001a 4CF25030 		movw	r0, #50000
 677 001e FFF7FEFF 		bl	FLASH_WaitForLastOperation
 678 0022 90BB     		cbnz	r0, .L107
 679 0024 4FF0FF33 		mov	r3, #-1
 680 0028 3360     		str	r3, [r6]
 681 002a AC68     		ldr	r4, [r5, #8]
 682 002c 0121     		movs	r1, #1
 683              	.L102:
 684 002e EA68     		ldr	r2, [r5, #12]
 685 0030 AB68     		ldr	r3, [r5, #8]
 686 0032 03EB8223 		add	r3, r3, r2, lsl #10
 687 0036 A342     		cmp	r3, r4
 688 0038 28D9     		bls	.L101
 689 003a 2046     		mov	r0, r4
 690 003c FFF7FEFF 		bl	FLASH_PageErase
 691 0040 4CF25030 		movw	r0, #50000
 692 0044 FFF7FEFF 		bl	FLASH_WaitForLastOperation
 693 0048 154A     		ldr	r2, .L115+4
 694 004a 1369     		ldr	r3, [r2, #16]
 695 004c 23F00203 		bic	r3, r3, #2
 696 0050 1361     		str	r3, [r2, #16]
 697 0052 0146     		mov	r1, r0
 698 0054 B8B9     		cbnz	r0, .L113
 699 0056 04F58064 		add	r4, r4, #1024
 700 005a E8E7     		b	.L102
 701              	.L112:
 702 005c 4CF25030 		movw	r0, #50000
 703 0060 FFF7FEFF 		bl	FLASH_WaitForLastOperation
 704 0064 08B1     		cbz	r0, .L114
 705 0066 0121     		movs	r1, #1
 706 0068 10E0     		b	.L101
 707              	.L114:
 708 006a 0120     		movs	r0, #1
 709 006c FFF7FEFF 		bl	FLASH_MassErase
 710 0070 4CF25030 		movw	r0, #50000
 711 0074 FFF7FEFF 		bl	FLASH_WaitForLastOperation
 712 0078 0146     		mov	r1, r0
 713 007a 094A     		ldr	r2, .L115+4
ARM GAS  /tmp/ccohHqgV.s 			page 13


 714 007c 1369     		ldr	r3, [r2, #16]
 715 007e 23F00403 		bic	r3, r3, #4
 716 0082 1361     		str	r3, [r2, #16]
 717 0084 02E0     		b	.L101
 718              	.L113:
 719 0086 3460     		str	r4, [r6]
 720 0088 00E0     		b	.L101
 721              	.L107:
 722 008a 0121     		movs	r1, #1
 723              	.L101:
 724 008c 034B     		ldr	r3, .L115
 725 008e 0022     		movs	r2, #0
 726 0090 1A76     		strb	r2, [r3, #24]
 727 0092 0846     		mov	r0, r1
 728 0094 70BD     		pop	{r4, r5, r6, pc}
 729              	.L105:
 730 0096 0221     		movs	r1, #2
 731 0098 0846     		mov	r0, r1
 732 009a 7047     		bx	lr
 733              	.L116:
 734              		.align	2
 735              	.L115:
 736 009c 00000000 		.word	pFlash
 737 00a0 00200240 		.word	1073881088
 739              		.section	.text.HAL_FLASHEx_Erase_IT,"ax",%progbits
 740              		.align	1
 741              		.global	HAL_FLASHEx_Erase_IT
 742              		.syntax unified
 743              		.thumb
 744              		.thumb_func
 746              	HAL_FLASHEx_Erase_IT:
 747              		@ args = 0, pretend = 0, frame = 0
 748              		@ frame_needed = 0, uses_anonymous_args = 0
 749 0000 10B5     		push	{r4, lr}
 750 0002 104B     		ldr	r3, .L123
 751 0004 1B78     		ldrb	r3, [r3]	@ zero_extendqisi2
 752 0006 DBB9     		cbnz	r3, .L120
 753 0008 03F0FF04 		and	r4, r3, #255
 754 000c 0E4A     		ldr	r2, .L123+4
 755 000e 1369     		ldr	r3, [r2, #16]
 756 0010 43F4A053 		orr	r3, r3, #5120
 757 0014 1361     		str	r3, [r2, #16]
 758 0016 0368     		ldr	r3, [r0]
 759 0018 022B     		cmp	r3, #2
 760 001a 0AD0     		beq	.L122
 761 001c 094B     		ldr	r3, .L123
 762 001e 0122     		movs	r2, #1
 763 0020 1A70     		strb	r2, [r3]
 764 0022 C268     		ldr	r2, [r0, #12]
 765 0024 5A60     		str	r2, [r3, #4]
 766 0026 8068     		ldr	r0, [r0, #8]
 767 0028 9860     		str	r0, [r3, #8]
 768 002a FFF7FEFF 		bl	FLASH_PageErase
 769              	.L118:
 770 002e 2046     		mov	r0, r4
 771 0030 10BD     		pop	{r4, pc}
 772              	.L122:
ARM GAS  /tmp/ccohHqgV.s 			page 14


 773 0032 044B     		ldr	r3, .L123
 774 0034 0222     		movs	r2, #2
 775 0036 1A70     		strb	r2, [r3]
 776 0038 4068     		ldr	r0, [r0, #4]
 777 003a FFF7FEFF 		bl	FLASH_MassErase
 778 003e F6E7     		b	.L118
 779              	.L120:
 780 0040 0124     		movs	r4, #1
 781 0042 F4E7     		b	.L118
 782              	.L124:
 783              		.align	2
 784              	.L123:
 785 0044 00000000 		.word	pFlash
 786 0048 00200240 		.word	1073881088
 788              		.ident	"GCC: (15:13.3.rel1-1) 13.3.1 20240614"
ARM GAS  /tmp/ccohHqgV.s 			page 15

