ARM GAS  /tmp/ccdZN3pI.s 			page 1


   1              		.cpu cortex-m3
   2              		.arch armv7-m
   3              		.fpu softvfp
   4              		.eabi_attribute 20, 1
   5              		.eabi_attribute 21, 1
   6              		.eabi_attribute 23, 3
   7              		.eabi_attribute 24, 1
   8              		.eabi_attribute 25, 1
   9              		.eabi_attribute 26, 1
  10              		.eabi_attribute 30, 1
  11              		.eabi_attribute 34, 1
  12              		.eabi_attribute 18, 4
  13              		.file	"stm32f1xx_ll_usb.c"
  14              		.text
  15              		.section	.text.USB_CoreInit,"ax",%progbits
  16              		.align	1
  17              		.global	USB_CoreInit
  18              		.syntax unified
  19              		.thumb
  20              		.thumb_func
  22              	USB_CoreInit:
  23              		@ args = 0, pretend = 0, frame = 16
  24              		@ frame_needed = 0, uses_anonymous_args = 0
  25              		@ link register save eliminated.
  26 0000 84B0     		sub	sp, sp, #16
  27 0002 04A8     		add	r0, sp, #16
  28 0004 00E90E00 		stmdb	r0, {r1, r2, r3}
  29 0008 0020     		movs	r0, #0
  30 000a 04B0     		add	sp, sp, #16
  31              		@ sp needed
  32 000c 7047     		bx	lr
  34              		.section	.text.USB_EnableGlobalInt,"ax",%progbits
  35              		.align	1
  36              		.global	USB_EnableGlobalInt
  37              		.syntax unified
  38              		.thumb
  39              		.thumb_func
  41              	USB_EnableGlobalInt:
  42              		@ args = 0, pretend = 0, frame = 0
  43              		@ frame_needed = 0, uses_anonymous_args = 0
  44              		@ link register save eliminated.
  45 0000 0346     		mov	r3, r0
  46 0002 0020     		movs	r0, #0
  47 0004 A3F84400 		strh	r0, [r3, #68]	@ movhi
  48 0008 4FF43F42 		mov	r2, #48896
  49 000c A3F84020 		strh	r2, [r3, #64]	@ movhi
  50 0010 7047     		bx	lr
  52              		.section	.text.USB_DisableGlobalInt,"ax",%progbits
  53              		.align	1
  54              		.global	USB_DisableGlobalInt
  55              		.syntax unified
  56              		.thumb
  57              		.thumb_func
  59              	USB_DisableGlobalInt:
  60              		@ args = 0, pretend = 0, frame = 0
  61              		@ frame_needed = 0, uses_anonymous_args = 0
  62              		@ link register save eliminated.
ARM GAS  /tmp/ccdZN3pI.s 			page 2


  63 0000 B0F84030 		ldrh	r3, [r0, #64]
  64 0004 23F47C53 		bic	r3, r3, #16128
  65 0008 5B04     		lsls	r3, r3, #17
  66 000a 5B0C     		lsrs	r3, r3, #17
  67 000c A0F84030 		strh	r3, [r0, #64]	@ movhi
  68 0010 0020     		movs	r0, #0
  69 0012 7047     		bx	lr
  71              		.section	.text.USB_SetCurrentMode,"ax",%progbits
  72              		.align	1
  73              		.global	USB_SetCurrentMode
  74              		.syntax unified
  75              		.thumb
  76              		.thumb_func
  78              	USB_SetCurrentMode:
  79              		@ args = 0, pretend = 0, frame = 0
  80              		@ frame_needed = 0, uses_anonymous_args = 0
  81              		@ link register save eliminated.
  82 0000 0020     		movs	r0, #0
  83 0002 7047     		bx	lr
  85              		.section	.text.USB_DevInit,"ax",%progbits
  86              		.align	1
  87              		.global	USB_DevInit
  88              		.syntax unified
  89              		.thumb
  90              		.thumb_func
  92              	USB_DevInit:
  93              		@ args = 0, pretend = 0, frame = 16
  94              		@ frame_needed = 0, uses_anonymous_args = 0
  95              		@ link register save eliminated.
  96 0000 84B0     		sub	sp, sp, #16
  97 0002 8446     		mov	ip, r0
  98 0004 04A8     		add	r0, sp, #16
  99 0006 00E90E00 		stmdb	r0, {r1, r2, r3}
 100 000a 0123     		movs	r3, #1
 101 000c ACF84030 		strh	r3, [ip, #64]	@ movhi
 102 0010 0020     		movs	r0, #0
 103 0012 ACF84000 		strh	r0, [ip, #64]	@ movhi
 104 0016 ACF84400 		strh	r0, [ip, #68]	@ movhi
 105 001a ACF85000 		strh	r0, [ip, #80]	@ movhi
 106 001e 04B0     		add	sp, sp, #16
 107              		@ sp needed
 108 0020 7047     		bx	lr
 110              		.section	.text.USB_FlushTxFifo,"ax",%progbits
 111              		.align	1
 112              		.global	USB_FlushTxFifo
 113              		.syntax unified
 114              		.thumb
 115              		.thumb_func
 117              	USB_FlushTxFifo:
 118              		@ args = 0, pretend = 0, frame = 0
 119              		@ frame_needed = 0, uses_anonymous_args = 0
 120              		@ link register save eliminated.
 121 0000 0020     		movs	r0, #0
 122 0002 7047     		bx	lr
 124              		.section	.text.USB_FlushRxFifo,"ax",%progbits
 125              		.align	1
 126              		.global	USB_FlushRxFifo
ARM GAS  /tmp/ccdZN3pI.s 			page 3


 127              		.syntax unified
 128              		.thumb
 129              		.thumb_func
 131              	USB_FlushRxFifo:
 132              		@ args = 0, pretend = 0, frame = 0
 133              		@ frame_needed = 0, uses_anonymous_args = 0
 134              		@ link register save eliminated.
 135 0000 0020     		movs	r0, #0
 136 0002 7047     		bx	lr
 138              		.section	.text.USB_ActivateEndpoint,"ax",%progbits
 139              		.align	1
 140              		.global	USB_ActivateEndpoint
 141              		.syntax unified
 142              		.thumb
 143              		.thumb_func
 145              	USB_ActivateEndpoint:
 146              		@ args = 0, pretend = 0, frame = 0
 147              		@ frame_needed = 0, uses_anonymous_args = 0
 148 0000 10B5     		push	{r4, lr}
 149 0002 0346     		mov	r3, r0
 150 0004 91F800C0 		ldrb	ip, [r1]	@ zero_extendqisi2
 151 0008 30F82C20 		ldrh	r2, [r0, ip, lsl #2]
 152 000c 92B2     		uxth	r2, r2
 153 000e 22F4EC42 		bic	r2, r2, #30208
 154 0012 22F07002 		bic	r2, r2, #112
 155 0016 92B2     		uxth	r2, r2
 156 0018 C878     		ldrb	r0, [r1, #3]	@ zero_extendqisi2
 157 001a 0328     		cmp	r0, #3
 158 001c 61D8     		bhi	.L38
 159 001e DFE800F0 		tbb	[pc, r0]
 160              	.L13:
 161 0022 55       		.byte	(.L16-.L13)/2
 162 0023 5C       		.byte	(.L15-.L13)/2
 163 0024 02       		.byte	(.L14-.L13)/2
 164 0025 58       		.byte	(.L12-.L13)/2
 165              		.p2align 1
 166              	.L14:
 167 0026 0020     		movs	r0, #0
 168              	.L11:
 169 0028 48F2800E 		movw	lr, #32896
 170 002c 42EA0E02 		orr	r2, r2, lr
 171 0030 23F82C20 		strh	r2, [r3, ip, lsl #2]	@ movhi
 172 0034 91F800C0 		ldrb	ip, [r1]	@ zero_extendqisi2
 173 0038 33F82C20 		ldrh	r2, [r3, ip, lsl #2]
 174 003c 92B2     		uxth	r2, r2
 175 003e 22F4E042 		bic	r2, r2, #28672
 176 0042 22F07002 		bic	r2, r2, #112
 177 0046 42EA0C02 		orr	r2, r2, ip
 178 004a 42EA0E02 		orr	r2, r2, lr
 179 004e 23F82C20 		strh	r2, [r3, ip, lsl #2]	@ movhi
 180 0052 0A7B     		ldrb	r2, [r1, #12]	@ zero_extendqisi2
 181 0054 002A     		cmp	r2, #0
 182 0056 40F0DC80 		bne	.L17
 183 005a 4A78     		ldrb	r2, [r1, #1]	@ zero_extendqisi2
 184 005c 002A     		cmp	r2, #0
 185 005e 51D0     		beq	.L18
 186 0060 B3F85020 		ldrh	r2, [r3, #80]
ARM GAS  /tmp/ccdZN3pI.s 			page 4


 187 0064 92B2     		uxth	r2, r2
 188 0066 1A44     		add	r2, r2, r3
 189 0068 0C78     		ldrb	r4, [r1]	@ zero_extendqisi2
 190 006a 02EB0412 		add	r2, r2, r4, lsl #4
 191 006e B1F806C0 		ldrh	ip, [r1, #6]
 192 0072 4FEA5C0C 		lsr	ip, ip, #1
 193 0076 4FEA4C0C 		lsl	ip, ip, #1
 194 007a A2F800C4 		strh	ip, [r2, #1024]	@ movhi
 195 007e 0C78     		ldrb	r4, [r1]	@ zero_extendqisi2
 196 0080 33F82420 		ldrh	r2, [r3, r4, lsl #2]
 197 0084 12F0400F 		tst	r2, #64
 198 0088 0CD0     		beq	.L19
 199 008a 33F82420 		ldrh	r2, [r3, r4, lsl #2]
 200 008e 92B2     		uxth	r2, r2
 201 0090 22F4E042 		bic	r2, r2, #28672
 202 0094 22F07002 		bic	r2, r2, #112
 203 0098 42F40042 		orr	r2, r2, #32768
 204 009c 42F0C002 		orr	r2, r2, #192
 205 00a0 23F82420 		strh	r2, [r3, r4, lsl #2]	@ movhi
 206              	.L19:
 207 00a4 CA78     		ldrb	r2, [r1, #3]	@ zero_extendqisi2
 208 00a6 012A     		cmp	r2, #1
 209 00a8 1DD0     		beq	.L20
 210 00aa 0978     		ldrb	r1, [r1]	@ zero_extendqisi2
 211 00ac 33F82120 		ldrh	r2, [r3, r1, lsl #2]
 212 00b0 92B2     		uxth	r2, r2
 213 00b2 22F4E042 		bic	r2, r2, #28672
 214 00b6 22F04002 		bic	r2, r2, #64
 215 00ba 82F02002 		eor	r2, r2, #32
 216 00be 42F40042 		orr	r2, r2, #32768
 217 00c2 42F08002 		orr	r2, r2, #128
 218 00c6 23F82120 		strh	r2, [r3, r1, lsl #2]	@ movhi
 219 00ca 17E1     		b	.L21
 220              	.L16:
 221 00cc 42F40072 		orr	r2, r2, #512
 222 00d0 AAE7     		b	.L11
 223              	.L12:
 224 00d2 42F4C062 		orr	r2, r2, #1536
 225 00d6 0020     		movs	r0, #0
 226 00d8 A6E7     		b	.L11
 227              	.L15:
 228 00da 42F48062 		orr	r2, r2, #1024
 229 00de 0020     		movs	r0, #0
 230 00e0 A2E7     		b	.L11
 231              	.L38:
 232 00e2 0120     		movs	r0, #1
 233 00e4 A0E7     		b	.L11
 234              	.L20:
 235 00e6 0978     		ldrb	r1, [r1]	@ zero_extendqisi2
 236 00e8 33F82120 		ldrh	r2, [r3, r1, lsl #2]
 237 00ec 92B2     		uxth	r2, r2
 238 00ee 22F4E042 		bic	r2, r2, #28672
 239 00f2 22F04002 		bic	r2, r2, #64
 240 00f6 42F40042 		orr	r2, r2, #32768
 241 00fa 42F08002 		orr	r2, r2, #128
 242 00fe 23F82120 		strh	r2, [r3, r1, lsl #2]	@ movhi
 243 0102 FBE0     		b	.L21
ARM GAS  /tmp/ccdZN3pI.s 			page 5


 244              	.L18:
 245 0104 B3F85020 		ldrh	r2, [r3, #80]
 246 0108 92B2     		uxth	r2, r2
 247 010a 1A44     		add	r2, r2, r3
 248 010c 0C78     		ldrb	r4, [r1]	@ zero_extendqisi2
 249 010e 02EB0412 		add	r2, r2, r4, lsl #4
 250 0112 B1F806C0 		ldrh	ip, [r1, #6]
 251 0116 4FEA5C0C 		lsr	ip, ip, #1
 252 011a 4FEA4C0C 		lsl	ip, ip, #1
 253 011e A2F808C4 		strh	ip, [r2, #1032]	@ movhi
 254 0122 B3F85020 		ldrh	r2, [r3, #80]
 255 0126 92B2     		uxth	r2, r2
 256 0128 1A44     		add	r2, r2, r3
 257 012a 0C78     		ldrb	r4, [r1]	@ zero_extendqisi2
 258 012c 02EB0412 		add	r2, r2, r4, lsl #4
 259 0130 B2F80CC4 		ldrh	ip, [r2, #1036]
 260 0134 CCF3090C 		ubfx	ip, ip, #0, #10
 261 0138 A2F80CC4 		strh	ip, [r2, #1036]	@ movhi
 262 013c 0C69     		ldr	r4, [r1, #16]
 263 013e 3E2C     		cmp	r4, #62
 264 0140 39D9     		bls	.L22
 265 0142 4FEA541E 		lsr	lr, r4, #5
 266 0146 14F01F0F 		tst	r4, #31
 267 014a 01D1     		bne	.L23
 268 014c 0EF1FF3E 		add	lr, lr, #-1
 269              	.L23:
 270 0150 B2F80CC4 		ldrh	ip, [r2, #1036]
 271 0154 1FFA8CFC 		uxth	ip, ip
 272 0158 4FEA8E2E 		lsl	lr, lr, #10
 273 015c 1FFA8EFE 		uxth	lr, lr
 274 0160 4CEA0E0C 		orr	ip, ip, lr
 275 0164 4CF4004C 		orr	ip, ip, #32768
 276 0168 A2F80CC4 		strh	ip, [r2, #1036]	@ movhi
 277              	.L24:
 278 016c 0C78     		ldrb	r4, [r1]	@ zero_extendqisi2
 279 016e 33F82420 		ldrh	r2, [r3, r4, lsl #2]
 280 0172 12F4804F 		tst	r2, #16384
 281 0176 0CD0     		beq	.L27
 282 0178 33F82420 		ldrh	r2, [r3, r4, lsl #2]
 283 017c 92B2     		uxth	r2, r2
 284 017e 22F4E042 		bic	r2, r2, #28672
 285 0182 22F07002 		bic	r2, r2, #112
 286 0186 42F44042 		orr	r2, r2, #49152
 287 018a 42F08002 		orr	r2, r2, #128
 288 018e 23F82420 		strh	r2, [r3, r4, lsl #2]	@ movhi
 289              	.L27:
 290 0192 0978     		ldrb	r1, [r1]	@ zero_extendqisi2
 291 0194 69BB     		cbnz	r1, .L28
 292 0196 33F82120 		ldrh	r2, [r3, r1, lsl #2]
 293 019a 92B2     		uxth	r2, r2
 294 019c 22F48042 		bic	r2, r2, #16384
 295 01a0 22F07002 		bic	r2, r2, #112
 296 01a4 82F44052 		eor	r2, r2, #12288
 297 01a8 42F40042 		orr	r2, r2, #32768
 298 01ac 42F08002 		orr	r2, r2, #128
 299 01b0 23F82120 		strh	r2, [r3, r1, lsl #2]	@ movhi
 300 01b4 A2E0     		b	.L21
ARM GAS  /tmp/ccdZN3pI.s 			page 6


 301              	.L22:
 302 01b6 4CB9     		cbnz	r4, .L25
 303 01b8 B2F80C44 		ldrh	r4, [r2, #1036]
 304 01bc 6FEA4444 		mvn	r4, r4, lsl #17
 305 01c0 6FEA5444 		mvn	r4, r4, lsr #17
 306 01c4 A4B2     		uxth	r4, r4
 307 01c6 A2F80C44 		strh	r4, [r2, #1036]	@ movhi
 308 01ca CFE7     		b	.L24
 309              	.L25:
 310 01cc 4FEA540C 		lsr	ip, r4, #1
 311 01d0 14F0010F 		tst	r4, #1
 312 01d4 01D0     		beq	.L26
 313 01d6 0CF1010C 		add	ip, ip, #1
 314              	.L26:
 315 01da B2F80C44 		ldrh	r4, [r2, #1036]
 316 01de A4B2     		uxth	r4, r4
 317 01e0 4FEA8C2C 		lsl	ip, ip, #10
 318 01e4 1FFA8CFC 		uxth	ip, ip
 319 01e8 44EA0C04 		orr	r4, r4, ip
 320 01ec A2F80C44 		strh	r4, [r2, #1036]	@ movhi
 321 01f0 BCE7     		b	.L24
 322              	.L28:
 323 01f2 33F82120 		ldrh	r2, [r3, r1, lsl #2]
 324 01f6 92B2     		uxth	r2, r2
 325 01f8 22F48042 		bic	r2, r2, #16384
 326 01fc 22F07002 		bic	r2, r2, #112
 327 0200 82F40052 		eor	r2, r2, #8192
 328 0204 42F40042 		orr	r2, r2, #32768
 329 0208 42F08002 		orr	r2, r2, #128
 330 020c 23F82120 		strh	r2, [r3, r1, lsl #2]	@ movhi
 331 0210 74E0     		b	.L21
 332              	.L17:
 333 0212 CA78     		ldrb	r2, [r1, #3]	@ zero_extendqisi2
 334 0214 022A     		cmp	r2, #2
 335 0216 72D0     		beq	.L40
 336 0218 0C78     		ldrb	r4, [r1]	@ zero_extendqisi2
 337 021a 33F82420 		ldrh	r2, [r3, r4, lsl #2]
 338 021e 92B2     		uxth	r2, r2
 339 0220 22F4E242 		bic	r2, r2, #28928
 340 0224 22F07002 		bic	r2, r2, #112
 341 0228 42F40042 		orr	r2, r2, #32768
 342 022c 42F08002 		orr	r2, r2, #128
 343 0230 23F82420 		strh	r2, [r3, r4, lsl #2]	@ movhi
 344              	.L30:
 345 0234 B3F85020 		ldrh	r2, [r3, #80]
 346 0238 92B2     		uxth	r2, r2
 347 023a 1A44     		add	r2, r2, r3
 348 023c 91F800C0 		ldrb	ip, [r1]	@ zero_extendqisi2
 349 0240 02EB0C12 		add	r2, r2, ip, lsl #4
 350 0244 B1F808C0 		ldrh	ip, [r1, #8]
 351 0248 4FEA5C0C 		lsr	ip, ip, #1
 352 024c 4FEA4C0C 		lsl	ip, ip, #1
 353 0250 A2F800C4 		strh	ip, [r2, #1024]	@ movhi
 354 0254 B3F85020 		ldrh	r2, [r3, #80]
 355 0258 92B2     		uxth	r2, r2
 356 025a 1A44     		add	r2, r2, r3
 357 025c 91F800C0 		ldrb	ip, [r1]	@ zero_extendqisi2
ARM GAS  /tmp/ccdZN3pI.s 			page 7


 358 0260 02EB0C12 		add	r2, r2, ip, lsl #4
 359 0264 B1F80AC0 		ldrh	ip, [r1, #10]
 360 0268 4FEA5C0C 		lsr	ip, ip, #1
 361 026c 4FEA4C0C 		lsl	ip, ip, #1
 362 0270 A2F808C4 		strh	ip, [r2, #1032]	@ movhi
 363 0274 4A78     		ldrb	r2, [r1, #1]	@ zero_extendqisi2
 364 0276 002A     		cmp	r2, #0
 365 0278 50D1     		bne	.L31
 366 027a 0C78     		ldrb	r4, [r1]	@ zero_extendqisi2
 367 027c 33F82420 		ldrh	r2, [r3, r4, lsl #2]
 368 0280 12F4804F 		tst	r2, #16384
 369 0284 0CD0     		beq	.L32
 370 0286 33F82420 		ldrh	r2, [r3, r4, lsl #2]
 371 028a 92B2     		uxth	r2, r2
 372 028c 22F4E042 		bic	r2, r2, #28672
 373 0290 22F07002 		bic	r2, r2, #112
 374 0294 42F44042 		orr	r2, r2, #49152
 375 0298 42F08002 		orr	r2, r2, #128
 376 029c 23F82420 		strh	r2, [r3, r4, lsl #2]	@ movhi
 377              	.L32:
 378 02a0 0C78     		ldrb	r4, [r1]	@ zero_extendqisi2
 379 02a2 33F82420 		ldrh	r2, [r3, r4, lsl #2]
 380 02a6 12F0400F 		tst	r2, #64
 381 02aa 0CD0     		beq	.L33
 382 02ac 33F82420 		ldrh	r2, [r3, r4, lsl #2]
 383 02b0 92B2     		uxth	r2, r2
 384 02b2 22F4E042 		bic	r2, r2, #28672
 385 02b6 22F07002 		bic	r2, r2, #112
 386 02ba 42F40042 		orr	r2, r2, #32768
 387 02be 42F0C002 		orr	r2, r2, #192
 388 02c2 23F82420 		strh	r2, [r3, r4, lsl #2]	@ movhi
 389              	.L33:
 390 02c6 91F800C0 		ldrb	ip, [r1]	@ zero_extendqisi2
 391 02ca 33F82C20 		ldrh	r2, [r3, ip, lsl #2]
 392 02ce 92B2     		uxth	r2, r2
 393 02d0 22F48042 		bic	r2, r2, #16384
 394 02d4 22F07002 		bic	r2, r2, #112
 395 02d8 82F44052 		eor	r2, r2, #12288
 396 02dc 48F28004 		movw	r4, #32896
 397 02e0 2243     		orrs	r2, r2, r4
 398 02e2 23F82C20 		strh	r2, [r3, ip, lsl #2]	@ movhi
 399 02e6 0978     		ldrb	r1, [r1]	@ zero_extendqisi2
 400 02e8 33F82120 		ldrh	r2, [r3, r1, lsl #2]
 401 02ec 92B2     		uxth	r2, r2
 402 02ee 22F4E042 		bic	r2, r2, #28672
 403 02f2 22F04002 		bic	r2, r2, #64
 404 02f6 2243     		orrs	r2, r2, r4
 405 02f8 23F82120 		strh	r2, [r3, r1, lsl #2]	@ movhi
 406              	.L21:
 407 02fc 10BD     		pop	{r4, pc}
 408              	.L40:
 409 02fe 0C78     		ldrb	r4, [r1]	@ zero_extendqisi2
 410 0300 33F82420 		ldrh	r2, [r3, r4, lsl #2]
 411 0304 92B2     		uxth	r2, r2
 412 0306 22F4E042 		bic	r2, r2, #28672
 413 030a 22F07002 		bic	r2, r2, #112
 414 030e 42F40142 		orr	r2, r2, #33024
ARM GAS  /tmp/ccdZN3pI.s 			page 8


 415 0312 42F08002 		orr	r2, r2, #128
 416 0316 23F82420 		strh	r2, [r3, r4, lsl #2]	@ movhi
 417 031a 8BE7     		b	.L30
 418              	.L31:
 419 031c 0C78     		ldrb	r4, [r1]	@ zero_extendqisi2
 420 031e 33F82420 		ldrh	r2, [r3, r4, lsl #2]
 421 0322 12F4804F 		tst	r2, #16384
 422 0326 0CD0     		beq	.L34
 423 0328 33F82420 		ldrh	r2, [r3, r4, lsl #2]
 424 032c 92B2     		uxth	r2, r2
 425 032e 22F4E042 		bic	r2, r2, #28672
 426 0332 22F07002 		bic	r2, r2, #112
 427 0336 42F44042 		orr	r2, r2, #49152
 428 033a 42F08002 		orr	r2, r2, #128
 429 033e 23F82420 		strh	r2, [r3, r4, lsl #2]	@ movhi
 430              	.L34:
 431 0342 0C78     		ldrb	r4, [r1]	@ zero_extendqisi2
 432 0344 33F82420 		ldrh	r2, [r3, r4, lsl #2]
 433 0348 12F0400F 		tst	r2, #64
 434 034c 0CD0     		beq	.L35
 435 034e 33F82420 		ldrh	r2, [r3, r4, lsl #2]
 436 0352 92B2     		uxth	r2, r2
 437 0354 22F4E042 		bic	r2, r2, #28672
 438 0358 22F07002 		bic	r2, r2, #112
 439 035c 42F40042 		orr	r2, r2, #32768
 440 0360 42F0C002 		orr	r2, r2, #192
 441 0364 23F82420 		strh	r2, [r3, r4, lsl #2]	@ movhi
 442              	.L35:
 443 0368 CA78     		ldrb	r2, [r1, #3]	@ zero_extendqisi2
 444 036a 012A     		cmp	r2, #1
 445 036c 1ED0     		beq	.L36
 446 036e 0C78     		ldrb	r4, [r1]	@ zero_extendqisi2
 447 0370 33F82420 		ldrh	r2, [r3, r4, lsl #2]
 448 0374 92B2     		uxth	r2, r2
 449 0376 22F4E042 		bic	r2, r2, #28672
 450 037a 22F04002 		bic	r2, r2, #64
 451 037e 82F02002 		eor	r2, r2, #32
 452 0382 42F40042 		orr	r2, r2, #32768
 453 0386 42F08002 		orr	r2, r2, #128
 454 038a 23F82420 		strh	r2, [r3, r4, lsl #2]	@ movhi
 455              	.L37:
 456 038e 0978     		ldrb	r1, [r1]	@ zero_extendqisi2
 457 0390 33F82120 		ldrh	r2, [r3, r1, lsl #2]
 458 0394 92B2     		uxth	r2, r2
 459 0396 22F48042 		bic	r2, r2, #16384
 460 039a 22F07002 		bic	r2, r2, #112
 461 039e 42F40042 		orr	r2, r2, #32768
 462 03a2 42F08002 		orr	r2, r2, #128
 463 03a6 23F82120 		strh	r2, [r3, r1, lsl #2]	@ movhi
 464 03aa A7E7     		b	.L21
 465              	.L36:
 466 03ac 0C78     		ldrb	r4, [r1]	@ zero_extendqisi2
 467 03ae 33F82420 		ldrh	r2, [r3, r4, lsl #2]
 468 03b2 92B2     		uxth	r2, r2
 469 03b4 22F4E042 		bic	r2, r2, #28672
 470 03b8 22F04002 		bic	r2, r2, #64
 471 03bc 42F40042 		orr	r2, r2, #32768
ARM GAS  /tmp/ccdZN3pI.s 			page 9


 472 03c0 42F08002 		orr	r2, r2, #128
 473 03c4 23F82420 		strh	r2, [r3, r4, lsl #2]	@ movhi
 474 03c8 E1E7     		b	.L37
 476              		.section	.text.USB_DeactivateEndpoint,"ax",%progbits
 477              		.align	1
 478              		.global	USB_DeactivateEndpoint
 479              		.syntax unified
 480              		.thumb
 481              		.thumb_func
 483              	USB_DeactivateEndpoint:
 484              		@ args = 0, pretend = 0, frame = 0
 485              		@ frame_needed = 0, uses_anonymous_args = 0
 486              		@ link register save eliminated.
 487 0000 0B7B     		ldrb	r3, [r1, #12]	@ zero_extendqisi2
 488 0002 002B     		cmp	r3, #0
 489 0004 46D1     		bne	.L42
 490 0006 4B78     		ldrb	r3, [r1, #1]	@ zero_extendqisi2
 491 0008 13B3     		cbz	r3, .L43
 492 000a 0A78     		ldrb	r2, [r1]	@ zero_extendqisi2
 493 000c 30F82230 		ldrh	r3, [r0, r2, lsl #2]
 494 0010 13F0400F 		tst	r3, #64
 495 0014 0CD0     		beq	.L44
 496 0016 30F82230 		ldrh	r3, [r0, r2, lsl #2]
 497 001a 9BB2     		uxth	r3, r3
 498 001c 23F4E043 		bic	r3, r3, #28672
 499 0020 23F07003 		bic	r3, r3, #112
 500 0024 43F40043 		orr	r3, r3, #32768
 501 0028 43F0C003 		orr	r3, r3, #192
 502 002c 20F82230 		strh	r3, [r0, r2, lsl #2]	@ movhi
 503              	.L44:
 504 0030 0A78     		ldrb	r2, [r1]	@ zero_extendqisi2
 505 0032 30F82230 		ldrh	r3, [r0, r2, lsl #2]
 506 0036 9BB2     		uxth	r3, r3
 507 0038 23F4E043 		bic	r3, r3, #28672
 508 003c 23F04003 		bic	r3, r3, #64
 509 0040 43F40043 		orr	r3, r3, #32768
 510 0044 43F08003 		orr	r3, r3, #128
 511 0048 20F82230 		strh	r3, [r0, r2, lsl #2]	@ movhi
 512              	.L45:
 513 004c 0020     		movs	r0, #0
 514 004e 7047     		bx	lr
 515              	.L43:
 516 0050 0A78     		ldrb	r2, [r1]	@ zero_extendqisi2
 517 0052 30F82230 		ldrh	r3, [r0, r2, lsl #2]
 518 0056 13F4804F 		tst	r3, #16384
 519 005a 0CD0     		beq	.L46
 520 005c 30F82230 		ldrh	r3, [r0, r2, lsl #2]
 521 0060 9BB2     		uxth	r3, r3
 522 0062 23F4E043 		bic	r3, r3, #28672
 523 0066 23F07003 		bic	r3, r3, #112
 524 006a 43F44043 		orr	r3, r3, #49152
 525 006e 43F08003 		orr	r3, r3, #128
 526 0072 20F82230 		strh	r3, [r0, r2, lsl #2]	@ movhi
 527              	.L46:
 528 0076 0A78     		ldrb	r2, [r1]	@ zero_extendqisi2
 529 0078 30F82230 		ldrh	r3, [r0, r2, lsl #2]
 530 007c 9BB2     		uxth	r3, r3
ARM GAS  /tmp/ccdZN3pI.s 			page 10


 531 007e 23F48043 		bic	r3, r3, #16384
 532 0082 23F07003 		bic	r3, r3, #112
 533 0086 43F40043 		orr	r3, r3, #32768
 534 008a 43F08003 		orr	r3, r3, #128
 535 008e 20F82230 		strh	r3, [r0, r2, lsl #2]	@ movhi
 536 0092 DBE7     		b	.L45
 537              	.L42:
 538 0094 4B78     		ldrb	r3, [r1, #1]	@ zero_extendqisi2
 539 0096 002B     		cmp	r3, #0
 540 0098 4ED1     		bne	.L47
 541 009a 0A78     		ldrb	r2, [r1]	@ zero_extendqisi2
 542 009c 30F82230 		ldrh	r3, [r0, r2, lsl #2]
 543 00a0 13F4804F 		tst	r3, #16384
 544 00a4 0CD0     		beq	.L48
 545 00a6 30F82230 		ldrh	r3, [r0, r2, lsl #2]
 546 00aa 9BB2     		uxth	r3, r3
 547 00ac 23F4E043 		bic	r3, r3, #28672
 548 00b0 23F07003 		bic	r3, r3, #112
 549 00b4 43F44043 		orr	r3, r3, #49152
 550 00b8 43F08003 		orr	r3, r3, #128
 551 00bc 20F82230 		strh	r3, [r0, r2, lsl #2]	@ movhi
 552              	.L48:
 553 00c0 0A78     		ldrb	r2, [r1]	@ zero_extendqisi2
 554 00c2 30F82230 		ldrh	r3, [r0, r2, lsl #2]
 555 00c6 13F0400F 		tst	r3, #64
 556 00ca 0CD0     		beq	.L49
 557 00cc 30F82230 		ldrh	r3, [r0, r2, lsl #2]
 558 00d0 9BB2     		uxth	r3, r3
 559 00d2 23F4E043 		bic	r3, r3, #28672
 560 00d6 23F07003 		bic	r3, r3, #112
 561 00da 43F40043 		orr	r3, r3, #32768
 562 00de 43F0C003 		orr	r3, r3, #192
 563 00e2 20F82230 		strh	r3, [r0, r2, lsl #2]	@ movhi
 564              	.L49:
 565 00e6 0A78     		ldrb	r2, [r1]	@ zero_extendqisi2
 566 00e8 30F82230 		ldrh	r3, [r0, r2, lsl #2]
 567 00ec 9BB2     		uxth	r3, r3
 568 00ee 23F4E043 		bic	r3, r3, #28672
 569 00f2 23F07003 		bic	r3, r3, #112
 570 00f6 43F40043 		orr	r3, r3, #32768
 571 00fa 43F0C003 		orr	r3, r3, #192
 572 00fe 20F82230 		strh	r3, [r0, r2, lsl #2]	@ movhi
 573 0102 0A78     		ldrb	r2, [r1]	@ zero_extendqisi2
 574 0104 30F82230 		ldrh	r3, [r0, r2, lsl #2]
 575 0108 9BB2     		uxth	r3, r3
 576 010a 23F48043 		bic	r3, r3, #16384
 577 010e 23F07003 		bic	r3, r3, #112
 578 0112 48F2800C 		movw	ip, #32896
 579 0116 43EA0C03 		orr	r3, r3, ip
 580 011a 20F82230 		strh	r3, [r0, r2, lsl #2]	@ movhi
 581 011e 0A78     		ldrb	r2, [r1]	@ zero_extendqisi2
 582 0120 30F82230 		ldrh	r3, [r0, r2, lsl #2]
 583 0124 9BB2     		uxth	r3, r3
 584 0126 23F4E043 		bic	r3, r3, #28672
 585 012a 23F04003 		bic	r3, r3, #64
 586 012e 43EA0C03 		orr	r3, r3, ip
 587 0132 20F82230 		strh	r3, [r0, r2, lsl #2]	@ movhi
ARM GAS  /tmp/ccdZN3pI.s 			page 11


 588 0136 89E7     		b	.L45
 589              	.L47:
 590 0138 0A78     		ldrb	r2, [r1]	@ zero_extendqisi2
 591 013a 30F82230 		ldrh	r3, [r0, r2, lsl #2]
 592 013e 13F4804F 		tst	r3, #16384
 593 0142 0CD0     		beq	.L50
 594 0144 30F82230 		ldrh	r3, [r0, r2, lsl #2]
 595 0148 9BB2     		uxth	r3, r3
 596 014a 23F4E043 		bic	r3, r3, #28672
 597 014e 23F07003 		bic	r3, r3, #112
 598 0152 43F44043 		orr	r3, r3, #49152
 599 0156 43F08003 		orr	r3, r3, #128
 600 015a 20F82230 		strh	r3, [r0, r2, lsl #2]	@ movhi
 601              	.L50:
 602 015e 0A78     		ldrb	r2, [r1]	@ zero_extendqisi2
 603 0160 30F82230 		ldrh	r3, [r0, r2, lsl #2]
 604 0164 13F0400F 		tst	r3, #64
 605 0168 0CD0     		beq	.L51
 606 016a 30F82230 		ldrh	r3, [r0, r2, lsl #2]
 607 016e 9BB2     		uxth	r3, r3
 608 0170 23F4E043 		bic	r3, r3, #28672
 609 0174 23F07003 		bic	r3, r3, #112
 610 0178 43F40043 		orr	r3, r3, #32768
 611 017c 43F0C003 		orr	r3, r3, #192
 612 0180 20F82230 		strh	r3, [r0, r2, lsl #2]	@ movhi
 613              	.L51:
 614 0184 0A78     		ldrb	r2, [r1]	@ zero_extendqisi2
 615 0186 30F82230 		ldrh	r3, [r0, r2, lsl #2]
 616 018a 9BB2     		uxth	r3, r3
 617 018c 23F4E043 		bic	r3, r3, #28672
 618 0190 23F07003 		bic	r3, r3, #112
 619 0194 43F44043 		orr	r3, r3, #49152
 620 0198 43F08003 		orr	r3, r3, #128
 621 019c 20F82230 		strh	r3, [r0, r2, lsl #2]	@ movhi
 622 01a0 0A78     		ldrb	r2, [r1]	@ zero_extendqisi2
 623 01a2 30F82230 		ldrh	r3, [r0, r2, lsl #2]
 624 01a6 9BB2     		uxth	r3, r3
 625 01a8 23F4E043 		bic	r3, r3, #28672
 626 01ac 23F04003 		bic	r3, r3, #64
 627 01b0 48F2800C 		movw	ip, #32896
 628 01b4 43EA0C03 		orr	r3, r3, ip
 629 01b8 20F82230 		strh	r3, [r0, r2, lsl #2]	@ movhi
 630 01bc 0A78     		ldrb	r2, [r1]	@ zero_extendqisi2
 631 01be 30F82230 		ldrh	r3, [r0, r2, lsl #2]
 632 01c2 9BB2     		uxth	r3, r3
 633 01c4 23F48043 		bic	r3, r3, #16384
 634 01c8 23F07003 		bic	r3, r3, #112
 635 01cc 43EA0C03 		orr	r3, r3, ip
 636 01d0 20F82230 		strh	r3, [r0, r2, lsl #2]	@ movhi
 637 01d4 3AE7     		b	.L45
 639              		.section	.text.USB_EPSetStall,"ax",%progbits
 640              		.align	1
 641              		.global	USB_EPSetStall
 642              		.syntax unified
 643              		.thumb
 644              		.thumb_func
 646              	USB_EPSetStall:
ARM GAS  /tmp/ccdZN3pI.s 			page 12


 647              		@ args = 0, pretend = 0, frame = 0
 648              		@ frame_needed = 0, uses_anonymous_args = 0
 649              		@ link register save eliminated.
 650 0000 4B78     		ldrb	r3, [r1, #1]	@ zero_extendqisi2
 651 0002 8BB1     		cbz	r3, .L53
 652 0004 0A78     		ldrb	r2, [r1]	@ zero_extendqisi2
 653 0006 30F82230 		ldrh	r3, [r0, r2, lsl #2]
 654 000a 9BB2     		uxth	r3, r3
 655 000c 23F4E043 		bic	r3, r3, #28672
 656 0010 23F04003 		bic	r3, r3, #64
 657 0014 83F01003 		eor	r3, r3, #16
 658 0018 43F40043 		orr	r3, r3, #32768
 659 001c 43F08003 		orr	r3, r3, #128
 660 0020 20F82230 		strh	r3, [r0, r2, lsl #2]	@ movhi
 661              	.L54:
 662 0024 0020     		movs	r0, #0
 663 0026 7047     		bx	lr
 664              	.L53:
 665 0028 0A78     		ldrb	r2, [r1]	@ zero_extendqisi2
 666 002a 30F82230 		ldrh	r3, [r0, r2, lsl #2]
 667 002e 9BB2     		uxth	r3, r3
 668 0030 23F48043 		bic	r3, r3, #16384
 669 0034 23F07003 		bic	r3, r3, #112
 670 0038 83F48053 		eor	r3, r3, #4096
 671 003c 43F40043 		orr	r3, r3, #32768
 672 0040 43F08003 		orr	r3, r3, #128
 673 0044 20F82230 		strh	r3, [r0, r2, lsl #2]	@ movhi
 674 0048 ECE7     		b	.L54
 676              		.section	.text.USB_EPClearStall,"ax",%progbits
 677              		.align	1
 678              		.global	USB_EPClearStall
 679              		.syntax unified
 680              		.thumb
 681              		.thumb_func
 683              	USB_EPClearStall:
 684              		@ args = 0, pretend = 0, frame = 0
 685              		@ frame_needed = 0, uses_anonymous_args = 0
 686              		@ link register save eliminated.
 687 0000 0B7B     		ldrb	r3, [r1, #12]	@ zero_extendqisi2
 688 0002 002B     		cmp	r3, #0
 689 0004 4BD1     		bne	.L56
 690 0006 4B78     		ldrb	r3, [r1, #1]	@ zero_extendqisi2
 691 0008 33B3     		cbz	r3, .L57
 692 000a 0A78     		ldrb	r2, [r1]	@ zero_extendqisi2
 693 000c 30F82230 		ldrh	r3, [r0, r2, lsl #2]
 694 0010 13F0400F 		tst	r3, #64
 695 0014 0CD0     		beq	.L58
 696 0016 30F82230 		ldrh	r3, [r0, r2, lsl #2]
 697 001a 9BB2     		uxth	r3, r3
 698 001c 23F4E043 		bic	r3, r3, #28672
 699 0020 23F07003 		bic	r3, r3, #112
 700 0024 43F40043 		orr	r3, r3, #32768
 701 0028 43F0C003 		orr	r3, r3, #192
 702 002c 20F82230 		strh	r3, [r0, r2, lsl #2]	@ movhi
 703              	.L58:
 704 0030 CB78     		ldrb	r3, [r1, #3]	@ zero_extendqisi2
 705 0032 012B     		cmp	r3, #1
ARM GAS  /tmp/ccdZN3pI.s 			page 13


 706 0034 33D0     		beq	.L56
 707 0036 0A78     		ldrb	r2, [r1]	@ zero_extendqisi2
 708 0038 30F82230 		ldrh	r3, [r0, r2, lsl #2]
 709 003c 9BB2     		uxth	r3, r3
 710 003e 23F4E043 		bic	r3, r3, #28672
 711 0042 23F04003 		bic	r3, r3, #64
 712 0046 83F02003 		eor	r3, r3, #32
 713 004a 43F40043 		orr	r3, r3, #32768
 714 004e 43F08003 		orr	r3, r3, #128
 715 0052 20F82230 		strh	r3, [r0, r2, lsl #2]	@ movhi
 716 0056 22E0     		b	.L56
 717              	.L57:
 718 0058 0A78     		ldrb	r2, [r1]	@ zero_extendqisi2
 719 005a 30F82230 		ldrh	r3, [r0, r2, lsl #2]
 720 005e 13F4804F 		tst	r3, #16384
 721 0062 0CD0     		beq	.L59
 722 0064 30F82230 		ldrh	r3, [r0, r2, lsl #2]
 723 0068 9BB2     		uxth	r3, r3
 724 006a 23F4E043 		bic	r3, r3, #28672
 725 006e 23F07003 		bic	r3, r3, #112
 726 0072 43F44043 		orr	r3, r3, #49152
 727 0076 43F08003 		orr	r3, r3, #128
 728 007a 20F82230 		strh	r3, [r0, r2, lsl #2]	@ movhi
 729              	.L59:
 730 007e 0A78     		ldrb	r2, [r1]	@ zero_extendqisi2
 731 0080 30F82230 		ldrh	r3, [r0, r2, lsl #2]
 732 0084 9BB2     		uxth	r3, r3
 733 0086 23F48043 		bic	r3, r3, #16384
 734 008a 23F07003 		bic	r3, r3, #112
 735 008e 83F44053 		eor	r3, r3, #12288
 736 0092 43F40043 		orr	r3, r3, #32768
 737 0096 43F08003 		orr	r3, r3, #128
 738 009a 20F82230 		strh	r3, [r0, r2, lsl #2]	@ movhi
 739              	.L56:
 740 009e 0020     		movs	r0, #0
 741 00a0 7047     		bx	lr
 743              		.section	.text.USB_EPStopXfer,"ax",%progbits
 744              		.align	1
 745              		.global	USB_EPStopXfer
 746              		.syntax unified
 747              		.thumb
 748              		.thumb_func
 750              	USB_EPStopXfer:
 751              		@ args = 0, pretend = 0, frame = 0
 752              		@ frame_needed = 0, uses_anonymous_args = 0
 753              		@ link register save eliminated.
 754 0000 4B78     		ldrb	r3, [r1, #1]	@ zero_extendqisi2
 755 0002 012B     		cmp	r3, #1
 756 0004 16D0     		beq	.L65
 757 0006 0B7B     		ldrb	r3, [r1, #12]	@ zero_extendqisi2
 758 0008 93B9     		cbnz	r3, .L62
 759 000a CB78     		ldrb	r3, [r1, #3]	@ zero_extendqisi2
 760 000c 012B     		cmp	r3, #1
 761 000e 37D0     		beq	.L64
 762 0010 0A78     		ldrb	r2, [r1]	@ zero_extendqisi2
 763 0012 30F82230 		ldrh	r3, [r0, r2, lsl #2]
 764 0016 9BB2     		uxth	r3, r3
ARM GAS  /tmp/ccdZN3pI.s 			page 14


 765 0018 23F48043 		bic	r3, r3, #16384
 766 001c 23F07003 		bic	r3, r3, #112
 767 0020 83F40053 		eor	r3, r3, #8192
 768 0024 43F40043 		orr	r3, r3, #32768
 769 0028 43F08003 		orr	r3, r3, #128
 770 002c 20F82230 		strh	r3, [r0, r2, lsl #2]	@ movhi
 771              	.L62:
 772 0030 0020     		movs	r0, #0
 773 0032 7047     		bx	lr
 774              	.L65:
 775 0034 0B7B     		ldrb	r3, [r1, #12]	@ zero_extendqisi2
 776 0036 002B     		cmp	r3, #0
 777 0038 FAD1     		bne	.L62
 778 003a CB78     		ldrb	r3, [r1, #3]	@ zero_extendqisi2
 779 003c 012B     		cmp	r3, #1
 780 003e 10D0     		beq	.L63
 781 0040 0A78     		ldrb	r2, [r1]	@ zero_extendqisi2
 782 0042 30F82230 		ldrh	r3, [r0, r2, lsl #2]
 783 0046 9BB2     		uxth	r3, r3
 784 0048 23F4E043 		bic	r3, r3, #28672
 785 004c 23F04003 		bic	r3, r3, #64
 786 0050 83F02003 		eor	r3, r3, #32
 787 0054 43F40043 		orr	r3, r3, #32768
 788 0058 43F08003 		orr	r3, r3, #128
 789 005c 20F82230 		strh	r3, [r0, r2, lsl #2]	@ movhi
 790 0060 E6E7     		b	.L62
 791              	.L63:
 792 0062 0A78     		ldrb	r2, [r1]	@ zero_extendqisi2
 793 0064 30F82230 		ldrh	r3, [r0, r2, lsl #2]
 794 0068 9BB2     		uxth	r3, r3
 795 006a 23F4E043 		bic	r3, r3, #28672
 796 006e 23F04003 		bic	r3, r3, #64
 797 0072 43F40043 		orr	r3, r3, #32768
 798 0076 43F08003 		orr	r3, r3, #128
 799 007a 20F82230 		strh	r3, [r0, r2, lsl #2]	@ movhi
 800 007e D7E7     		b	.L62
 801              	.L64:
 802 0080 0A78     		ldrb	r2, [r1]	@ zero_extendqisi2
 803 0082 30F82230 		ldrh	r3, [r0, r2, lsl #2]
 804 0086 9BB2     		uxth	r3, r3
 805 0088 23F48043 		bic	r3, r3, #16384
 806 008c 23F07003 		bic	r3, r3, #112
 807 0090 43F40043 		orr	r3, r3, #32768
 808 0094 43F08003 		orr	r3, r3, #128
 809 0098 20F82230 		strh	r3, [r0, r2, lsl #2]	@ movhi
 810 009c C8E7     		b	.L62
 812              		.section	.text.USB_StopDevice,"ax",%progbits
 813              		.align	1
 814              		.global	USB_StopDevice
 815              		.syntax unified
 816              		.thumb
 817              		.thumb_func
 819              	USB_StopDevice:
 820              		@ args = 0, pretend = 0, frame = 0
 821              		@ frame_needed = 0, uses_anonymous_args = 0
 822              		@ link register save eliminated.
 823 0000 0346     		mov	r3, r0
ARM GAS  /tmp/ccdZN3pI.s 			page 15


 824 0002 0122     		movs	r2, #1
 825 0004 A0F84020 		strh	r2, [r0, #64]	@ movhi
 826 0008 0020     		movs	r0, #0
 827 000a A3F84400 		strh	r0, [r3, #68]	@ movhi
 828 000e 0322     		movs	r2, #3
 829 0010 A3F84020 		strh	r2, [r3, #64]	@ movhi
 830 0014 7047     		bx	lr
 832              		.section	.text.USB_SetDevAddress,"ax",%progbits
 833              		.align	1
 834              		.global	USB_SetDevAddress
 835              		.syntax unified
 836              		.thumb
 837              		.thumb_func
 839              	USB_SetDevAddress:
 840              		@ args = 0, pretend = 0, frame = 0
 841              		@ frame_needed = 0, uses_anonymous_args = 0
 842              		@ link register save eliminated.
 843 0000 11B9     		cbnz	r1, .L68
 844 0002 8023     		movs	r3, #128
 845 0004 A0F84C30 		strh	r3, [r0, #76]	@ movhi
 846              	.L68:
 847 0008 0020     		movs	r0, #0
 848 000a 7047     		bx	lr
 850              		.section	.text.USB_DevConnect,"ax",%progbits
 851              		.align	1
 852              		.global	USB_DevConnect
 853              		.syntax unified
 854              		.thumb
 855              		.thumb_func
 857              	USB_DevConnect:
 858              		@ args = 0, pretend = 0, frame = 0
 859              		@ frame_needed = 0, uses_anonymous_args = 0
 860              		@ link register save eliminated.
 861 0000 0020     		movs	r0, #0
 862 0002 7047     		bx	lr
 864              		.section	.text.USB_DevDisconnect,"ax",%progbits
 865              		.align	1
 866              		.global	USB_DevDisconnect
 867              		.syntax unified
 868              		.thumb
 869              		.thumb_func
 871              	USB_DevDisconnect:
 872              		@ args = 0, pretend = 0, frame = 0
 873              		@ frame_needed = 0, uses_anonymous_args = 0
 874              		@ link register save eliminated.
 875 0000 0020     		movs	r0, #0
 876 0002 7047     		bx	lr
 878              		.section	.text.USB_ReadInterrupts,"ax",%progbits
 879              		.align	1
 880              		.global	USB_ReadInterrupts
 881              		.syntax unified
 882              		.thumb
 883              		.thumb_func
 885              	USB_ReadInterrupts:
 886              		@ args = 0, pretend = 0, frame = 0
 887              		@ frame_needed = 0, uses_anonymous_args = 0
 888              		@ link register save eliminated.
ARM GAS  /tmp/ccdZN3pI.s 			page 16


 889 0000 B0F84400 		ldrh	r0, [r0, #68]
 890 0004 80B2     		uxth	r0, r0
 891 0006 7047     		bx	lr
 893              		.section	.text.USB_ReadDevAllOutEpInterrupt,"ax",%progbits
 894              		.align	1
 895              		.global	USB_ReadDevAllOutEpInterrupt
 896              		.syntax unified
 897              		.thumb
 898              		.thumb_func
 900              	USB_ReadDevAllOutEpInterrupt:
 901              		@ args = 0, pretend = 0, frame = 0
 902              		@ frame_needed = 0, uses_anonymous_args = 0
 903              		@ link register save eliminated.
 904 0000 0020     		movs	r0, #0
 905 0002 7047     		bx	lr
 907              		.section	.text.USB_ReadDevAllInEpInterrupt,"ax",%progbits
 908              		.align	1
 909              		.global	USB_ReadDevAllInEpInterrupt
 910              		.syntax unified
 911              		.thumb
 912              		.thumb_func
 914              	USB_ReadDevAllInEpInterrupt:
 915              		@ args = 0, pretend = 0, frame = 0
 916              		@ frame_needed = 0, uses_anonymous_args = 0
 917              		@ link register save eliminated.
 918 0000 0020     		movs	r0, #0
 919 0002 7047     		bx	lr
 921              		.section	.text.USB_ReadDevOutEPInterrupt,"ax",%progbits
 922              		.align	1
 923              		.global	USB_ReadDevOutEPInterrupt
 924              		.syntax unified
 925              		.thumb
 926              		.thumb_func
 928              	USB_ReadDevOutEPInterrupt:
 929              		@ args = 0, pretend = 0, frame = 0
 930              		@ frame_needed = 0, uses_anonymous_args = 0
 931              		@ link register save eliminated.
 932 0000 0020     		movs	r0, #0
 933 0002 7047     		bx	lr
 935              		.section	.text.USB_ReadDevInEPInterrupt,"ax",%progbits
 936              		.align	1
 937              		.global	USB_ReadDevInEPInterrupt
 938              		.syntax unified
 939              		.thumb
 940              		.thumb_func
 942              	USB_ReadDevInEPInterrupt:
 943              		@ args = 0, pretend = 0, frame = 0
 944              		@ frame_needed = 0, uses_anonymous_args = 0
 945              		@ link register save eliminated.
 946 0000 0020     		movs	r0, #0
 947 0002 7047     		bx	lr
 949              		.section	.text.USB_ClearInterrupts,"ax",%progbits
 950              		.align	1
 951              		.global	USB_ClearInterrupts
 952              		.syntax unified
 953              		.thumb
 954              		.thumb_func
ARM GAS  /tmp/ccdZN3pI.s 			page 17


 956              	USB_ClearInterrupts:
 957              		@ args = 0, pretend = 0, frame = 0
 958              		@ frame_needed = 0, uses_anonymous_args = 0
 959              		@ link register save eliminated.
 960 0000 7047     		bx	lr
 962              		.section	.text.USB_EP0_OutStart,"ax",%progbits
 963              		.align	1
 964              		.global	USB_EP0_OutStart
 965              		.syntax unified
 966              		.thumb
 967              		.thumb_func
 969              	USB_EP0_OutStart:
 970              		@ args = 0, pretend = 0, frame = 0
 971              		@ frame_needed = 0, uses_anonymous_args = 0
 972              		@ link register save eliminated.
 973 0000 0020     		movs	r0, #0
 974 0002 7047     		bx	lr
 976              		.section	.text.USB_ActivateRemoteWakeup,"ax",%progbits
 977              		.align	1
 978              		.global	USB_ActivateRemoteWakeup
 979              		.syntax unified
 980              		.thumb
 981              		.thumb_func
 983              	USB_ActivateRemoteWakeup:
 984              		@ args = 0, pretend = 0, frame = 0
 985              		@ frame_needed = 0, uses_anonymous_args = 0
 986              		@ link register save eliminated.
 987 0000 B0F84030 		ldrh	r3, [r0, #64]
 988 0004 9BB2     		uxth	r3, r3
 989 0006 43F01003 		orr	r3, r3, #16
 990 000a A0F84030 		strh	r3, [r0, #64]	@ movhi
 991 000e 0020     		movs	r0, #0
 992 0010 7047     		bx	lr
 994              		.section	.text.USB_DeActivateRemoteWakeup,"ax",%progbits
 995              		.align	1
 996              		.global	USB_DeActivateRemoteWakeup
 997              		.syntax unified
 998              		.thumb
 999              		.thumb_func
 1001              	USB_DeActivateRemoteWakeup:
 1002              		@ args = 0, pretend = 0, frame = 0
 1003              		@ frame_needed = 0, uses_anonymous_args = 0
 1004              		@ link register save eliminated.
 1005 0000 B0F84030 		ldrh	r3, [r0, #64]
 1006 0004 9BB2     		uxth	r3, r3
 1007 0006 23F01003 		bic	r3, r3, #16
 1008 000a 9BB2     		uxth	r3, r3
 1009 000c A0F84030 		strh	r3, [r0, #64]	@ movhi
 1010 0010 0020     		movs	r0, #0
 1011 0012 7047     		bx	lr
 1013              		.section	.text.USB_WritePMA,"ax",%progbits
 1014              		.align	1
 1015              		.global	USB_WritePMA
 1016              		.syntax unified
 1017              		.thumb
 1018              		.thumb_func
 1020              	USB_WritePMA:
ARM GAS  /tmp/ccdZN3pI.s 			page 18


 1021              		@ args = 0, pretend = 0, frame = 0
 1022              		@ frame_needed = 0, uses_anonymous_args = 0
 1023              		@ link register save eliminated.
 1024 0000 0133     		adds	r3, r3, #1
 1025 0002 5B08     		lsrs	r3, r3, #1
 1026 0004 00EB4200 		add	r0, r0, r2, lsl #1
 1027 0008 00F58060 		add	r0, r0, #1024
 1028 000c 08E0     		b	.L81
 1029              	.L82:
 1030 000e 0A78     		ldrb	r2, [r1]	@ zero_extendqisi2
 1031 0010 91F801C0 		ldrb	ip, [r1, #1]	@ zero_extendqisi2
 1032 0014 42EA0C22 		orr	r2, r2, ip, lsl #8
 1033 0018 20F8042B 		strh	r2, [r0], #4	@ movhi
 1034 001c 0231     		adds	r1, r1, #2
 1035 001e 013B     		subs	r3, r3, #1
 1036              	.L81:
 1037 0020 002B     		cmp	r3, #0
 1038 0022 F4D1     		bne	.L82
 1039 0024 7047     		bx	lr
 1041              		.section	.text.USB_EPStartXfer,"ax",%progbits
 1042              		.align	1
 1043              		.global	USB_EPStartXfer
 1044              		.syntax unified
 1045              		.thumb
 1046              		.thumb_func
 1048              	USB_EPStartXfer:
 1049              		@ args = 0, pretend = 0, frame = 0
 1050              		@ frame_needed = 0, uses_anonymous_args = 0
 1051 0000 70B5     		push	{r4, r5, r6, lr}
 1052 0002 0546     		mov	r5, r0
 1053 0004 0C46     		mov	r4, r1
 1054 0006 4A78     		ldrb	r2, [r1, #1]	@ zero_extendqisi2
 1055 0008 012A     		cmp	r2, #1
 1056 000a 3BD0     		beq	.L168
 1057 000c 0B7B     		ldrb	r3, [r1, #12]	@ zero_extendqisi2
 1058 000e 002B     		cmp	r3, #0
 1059 0010 40F0A682 		bne	.L133
 1060 0014 8B69     		ldr	r3, [r1, #24]
 1061 0016 0A69     		ldr	r2, [r1, #16]
 1062 0018 9342     		cmp	r3, r2
 1063 001a 40F28482 		bls	.L134
 1064 001e 9B1A     		subs	r3, r3, r2
 1065 0020 8B61     		str	r3, [r1, #24]
 1066              	.L135:
 1067 0022 B5F85030 		ldrh	r3, [r5, #80]
 1068 0026 9BB2     		uxth	r3, r3
 1069 0028 2B44     		add	r3, r3, r5
 1070 002a 2178     		ldrb	r1, [r4]	@ zero_extendqisi2
 1071 002c 03EB0113 		add	r3, r3, r1, lsl #4
 1072 0030 B3F80C14 		ldrh	r1, [r3, #1036]
 1073 0034 C1F30901 		ubfx	r1, r1, #0, #10
 1074 0038 A3F80C14 		strh	r1, [r3, #1036]	@ movhi
 1075 003c 3E2A     		cmp	r2, #62
 1076 003e 40F27682 		bls	.L136
 1077 0042 5109     		lsrs	r1, r2, #5
 1078 0044 12F01F0F 		tst	r2, #31
 1079 0048 00D1     		bne	.L137
ARM GAS  /tmp/ccdZN3pI.s 			page 19


 1080 004a 0139     		subs	r1, r1, #1
 1081              	.L137:
 1082 004c B3F80C24 		ldrh	r2, [r3, #1036]
 1083 0050 92B2     		uxth	r2, r2
 1084 0052 8902     		lsls	r1, r1, #10
 1085 0054 89B2     		uxth	r1, r1
 1086 0056 0A43     		orrs	r2, r2, r1
 1087 0058 42F40042 		orr	r2, r2, #32768
 1088 005c A3F80C24 		strh	r2, [r3, #1036]	@ movhi
 1089              	.L138:
 1090 0060 2278     		ldrb	r2, [r4]	@ zero_extendqisi2
 1091 0062 35F82230 		ldrh	r3, [r5, r2, lsl #2]
 1092 0066 9BB2     		uxth	r3, r3
 1093 0068 23F48043 		bic	r3, r3, #16384
 1094 006c 23F07003 		bic	r3, r3, #112
 1095 0070 83F44053 		eor	r3, r3, #12288
 1096 0074 43F40043 		orr	r3, r3, #32768
 1097 0078 43F08003 		orr	r3, r3, #128
 1098 007c 25F82230 		strh	r3, [r5, r2, lsl #2]	@ movhi
 1099 0080 0020     		movs	r0, #0
 1100              	.L132:
 1101 0082 70BD     		pop	{r4, r5, r6, pc}
 1102              	.L168:
 1103 0084 8E69     		ldr	r6, [r1, #24]
 1104 0086 0969     		ldr	r1, [r1, #16]
 1105 0088 8E42     		cmp	r6, r1
 1106 008a 00D9     		bls	.L85
 1107 008c 0E46     		mov	r6, r1
 1108              	.L85:
 1109 008e 237B     		ldrb	r3, [r4, #12]	@ zero_extendqisi2
 1110 0090 73B3     		cbz	r3, .L169
 1111 0092 E378     		ldrb	r3, [r4, #3]	@ zero_extendqisi2
 1112 0094 022B     		cmp	r3, #2
 1113 0096 4DD0     		beq	.L170
 1114 0098 236A     		ldr	r3, [r4, #32]
 1115 009a 9B1B     		subs	r3, r3, r6
 1116 009c 2362     		str	r3, [r4, #32]
 1117 009e 2178     		ldrb	r1, [r4]	@ zero_extendqisi2
 1118 00a0 35F82130 		ldrh	r3, [r5, r1, lsl #2]
 1119 00a4 13F0400F 		tst	r3, #64
 1120 00a8 00F0F581 		beq	.L119
 1121 00ac 002A     		cmp	r2, #0
 1122 00ae 40F0E281 		bne	.L120
 1123 00b2 B5F85030 		ldrh	r3, [r5, #80]
 1124 00b6 9BB2     		uxth	r3, r3
 1125 00b8 2B44     		add	r3, r3, r5
 1126 00ba 03EB0113 		add	r3, r3, r1, lsl #4
 1127 00be B3F80C24 		ldrh	r2, [r3, #1036]
 1128 00c2 C2F30902 		ubfx	r2, r2, #0, #10
 1129 00c6 A3F80C24 		strh	r2, [r3, #1036]	@ movhi
 1130 00ca 3E2E     		cmp	r6, #62
 1131 00cc 40F2BA81 		bls	.L121
 1132 00d0 7109     		lsrs	r1, r6, #5
 1133 00d2 16F01F0F 		tst	r6, #31
 1134 00d6 00D1     		bne	.L122
 1135 00d8 0139     		subs	r1, r1, #1
 1136              	.L122:
ARM GAS  /tmp/ccdZN3pI.s 			page 20


 1137 00da B3F80C24 		ldrh	r2, [r3, #1036]
 1138 00de 92B2     		uxth	r2, r2
 1139 00e0 8902     		lsls	r1, r1, #10
 1140 00e2 89B2     		uxth	r1, r1
 1141 00e4 0A43     		orrs	r2, r2, r1
 1142 00e6 42F40042 		orr	r2, r2, #32768
 1143 00ea A3F80C24 		strh	r2, [r3, #1036]	@ movhi
 1144 00ee CBE1     		b	.L123
 1145              	.L169:
 1146 00f0 B6B2     		uxth	r6, r6
 1147 00f2 3346     		mov	r3, r6
 1148 00f4 E288     		ldrh	r2, [r4, #6]
 1149 00f6 6169     		ldr	r1, [r4, #20]
 1150 00f8 2846     		mov	r0, r5
 1151 00fa FFF7FEFF 		bl	USB_WritePMA
 1152 00fe B5F85030 		ldrh	r3, [r5, #80]
 1153 0102 9BB2     		uxth	r3, r3
 1154 0104 2B44     		add	r3, r3, r5
 1155 0106 2278     		ldrb	r2, [r4]	@ zero_extendqisi2
 1156 0108 03EB0213 		add	r3, r3, r2, lsl #4
 1157 010c A3F80464 		strh	r6, [r3, #1028]	@ movhi
 1158              	.L87:
 1159 0110 2278     		ldrb	r2, [r4]	@ zero_extendqisi2
 1160 0112 35F82230 		ldrh	r3, [r5, r2, lsl #2]
 1161 0116 9BB2     		uxth	r3, r3
 1162 0118 23F4E043 		bic	r3, r3, #28672
 1163 011c 23F04003 		bic	r3, r3, #64
 1164 0120 83F03003 		eor	r3, r3, #48
 1165 0124 43F40043 		orr	r3, r3, #32768
 1166 0128 43F08003 		orr	r3, r3, #128
 1167 012c 25F82230 		strh	r3, [r5, r2, lsl #2]	@ movhi
 1168 0130 0020     		movs	r0, #0
 1169 0132 A6E7     		b	.L132
 1170              	.L170:
 1171 0134 236A     		ldr	r3, [r4, #32]
 1172 0136 9942     		cmp	r1, r3
 1173 0138 80F06681 		bcs	.L89
 1174 013c 2278     		ldrb	r2, [r4]	@ zero_extendqisi2
 1175 013e 35F82230 		ldrh	r3, [r5, r2, lsl #2]
 1176 0142 9BB2     		uxth	r3, r3
 1177 0144 23F4E043 		bic	r3, r3, #28672
 1178 0148 23F07003 		bic	r3, r3, #112
 1179 014c 43F40143 		orr	r3, r3, #33024
 1180 0150 43F08003 		orr	r3, r3, #128
 1181 0154 25F82230 		strh	r3, [r5, r2, lsl #2]	@ movhi
 1182 0158 236A     		ldr	r3, [r4, #32]
 1183 015a 9B1B     		subs	r3, r3, r6
 1184 015c 2362     		str	r3, [r4, #32]
 1185 015e 2278     		ldrb	r2, [r4]	@ zero_extendqisi2
 1186 0160 35F82230 		ldrh	r3, [r5, r2, lsl #2]
 1187 0164 13F0400F 		tst	r3, #64
 1188 0168 00F0A780 		beq	.L90
 1189 016c 6378     		ldrb	r3, [r4, #1]	@ zero_extendqisi2
 1190 016e B3BB     		cbnz	r3, .L91
 1191 0170 B5F85030 		ldrh	r3, [r5, #80]
 1192 0174 9BB2     		uxth	r3, r3
 1193 0176 2B44     		add	r3, r3, r5
ARM GAS  /tmp/ccdZN3pI.s 			page 21


 1194 0178 03EB0213 		add	r3, r3, r2, lsl #4
 1195 017c B3F80C24 		ldrh	r2, [r3, #1036]
 1196 0180 C2F30902 		ubfx	r2, r2, #0, #10
 1197 0184 A3F80C24 		strh	r2, [r3, #1036]	@ movhi
 1198 0188 3E2E     		cmp	r6, #62
 1199 018a 0FD9     		bls	.L92
 1200 018c 7109     		lsrs	r1, r6, #5
 1201 018e 16F01F0F 		tst	r6, #31
 1202 0192 00D1     		bne	.L93
 1203 0194 0139     		subs	r1, r1, #1
 1204              	.L93:
 1205 0196 B3F80C24 		ldrh	r2, [r3, #1036]
 1206 019a 92B2     		uxth	r2, r2
 1207 019c 8902     		lsls	r1, r1, #10
 1208 019e 89B2     		uxth	r1, r1
 1209 01a0 0A43     		orrs	r2, r2, r1
 1210 01a2 42F40042 		orr	r2, r2, #32768
 1211 01a6 A3F80C24 		strh	r2, [r3, #1036]	@ movhi
 1212 01aa 1AE0     		b	.L94
 1213              	.L92:
 1214 01ac 4EB9     		cbnz	r6, .L95
 1215 01ae B3F80C24 		ldrh	r2, [r3, #1036]
 1216 01b2 6FEA4242 		mvn	r2, r2, lsl #17
 1217 01b6 6FEA5242 		mvn	r2, r2, lsr #17
 1218 01ba 92B2     		uxth	r2, r2
 1219 01bc A3F80C24 		strh	r2, [r3, #1036]	@ movhi
 1220 01c0 0FE0     		b	.L94
 1221              	.L95:
 1222 01c2 7208     		lsrs	r2, r6, #1
 1223 01c4 16F0010F 		tst	r6, #1
 1224 01c8 00D0     		beq	.L96
 1225 01ca 0132     		adds	r2, r2, #1
 1226              	.L96:
 1227 01cc B3F80C14 		ldrh	r1, [r3, #1036]
 1228 01d0 89B2     		uxth	r1, r1
 1229 01d2 9202     		lsls	r2, r2, #10
 1230 01d4 92B2     		uxth	r2, r2
 1231 01d6 0A43     		orrs	r2, r2, r1
 1232 01d8 A3F80C24 		strh	r2, [r3, #1036]	@ movhi
 1233 01dc 01E0     		b	.L94
 1234              	.L91:
 1235 01de 012B     		cmp	r3, #1
 1236 01e0 30D0     		beq	.L171
 1237              	.L94:
 1238 01e2 B3B2     		uxth	r3, r6
 1239 01e4 6289     		ldrh	r2, [r4, #10]
 1240 01e6 6169     		ldr	r1, [r4, #20]
 1241 01e8 2846     		mov	r0, r5
 1242 01ea FFF7FEFF 		bl	USB_WritePMA
 1243 01ee 6369     		ldr	r3, [r4, #20]
 1244 01f0 3344     		add	r3, r3, r6
 1245 01f2 6361     		str	r3, [r4, #20]
 1246 01f4 236A     		ldr	r3, [r4, #32]
 1247 01f6 2269     		ldr	r2, [r4, #16]
 1248 01f8 9342     		cmp	r3, r2
 1249 01fa 2DD9     		bls	.L97
 1250 01fc 9B1B     		subs	r3, r3, r6
ARM GAS  /tmp/ccdZN3pI.s 			page 22


 1251 01fe 2362     		str	r3, [r4, #32]
 1252              	.L98:
 1253 0200 6378     		ldrb	r3, [r4, #1]	@ zero_extendqisi2
 1254 0202 002B     		cmp	r3, #0
 1255 0204 45D1     		bne	.L99
 1256 0206 B5F85030 		ldrh	r3, [r5, #80]
 1257 020a 9BB2     		uxth	r3, r3
 1258 020c 2B44     		add	r3, r3, r5
 1259 020e 2278     		ldrb	r2, [r4]	@ zero_extendqisi2
 1260 0210 03EB0213 		add	r3, r3, r2, lsl #4
 1261 0214 B3F80424 		ldrh	r2, [r3, #1028]
 1262 0218 C2F30902 		ubfx	r2, r2, #0, #10
 1263 021c A3F80424 		strh	r2, [r3, #1028]	@ movhi
 1264 0220 3E2E     		cmp	r6, #62
 1265 0222 1DD9     		bls	.L100
 1266 0224 7109     		lsrs	r1, r6, #5
 1267 0226 16F01F0F 		tst	r6, #31
 1268 022a 00D1     		bne	.L101
 1269 022c 0139     		subs	r1, r1, #1
 1270              	.L101:
 1271 022e B3F80424 		ldrh	r2, [r3, #1028]
 1272 0232 92B2     		uxth	r2, r2
 1273 0234 8902     		lsls	r1, r1, #10
 1274 0236 89B2     		uxth	r1, r1
 1275 0238 0A43     		orrs	r2, r2, r1
 1276 023a 42F40042 		orr	r2, r2, #32768
 1277 023e A3F80424 		strh	r2, [r3, #1028]	@ movhi
 1278 0242 28E0     		b	.L102
 1279              	.L171:
 1280 0244 B5F85030 		ldrh	r3, [r5, #80]
 1281 0248 9BB2     		uxth	r3, r3
 1282 024a 2B44     		add	r3, r3, r5
 1283 024c 03EB0213 		add	r3, r3, r2, lsl #4
 1284 0250 B2B2     		uxth	r2, r6
 1285 0252 A3F80C24 		strh	r2, [r3, #1036]	@ movhi
 1286 0256 C4E7     		b	.L94
 1287              	.L97:
 1288 0258 0022     		movs	r2, #0
 1289 025a 2262     		str	r2, [r4, #32]
 1290 025c 1E46     		mov	r6, r3
 1291 025e CFE7     		b	.L98
 1292              	.L100:
 1293 0260 4EB9     		cbnz	r6, .L103
 1294 0262 B3F80424 		ldrh	r2, [r3, #1028]
 1295 0266 6FEA4242 		mvn	r2, r2, lsl #17
 1296 026a 6FEA5242 		mvn	r2, r2, lsr #17
 1297 026e 92B2     		uxth	r2, r2
 1298 0270 A3F80424 		strh	r2, [r3, #1028]	@ movhi
 1299 0274 0FE0     		b	.L102
 1300              	.L103:
 1301 0276 7208     		lsrs	r2, r6, #1
 1302 0278 16F0010F 		tst	r6, #1
 1303 027c 00D0     		beq	.L104
 1304 027e 0132     		adds	r2, r2, #1
 1305              	.L104:
 1306 0280 B3F80414 		ldrh	r1, [r3, #1028]
 1307 0284 89B2     		uxth	r1, r1
ARM GAS  /tmp/ccdZN3pI.s 			page 23


 1308 0286 9202     		lsls	r2, r2, #10
 1309 0288 92B2     		uxth	r2, r2
 1310 028a 0A43     		orrs	r2, r2, r1
 1311 028c A3F80424 		strh	r2, [r3, #1028]	@ movhi
 1312 0290 01E0     		b	.L102
 1313              	.L99:
 1314 0292 012B     		cmp	r3, #1
 1315 0294 06D0     		beq	.L172
 1316              	.L102:
 1317 0296 B3B2     		uxth	r3, r6
 1318 0298 2289     		ldrh	r2, [r4, #8]
 1319 029a 6169     		ldr	r1, [r4, #20]
 1320 029c 2846     		mov	r0, r5
 1321 029e FFF7FEFF 		bl	USB_WritePMA
 1322 02a2 35E7     		b	.L87
 1323              	.L172:
 1324 02a4 B5F85030 		ldrh	r3, [r5, #80]
 1325 02a8 9BB2     		uxth	r3, r3
 1326 02aa 2B44     		add	r3, r3, r5
 1327 02ac 2278     		ldrb	r2, [r4]	@ zero_extendqisi2
 1328 02ae 03EB0213 		add	r3, r3, r2, lsl #4
 1329 02b2 B2B2     		uxth	r2, r6
 1330 02b4 A3F80424 		strh	r2, [r3, #1028]	@ movhi
 1331 02b8 EDE7     		b	.L102
 1332              	.L90:
 1333 02ba 6378     		ldrb	r3, [r4, #1]	@ zero_extendqisi2
 1334 02bc B3BB     		cbnz	r3, .L105
 1335 02be B5F85030 		ldrh	r3, [r5, #80]
 1336 02c2 9BB2     		uxth	r3, r3
 1337 02c4 2B44     		add	r3, r3, r5
 1338 02c6 03EB0213 		add	r3, r3, r2, lsl #4
 1339 02ca B3F80424 		ldrh	r2, [r3, #1028]
 1340 02ce C2F30902 		ubfx	r2, r2, #0, #10
 1341 02d2 A3F80424 		strh	r2, [r3, #1028]	@ movhi
 1342 02d6 3E2E     		cmp	r6, #62
 1343 02d8 0FD9     		bls	.L106
 1344 02da 7109     		lsrs	r1, r6, #5
 1345 02dc 16F01F0F 		tst	r6, #31
 1346 02e0 00D1     		bne	.L107
 1347 02e2 0139     		subs	r1, r1, #1
 1348              	.L107:
 1349 02e4 B3F80424 		ldrh	r2, [r3, #1028]
 1350 02e8 92B2     		uxth	r2, r2
 1351 02ea 8902     		lsls	r1, r1, #10
 1352 02ec 89B2     		uxth	r1, r1
 1353 02ee 0A43     		orrs	r2, r2, r1
 1354 02f0 42F40042 		orr	r2, r2, #32768
 1355 02f4 A3F80424 		strh	r2, [r3, #1028]	@ movhi
 1356 02f8 1AE0     		b	.L108
 1357              	.L106:
 1358 02fa 4EB9     		cbnz	r6, .L109
 1359 02fc B3F80424 		ldrh	r2, [r3, #1028]
 1360 0300 6FEA4242 		mvn	r2, r2, lsl #17
 1361 0304 6FEA5242 		mvn	r2, r2, lsr #17
 1362 0308 92B2     		uxth	r2, r2
 1363 030a A3F80424 		strh	r2, [r3, #1028]	@ movhi
 1364 030e 0FE0     		b	.L108
ARM GAS  /tmp/ccdZN3pI.s 			page 24


 1365              	.L109:
 1366 0310 7208     		lsrs	r2, r6, #1
 1367 0312 16F0010F 		tst	r6, #1
 1368 0316 00D0     		beq	.L110
 1369 0318 0132     		adds	r2, r2, #1
 1370              	.L110:
 1371 031a B3F80414 		ldrh	r1, [r3, #1028]
 1372 031e 89B2     		uxth	r1, r1
 1373 0320 9202     		lsls	r2, r2, #10
 1374 0322 92B2     		uxth	r2, r2
 1375 0324 0A43     		orrs	r2, r2, r1
 1376 0326 A3F80424 		strh	r2, [r3, #1028]	@ movhi
 1377 032a 01E0     		b	.L108
 1378              	.L105:
 1379 032c 012B     		cmp	r3, #1
 1380 032e 30D0     		beq	.L173
 1381              	.L108:
 1382 0330 B3B2     		uxth	r3, r6
 1383 0332 2289     		ldrh	r2, [r4, #8]
 1384 0334 6169     		ldr	r1, [r4, #20]
 1385 0336 2846     		mov	r0, r5
 1386 0338 FFF7FEFF 		bl	USB_WritePMA
 1387 033c 6369     		ldr	r3, [r4, #20]
 1388 033e 3344     		add	r3, r3, r6
 1389 0340 6361     		str	r3, [r4, #20]
 1390 0342 236A     		ldr	r3, [r4, #32]
 1391 0344 2269     		ldr	r2, [r4, #16]
 1392 0346 9342     		cmp	r3, r2
 1393 0348 2DD9     		bls	.L111
 1394 034a 9B1B     		subs	r3, r3, r6
 1395 034c 2362     		str	r3, [r4, #32]
 1396              	.L112:
 1397 034e 6378     		ldrb	r3, [r4, #1]	@ zero_extendqisi2
 1398 0350 002B     		cmp	r3, #0
 1399 0352 45D1     		bne	.L113
 1400 0354 B5F85030 		ldrh	r3, [r5, #80]
 1401 0358 9BB2     		uxth	r3, r3
 1402 035a 2B44     		add	r3, r3, r5
 1403 035c 2278     		ldrb	r2, [r4]	@ zero_extendqisi2
 1404 035e 03EB0213 		add	r3, r3, r2, lsl #4
 1405 0362 B3F80C24 		ldrh	r2, [r3, #1036]
 1406 0366 C2F30902 		ubfx	r2, r2, #0, #10
 1407 036a A3F80C24 		strh	r2, [r3, #1036]	@ movhi
 1408 036e 3E2E     		cmp	r6, #62
 1409 0370 1DD9     		bls	.L114
 1410 0372 7109     		lsrs	r1, r6, #5
 1411 0374 16F01F0F 		tst	r6, #31
 1412 0378 00D1     		bne	.L115
 1413 037a 0139     		subs	r1, r1, #1
 1414              	.L115:
 1415 037c B3F80C24 		ldrh	r2, [r3, #1036]
 1416 0380 92B2     		uxth	r2, r2
 1417 0382 8902     		lsls	r1, r1, #10
 1418 0384 89B2     		uxth	r1, r1
 1419 0386 0A43     		orrs	r2, r2, r1
 1420 0388 42F40042 		orr	r2, r2, #32768
 1421 038c A3F80C24 		strh	r2, [r3, #1036]	@ movhi
ARM GAS  /tmp/ccdZN3pI.s 			page 25


 1422 0390 28E0     		b	.L116
 1423              	.L173:
 1424 0392 B5F85030 		ldrh	r3, [r5, #80]
 1425 0396 9BB2     		uxth	r3, r3
 1426 0398 2B44     		add	r3, r3, r5
 1427 039a 03EB0213 		add	r3, r3, r2, lsl #4
 1428 039e B2B2     		uxth	r2, r6
 1429 03a0 A3F80424 		strh	r2, [r3, #1028]	@ movhi
 1430 03a4 C4E7     		b	.L108
 1431              	.L111:
 1432 03a6 0022     		movs	r2, #0
 1433 03a8 2262     		str	r2, [r4, #32]
 1434 03aa 1E46     		mov	r6, r3
 1435 03ac CFE7     		b	.L112
 1436              	.L114:
 1437 03ae 4EB9     		cbnz	r6, .L117
 1438 03b0 B3F80C24 		ldrh	r2, [r3, #1036]
 1439 03b4 6FEA4242 		mvn	r2, r2, lsl #17
 1440 03b8 6FEA5242 		mvn	r2, r2, lsr #17
 1441 03bc 92B2     		uxth	r2, r2
 1442 03be A3F80C24 		strh	r2, [r3, #1036]	@ movhi
 1443 03c2 0FE0     		b	.L116
 1444              	.L117:
 1445 03c4 7208     		lsrs	r2, r6, #1
 1446 03c6 16F0010F 		tst	r6, #1
 1447 03ca 00D0     		beq	.L118
 1448 03cc 0132     		adds	r2, r2, #1
 1449              	.L118:
 1450 03ce B3F80C14 		ldrh	r1, [r3, #1036]
 1451 03d2 89B2     		uxth	r1, r1
 1452 03d4 9202     		lsls	r2, r2, #10
 1453 03d6 92B2     		uxth	r2, r2
 1454 03d8 0A43     		orrs	r2, r2, r1
 1455 03da A3F80C24 		strh	r2, [r3, #1036]	@ movhi
 1456 03de 01E0     		b	.L116
 1457              	.L113:
 1458 03e0 012B     		cmp	r3, #1
 1459 03e2 06D0     		beq	.L174
 1460              	.L116:
 1461 03e4 B3B2     		uxth	r3, r6
 1462 03e6 6289     		ldrh	r2, [r4, #10]
 1463 03e8 6169     		ldr	r1, [r4, #20]
 1464 03ea 2846     		mov	r0, r5
 1465 03ec FFF7FEFF 		bl	USB_WritePMA
 1466 03f0 8EE6     		b	.L87
 1467              	.L174:
 1468 03f2 B5F85030 		ldrh	r3, [r5, #80]
 1469 03f6 9BB2     		uxth	r3, r3
 1470 03f8 2B44     		add	r3, r3, r5
 1471 03fa 2278     		ldrb	r2, [r4]	@ zero_extendqisi2
 1472 03fc 03EB0213 		add	r3, r3, r2, lsl #4
 1473 0400 B2B2     		uxth	r2, r6
 1474 0402 A3F80C24 		strh	r2, [r3, #1036]	@ movhi
 1475 0406 EDE7     		b	.L116
 1476              	.L89:
 1477 0408 2178     		ldrb	r1, [r4]	@ zero_extendqisi2
 1478 040a 35F82120 		ldrh	r2, [r5, r1, lsl #2]
ARM GAS  /tmp/ccdZN3pI.s 			page 26


 1479 040e 92B2     		uxth	r2, r2
 1480 0410 22F4E242 		bic	r2, r2, #28928
 1481 0414 22F07002 		bic	r2, r2, #112
 1482 0418 42F40042 		orr	r2, r2, #32768
 1483 041c 42F08002 		orr	r2, r2, #128
 1484 0420 25F82120 		strh	r2, [r5, r1, lsl #2]	@ movhi
 1485 0424 B5F85020 		ldrh	r2, [r5, #80]
 1486 0428 92B2     		uxth	r2, r2
 1487 042a 2A44     		add	r2, r2, r5
 1488 042c 2178     		ldrb	r1, [r4]	@ zero_extendqisi2
 1489 042e 02EB0112 		add	r2, r2, r1, lsl #4
 1490 0432 9BB2     		uxth	r3, r3
 1491 0434 A2F80434 		strh	r3, [r2, #1028]	@ movhi
 1492 0438 2289     		ldrh	r2, [r4, #8]
 1493 043a 6169     		ldr	r1, [r4, #20]
 1494 043c 2846     		mov	r0, r5
 1495 043e FFF7FEFF 		bl	USB_WritePMA
 1496 0442 65E6     		b	.L87
 1497              	.L121:
 1498 0444 4EB9     		cbnz	r6, .L124
 1499 0446 B3F80C24 		ldrh	r2, [r3, #1036]
 1500 044a 6FEA4242 		mvn	r2, r2, lsl #17
 1501 044e 6FEA5242 		mvn	r2, r2, lsr #17
 1502 0452 92B2     		uxth	r2, r2
 1503 0454 A3F80C24 		strh	r2, [r3, #1036]	@ movhi
 1504 0458 16E0     		b	.L123
 1505              	.L124:
 1506 045a 7208     		lsrs	r2, r6, #1
 1507 045c 16F0010F 		tst	r6, #1
 1508 0460 00D0     		beq	.L125
 1509 0462 0132     		adds	r2, r2, #1
 1510              	.L125:
 1511 0464 B3F80C14 		ldrh	r1, [r3, #1036]
 1512 0468 89B2     		uxth	r1, r1
 1513 046a 9202     		lsls	r2, r2, #10
 1514 046c 92B2     		uxth	r2, r2
 1515 046e 0A43     		orrs	r2, r2, r1
 1516 0470 A3F80C24 		strh	r2, [r3, #1036]	@ movhi
 1517 0474 08E0     		b	.L123
 1518              	.L120:
 1519 0476 B5F85030 		ldrh	r3, [r5, #80]
 1520 047a 9BB2     		uxth	r3, r3
 1521 047c 2B44     		add	r3, r3, r5
 1522 047e 03EB0113 		add	r3, r3, r1, lsl #4
 1523 0482 B2B2     		uxth	r2, r6
 1524 0484 A3F80C24 		strh	r2, [r3, #1036]	@ movhi
 1525              	.L123:
 1526 0488 B3B2     		uxth	r3, r6
 1527 048a 6289     		ldrh	r2, [r4, #10]
 1528 048c 6169     		ldr	r1, [r4, #20]
 1529 048e 2846     		mov	r0, r5
 1530 0490 FFF7FEFF 		bl	USB_WritePMA
 1531 0494 3CE6     		b	.L87
 1532              	.L119:
 1533 0496 B2BB     		cbnz	r2, .L126
 1534 0498 B5F85030 		ldrh	r3, [r5, #80]
 1535 049c 9BB2     		uxth	r3, r3
ARM GAS  /tmp/ccdZN3pI.s 			page 27


 1536 049e 2B44     		add	r3, r3, r5
 1537 04a0 03EB0113 		add	r3, r3, r1, lsl #4
 1538 04a4 B3F80424 		ldrh	r2, [r3, #1028]
 1539 04a8 C2F30902 		ubfx	r2, r2, #0, #10
 1540 04ac A3F80424 		strh	r2, [r3, #1028]	@ movhi
 1541 04b0 3E2E     		cmp	r6, #62
 1542 04b2 0FD9     		bls	.L127
 1543 04b4 7109     		lsrs	r1, r6, #5
 1544 04b6 16F01F0F 		tst	r6, #31
 1545 04ba 00D1     		bne	.L128
 1546 04bc 0139     		subs	r1, r1, #1
 1547              	.L128:
 1548 04be B3F80424 		ldrh	r2, [r3, #1028]
 1549 04c2 92B2     		uxth	r2, r2
 1550 04c4 8902     		lsls	r1, r1, #10
 1551 04c6 89B2     		uxth	r1, r1
 1552 04c8 0A43     		orrs	r2, r2, r1
 1553 04ca 42F40042 		orr	r2, r2, #32768
 1554 04ce A3F80424 		strh	r2, [r3, #1028]	@ movhi
 1555 04d2 21E0     		b	.L129
 1556              	.L127:
 1557 04d4 4EB9     		cbnz	r6, .L130
 1558 04d6 B3F80424 		ldrh	r2, [r3, #1028]
 1559 04da 6FEA4242 		mvn	r2, r2, lsl #17
 1560 04de 6FEA5242 		mvn	r2, r2, lsr #17
 1561 04e2 92B2     		uxth	r2, r2
 1562 04e4 A3F80424 		strh	r2, [r3, #1028]	@ movhi
 1563 04e8 16E0     		b	.L129
 1564              	.L130:
 1565 04ea 7208     		lsrs	r2, r6, #1
 1566 04ec 16F0010F 		tst	r6, #1
 1567 04f0 00D0     		beq	.L131
 1568 04f2 0132     		adds	r2, r2, #1
 1569              	.L131:
 1570 04f4 B3F80414 		ldrh	r1, [r3, #1028]
 1571 04f8 89B2     		uxth	r1, r1
 1572 04fa 9202     		lsls	r2, r2, #10
 1573 04fc 92B2     		uxth	r2, r2
 1574 04fe 0A43     		orrs	r2, r2, r1
 1575 0500 A3F80424 		strh	r2, [r3, #1028]	@ movhi
 1576 0504 08E0     		b	.L129
 1577              	.L126:
 1578 0506 B5F85030 		ldrh	r3, [r5, #80]
 1579 050a 9BB2     		uxth	r3, r3
 1580 050c 2B44     		add	r3, r3, r5
 1581 050e 03EB0113 		add	r3, r3, r1, lsl #4
 1582 0512 B2B2     		uxth	r2, r6
 1583 0514 A3F80424 		strh	r2, [r3, #1028]	@ movhi
 1584              	.L129:
 1585 0518 B3B2     		uxth	r3, r6
 1586 051a 2289     		ldrh	r2, [r4, #8]
 1587 051c 6169     		ldr	r1, [r4, #20]
 1588 051e 2846     		mov	r0, r5
 1589 0520 FFF7FEFF 		bl	USB_WritePMA
 1590 0524 F4E5     		b	.L87
 1591              	.L134:
 1592 0526 0022     		movs	r2, #0
ARM GAS  /tmp/ccdZN3pI.s 			page 28


 1593 0528 8A61     		str	r2, [r1, #24]
 1594 052a 1A46     		mov	r2, r3
 1595 052c 79E5     		b	.L135
 1596              	.L136:
 1597 052e 4AB9     		cbnz	r2, .L139
 1598 0530 B3F80C24 		ldrh	r2, [r3, #1036]
 1599 0534 6FEA4242 		mvn	r2, r2, lsl #17
 1600 0538 6FEA5242 		mvn	r2, r2, lsr #17
 1601 053c 92B2     		uxth	r2, r2
 1602 053e A3F80C24 		strh	r2, [r3, #1036]	@ movhi
 1603 0542 8DE5     		b	.L138
 1604              	.L139:
 1605 0544 5108     		lsrs	r1, r2, #1
 1606 0546 12F0010F 		tst	r2, #1
 1607 054a 00D0     		beq	.L140
 1608 054c 0131     		adds	r1, r1, #1
 1609              	.L140:
 1610 054e B3F80C24 		ldrh	r2, [r3, #1036]
 1611 0552 92B2     		uxth	r2, r2
 1612 0554 8902     		lsls	r1, r1, #10
 1613 0556 89B2     		uxth	r1, r1
 1614 0558 0A43     		orrs	r2, r2, r1
 1615 055a A3F80C24 		strh	r2, [r3, #1036]	@ movhi
 1616 055e 7FE5     		b	.L138
 1617              	.L133:
 1618 0560 CB78     		ldrb	r3, [r1, #3]	@ zero_extendqisi2
 1619 0562 022B     		cmp	r3, #2
 1620 0564 4DD0     		beq	.L175
 1621 0566 012B     		cmp	r3, #1
 1622 0568 40F02F81 		bne	.L166
 1623 056c 8969     		ldr	r1, [r1, #24]
 1624 056e 2369     		ldr	r3, [r4, #16]
 1625 0570 9942     		cmp	r1, r3
 1626 0572 40F2E680 		bls	.L154
 1627 0576 C91A     		subs	r1, r1, r3
 1628 0578 A161     		str	r1, [r4, #24]
 1629              	.L155:
 1630 057a F2B9     		cbnz	r2, .L156
 1631 057c B5F85020 		ldrh	r2, [r5, #80]
 1632 0580 92B2     		uxth	r2, r2
 1633 0582 2A44     		add	r2, r2, r5
 1634 0584 2178     		ldrb	r1, [r4]	@ zero_extendqisi2
 1635 0586 02EB0112 		add	r2, r2, r1, lsl #4
 1636 058a B2F80414 		ldrh	r1, [r2, #1028]
 1637 058e C1F30901 		ubfx	r1, r1, #0, #10
 1638 0592 A2F80414 		strh	r1, [r2, #1028]	@ movhi
 1639 0596 3E2B     		cmp	r3, #62
 1640 0598 40F2D780 		bls	.L157
 1641 059c 5809     		lsrs	r0, r3, #5
 1642 059e 13F01F0F 		tst	r3, #31
 1643 05a2 00D1     		bne	.L158
 1644 05a4 0138     		subs	r0, r0, #1
 1645              	.L158:
 1646 05a6 B2F80414 		ldrh	r1, [r2, #1028]
 1647 05aa 89B2     		uxth	r1, r1
 1648 05ac 8002     		lsls	r0, r0, #10
 1649 05ae 80B2     		uxth	r0, r0
ARM GAS  /tmp/ccdZN3pI.s 			page 29


 1650 05b0 0143     		orrs	r1, r1, r0
 1651 05b2 41F40041 		orr	r1, r1, #32768
 1652 05b6 A2F80414 		strh	r1, [r2, #1028]	@ movhi
 1653              	.L156:
 1654 05ba 6278     		ldrb	r2, [r4, #1]	@ zero_extendqisi2
 1655 05bc 002A     		cmp	r2, #0
 1656 05be 40F0F680 		bne	.L161
 1657 05c2 B5F85020 		ldrh	r2, [r5, #80]
 1658 05c6 92B2     		uxth	r2, r2
 1659 05c8 2A44     		add	r2, r2, r5
 1660 05ca 2178     		ldrb	r1, [r4]	@ zero_extendqisi2
 1661 05cc 02EB0112 		add	r2, r2, r1, lsl #4
 1662 05d0 B2F80C14 		ldrh	r1, [r2, #1036]
 1663 05d4 C1F30901 		ubfx	r1, r1, #0, #10
 1664 05d8 A2F80C14 		strh	r1, [r2, #1036]	@ movhi
 1665 05dc 3E2B     		cmp	r3, #62
 1666 05de 40F2CD80 		bls	.L162
 1667 05e2 5909     		lsrs	r1, r3, #5
 1668 05e4 13F01F0F 		tst	r3, #31
 1669 05e8 00D1     		bne	.L163
 1670 05ea 0139     		subs	r1, r1, #1
 1671              	.L163:
 1672 05ec B2F80C34 		ldrh	r3, [r2, #1036]
 1673 05f0 9BB2     		uxth	r3, r3
 1674 05f2 8902     		lsls	r1, r1, #10
 1675 05f4 89B2     		uxth	r1, r1
 1676 05f6 0B43     		orrs	r3, r3, r1
 1677 05f8 43F40043 		orr	r3, r3, #32768
 1678 05fc A2F80C34 		strh	r3, [r2, #1036]	@ movhi
 1679 0600 2EE5     		b	.L138
 1680              	.L175:
 1681 0602 F2B9     		cbnz	r2, .L142
 1682 0604 B0F85030 		ldrh	r3, [r0, #80]
 1683 0608 9BB2     		uxth	r3, r3
 1684 060a 0344     		add	r3, r3, r0
 1685 060c 0A78     		ldrb	r2, [r1]	@ zero_extendqisi2
 1686 060e 03EB0213 		add	r3, r3, r2, lsl #4
 1687 0612 B3F80424 		ldrh	r2, [r3, #1028]
 1688 0616 C2F30902 		ubfx	r2, r2, #0, #10
 1689 061a A3F80424 		strh	r2, [r3, #1028]	@ movhi
 1690 061e 0A69     		ldr	r2, [r1, #16]
 1691 0620 3E2A     		cmp	r2, #62
 1692 0622 31D9     		bls	.L143
 1693 0624 5109     		lsrs	r1, r2, #5
 1694 0626 12F01F0F 		tst	r2, #31
 1695 062a 00D1     		bne	.L144
 1696 062c 0139     		subs	r1, r1, #1
 1697              	.L144:
 1698 062e B3F80424 		ldrh	r2, [r3, #1028]
 1699 0632 92B2     		uxth	r2, r2
 1700 0634 8902     		lsls	r1, r1, #10
 1701 0636 89B2     		uxth	r1, r1
 1702 0638 0A43     		orrs	r2, r2, r1
 1703 063a 42F40042 		orr	r2, r2, #32768
 1704 063e A3F80424 		strh	r2, [r3, #1028]	@ movhi
 1705              	.L142:
 1706 0642 6378     		ldrb	r3, [r4, #1]	@ zero_extendqisi2
ARM GAS  /tmp/ccdZN3pI.s 			page 30


 1707 0644 002B     		cmp	r3, #0
 1708 0646 51D1     		bne	.L147
 1709 0648 B5F85030 		ldrh	r3, [r5, #80]
 1710 064c 9BB2     		uxth	r3, r3
 1711 064e 2B44     		add	r3, r3, r5
 1712 0650 2278     		ldrb	r2, [r4]	@ zero_extendqisi2
 1713 0652 03EB0213 		add	r3, r3, r2, lsl #4
 1714 0656 B3F80C24 		ldrh	r2, [r3, #1036]
 1715 065a C2F30902 		ubfx	r2, r2, #0, #10
 1716 065e A3F80C24 		strh	r2, [r3, #1036]	@ movhi
 1717 0662 2269     		ldr	r2, [r4, #16]
 1718 0664 3E2A     		cmp	r2, #62
 1719 0666 28D9     		bls	.L148
 1720 0668 5109     		lsrs	r1, r2, #5
 1721 066a 12F01F0F 		tst	r2, #31
 1722 066e 00D1     		bne	.L149
 1723 0670 0139     		subs	r1, r1, #1
 1724              	.L149:
 1725 0672 B3F80C24 		ldrh	r2, [r3, #1036]
 1726 0676 92B2     		uxth	r2, r2
 1727 0678 8902     		lsls	r1, r1, #10
 1728 067a 89B2     		uxth	r1, r1
 1729 067c 0A43     		orrs	r2, r2, r1
 1730 067e 42F40042 		orr	r2, r2, #32768
 1731 0682 A3F80C24 		strh	r2, [r3, #1036]	@ movhi
 1732 0686 33E0     		b	.L150
 1733              	.L143:
 1734 0688 4AB9     		cbnz	r2, .L145
 1735 068a B3F80424 		ldrh	r2, [r3, #1028]
 1736 068e 6FEA4242 		mvn	r2, r2, lsl #17
 1737 0692 6FEA5242 		mvn	r2, r2, lsr #17
 1738 0696 92B2     		uxth	r2, r2
 1739 0698 A3F80424 		strh	r2, [r3, #1028]	@ movhi
 1740 069c D1E7     		b	.L142
 1741              	.L145:
 1742 069e 5108     		lsrs	r1, r2, #1
 1743 06a0 12F0010F 		tst	r2, #1
 1744 06a4 00D0     		beq	.L146
 1745 06a6 0131     		adds	r1, r1, #1
 1746              	.L146:
 1747 06a8 B3F80424 		ldrh	r2, [r3, #1028]
 1748 06ac 90B2     		uxth	r0, r2
 1749 06ae 8A02     		lsls	r2, r1, #10
 1750 06b0 92B2     		uxth	r2, r2
 1751 06b2 0243     		orrs	r2, r2, r0
 1752 06b4 A3F80424 		strh	r2, [r3, #1028]	@ movhi
 1753 06b8 C3E7     		b	.L142
 1754              	.L148:
 1755 06ba 4AB9     		cbnz	r2, .L151
 1756 06bc B3F80C24 		ldrh	r2, [r3, #1036]
 1757 06c0 6FEA4242 		mvn	r2, r2, lsl #17
 1758 06c4 6FEA5242 		mvn	r2, r2, lsr #17
 1759 06c8 92B2     		uxth	r2, r2
 1760 06ca A3F80C24 		strh	r2, [r3, #1036]	@ movhi
 1761 06ce 0FE0     		b	.L150
 1762              	.L151:
 1763 06d0 5108     		lsrs	r1, r2, #1
ARM GAS  /tmp/ccdZN3pI.s 			page 31


 1764 06d2 12F0010F 		tst	r2, #1
 1765 06d6 00D0     		beq	.L152
 1766 06d8 0131     		adds	r1, r1, #1
 1767              	.L152:
 1768 06da B3F80C24 		ldrh	r2, [r3, #1036]
 1769 06de 90B2     		uxth	r0, r2
 1770 06e0 8A02     		lsls	r2, r1, #10
 1771 06e2 92B2     		uxth	r2, r2
 1772 06e4 0243     		orrs	r2, r2, r0
 1773 06e6 A3F80C24 		strh	r2, [r3, #1036]	@ movhi
 1774 06ea 01E0     		b	.L150
 1775              	.L147:
 1776 06ec 012B     		cmp	r3, #1
 1777 06ee 1DD0     		beq	.L176
 1778              	.L150:
 1779 06f0 E369     		ldr	r3, [r4, #28]
 1780 06f2 002B     		cmp	r3, #0
 1781 06f4 3FF4B4AC 		beq	.L138
 1782 06f8 2278     		ldrb	r2, [r4]	@ zero_extendqisi2
 1783 06fa 35F82210 		ldrh	r1, [r5, r2, lsl #2]
 1784 06fe 44F24003 		movw	r3, #16448
 1785 0702 03EA0100 		and	r0, r3, r1
 1786 0706 8B43     		bics	r3, r3, r1
 1787 0708 02D0     		beq	.L153
 1788 070a 0028     		cmp	r0, #0
 1789 070c 7FF4A8AC 		bne	.L138
 1790              	.L153:
 1791 0710 35F82230 		ldrh	r3, [r5, r2, lsl #2]
 1792 0714 9BB2     		uxth	r3, r3
 1793 0716 23F4E043 		bic	r3, r3, #28672
 1794 071a 23F07003 		bic	r3, r3, #112
 1795 071e 43F40043 		orr	r3, r3, #32768
 1796 0722 43F0C003 		orr	r3, r3, #192
 1797 0726 25F82230 		strh	r3, [r5, r2, lsl #2]	@ movhi
 1798 072a 99E4     		b	.L138
 1799              	.L176:
 1800 072c B5F85030 		ldrh	r3, [r5, #80]
 1801 0730 9BB2     		uxth	r3, r3
 1802 0732 2B44     		add	r3, r3, r5
 1803 0734 2278     		ldrb	r2, [r4]	@ zero_extendqisi2
 1804 0736 03EB0213 		add	r3, r3, r2, lsl #4
 1805 073a 228A     		ldrh	r2, [r4, #16]
 1806 073c A3F80C24 		strh	r2, [r3, #1036]	@ movhi
 1807 0740 D6E7     		b	.L150
 1808              	.L154:
 1809 0742 0023     		movs	r3, #0
 1810 0744 A361     		str	r3, [r4, #24]
 1811 0746 0B46     		mov	r3, r1
 1812 0748 17E7     		b	.L155
 1813              	.L157:
 1814 074a 4BB9     		cbnz	r3, .L159
 1815 074c B2F80414 		ldrh	r1, [r2, #1028]
 1816 0750 6FEA4141 		mvn	r1, r1, lsl #17
 1817 0754 6FEA5141 		mvn	r1, r1, lsr #17
 1818 0758 89B2     		uxth	r1, r1
 1819 075a A2F80414 		strh	r1, [r2, #1028]	@ movhi
 1820 075e 2CE7     		b	.L156
ARM GAS  /tmp/ccdZN3pI.s 			page 32


 1821              	.L159:
 1822 0760 5908     		lsrs	r1, r3, #1
 1823 0762 13F0010F 		tst	r3, #1
 1824 0766 00D0     		beq	.L160
 1825 0768 0131     		adds	r1, r1, #1
 1826              	.L160:
 1827 076a B2F80404 		ldrh	r0, [r2, #1028]
 1828 076e 80B2     		uxth	r0, r0
 1829 0770 8902     		lsls	r1, r1, #10
 1830 0772 89B2     		uxth	r1, r1
 1831 0774 0143     		orrs	r1, r1, r0
 1832 0776 A2F80414 		strh	r1, [r2, #1028]	@ movhi
 1833 077a 1EE7     		b	.L156
 1834              	.L162:
 1835 077c 4BB9     		cbnz	r3, .L164
 1836 077e B2F80C34 		ldrh	r3, [r2, #1036]
 1837 0782 6FEA4343 		mvn	r3, r3, lsl #17
 1838 0786 6FEA5343 		mvn	r3, r3, lsr #17
 1839 078a 9BB2     		uxth	r3, r3
 1840 078c A2F80C34 		strh	r3, [r2, #1036]	@ movhi
 1841 0790 66E4     		b	.L138
 1842              	.L164:
 1843 0792 5908     		lsrs	r1, r3, #1
 1844 0794 13F0010F 		tst	r3, #1
 1845 0798 00D0     		beq	.L165
 1846 079a 0131     		adds	r1, r1, #1
 1847              	.L165:
 1848 079c B2F80C34 		ldrh	r3, [r2, #1036]
 1849 07a0 98B2     		uxth	r0, r3
 1850 07a2 8B02     		lsls	r3, r1, #10
 1851 07a4 9BB2     		uxth	r3, r3
 1852 07a6 0343     		orrs	r3, r3, r0
 1853 07a8 A2F80C34 		strh	r3, [r2, #1036]	@ movhi
 1854 07ac 58E4     		b	.L138
 1855              	.L161:
 1856 07ae 012A     		cmp	r2, #1
 1857 07b0 7FF456AC 		bne	.L138
 1858 07b4 B5F85020 		ldrh	r2, [r5, #80]
 1859 07b8 92B2     		uxth	r2, r2
 1860 07ba 2A44     		add	r2, r2, r5
 1861 07bc 2178     		ldrb	r1, [r4]	@ zero_extendqisi2
 1862 07be 02EB0112 		add	r2, r2, r1, lsl #4
 1863 07c2 9BB2     		uxth	r3, r3
 1864 07c4 A2F80C34 		strh	r3, [r2, #1036]	@ movhi
 1865 07c8 4AE4     		b	.L138
 1866              	.L166:
 1867 07ca 0120     		movs	r0, #1
 1868 07cc 59E4     		b	.L132
 1870              		.section	.text.USB_ReadPMA,"ax",%progbits
 1871              		.align	1
 1872              		.global	USB_ReadPMA
 1873              		.syntax unified
 1874              		.thumb
 1875              		.thumb_func
 1877              	USB_ReadPMA:
 1878              		@ args = 0, pretend = 0, frame = 0
 1879              		@ frame_needed = 0, uses_anonymous_args = 0
ARM GAS  /tmp/ccdZN3pI.s 			page 33


 1880              		@ link register save eliminated.
 1881 0000 10B4     		push	{r4}
 1882 0002 5C08     		lsrs	r4, r3, #1
 1883 0004 00EB4200 		add	r0, r0, r2, lsl #1
 1884 0008 00F58060 		add	r0, r0, #1024
 1885 000c 07E0     		b	.L178
 1886              	.L179:
 1887 000e 30F8042B 		ldrh	r2, [r0], #4
 1888 0012 0A70     		strb	r2, [r1]
 1889 0014 C2F30722 		ubfx	r2, r2, #8, #8
 1890 0018 4A70     		strb	r2, [r1, #1]
 1891 001a 0231     		adds	r1, r1, #2
 1892 001c 013C     		subs	r4, r4, #1
 1893              	.L178:
 1894 001e 002C     		cmp	r4, #0
 1895 0020 F5D1     		bne	.L179
 1896 0022 13F0010F 		tst	r3, #1
 1897 0026 01D0     		beq	.L177
 1898 0028 0388     		ldrh	r3, [r0]
 1899 002a 0B70     		strb	r3, [r1]
 1900              	.L177:
 1901 002c 10BC     		pop	{r4}
 1902 002e 7047     		bx	lr
 1904              		.ident	"GCC: (15:13.3.rel1-1) 13.3.1 20240614"
ARM GAS  /tmp/ccdZN3pI.s 			page 34

