ARM GAS  /tmp/ccyFlnfK.s 			page 1


   1              		.cpu cortex-m3
   2              		.arch armv7-m
   3              		.fpu softvfp
   4              		.eabi_attribute 20, 1
   5              		.eabi_attribute 21, 1
   6              		.eabi_attribute 23, 3
   7              		.eabi_attribute 24, 1
   8              		.eabi_attribute 25, 1
   9              		.eabi_attribute 26, 1
  10              		.eabi_attribute 30, 1
  11              		.eabi_attribute 34, 1
  12              		.eabi_attribute 18, 4
  13              		.file	"stm32f1xx_hal_pwr.c"
  14              		.text
  15              		.section	.text.PWR_OverloadWfe,"ax",%progbits
  16              		.align	1
  17              		.syntax unified
  18              		.thumb
  19              		.thumb_func
  21              	PWR_OverloadWfe:
  22              		@ args = 0, pretend = 0, frame = 0
  23              		@ frame_needed = 0, uses_anonymous_args = 0
  24              		@ link register save eliminated.
  25              		.syntax unified
  26              	@ 118 "Drivers/STM32F1xx_HAL_Driver/Src/stm32f1xx_hal_pwr.c" 1
  27 0000 20BF     		wfe
  28              	@ 0 "" 2
  29              	@ 119 "Drivers/STM32F1xx_HAL_Driver/Src/stm32f1xx_hal_pwr.c" 1
  30 0002 00BF     		nop
  31              	@ 0 "" 2
  32              		.thumb
  33              		.syntax unified
  34 0004 7047     		bx	lr
  36              		.section	.text.HAL_PWR_DeInit,"ax",%progbits
  37              		.align	1
  38              		.global	HAL_PWR_DeInit
  39              		.syntax unified
  40              		.thumb
  41              		.thumb_func
  43              	HAL_PWR_DeInit:
  44              		@ args = 0, pretend = 0, frame = 0
  45              		@ frame_needed = 0, uses_anonymous_args = 0
  46              		@ link register save eliminated.
  47 0000 044B     		ldr	r3, .L3
  48 0002 1A69     		ldr	r2, [r3, #16]
  49 0004 42F08052 		orr	r2, r2, #268435456
  50 0008 1A61     		str	r2, [r3, #16]
  51 000a 1A69     		ldr	r2, [r3, #16]
  52 000c 22F08052 		bic	r2, r2, #268435456
  53 0010 1A61     		str	r2, [r3, #16]
  54 0012 7047     		bx	lr
  55              	.L4:
  56              		.align	2
  57              	.L3:
  58 0014 00100240 		.word	1073876992
  60              		.section	.text.HAL_PWR_EnableBkUpAccess,"ax",%progbits
  61              		.align	1
ARM GAS  /tmp/ccyFlnfK.s 			page 2


  62              		.global	HAL_PWR_EnableBkUpAccess
  63              		.syntax unified
  64              		.thumb
  65              		.thumb_func
  67              	HAL_PWR_EnableBkUpAccess:
  68              		@ args = 0, pretend = 0, frame = 0
  69              		@ frame_needed = 0, uses_anonymous_args = 0
  70              		@ link register save eliminated.
  71 0000 014B     		ldr	r3, .L6
  72 0002 0122     		movs	r2, #1
  73 0004 1A62     		str	r2, [r3, #32]
  74 0006 7047     		bx	lr
  75              	.L7:
  76              		.align	2
  77              	.L6:
  78 0008 00000E42 		.word	1108213760
  80              		.section	.text.HAL_PWR_DisableBkUpAccess,"ax",%progbits
  81              		.align	1
  82              		.global	HAL_PWR_DisableBkUpAccess
  83              		.syntax unified
  84              		.thumb
  85              		.thumb_func
  87              	HAL_PWR_DisableBkUpAccess:
  88              		@ args = 0, pretend = 0, frame = 0
  89              		@ frame_needed = 0, uses_anonymous_args = 0
  90              		@ link register save eliminated.
  91 0000 014B     		ldr	r3, .L9
  92 0002 0022     		movs	r2, #0
  93 0004 1A62     		str	r2, [r3, #32]
  94 0006 7047     		bx	lr
  95              	.L10:
  96              		.align	2
  97              	.L9:
  98 0008 00000E42 		.word	1108213760
 100              		.section	.text.HAL_PWR_ConfigPVD,"ax",%progbits
 101              		.align	1
 102              		.global	HAL_PWR_ConfigPVD
 103              		.syntax unified
 104              		.thumb
 105              		.thumb_func
 107              	HAL_PWR_ConfigPVD:
 108              		@ args = 0, pretend = 0, frame = 0
 109              		@ frame_needed = 0, uses_anonymous_args = 0
 110              		@ link register save eliminated.
 111 0000 1E4A     		ldr	r2, .L16
 112 0002 1368     		ldr	r3, [r2]
 113 0004 23F0E003 		bic	r3, r3, #224
 114 0008 0168     		ldr	r1, [r0]
 115 000a 0B43     		orrs	r3, r3, r1
 116 000c 1360     		str	r3, [r2]
 117 000e 1C4B     		ldr	r3, .L16+4
 118 0010 5A68     		ldr	r2, [r3, #4]
 119 0012 22F48032 		bic	r2, r2, #65536
 120 0016 5A60     		str	r2, [r3, #4]
 121 0018 1A68     		ldr	r2, [r3]
 122 001a 22F48032 		bic	r2, r2, #65536
 123 001e 1A60     		str	r2, [r3]
ARM GAS  /tmp/ccyFlnfK.s 			page 3


 124 0020 DA68     		ldr	r2, [r3, #12]
 125 0022 22F48032 		bic	r2, r2, #65536
 126 0026 DA60     		str	r2, [r3, #12]
 127 0028 9A68     		ldr	r2, [r3, #8]
 128 002a 22F48032 		bic	r2, r2, #65536
 129 002e 9A60     		str	r2, [r3, #8]
 130 0030 4368     		ldr	r3, [r0, #4]
 131 0032 13F4803F 		tst	r3, #65536
 132 0036 04D0     		beq	.L12
 133 0038 114A     		ldr	r2, .L16+4
 134 003a 1368     		ldr	r3, [r2]
 135 003c 43F48033 		orr	r3, r3, #65536
 136 0040 1360     		str	r3, [r2]
 137              	.L12:
 138 0042 4368     		ldr	r3, [r0, #4]
 139 0044 13F4003F 		tst	r3, #131072
 140 0048 04D0     		beq	.L13
 141 004a 0D4A     		ldr	r2, .L16+4
 142 004c 5368     		ldr	r3, [r2, #4]
 143 004e 43F48033 		orr	r3, r3, #65536
 144 0052 5360     		str	r3, [r2, #4]
 145              	.L13:
 146 0054 4368     		ldr	r3, [r0, #4]
 147 0056 13F0010F 		tst	r3, #1
 148 005a 04D0     		beq	.L14
 149 005c 084A     		ldr	r2, .L16+4
 150 005e 9368     		ldr	r3, [r2, #8]
 151 0060 43F48033 		orr	r3, r3, #65536
 152 0064 9360     		str	r3, [r2, #8]
 153              	.L14:
 154 0066 4368     		ldr	r3, [r0, #4]
 155 0068 13F0020F 		tst	r3, #2
 156 006c 04D0     		beq	.L11
 157 006e 044A     		ldr	r2, .L16+4
 158 0070 D368     		ldr	r3, [r2, #12]
 159 0072 43F48033 		orr	r3, r3, #65536
 160 0076 D360     		str	r3, [r2, #12]
 161              	.L11:
 162 0078 7047     		bx	lr
 163              	.L17:
 164 007a 00BF     		.align	2
 165              	.L16:
 166 007c 00700040 		.word	1073770496
 167 0080 00040140 		.word	1073808384
 169              		.section	.text.HAL_PWR_EnablePVD,"ax",%progbits
 170              		.align	1
 171              		.global	HAL_PWR_EnablePVD
 172              		.syntax unified
 173              		.thumb
 174              		.thumb_func
 176              	HAL_PWR_EnablePVD:
 177              		@ args = 0, pretend = 0, frame = 0
 178              		@ frame_needed = 0, uses_anonymous_args = 0
 179              		@ link register save eliminated.
 180 0000 014B     		ldr	r3, .L19
 181 0002 0122     		movs	r2, #1
 182 0004 1A61     		str	r2, [r3, #16]
ARM GAS  /tmp/ccyFlnfK.s 			page 4


 183 0006 7047     		bx	lr
 184              	.L20:
 185              		.align	2
 186              	.L19:
 187 0008 00000E42 		.word	1108213760
 189              		.section	.text.HAL_PWR_DisablePVD,"ax",%progbits
 190              		.align	1
 191              		.global	HAL_PWR_DisablePVD
 192              		.syntax unified
 193              		.thumb
 194              		.thumb_func
 196              	HAL_PWR_DisablePVD:
 197              		@ args = 0, pretend = 0, frame = 0
 198              		@ frame_needed = 0, uses_anonymous_args = 0
 199              		@ link register save eliminated.
 200 0000 014B     		ldr	r3, .L22
 201 0002 0022     		movs	r2, #0
 202 0004 1A61     		str	r2, [r3, #16]
 203 0006 7047     		bx	lr
 204              	.L23:
 205              		.align	2
 206              	.L22:
 207 0008 00000E42 		.word	1108213760
 209              		.section	.text.HAL_PWR_EnableWakeUpPin,"ax",%progbits
 210              		.align	1
 211              		.global	HAL_PWR_EnableWakeUpPin
 212              		.syntax unified
 213              		.thumb
 214              		.thumb_func
 216              	HAL_PWR_EnableWakeUpPin:
 217              		@ args = 0, pretend = 0, frame = 0
 218              		@ frame_needed = 0, uses_anonymous_args = 0
 219              		@ link register save eliminated.
 220              		.syntax unified
 221              	@ 988 "Drivers/CMSIS/Include/cmsis_gcc.h" 1
 222 0000 90FAA0F0 		rbit r0, r0
 223              	@ 0 "" 2
 224              		.thumb
 225              		.syntax unified
 226 0004 B0FA80F0 		clz	r0, r0
 227 0008 024B     		ldr	r3, .L25
 228 000a 0344     		add	r3, r3, r0
 229 000c 9B00     		lsls	r3, r3, #2
 230 000e 0122     		movs	r2, #1
 231 0010 1A60     		str	r2, [r3]
 232 0012 7047     		bx	lr
 233              	.L26:
 234              		.align	2
 235              	.L25:
 236 0014 20808310 		.word	277053472
 238              		.section	.text.HAL_PWR_DisableWakeUpPin,"ax",%progbits
 239              		.align	1
 240              		.global	HAL_PWR_DisableWakeUpPin
 241              		.syntax unified
 242              		.thumb
 243              		.thumb_func
 245              	HAL_PWR_DisableWakeUpPin:
ARM GAS  /tmp/ccyFlnfK.s 			page 5


 246              		@ args = 0, pretend = 0, frame = 0
 247              		@ frame_needed = 0, uses_anonymous_args = 0
 248              		@ link register save eliminated.
 249              		.syntax unified
 250              	@ 988 "Drivers/CMSIS/Include/cmsis_gcc.h" 1
 251 0000 90FAA0F0 		rbit r0, r0
 252              	@ 0 "" 2
 253              		.thumb
 254              		.syntax unified
 255 0004 B0FA80F0 		clz	r0, r0
 256 0008 024B     		ldr	r3, .L28
 257 000a 0344     		add	r3, r3, r0
 258 000c 9B00     		lsls	r3, r3, #2
 259 000e 0022     		movs	r2, #0
 260 0010 1A60     		str	r2, [r3]
 261 0012 7047     		bx	lr
 262              	.L29:
 263              		.align	2
 264              	.L28:
 265 0014 20808310 		.word	277053472
 267              		.section	.text.HAL_PWR_EnterSLEEPMode,"ax",%progbits
 268              		.align	1
 269              		.global	HAL_PWR_EnterSLEEPMode
 270              		.syntax unified
 271              		.thumb
 272              		.thumb_func
 274              	HAL_PWR_EnterSLEEPMode:
 275              		@ args = 0, pretend = 0, frame = 0
 276              		@ frame_needed = 0, uses_anonymous_args = 0
 277              		@ link register save eliminated.
 278 0000 064A     		ldr	r2, .L34
 279 0002 1369     		ldr	r3, [r2, #16]
 280 0004 23F00403 		bic	r3, r3, #4
 281 0008 1361     		str	r3, [r2, #16]
 282 000a 0129     		cmp	r1, #1
 283 000c 03D0     		beq	.L33
 284              		.syntax unified
 285              	@ 437 "Drivers/STM32F1xx_HAL_Driver/Src/stm32f1xx_hal_pwr.c" 1
 286 000e 40BF     		sev
 287              	@ 0 "" 2
 288              	@ 438 "Drivers/STM32F1xx_HAL_Driver/Src/stm32f1xx_hal_pwr.c" 1
 289 0010 20BF     		wfe
 290              	@ 0 "" 2
 291              	@ 439 "Drivers/STM32F1xx_HAL_Driver/Src/stm32f1xx_hal_pwr.c" 1
 292 0012 20BF     		wfe
 293              	@ 0 "" 2
 294              		.thumb
 295              		.syntax unified
 296 0014 7047     		bx	lr
 297              	.L33:
 298              		.syntax unified
 299              	@ 432 "Drivers/STM32F1xx_HAL_Driver/Src/stm32f1xx_hal_pwr.c" 1
 300 0016 30BF     		wfi
 301              	@ 0 "" 2
 302              		.thumb
 303              		.syntax unified
 304 0018 7047     		bx	lr
ARM GAS  /tmp/ccyFlnfK.s 			page 6


 305              	.L35:
 306 001a 00BF     		.align	2
 307              	.L34:
 308 001c 00ED00E0 		.word	-536810240
 310              		.section	.text.HAL_PWR_EnterSTOPMode,"ax",%progbits
 311              		.align	1
 312              		.global	HAL_PWR_EnterSTOPMode
 313              		.syntax unified
 314              		.thumb
 315              		.thumb_func
 317              	HAL_PWR_EnterSTOPMode:
 318              		@ args = 0, pretend = 0, frame = 0
 319              		@ frame_needed = 0, uses_anonymous_args = 0
 320 0000 08B5     		push	{r3, lr}
 321 0002 0F4A     		ldr	r2, .L40
 322 0004 1368     		ldr	r3, [r2]
 323 0006 23F00203 		bic	r3, r3, #2
 324 000a 1360     		str	r3, [r2]
 325 000c 1368     		ldr	r3, [r2]
 326 000e 23F00103 		bic	r3, r3, #1
 327 0012 0343     		orrs	r3, r3, r0
 328 0014 1360     		str	r3, [r2]
 329 0016 0B4A     		ldr	r2, .L40+4
 330 0018 1369     		ldr	r3, [r2, #16]
 331 001a 43F00403 		orr	r3, r3, #4
 332 001e 1361     		str	r3, [r2, #16]
 333 0020 0129     		cmp	r1, #1
 334 0022 06D1     		bne	.L37
 335              		.syntax unified
 336              	@ 481 "Drivers/STM32F1xx_HAL_Driver/Src/stm32f1xx_hal_pwr.c" 1
 337 0024 30BF     		wfi
 338              	@ 0 "" 2
 339              		.thumb
 340              		.syntax unified
 341              	.L38:
 342 0026 074A     		ldr	r2, .L40+4
 343 0028 1369     		ldr	r3, [r2, #16]
 344 002a 23F00403 		bic	r3, r3, #4
 345 002e 1361     		str	r3, [r2, #16]
 346 0030 08BD     		pop	{r3, pc}
 347              	.L37:
 348              		.syntax unified
 349              	@ 486 "Drivers/STM32F1xx_HAL_Driver/Src/stm32f1xx_hal_pwr.c" 1
 350 0032 40BF     		sev
 351              	@ 0 "" 2
 352              		.thumb
 353              		.syntax unified
 354 0034 FFF7FEFF 		bl	PWR_OverloadWfe
 355 0038 FFF7FEFF 		bl	PWR_OverloadWfe
 356 003c F3E7     		b	.L38
 357              	.L41:
 358 003e 00BF     		.align	2
 359              	.L40:
 360 0040 00700040 		.word	1073770496
 361 0044 00ED00E0 		.word	-536810240
 363              		.section	.text.HAL_PWR_EnterSTANDBYMode,"ax",%progbits
 364              		.align	1
ARM GAS  /tmp/ccyFlnfK.s 			page 7


 365              		.global	HAL_PWR_EnterSTANDBYMode
 366              		.syntax unified
 367              		.thumb
 368              		.thumb_func
 370              	HAL_PWR_EnterSTANDBYMode:
 371              		@ args = 0, pretend = 0, frame = 0
 372              		@ frame_needed = 0, uses_anonymous_args = 0
 373              		@ link register save eliminated.
 374 0000 054A     		ldr	r2, .L43
 375 0002 1368     		ldr	r3, [r2]
 376 0004 43F00203 		orr	r3, r3, #2
 377 0008 1360     		str	r3, [r2]
 378 000a 044A     		ldr	r2, .L43+4
 379 000c 1369     		ldr	r3, [r2, #16]
 380 000e 43F00403 		orr	r3, r3, #4
 381 0012 1361     		str	r3, [r2, #16]
 382              		.syntax unified
 383              	@ 515 "Drivers/STM32F1xx_HAL_Driver/Src/stm32f1xx_hal_pwr.c" 1
 384 0014 30BF     		wfi
 385              	@ 0 "" 2
 386              		.thumb
 387              		.syntax unified
 388 0016 7047     		bx	lr
 389              	.L44:
 390              		.align	2
 391              	.L43:
 392 0018 00700040 		.word	1073770496
 393 001c 00ED00E0 		.word	-536810240
 395              		.section	.text.HAL_PWR_EnableSleepOnExit,"ax",%progbits
 396              		.align	1
 397              		.global	HAL_PWR_EnableSleepOnExit
 398              		.syntax unified
 399              		.thumb
 400              		.thumb_func
 402              	HAL_PWR_EnableSleepOnExit:
 403              		@ args = 0, pretend = 0, frame = 0
 404              		@ frame_needed = 0, uses_anonymous_args = 0
 405              		@ link register save eliminated.
 406 0000 024A     		ldr	r2, .L46
 407 0002 1369     		ldr	r3, [r2, #16]
 408 0004 43F00203 		orr	r3, r3, #2
 409 0008 1361     		str	r3, [r2, #16]
 410 000a 7047     		bx	lr
 411              	.L47:
 412              		.align	2
 413              	.L46:
 414 000c 00ED00E0 		.word	-536810240
 416              		.section	.text.HAL_PWR_DisableSleepOnExit,"ax",%progbits
 417              		.align	1
 418              		.global	HAL_PWR_DisableSleepOnExit
 419              		.syntax unified
 420              		.thumb
 421              		.thumb_func
 423              	HAL_PWR_DisableSleepOnExit:
 424              		@ args = 0, pretend = 0, frame = 0
 425              		@ frame_needed = 0, uses_anonymous_args = 0
 426              		@ link register save eliminated.
ARM GAS  /tmp/ccyFlnfK.s 			page 8


 427 0000 024A     		ldr	r2, .L49
 428 0002 1369     		ldr	r3, [r2, #16]
 429 0004 23F00203 		bic	r3, r3, #2
 430 0008 1361     		str	r3, [r2, #16]
 431 000a 7047     		bx	lr
 432              	.L50:
 433              		.align	2
 434              	.L49:
 435 000c 00ED00E0 		.word	-536810240
 437              		.section	.text.HAL_PWR_EnableSEVOnPend,"ax",%progbits
 438              		.align	1
 439              		.global	HAL_PWR_EnableSEVOnPend
 440              		.syntax unified
 441              		.thumb
 442              		.thumb_func
 444              	HAL_PWR_EnableSEVOnPend:
 445              		@ args = 0, pretend = 0, frame = 0
 446              		@ frame_needed = 0, uses_anonymous_args = 0
 447              		@ link register save eliminated.
 448 0000 024A     		ldr	r2, .L52
 449 0002 1369     		ldr	r3, [r2, #16]
 450 0004 43F01003 		orr	r3, r3, #16
 451 0008 1361     		str	r3, [r2, #16]
 452 000a 7047     		bx	lr
 453              	.L53:
 454              		.align	2
 455              	.L52:
 456 000c 00ED00E0 		.word	-536810240
 458              		.section	.text.HAL_PWR_DisableSEVOnPend,"ax",%progbits
 459              		.align	1
 460              		.global	HAL_PWR_DisableSEVOnPend
 461              		.syntax unified
 462              		.thumb
 463              		.thumb_func
 465              	HAL_PWR_DisableSEVOnPend:
 466              		@ args = 0, pretend = 0, frame = 0
 467              		@ frame_needed = 0, uses_anonymous_args = 0
 468              		@ link register save eliminated.
 469 0000 024A     		ldr	r2, .L55
 470 0002 1369     		ldr	r3, [r2, #16]
 471 0004 23F01003 		bic	r3, r3, #16
 472 0008 1361     		str	r3, [r2, #16]
 473 000a 7047     		bx	lr
 474              	.L56:
 475              		.align	2
 476              	.L55:
 477 000c 00ED00E0 		.word	-536810240
 479              		.section	.text.HAL_PWR_PVDCallback,"ax",%progbits
 480              		.align	1
 481              		.weak	HAL_PWR_PVDCallback
 482              		.syntax unified
 483              		.thumb
 484              		.thumb_func
 486              	HAL_PWR_PVDCallback:
 487              		@ args = 0, pretend = 0, frame = 0
 488              		@ frame_needed = 0, uses_anonymous_args = 0
 489              		@ link register save eliminated.
ARM GAS  /tmp/ccyFlnfK.s 			page 9


 490 0000 7047     		bx	lr
 492              		.section	.text.HAL_PWR_PVD_IRQHandler,"ax",%progbits
 493              		.align	1
 494              		.global	HAL_PWR_PVD_IRQHandler
 495              		.syntax unified
 496              		.thumb
 497              		.thumb_func
 499              	HAL_PWR_PVD_IRQHandler:
 500              		@ args = 0, pretend = 0, frame = 0
 501              		@ frame_needed = 0, uses_anonymous_args = 0
 502 0000 08B5     		push	{r3, lr}
 503 0002 064B     		ldr	r3, .L62
 504 0004 5B69     		ldr	r3, [r3, #20]
 505 0006 13F4803F 		tst	r3, #65536
 506 000a 00D1     		bne	.L61
 507              	.L58:
 508 000c 08BD     		pop	{r3, pc}
 509              	.L61:
 510 000e FFF7FEFF 		bl	HAL_PWR_PVDCallback
 511 0012 024B     		ldr	r3, .L62
 512 0014 4FF48032 		mov	r2, #65536
 513 0018 5A61     		str	r2, [r3, #20]
 514 001a F7E7     		b	.L58
 515              	.L63:
 516              		.align	2
 517              	.L62:
 518 001c 00040140 		.word	1073808384
 520              		.ident	"GCC: (15:13.3.rel1-1) 13.3.1 20240614"
ARM GAS  /tmp/ccyFlnfK.s 			page 10

