ARM GAS  /tmp/ccOuuiZQ.s 			page 1


   1              		.cpu cortex-m3
   2              		.arch armv7-m
   3              		.fpu softvfp
   4              		.eabi_attribute 20, 1
   5              		.eabi_attribute 21, 1
   6              		.eabi_attribute 23, 3
   7              		.eabi_attribute 24, 1
   8              		.eabi_attribute 25, 1
   9              		.eabi_attribute 26, 1
  10              		.eabi_attribute 30, 1
  11              		.eabi_attribute 34, 1
  12              		.eabi_attribute 18, 4
  13              		.file	"syscalls.c"
  14              		.text
  15              		.section	.text.initialise_monitor_handles,"ax",%progbits
  16              		.align	1
  17              		.global	initialise_monitor_handles
  18              		.syntax unified
  19              		.thumb
  20              		.thumb_func
  22              	initialise_monitor_handles:
  23              		@ args = 0, pretend = 0, frame = 0
  24              		@ frame_needed = 0, uses_anonymous_args = 0
  25              		@ link register save eliminated.
  26 0000 7047     		bx	lr
  28              		.section	.text._getpid,"ax",%progbits
  29              		.align	1
  30              		.global	_getpid
  31              		.syntax unified
  32              		.thumb
  33              		.thumb_func
  35              	_getpid:
  36              		@ args = 0, pretend = 0, frame = 0
  37              		@ frame_needed = 0, uses_anonymous_args = 0
  38              		@ link register save eliminated.
  39 0000 0120     		movs	r0, #1
  40 0002 7047     		bx	lr
  42              		.section	.text._kill,"ax",%progbits
  43              		.align	1
  44              		.global	_kill
  45              		.syntax unified
  46              		.thumb
  47              		.thumb_func
  49              	_kill:
  50              		@ args = 0, pretend = 0, frame = 0
  51              		@ frame_needed = 0, uses_anonymous_args = 0
  52 0000 08B5     		push	{r3, lr}
  53 0002 FFF7FEFF 		bl	__errno
  54 0006 1623     		movs	r3, #22
  55 0008 0360     		str	r3, [r0]
  56 000a 4FF0FF30 		mov	r0, #-1
  57 000e 08BD     		pop	{r3, pc}
  59              		.section	.text._exit,"ax",%progbits
  60              		.align	1
  61              		.global	_exit
  62              		.syntax unified
  63              		.thumb
ARM GAS  /tmp/ccOuuiZQ.s 			page 2


  64              		.thumb_func
  66              	_exit:
  67              		@ Volatile: function does not return.
  68              		@ args = 0, pretend = 0, frame = 0
  69              		@ frame_needed = 0, uses_anonymous_args = 0
  70 0000 08B5     		push	{r3, lr}
  71 0002 4FF0FF31 		mov	r1, #-1
  72 0006 FFF7FEFF 		bl	_kill
  73              	.L6:
  74 000a FEE7     		b	.L6
  76              		.section	.text._read,"ax",%progbits
  77              		.align	1
  78              		.weak	_read
  79              		.syntax unified
  80              		.thumb
  81              		.thumb_func
  83              	_read:
  84              		@ args = 0, pretend = 0, frame = 0
  85              		@ frame_needed = 0, uses_anonymous_args = 0
  86 0000 70B5     		push	{r4, r5, r6, lr}
  87 0002 0C46     		mov	r4, r1
  88 0004 1646     		mov	r6, r2
  89 0006 0025     		movs	r5, #0
  90 0008 06E0     		b	.L9
  91              	.L10:
  92 000a FFF7FEFF 		bl	__io_getchar
  93 000e 2146     		mov	r1, r4
  94 0010 01F8010B 		strb	r0, [r1], #1
  95 0014 0135     		adds	r5, r5, #1
  96 0016 0C46     		mov	r4, r1
  97              	.L9:
  98 0018 B542     		cmp	r5, r6
  99 001a F6DB     		blt	.L10
 100 001c 3046     		mov	r0, r6
 101 001e 70BD     		pop	{r4, r5, r6, pc}
 103              		.section	.text._write,"ax",%progbits
 104              		.align	1
 105              		.weak	_write
 106              		.syntax unified
 107              		.thumb
 108              		.thumb_func
 110              	_write:
 111              		@ args = 0, pretend = 0, frame = 0
 112              		@ frame_needed = 0, uses_anonymous_args = 0
 113 0000 70B5     		push	{r4, r5, r6, lr}
 114 0002 0C46     		mov	r4, r1
 115 0004 1646     		mov	r6, r2
 116 0006 0025     		movs	r5, #0
 117 0008 04E0     		b	.L13
 118              	.L14:
 119 000a 14F8010B 		ldrb	r0, [r4], #1	@ zero_extendqisi2
 120 000e FFF7FEFF 		bl	__io_putchar
 121 0012 0135     		adds	r5, r5, #1
 122              	.L13:
 123 0014 B542     		cmp	r5, r6
 124 0016 F8DB     		blt	.L14
 125 0018 3046     		mov	r0, r6
ARM GAS  /tmp/ccOuuiZQ.s 			page 3


 126 001a 70BD     		pop	{r4, r5, r6, pc}
 128              		.section	.text._close,"ax",%progbits
 129              		.align	1
 130              		.global	_close
 131              		.syntax unified
 132              		.thumb
 133              		.thumb_func
 135              	_close:
 136              		@ args = 0, pretend = 0, frame = 0
 137              		@ frame_needed = 0, uses_anonymous_args = 0
 138              		@ link register save eliminated.
 139 0000 4FF0FF30 		mov	r0, #-1
 140 0004 7047     		bx	lr
 142              		.section	.text._fstat,"ax",%progbits
 143              		.align	1
 144              		.global	_fstat
 145              		.syntax unified
 146              		.thumb
 147              		.thumb_func
 149              	_fstat:
 150              		@ args = 0, pretend = 0, frame = 0
 151              		@ frame_needed = 0, uses_anonymous_args = 0
 152              		@ link register save eliminated.
 153 0000 4FF40053 		mov	r3, #8192
 154 0004 4B60     		str	r3, [r1, #4]
 155 0006 0020     		movs	r0, #0
 156 0008 7047     		bx	lr
 158              		.section	.text._isatty,"ax",%progbits
 159              		.align	1
 160              		.global	_isatty
 161              		.syntax unified
 162              		.thumb
 163              		.thumb_func
 165              	_isatty:
 166              		@ args = 0, pretend = 0, frame = 0
 167              		@ frame_needed = 0, uses_anonymous_args = 0
 168              		@ link register save eliminated.
 169 0000 0120     		movs	r0, #1
 170 0002 7047     		bx	lr
 172              		.section	.text._lseek,"ax",%progbits
 173              		.align	1
 174              		.global	_lseek
 175              		.syntax unified
 176              		.thumb
 177              		.thumb_func
 179              	_lseek:
 180              		@ args = 0, pretend = 0, frame = 0
 181              		@ frame_needed = 0, uses_anonymous_args = 0
 182              		@ link register save eliminated.
 183 0000 0020     		movs	r0, #0
 184 0002 7047     		bx	lr
 186              		.section	.text._open,"ax",%progbits
 187              		.align	1
 188              		.global	_open
 189              		.syntax unified
 190              		.thumb
 191              		.thumb_func
ARM GAS  /tmp/ccOuuiZQ.s 			page 4


 193              	_open:
 194              		@ args = 4, pretend = 12, frame = 0
 195              		@ frame_needed = 0, uses_anonymous_args = 1
 196              		@ link register save eliminated.
 197 0000 0EB4     		push	{r1, r2, r3}
 198 0002 4FF0FF30 		mov	r0, #-1
 199 0006 03B0     		add	sp, sp, #12
 200 0008 7047     		bx	lr
 202              		.section	.text._wait,"ax",%progbits
 203              		.align	1
 204              		.global	_wait
 205              		.syntax unified
 206              		.thumb
 207              		.thumb_func
 209              	_wait:
 210              		@ args = 0, pretend = 0, frame = 0
 211              		@ frame_needed = 0, uses_anonymous_args = 0
 212 0000 08B5     		push	{r3, lr}
 213 0002 FFF7FEFF 		bl	__errno
 214 0006 0A23     		movs	r3, #10
 215 0008 0360     		str	r3, [r0]
 216 000a 4FF0FF30 		mov	r0, #-1
 217 000e 08BD     		pop	{r3, pc}
 219              		.section	.text._unlink,"ax",%progbits
 220              		.align	1
 221              		.global	_unlink
 222              		.syntax unified
 223              		.thumb
 224              		.thumb_func
 226              	_unlink:
 227              		@ args = 0, pretend = 0, frame = 0
 228              		@ frame_needed = 0, uses_anonymous_args = 0
 229 0000 08B5     		push	{r3, lr}
 230 0002 FFF7FEFF 		bl	__errno
 231 0006 0223     		movs	r3, #2
 232 0008 0360     		str	r3, [r0]
 233 000a 4FF0FF30 		mov	r0, #-1
 234 000e 08BD     		pop	{r3, pc}
 236              		.section	.text._times,"ax",%progbits
 237              		.align	1
 238              		.global	_times
 239              		.syntax unified
 240              		.thumb
 241              		.thumb_func
 243              	_times:
 244              		@ args = 0, pretend = 0, frame = 0
 245              		@ frame_needed = 0, uses_anonymous_args = 0
 246              		@ link register save eliminated.
 247 0000 4FF0FF30 		mov	r0, #-1
 248 0004 7047     		bx	lr
 250              		.section	.text._stat,"ax",%progbits
 251              		.align	1
 252              		.global	_stat
 253              		.syntax unified
 254              		.thumb
 255              		.thumb_func
 257              	_stat:
ARM GAS  /tmp/ccOuuiZQ.s 			page 5


 258              		@ args = 0, pretend = 0, frame = 0
 259              		@ frame_needed = 0, uses_anonymous_args = 0
 260              		@ link register save eliminated.
 261 0000 4FF40053 		mov	r3, #8192
 262 0004 4B60     		str	r3, [r1, #4]
 263 0006 0020     		movs	r0, #0
 264 0008 7047     		bx	lr
 266              		.section	.text._link,"ax",%progbits
 267              		.align	1
 268              		.global	_link
 269              		.syntax unified
 270              		.thumb
 271              		.thumb_func
 273              	_link:
 274              		@ args = 0, pretend = 0, frame = 0
 275              		@ frame_needed = 0, uses_anonymous_args = 0
 276 0000 08B5     		push	{r3, lr}
 277 0002 FFF7FEFF 		bl	__errno
 278 0006 1F23     		movs	r3, #31
 279 0008 0360     		str	r3, [r0]
 280 000a 4FF0FF30 		mov	r0, #-1
 281 000e 08BD     		pop	{r3, pc}
 283              		.section	.text._fork,"ax",%progbits
 284              		.align	1
 285              		.global	_fork
 286              		.syntax unified
 287              		.thumb
 288              		.thumb_func
 290              	_fork:
 291              		@ args = 0, pretend = 0, frame = 0
 292              		@ frame_needed = 0, uses_anonymous_args = 0
 293 0000 08B5     		push	{r3, lr}
 294 0002 FFF7FEFF 		bl	__errno
 295 0006 0B23     		movs	r3, #11
 296 0008 0360     		str	r3, [r0]
 297 000a 4FF0FF30 		mov	r0, #-1
 298 000e 08BD     		pop	{r3, pc}
 300              		.section	.text._execve,"ax",%progbits
 301              		.align	1
 302              		.global	_execve
 303              		.syntax unified
 304              		.thumb
 305              		.thumb_func
 307              	_execve:
 308              		@ args = 0, pretend = 0, frame = 0
 309              		@ frame_needed = 0, uses_anonymous_args = 0
 310 0000 08B5     		push	{r3, lr}
 311 0002 FFF7FEFF 		bl	__errno
 312 0006 0C23     		movs	r3, #12
 313 0008 0360     		str	r3, [r0]
 314 000a 4FF0FF30 		mov	r0, #-1
 315 000e 08BD     		pop	{r3, pc}
 317              		.global	environ
 318              		.section	.data.environ,"aw"
 319              		.align	2
 322              	environ:
 323 0000 00000000 		.word	__env
ARM GAS  /tmp/ccOuuiZQ.s 			page 6


 324              		.global	__env
 325              		.section	.bss.__env,"aw",%nobits
 326              		.align	2
 329              	__env:
 330 0000 00000000 		.space	4
 331              		.weak	__io_putchar
 332              		.weak	__io_getchar
 333              		.ident	"GCC: (15:13.3.rel1-1) 13.3.1 20240614"
ARM GAS  /tmp/ccOuuiZQ.s 			page 7

