ARM GAS  /tmp/ccDPohzA.s 			page 1


   1              		.cpu cortex-m3
   2              		.arch armv7-m
   3              		.fpu softvfp
   4              		.eabi_attribute 20, 1
   5              		.eabi_attribute 21, 1
   6              		.eabi_attribute 23, 3
   7              		.eabi_attribute 24, 1
   8              		.eabi_attribute 25, 1
   9              		.eabi_attribute 26, 1
  10              		.eabi_attribute 30, 1
  11              		.eabi_attribute 34, 1
  12              		.eabi_attribute 18, 4
  13              		.file	"usbd_core.c"
  14              		.text
  15              		.section	.text.USBD_Init,"ax",%progbits
  16              		.align	1
  17              		.global	USBD_Init
  18              		.syntax unified
  19              		.thumb
  20              		.thumb_func
  22              	USBD_Init:
  23              		@ args = 0, pretend = 0, frame = 0
  24              		@ frame_needed = 0, uses_anonymous_args = 0
  25 0000 98B1     		cbz	r0, .L5
  26 0002 08B5     		push	{r3, lr}
  27 0004 0346     		mov	r3, r0
  28 0006 D0F8B402 		ldr	r0, [r0, #692]
  29 000a 10B1     		cbz	r0, .L3
  30 000c 0020     		movs	r0, #0
  31 000e C3F8B402 		str	r0, [r3, #692]
  32              	.L3:
  33 0012 09B1     		cbz	r1, .L4
  34 0014 C3F8B012 		str	r1, [r3, #688]
  35              	.L4:
  36 0018 0121     		movs	r1, #1
  37 001a 83F89C12 		strb	r1, [r3, #668]
  38 001e 1A70     		strb	r2, [r3]
  39 0020 1846     		mov	r0, r3
  40 0022 FFF7FEFF 		bl	USBD_LL_Init
  41 0026 0020     		movs	r0, #0
  42 0028 08BD     		pop	{r3, pc}
  43              	.L5:
  44 002a 0220     		movs	r0, #2
  45 002c 7047     		bx	lr
  47              		.section	.text.USBD_DeInit,"ax",%progbits
  48              		.align	1
  49              		.global	USBD_DeInit
  50              		.syntax unified
  51              		.thumb
  52              		.thumb_func
  54              	USBD_DeInit:
  55              		@ args = 0, pretend = 0, frame = 0
  56              		@ frame_needed = 0, uses_anonymous_args = 0
  57 0000 10B5     		push	{r4, lr}
  58 0002 0446     		mov	r4, r0
  59 0004 0123     		movs	r3, #1
  60 0006 80F89C32 		strb	r3, [r0, #668]
ARM GAS  /tmp/ccDPohzA.s 			page 2


  61 000a D0F8B432 		ldr	r3, [r0, #692]
  62 000e 5B68     		ldr	r3, [r3, #4]
  63 0010 0179     		ldrb	r1, [r0, #4]	@ zero_extendqisi2
  64 0012 9847     		blx	r3
  65 0014 2046     		mov	r0, r4
  66 0016 FFF7FEFF 		bl	USBD_LL_Stop
  67 001a 2046     		mov	r0, r4
  68 001c FFF7FEFF 		bl	USBD_LL_DeInit
  69 0020 0020     		movs	r0, #0
  70 0022 10BD     		pop	{r4, pc}
  72              		.section	.text.USBD_RegisterClass,"ax",%progbits
  73              		.align	1
  74              		.global	USBD_RegisterClass
  75              		.syntax unified
  76              		.thumb
  77              		.thumb_func
  79              	USBD_RegisterClass:
  80              		@ args = 0, pretend = 0, frame = 0
  81              		@ frame_needed = 0, uses_anonymous_args = 0
  82              		@ link register save eliminated.
  83 0000 19B1     		cbz	r1, .L14
  84 0002 C0F8B412 		str	r1, [r0, #692]
  85 0006 0020     		movs	r0, #0
  86 0008 7047     		bx	lr
  87              	.L14:
  88 000a 0220     		movs	r0, #2
  89 000c 7047     		bx	lr
  91              		.section	.text.USBD_Start,"ax",%progbits
  92              		.align	1
  93              		.global	USBD_Start
  94              		.syntax unified
  95              		.thumb
  96              		.thumb_func
  98              	USBD_Start:
  99              		@ args = 0, pretend = 0, frame = 0
 100              		@ frame_needed = 0, uses_anonymous_args = 0
 101 0000 08B5     		push	{r3, lr}
 102 0002 FFF7FEFF 		bl	USBD_LL_Start
 103 0006 0020     		movs	r0, #0
 104 0008 08BD     		pop	{r3, pc}
 106              		.section	.text.USBD_Stop,"ax",%progbits
 107              		.align	1
 108              		.global	USBD_Stop
 109              		.syntax unified
 110              		.thumb
 111              		.thumb_func
 113              	USBD_Stop:
 114              		@ args = 0, pretend = 0, frame = 0
 115              		@ frame_needed = 0, uses_anonymous_args = 0
 116 0000 10B5     		push	{r4, lr}
 117 0002 0446     		mov	r4, r0
 118 0004 D0F8B432 		ldr	r3, [r0, #692]
 119 0008 5B68     		ldr	r3, [r3, #4]
 120 000a 0179     		ldrb	r1, [r0, #4]	@ zero_extendqisi2
 121 000c 9847     		blx	r3
 122 000e 2046     		mov	r0, r4
 123 0010 FFF7FEFF 		bl	USBD_LL_Stop
ARM GAS  /tmp/ccDPohzA.s 			page 3


 124 0014 0020     		movs	r0, #0
 125 0016 10BD     		pop	{r4, pc}
 127              		.section	.text.USBD_RunTestMode,"ax",%progbits
 128              		.align	1
 129              		.global	USBD_RunTestMode
 130              		.syntax unified
 131              		.thumb
 132              		.thumb_func
 134              	USBD_RunTestMode:
 135              		@ args = 0, pretend = 0, frame = 0
 136              		@ frame_needed = 0, uses_anonymous_args = 0
 137              		@ link register save eliminated.
 138 0000 0020     		movs	r0, #0
 139 0002 7047     		bx	lr
 141              		.section	.text.USBD_SetClassConfig,"ax",%progbits
 142              		.align	1
 143              		.global	USBD_SetClassConfig
 144              		.syntax unified
 145              		.thumb
 146              		.thumb_func
 148              	USBD_SetClassConfig:
 149              		@ args = 0, pretend = 0, frame = 0
 150              		@ frame_needed = 0, uses_anonymous_args = 0
 151 0000 08B5     		push	{r3, lr}
 152 0002 D0F8B432 		ldr	r3, [r0, #692]
 153 0006 2BB1     		cbz	r3, .L22
 154 0008 1B68     		ldr	r3, [r3]
 155 000a 9847     		blx	r3
 156 000c 00B9     		cbnz	r0, .L24
 157              	.L21:
 158 000e 08BD     		pop	{r3, pc}
 159              	.L24:
 160 0010 0220     		movs	r0, #2
 161 0012 FCE7     		b	.L21
 162              	.L22:
 163 0014 0220     		movs	r0, #2
 164 0016 FAE7     		b	.L21
 166              		.section	.text.USBD_ClrClassConfig,"ax",%progbits
 167              		.align	1
 168              		.global	USBD_ClrClassConfig
 169              		.syntax unified
 170              		.thumb
 171              		.thumb_func
 173              	USBD_ClrClassConfig:
 174              		@ args = 0, pretend = 0, frame = 0
 175              		@ frame_needed = 0, uses_anonymous_args = 0
 176 0000 08B5     		push	{r3, lr}
 177 0002 D0F8B432 		ldr	r3, [r0, #692]
 178 0006 5B68     		ldr	r3, [r3, #4]
 179 0008 9847     		blx	r3
 180 000a 0020     		movs	r0, #0
 181 000c 08BD     		pop	{r3, pc}
 183              		.section	.text.USBD_LL_SetupStage,"ax",%progbits
 184              		.align	1
 185              		.global	USBD_LL_SetupStage
 186              		.syntax unified
 187              		.thumb
ARM GAS  /tmp/ccDPohzA.s 			page 4


 188              		.thumb_func
 190              	USBD_LL_SetupStage:
 191              		@ args = 0, pretend = 0, frame = 0
 192              		@ frame_needed = 0, uses_anonymous_args = 0
 193 0000 38B5     		push	{r3, r4, r5, lr}
 194 0002 0446     		mov	r4, r0
 195 0004 00F52A75 		add	r5, r0, #680
 196 0008 2846     		mov	r0, r5
 197 000a FFF7FEFF 		bl	USBD_ParseSetupRequest
 198 000e 0123     		movs	r3, #1
 199 0010 C4F89432 		str	r3, [r4, #660]
 200 0014 B4F8AE32 		ldrh	r3, [r4, #686]
 201 0018 C4F89832 		str	r3, [r4, #664]
 202 001c 94F8A812 		ldrb	r1, [r4, #680]	@ zero_extendqisi2
 203 0020 01F01F03 		and	r3, r1, #31
 204 0024 012B     		cmp	r3, #1
 205 0026 08D0     		beq	.L28
 206 0028 022B     		cmp	r3, #2
 207 002a 0BD0     		beq	.L29
 208 002c 7BB9     		cbnz	r3, .L30
 209 002e 2946     		mov	r1, r5
 210 0030 2046     		mov	r0, r4
 211 0032 FFF7FEFF 		bl	USBD_StdDevReq
 212              	.L31:
 213 0036 0020     		movs	r0, #0
 214 0038 38BD     		pop	{r3, r4, r5, pc}
 215              	.L28:
 216 003a 2946     		mov	r1, r5
 217 003c 2046     		mov	r0, r4
 218 003e FFF7FEFF 		bl	USBD_StdItfReq
 219 0042 F8E7     		b	.L31
 220              	.L29:
 221 0044 2946     		mov	r1, r5
 222 0046 2046     		mov	r0, r4
 223 0048 FFF7FEFF 		bl	USBD_StdEPReq
 224 004c F3E7     		b	.L31
 225              	.L30:
 226 004e 01F08001 		and	r1, r1, #128
 227 0052 2046     		mov	r0, r4
 228 0054 FFF7FEFF 		bl	USBD_LL_StallEP
 229 0058 EDE7     		b	.L31
 231              		.section	.text.USBD_LL_DataOutStage,"ax",%progbits
 232              		.align	1
 233              		.global	USBD_LL_DataOutStage
 234              		.syntax unified
 235              		.thumb
 236              		.thumb_func
 238              	USBD_LL_DataOutStage:
 239              		@ args = 0, pretend = 0, frame = 0
 240              		@ frame_needed = 0, uses_anonymous_args = 0
 241 0000 38B5     		push	{r3, r4, r5, lr}
 242 0002 0446     		mov	r4, r0
 243 0004 0D46     		mov	r5, r1
 244 0006 91BB     		cbnz	r1, .L34
 245 0008 1346     		mov	r3, r2
 246 000a D0F89422 		ldr	r2, [r0, #660]
 247 000e 032A     		cmp	r2, #3
ARM GAS  /tmp/ccDPohzA.s 			page 5


 248 0010 03D0     		beq	.L45
 249 0012 052A     		cmp	r2, #5
 250 0014 24D0     		beq	.L46
 251 0016 0846     		mov	r0, r1
 252 0018 33E0     		b	.L39
 253              	.L45:
 254 001a D0F86011 		ldr	r1, [r0, #352]
 255 001e D0F86421 		ldr	r2, [r0, #356]
 256 0022 9142     		cmp	r1, r2
 257 0024 0DD9     		bls	.L36
 258 0026 891A     		subs	r1, r1, r2
 259 0028 C0F86011 		str	r1, [r0, #352]
 260 002c 8A42     		cmp	r2, r1
 261 002e 06D9     		bls	.L37
 262 0030 8AB2     		uxth	r2, r1
 263              	.L38:
 264 0032 1946     		mov	r1, r3
 265 0034 2046     		mov	r0, r4
 266 0036 FFF7FEFF 		bl	USBD_CtlContinueRx
 267 003a 2846     		mov	r0, r5
 268 003c 21E0     		b	.L39
 269              	.L37:
 270 003e 92B2     		uxth	r2, r2
 271 0040 F7E7     		b	.L38
 272              	.L36:
 273 0042 D0F8B432 		ldr	r3, [r0, #692]
 274 0046 1B69     		ldr	r3, [r3, #16]
 275 0048 1BB1     		cbz	r3, .L40
 276 004a 90F89C22 		ldrb	r2, [r0, #668]	@ zero_extendqisi2
 277 004e 032A     		cmp	r2, #3
 278 0050 04D0     		beq	.L47
 279              	.L40:
 280 0052 2046     		mov	r0, r4
 281 0054 FFF7FEFF 		bl	USBD_CtlSendStatus
 282 0058 2846     		mov	r0, r5
 283 005a 12E0     		b	.L39
 284              	.L47:
 285 005c 9847     		blx	r3
 286 005e F8E7     		b	.L40
 287              	.L46:
 288 0060 0021     		movs	r1, #0
 289 0062 C0F89412 		str	r1, [r0, #660]
 290 0066 FFF7FEFF 		bl	USBD_LL_StallEP
 291 006a 2846     		mov	r0, r5
 292 006c 09E0     		b	.L39
 293              	.L34:
 294 006e D0F8B432 		ldr	r3, [r0, #692]
 295 0072 9B69     		ldr	r3, [r3, #24]
 296 0074 33B1     		cbz	r3, .L42
 297 0076 90F89C22 		ldrb	r2, [r0, #668]	@ zero_extendqisi2
 298 007a 032A     		cmp	r2, #3
 299 007c 04D1     		bne	.L43
 300 007e 9847     		blx	r3
 301 0080 0020     		movs	r0, #0
 302              	.L39:
 303 0082 38BD     		pop	{r3, r4, r5, pc}
 304              	.L42:
ARM GAS  /tmp/ccDPohzA.s 			page 6


 305 0084 0220     		movs	r0, #2
 306 0086 FCE7     		b	.L39
 307              	.L43:
 308 0088 0220     		movs	r0, #2
 309 008a FAE7     		b	.L39
 311              		.section	.text.USBD_LL_DataInStage,"ax",%progbits
 312              		.align	1
 313              		.global	USBD_LL_DataInStage
 314              		.syntax unified
 315              		.thumb
 316              		.thumb_func
 318              	USBD_LL_DataInStage:
 319              		@ args = 0, pretend = 0, frame = 0
 320              		@ frame_needed = 0, uses_anonymous_args = 0
 321 0000 38B5     		push	{r3, r4, r5, lr}
 322 0002 0446     		mov	r4, r0
 323 0004 0D46     		mov	r5, r1
 324 0006 0029     		cmp	r1, #0
 325 0008 53D1     		bne	.L49
 326 000a 1346     		mov	r3, r2
 327 000c D0F89422 		ldr	r2, [r0, #660]
 328 0010 022A     		cmp	r2, #2
 329 0012 0CD0     		beq	.L61
 330 0014 042A     		cmp	r2, #4
 331 0016 00D0     		beq	.L55
 332 0018 1AB9     		cbnz	r2, .L52
 333              	.L55:
 334 001a 8021     		movs	r1, #128
 335 001c 2046     		mov	r0, r4
 336 001e FFF7FEFF 		bl	USBD_LL_StallEP
 337              	.L52:
 338 0022 94F8A032 		ldrb	r3, [r4, #672]	@ zero_extendqisi2
 339 0026 012B     		cmp	r3, #1
 340 0028 3ED0     		beq	.L62
 341 002a 2846     		mov	r0, r5
 342              	.L56:
 343 002c 38BD     		pop	{r3, r4, r5, pc}
 344              	.L61:
 345 002e 026A     		ldr	r2, [r0, #32]
 346 0030 416A     		ldr	r1, [r0, #36]
 347 0032 8A42     		cmp	r2, r1
 348 0034 1BD8     		bhi	.L63
 349 0036 C269     		ldr	r2, [r0, #28]
 350 0038 B2FBF1F3 		udiv	r3, r2, r1
 351 003c 01FB1323 		mls	r3, r1, r3, r2
 352 0040 2BB9     		cbnz	r3, .L53
 353 0042 9142     		cmp	r1, r2
 354 0044 03D8     		bhi	.L53
 355 0046 D0F89832 		ldr	r3, [r0, #664]
 356 004a 9A42     		cmp	r2, r3
 357 004c 1CD3     		bcc	.L64
 358              	.L53:
 359 004e D4F8B432 		ldr	r3, [r4, #692]
 360 0052 DB68     		ldr	r3, [r3, #12]
 361 0054 1BB1     		cbz	r3, .L54
 362 0056 94F89C22 		ldrb	r2, [r4, #668]	@ zero_extendqisi2
 363 005a 032A     		cmp	r2, #3
ARM GAS  /tmp/ccDPohzA.s 			page 7


 364 005c 21D0     		beq	.L65
 365              	.L54:
 366 005e 8021     		movs	r1, #128
 367 0060 2046     		mov	r0, r4
 368 0062 FFF7FEFF 		bl	USBD_LL_StallEP
 369 0066 2046     		mov	r0, r4
 370 0068 FFF7FEFF 		bl	USBD_CtlReceiveStatus
 371 006c D9E7     		b	.L52
 372              	.L63:
 373 006e 521A     		subs	r2, r2, r1
 374 0070 0262     		str	r2, [r0, #32]
 375 0072 92B2     		uxth	r2, r2
 376 0074 1946     		mov	r1, r3
 377 0076 FFF7FEFF 		bl	USBD_CtlContinueSendData
 378 007a 0023     		movs	r3, #0
 379 007c 1A46     		mov	r2, r3
 380 007e 1946     		mov	r1, r3
 381 0080 2046     		mov	r0, r4
 382 0082 FFF7FEFF 		bl	USBD_LL_PrepareReceive
 383 0086 CCE7     		b	.L52
 384              	.L64:
 385 0088 0022     		movs	r2, #0
 386 008a 1146     		mov	r1, r2
 387 008c FFF7FEFF 		bl	USBD_CtlContinueSendData
 388 0090 0021     		movs	r1, #0
 389 0092 C4F89812 		str	r1, [r4, #664]
 390 0096 0B46     		mov	r3, r1
 391 0098 0A46     		mov	r2, r1
 392 009a 2046     		mov	r0, r4
 393 009c FFF7FEFF 		bl	USBD_LL_PrepareReceive
 394 00a0 BFE7     		b	.L52
 395              	.L65:
 396 00a2 2046     		mov	r0, r4
 397 00a4 9847     		blx	r3
 398 00a6 DAE7     		b	.L54
 399              	.L62:
 400 00a8 0023     		movs	r3, #0
 401 00aa 84F8A032 		strb	r3, [r4, #672]
 402 00ae 2846     		mov	r0, r5
 403 00b0 BCE7     		b	.L56
 404              	.L49:
 405 00b2 D0F8B432 		ldr	r3, [r0, #692]
 406 00b6 5B69     		ldr	r3, [r3, #20]
 407 00b8 33B1     		cbz	r3, .L58
 408 00ba 90F89C22 		ldrb	r2, [r0, #668]	@ zero_extendqisi2
 409 00be 032A     		cmp	r2, #3
 410 00c0 04D1     		bne	.L59
 411 00c2 9847     		blx	r3
 412 00c4 0020     		movs	r0, #0
 413 00c6 B1E7     		b	.L56
 414              	.L58:
 415 00c8 0220     		movs	r0, #2
 416 00ca AFE7     		b	.L56
 417              	.L59:
 418 00cc 0220     		movs	r0, #2
 419 00ce ADE7     		b	.L56
 421              		.section	.text.USBD_LL_Reset,"ax",%progbits
ARM GAS  /tmp/ccDPohzA.s 			page 8


 422              		.align	1
 423              		.global	USBD_LL_Reset
 424              		.syntax unified
 425              		.thumb
 426              		.thumb_func
 428              	USBD_LL_Reset:
 429              		@ args = 0, pretend = 0, frame = 0
 430              		@ frame_needed = 0, uses_anonymous_args = 0
 431 0000 70B5     		push	{r4, r5, r6, lr}
 432 0002 0446     		mov	r4, r0
 433 0004 4023     		movs	r3, #64
 434 0006 0022     		movs	r2, #0
 435 0008 1146     		mov	r1, r2
 436 000a FFF7FEFF 		bl	USBD_LL_OpenEP
 437 000e 0125     		movs	r5, #1
 438 0010 C4F85851 		str	r5, [r4, #344]
 439 0014 4026     		movs	r6, #64
 440 0016 C4F86461 		str	r6, [r4, #356]
 441 001a 3346     		mov	r3, r6
 442 001c 0022     		movs	r2, #0
 443 001e 8021     		movs	r1, #128
 444 0020 2046     		mov	r0, r4
 445 0022 FFF7FEFF 		bl	USBD_LL_OpenEP
 446 0026 A561     		str	r5, [r4, #24]
 447 0028 6662     		str	r6, [r4, #36]
 448 002a 84F89C52 		strb	r5, [r4, #668]
 449 002e 0023     		movs	r3, #0
 450 0030 C4F89432 		str	r3, [r4, #660]
 451 0034 6360     		str	r3, [r4, #4]
 452 0036 C4F8A432 		str	r3, [r4, #676]
 453 003a D4F8B832 		ldr	r3, [r4, #696]
 454 003e 2BB1     		cbz	r3, .L67
 455 0040 D4F8B432 		ldr	r3, [r4, #692]
 456 0044 5B68     		ldr	r3, [r3, #4]
 457 0046 0021     		movs	r1, #0
 458 0048 2046     		mov	r0, r4
 459 004a 9847     		blx	r3
 460              	.L67:
 461 004c 0020     		movs	r0, #0
 462 004e 70BD     		pop	{r4, r5, r6, pc}
 464              		.section	.text.USBD_LL_SetSpeed,"ax",%progbits
 465              		.align	1
 466              		.global	USBD_LL_SetSpeed
 467              		.syntax unified
 468              		.thumb
 469              		.thumb_func
 471              	USBD_LL_SetSpeed:
 472              		@ args = 0, pretend = 0, frame = 0
 473              		@ frame_needed = 0, uses_anonymous_args = 0
 474              		@ link register save eliminated.
 475 0000 0174     		strb	r1, [r0, #16]
 476 0002 0020     		movs	r0, #0
 477 0004 7047     		bx	lr
 479              		.section	.text.USBD_LL_Suspend,"ax",%progbits
 480              		.align	1
 481              		.global	USBD_LL_Suspend
 482              		.syntax unified
ARM GAS  /tmp/ccDPohzA.s 			page 9


 483              		.thumb
 484              		.thumb_func
 486              	USBD_LL_Suspend:
 487              		@ args = 0, pretend = 0, frame = 0
 488              		@ frame_needed = 0, uses_anonymous_args = 0
 489              		@ link register save eliminated.
 490 0000 90F89C32 		ldrb	r3, [r0, #668]	@ zero_extendqisi2
 491 0004 80F89D32 		strb	r3, [r0, #669]
 492 0008 0423     		movs	r3, #4
 493 000a 80F89C32 		strb	r3, [r0, #668]
 494 000e 0020     		movs	r0, #0
 495 0010 7047     		bx	lr
 497              		.section	.text.USBD_LL_Resume,"ax",%progbits
 498              		.align	1
 499              		.global	USBD_LL_Resume
 500              		.syntax unified
 501              		.thumb
 502              		.thumb_func
 504              	USBD_LL_Resume:
 505              		@ args = 0, pretend = 0, frame = 0
 506              		@ frame_needed = 0, uses_anonymous_args = 0
 507              		@ link register save eliminated.
 508 0000 90F89C32 		ldrb	r3, [r0, #668]	@ zero_extendqisi2
 509 0004 042B     		cmp	r3, #4
 510 0006 01D0     		beq	.L73
 511              	.L72:
 512 0008 0020     		movs	r0, #0
 513 000a 7047     		bx	lr
 514              	.L73:
 515 000c 90F89D32 		ldrb	r3, [r0, #669]	@ zero_extendqisi2
 516 0010 80F89C32 		strb	r3, [r0, #668]
 517 0014 F8E7     		b	.L72
 519              		.section	.text.USBD_LL_SOF,"ax",%progbits
 520              		.align	1
 521              		.global	USBD_LL_SOF
 522              		.syntax unified
 523              		.thumb
 524              		.thumb_func
 526              	USBD_LL_SOF:
 527              		@ args = 0, pretend = 0, frame = 0
 528              		@ frame_needed = 0, uses_anonymous_args = 0
 529 0000 08B5     		push	{r3, lr}
 530 0002 90F89C32 		ldrb	r3, [r0, #668]	@ zero_extendqisi2
 531 0006 032B     		cmp	r3, #3
 532 0008 01D0     		beq	.L77
 533              	.L75:
 534 000a 0020     		movs	r0, #0
 535 000c 08BD     		pop	{r3, pc}
 536              	.L77:
 537 000e D0F8B432 		ldr	r3, [r0, #692]
 538 0012 DB69     		ldr	r3, [r3, #28]
 539 0014 002B     		cmp	r3, #0
 540 0016 F8D0     		beq	.L75
 541 0018 9847     		blx	r3
 542 001a F6E7     		b	.L75
 544              		.section	.text.USBD_LL_IsoINIncomplete,"ax",%progbits
 545              		.align	1
ARM GAS  /tmp/ccDPohzA.s 			page 10


 546              		.global	USBD_LL_IsoINIncomplete
 547              		.syntax unified
 548              		.thumb
 549              		.thumb_func
 551              	USBD_LL_IsoINIncomplete:
 552              		@ args = 0, pretend = 0, frame = 0
 553              		@ frame_needed = 0, uses_anonymous_args = 0
 554              		@ link register save eliminated.
 555 0000 0020     		movs	r0, #0
 556 0002 7047     		bx	lr
 558              		.section	.text.USBD_LL_IsoOUTIncomplete,"ax",%progbits
 559              		.align	1
 560              		.global	USBD_LL_IsoOUTIncomplete
 561              		.syntax unified
 562              		.thumb
 563              		.thumb_func
 565              	USBD_LL_IsoOUTIncomplete:
 566              		@ args = 0, pretend = 0, frame = 0
 567              		@ frame_needed = 0, uses_anonymous_args = 0
 568              		@ link register save eliminated.
 569 0000 0020     		movs	r0, #0
 570 0002 7047     		bx	lr
 572              		.section	.text.USBD_LL_DevConnected,"ax",%progbits
 573              		.align	1
 574              		.global	USBD_LL_DevConnected
 575              		.syntax unified
 576              		.thumb
 577              		.thumb_func
 579              	USBD_LL_DevConnected:
 580              		@ args = 0, pretend = 0, frame = 0
 581              		@ frame_needed = 0, uses_anonymous_args = 0
 582              		@ link register save eliminated.
 583 0000 0020     		movs	r0, #0
 584 0002 7047     		bx	lr
 586              		.section	.text.USBD_LL_DevDisconnected,"ax",%progbits
 587              		.align	1
 588              		.global	USBD_LL_DevDisconnected
 589              		.syntax unified
 590              		.thumb
 591              		.thumb_func
 593              	USBD_LL_DevDisconnected:
 594              		@ args = 0, pretend = 0, frame = 0
 595              		@ frame_needed = 0, uses_anonymous_args = 0
 596 0000 08B5     		push	{r3, lr}
 597 0002 0122     		movs	r2, #1
 598 0004 80F89C22 		strb	r2, [r0, #668]
 599 0008 D0F8B422 		ldr	r2, [r0, #692]
 600 000c 5268     		ldr	r2, [r2, #4]
 601 000e 0179     		ldrb	r1, [r0, #4]	@ zero_extendqisi2
 602 0010 9047     		blx	r2
 603 0012 0020     		movs	r0, #0
 604 0014 08BD     		pop	{r3, pc}
 606              		.ident	"GCC: (15:13.3.rel1-1) 13.3.1 20240614"
ARM GAS  /tmp/ccDPohzA.s 			page 11

