ARM GAS  /tmp/ccKGPNS5.s 			page 1


   1              		.cpu cortex-m3
   2              		.arch armv7-m
   3              		.fpu softvfp
   4              		.eabi_attribute 20, 1
   5              		.eabi_attribute 21, 1
   6              		.eabi_attribute 23, 3
   7              		.eabi_attribute 24, 1
   8              		.eabi_attribute 25, 1
   9              		.eabi_attribute 26, 1
  10              		.eabi_attribute 30, 1
  11              		.eabi_attribute 34, 1
  12              		.eabi_attribute 18, 4
  13              		.file	"usbd_cdc.c"
  14              		.text
  15              		.section	.text.USBD_CDC_EP0_RxReady,"ax",%progbits
  16              		.align	1
  17              		.syntax unified
  18              		.thumb
  19              		.thumb_func
  21              	USBD_CDC_EP0_RxReady:
  22              		@ args = 0, pretend = 0, frame = 0
  23              		@ frame_needed = 0, uses_anonymous_args = 0
  24 0000 10B5     		push	{r4, lr}
  25 0002 D0F8B842 		ldr	r4, [r0, #696]
  26 0006 D0F8BC32 		ldr	r3, [r0, #700]
  27 000a 5BB1     		cbz	r3, .L2
  28 000c 94F80002 		ldrb	r0, [r4, #512]	@ zero_extendqisi2
  29 0010 FF28     		cmp	r0, #255
  30 0012 07D0     		beq	.L2
  31 0014 9B68     		ldr	r3, [r3, #8]
  32 0016 94F80122 		ldrb	r2, [r4, #513]	@ zero_extendqisi2
  33 001a 2146     		mov	r1, r4
  34 001c 9847     		blx	r3
  35 001e FF23     		movs	r3, #255
  36 0020 84F80032 		strb	r3, [r4, #512]
  37              	.L2:
  38 0024 0020     		movs	r0, #0
  39 0026 10BD     		pop	{r4, pc}
  41              		.section	.text.USBD_CDC_GetFSCfgDesc,"ax",%progbits
  42              		.align	1
  43              		.syntax unified
  44              		.thumb
  45              		.thumb_func
  47              	USBD_CDC_GetFSCfgDesc:
  48              		@ args = 0, pretend = 0, frame = 0
  49              		@ frame_needed = 0, uses_anonymous_args = 0
  50              		@ link register save eliminated.
  51 0000 4323     		movs	r3, #67
  52 0002 0380     		strh	r3, [r0]	@ movhi
  53 0004 0048     		ldr	r0, .L5
  54 0006 7047     		bx	lr
  55              	.L6:
  56              		.align	2
  57              	.L5:
  58 0008 00000000 		.word	USBD_CDC_CfgFSDesc
  60              		.section	.text.USBD_CDC_GetHSCfgDesc,"ax",%progbits
  61              		.align	1
ARM GAS  /tmp/ccKGPNS5.s 			page 2


  62              		.syntax unified
  63              		.thumb
  64              		.thumb_func
  66              	USBD_CDC_GetHSCfgDesc:
  67              		@ args = 0, pretend = 0, frame = 0
  68              		@ frame_needed = 0, uses_anonymous_args = 0
  69              		@ link register save eliminated.
  70 0000 4323     		movs	r3, #67
  71 0002 0380     		strh	r3, [r0]	@ movhi
  72 0004 0048     		ldr	r0, .L8
  73 0006 7047     		bx	lr
  74              	.L9:
  75              		.align	2
  76              	.L8:
  77 0008 00000000 		.word	USBD_CDC_CfgHSDesc
  79              		.section	.text.USBD_CDC_GetOtherSpeedCfgDesc,"ax",%progbits
  80              		.align	1
  81              		.syntax unified
  82              		.thumb
  83              		.thumb_func
  85              	USBD_CDC_GetOtherSpeedCfgDesc:
  86              		@ args = 0, pretend = 0, frame = 0
  87              		@ frame_needed = 0, uses_anonymous_args = 0
  88              		@ link register save eliminated.
  89 0000 4323     		movs	r3, #67
  90 0002 0380     		strh	r3, [r0]	@ movhi
  91 0004 0048     		ldr	r0, .L11
  92 0006 7047     		bx	lr
  93              	.L12:
  94              		.align	2
  95              	.L11:
  96 0008 00000000 		.word	USBD_CDC_OtherSpeedCfgDesc
  98              		.section	.text.USBD_CDC_GetDeviceQualifierDescriptor,"ax",%progbits
  99              		.align	1
 100              		.global	USBD_CDC_GetDeviceQualifierDescriptor
 101              		.syntax unified
 102              		.thumb
 103              		.thumb_func
 105              	USBD_CDC_GetDeviceQualifierDescriptor:
 106              		@ args = 0, pretend = 0, frame = 0
 107              		@ frame_needed = 0, uses_anonymous_args = 0
 108              		@ link register save eliminated.
 109 0000 0A23     		movs	r3, #10
 110 0002 0380     		strh	r3, [r0]	@ movhi
 111 0004 0048     		ldr	r0, .L14
 112 0006 7047     		bx	lr
 113              	.L15:
 114              		.align	2
 115              	.L14:
 116 0008 00000000 		.word	USBD_CDC_DeviceQualifierDesc
 118              		.section	.text.USBD_CDC_DataOut,"ax",%progbits
 119              		.align	1
 120              		.syntax unified
 121              		.thumb
 122              		.thumb_func
 124              	USBD_CDC_DataOut:
 125              		@ args = 0, pretend = 0, frame = 0
ARM GAS  /tmp/ccKGPNS5.s 			page 3


 126              		@ frame_needed = 0, uses_anonymous_args = 0
 127 0000 38B5     		push	{r3, r4, r5, lr}
 128 0002 0446     		mov	r4, r0
 129 0004 D0F8B852 		ldr	r5, [r0, #696]
 130 0008 FFF7FEFF 		bl	USBD_LL_GetRxDataSize
 131 000c C5F80C02 		str	r0, [r5, #524]
 132 0010 D4F8B832 		ldr	r3, [r4, #696]
 133 0014 4BB1     		cbz	r3, .L18
 134 0016 D4F8BC32 		ldr	r3, [r4, #700]
 135 001a DB68     		ldr	r3, [r3, #12]
 136 001c 05F50371 		add	r1, r5, #524
 137 0020 D5F80402 		ldr	r0, [r5, #516]
 138 0024 9847     		blx	r3
 139 0026 0020     		movs	r0, #0
 140              	.L17:
 141 0028 38BD     		pop	{r3, r4, r5, pc}
 142              	.L18:
 143 002a 0220     		movs	r0, #2
 144 002c FCE7     		b	.L17
 146              		.section	.text.USBD_CDC_DataIn,"ax",%progbits
 147              		.align	1
 148              		.syntax unified
 149              		.thumb
 150              		.thumb_func
 152              	USBD_CDC_DataIn:
 153              		@ args = 0, pretend = 0, frame = 0
 154              		@ frame_needed = 0, uses_anonymous_args = 0
 155 0000 10B5     		push	{r4, lr}
 156 0002 D0F8B822 		ldr	r2, [r0, #696]
 157 0006 D0F8C042 		ldr	r4, [r0, #704]
 158 000a F2B1     		cbz	r2, .L24
 159 000c 01EB8103 		add	r3, r1, r1, lsl #2
 160 0010 00EB8303 		add	r3, r0, r3, lsl #2
 161 0014 DB69     		ldr	r3, [r3, #28]
 162 0016 4BB1     		cbz	r3, .L22
 163 0018 01EB810C 		add	ip, r1, r1, lsl #2
 164 001c 04EBCC04 		add	r4, r4, ip, lsl #3
 165 0020 246A     		ldr	r4, [r4, #32]
 166 0022 B3FBF4FC 		udiv	ip, r3, r4
 167 0026 04FB1C33 		mls	r3, r4, ip, r3
 168 002a 23B1     		cbz	r3, .L26
 169              	.L22:
 170 002c 0023     		movs	r3, #0
 171 002e C2F81432 		str	r3, [r2, #532]
 172              	.L23:
 173 0032 0020     		movs	r0, #0
 174              	.L21:
 175 0034 10BD     		pop	{r4, pc}
 176              	.L26:
 177 0036 01EB8103 		add	r3, r1, r1, lsl #2
 178 003a 00EB8303 		add	r3, r0, r3, lsl #2
 179 003e 0022     		movs	r2, #0
 180 0040 DA61     		str	r2, [r3, #28]
 181 0042 1346     		mov	r3, r2
 182 0044 FFF7FEFF 		bl	USBD_LL_Transmit
 183 0048 F3E7     		b	.L23
 184              	.L24:
ARM GAS  /tmp/ccKGPNS5.s 			page 4


 185 004a 0220     		movs	r0, #2
 186 004c F2E7     		b	.L21
 188              		.section	.text.USBD_CDC_Setup,"ax",%progbits
 189              		.align	1
 190              		.syntax unified
 191              		.thumb
 192              		.thumb_func
 194              	USBD_CDC_Setup:
 195              		@ args = 0, pretend = 0, frame = 8
 196              		@ frame_needed = 0, uses_anonymous_args = 0
 197 0000 F0B5     		push	{r4, r5, r6, r7, lr}
 198 0002 83B0     		sub	sp, sp, #12
 199 0004 0646     		mov	r6, r0
 200 0006 0C46     		mov	r4, r1
 201 0008 D0F8B872 		ldr	r7, [r0, #696]
 202 000c 0023     		movs	r3, #0
 203 000e 8DF80730 		strb	r3, [sp, #7]
 204 0012 ADF80430 		strh	r3, [sp, #4]	@ movhi
 205 0016 0B78     		ldrb	r3, [r1]	@ zero_extendqisi2
 206 0018 13F06005 		ands	r5, r3, #96
 207 001c 27D0     		beq	.L28
 208 001e 202D     		cmp	r5, #32
 209 0020 53D1     		bne	.L29
 210 0022 CA88     		ldrh	r2, [r1, #6]
 211 0024 DAB1     		cbz	r2, .L30
 212 0026 13F0800F 		tst	r3, #128
 213 002a 0CD0     		beq	.L31
 214 002c D0F8BC32 		ldr	r3, [r0, #700]
 215 0030 9B68     		ldr	r3, [r3, #8]
 216 0032 3946     		mov	r1, r7
 217 0034 6078     		ldrb	r0, [r4, #1]	@ zero_extendqisi2
 218 0036 9847     		blx	r3
 219 0038 E288     		ldrh	r2, [r4, #6]
 220 003a 3946     		mov	r1, r7
 221 003c 3046     		mov	r0, r6
 222 003e FFF7FEFF 		bl	USBD_CtlSendData
 223 0042 0025     		movs	r5, #0
 224 0044 44E0     		b	.L32
 225              	.L31:
 226 0046 4B78     		ldrb	r3, [r1, #1]	@ zero_extendqisi2
 227 0048 87F80032 		strb	r3, [r7, #512]
 228 004c 8B79     		ldrb	r3, [r1, #6]	@ zero_extendqisi2
 229 004e 87F80132 		strb	r3, [r7, #513]
 230 0052 CA88     		ldrh	r2, [r1, #6]
 231 0054 3946     		mov	r1, r7
 232 0056 FFF7FEFF 		bl	USBD_CtlPrepareRx
 233 005a 0025     		movs	r5, #0
 234 005c 38E0     		b	.L32
 235              	.L30:
 236 005e D0F8BC32 		ldr	r3, [r0, #700]
 237 0062 9B68     		ldr	r3, [r3, #8]
 238 0064 0022     		movs	r2, #0
 239 0066 4878     		ldrb	r0, [r1, #1]	@ zero_extendqisi2
 240 0068 9847     		blx	r3
 241 006a 0025     		movs	r5, #0
 242 006c 30E0     		b	.L32
 243              	.L28:
ARM GAS  /tmp/ccKGPNS5.s 			page 5


 244 006e 4F78     		ldrb	r7, [r1, #1]	@ zero_extendqisi2
 245 0070 0A2F     		cmp	r7, #10
 246 0072 10D0     		beq	.L33
 247 0074 0B2F     		cmp	r7, #11
 248 0076 1CD0     		beq	.L34
 249 0078 1FBB     		cbnz	r7, .L35
 250 007a 90F89C32 		ldrb	r3, [r0, #668]	@ zero_extendqisi2
 251 007e 032B     		cmp	r3, #3
 252 0080 03D0     		beq	.L39
 253 0082 FFF7FEFF 		bl	USBD_CtlError
 254 0086 0225     		movs	r5, #2
 255 0088 22E0     		b	.L32
 256              	.L39:
 257 008a 0222     		movs	r2, #2
 258 008c 01A9     		add	r1, sp, #4
 259 008e FFF7FEFF 		bl	USBD_CtlSendData
 260 0092 3D46     		mov	r5, r7
 261 0094 1CE0     		b	.L32
 262              	.L33:
 263 0096 90F89C32 		ldrb	r3, [r0, #668]	@ zero_extendqisi2
 264 009a 032B     		cmp	r3, #3
 265 009c 03D0     		beq	.L40
 266 009e FFF7FEFF 		bl	USBD_CtlError
 267 00a2 0225     		movs	r5, #2
 268 00a4 14E0     		b	.L32
 269              	.L40:
 270 00a6 0122     		movs	r2, #1
 271 00a8 0DF10701 		add	r1, sp, #7
 272 00ac FFF7FEFF 		bl	USBD_CtlSendData
 273 00b0 0EE0     		b	.L32
 274              	.L34:
 275 00b2 90F89C32 		ldrb	r3, [r0, #668]	@ zero_extendqisi2
 276 00b6 032B     		cmp	r3, #3
 277 00b8 0AD0     		beq	.L32
 278 00ba FFF7FEFF 		bl	USBD_CtlError
 279 00be 0225     		movs	r5, #2
 280 00c0 06E0     		b	.L32
 281              	.L35:
 282 00c2 FFF7FEFF 		bl	USBD_CtlError
 283 00c6 0225     		movs	r5, #2
 284 00c8 02E0     		b	.L32
 285              	.L29:
 286 00ca FFF7FEFF 		bl	USBD_CtlError
 287 00ce 0225     		movs	r5, #2
 288              	.L32:
 289 00d0 2846     		mov	r0, r5
 290 00d2 03B0     		add	sp, sp, #12
 291              		@ sp needed
 292 00d4 F0BD     		pop	{r4, r5, r6, r7, pc}
 294              		.section	.text.USBD_CDC_DeInit,"ax",%progbits
 295              		.align	1
 296              		.syntax unified
 297              		.thumb
 298              		.thumb_func
 300              	USBD_CDC_DeInit:
 301              		@ args = 0, pretend = 0, frame = 0
 302              		@ frame_needed = 0, uses_anonymous_args = 0
ARM GAS  /tmp/ccKGPNS5.s 			page 6


 303 0000 38B5     		push	{r3, r4, r5, lr}
 304 0002 0446     		mov	r4, r0
 305 0004 8121     		movs	r1, #129
 306 0006 FFF7FEFF 		bl	USBD_LL_CloseEP
 307 000a 0025     		movs	r5, #0
 308 000c E562     		str	r5, [r4, #44]
 309 000e 0121     		movs	r1, #1
 310 0010 2046     		mov	r0, r4
 311 0012 FFF7FEFF 		bl	USBD_LL_CloseEP
 312 0016 C4F86C51 		str	r5, [r4, #364]
 313 001a 8221     		movs	r1, #130
 314 001c 2046     		mov	r0, r4
 315 001e FFF7FEFF 		bl	USBD_LL_CloseEP
 316 0022 2564     		str	r5, [r4, #64]
 317 0024 D4F8B832 		ldr	r3, [r4, #696]
 318 0028 4BB1     		cbz	r3, .L42
 319 002a D4F8BC32 		ldr	r3, [r4, #700]
 320 002e 5B68     		ldr	r3, [r3, #4]
 321 0030 9847     		blx	r3
 322 0032 D4F8B802 		ldr	r0, [r4, #696]
 323 0036 FFF7FEFF 		bl	USBD_static_free
 324 003a C4F8B852 		str	r5, [r4, #696]
 325              	.L42:
 326 003e 0020     		movs	r0, #0
 327 0040 38BD     		pop	{r3, r4, r5, pc}
 329              		.section	.text.USBD_CDC_Init,"ax",%progbits
 330              		.align	1
 331              		.syntax unified
 332              		.thumb
 333              		.thumb_func
 335              	USBD_CDC_Init:
 336              		@ args = 0, pretend = 0, frame = 0
 337              		@ frame_needed = 0, uses_anonymous_args = 0
 338 0000 70B5     		push	{r4, r5, r6, lr}
 339 0002 0446     		mov	r4, r0
 340 0004 037C     		ldrb	r3, [r0, #16]	@ zero_extendqisi2
 341 0006 ABBB     		cbnz	r3, .L45
 342 0008 4FF40073 		mov	r3, #512
 343 000c 0222     		movs	r2, #2
 344 000e 8121     		movs	r1, #129
 345 0010 FFF7FEFF 		bl	USBD_LL_OpenEP
 346 0014 0125     		movs	r5, #1
 347 0016 E562     		str	r5, [r4, #44]
 348 0018 4FF40073 		mov	r3, #512
 349 001c 0222     		movs	r2, #2
 350 001e 2946     		mov	r1, r5
 351 0020 2046     		mov	r0, r4
 352 0022 FFF7FEFF 		bl	USBD_LL_OpenEP
 353 0026 C4F86C51 		str	r5, [r4, #364]
 354              	.L46:
 355 002a 0823     		movs	r3, #8
 356 002c 0322     		movs	r2, #3
 357 002e 8221     		movs	r1, #130
 358 0030 2046     		mov	r0, r4
 359 0032 FFF7FEFF 		bl	USBD_LL_OpenEP
 360 0036 0123     		movs	r3, #1
 361 0038 2364     		str	r3, [r4, #64]
ARM GAS  /tmp/ccKGPNS5.s 			page 7


 362 003a 4FF40770 		mov	r0, #540
 363 003e FFF7FEFF 		bl	USBD_static_malloc
 364 0042 0546     		mov	r5, r0
 365 0044 C4F8B802 		str	r0, [r4, #696]
 366 0048 68B3     		cbz	r0, .L49
 367 004a D4F8BC32 		ldr	r3, [r4, #700]
 368 004e 1B68     		ldr	r3, [r3]
 369 0050 9847     		blx	r3
 370 0052 0023     		movs	r3, #0
 371 0054 C5F81432 		str	r3, [r5, #532]
 372 0058 C5F81832 		str	r3, [r5, #536]
 373 005c 267C     		ldrb	r6, [r4, #16]	@ zero_extendqisi2
 374 005e CEB9     		cbnz	r6, .L48
 375 0060 4FF40073 		mov	r3, #512
 376 0064 D5F80422 		ldr	r2, [r5, #516]
 377 0068 0121     		movs	r1, #1
 378 006a 2046     		mov	r0, r4
 379 006c FFF7FEFF 		bl	USBD_LL_PrepareReceive
 380              	.L47:
 381 0070 3046     		mov	r0, r6
 382 0072 70BD     		pop	{r4, r5, r6, pc}
 383              	.L45:
 384 0074 4023     		movs	r3, #64
 385 0076 0222     		movs	r2, #2
 386 0078 8121     		movs	r1, #129
 387 007a FFF7FEFF 		bl	USBD_LL_OpenEP
 388 007e 0125     		movs	r5, #1
 389 0080 E562     		str	r5, [r4, #44]
 390 0082 4023     		movs	r3, #64
 391 0084 0222     		movs	r2, #2
 392 0086 2946     		mov	r1, r5
 393 0088 2046     		mov	r0, r4
 394 008a FFF7FEFF 		bl	USBD_LL_OpenEP
 395 008e C4F86C51 		str	r5, [r4, #364]
 396 0092 CAE7     		b	.L46
 397              	.L48:
 398 0094 4023     		movs	r3, #64
 399 0096 D5F80422 		ldr	r2, [r5, #516]
 400 009a 0121     		movs	r1, #1
 401 009c 2046     		mov	r0, r4
 402 009e FFF7FEFF 		bl	USBD_LL_PrepareReceive
 403 00a2 0026     		movs	r6, #0
 404 00a4 E4E7     		b	.L47
 405              	.L49:
 406 00a6 0126     		movs	r6, #1
 407 00a8 E2E7     		b	.L47
 409              		.section	.text.USBD_CDC_RegisterInterface,"ax",%progbits
 410              		.align	1
 411              		.global	USBD_CDC_RegisterInterface
 412              		.syntax unified
 413              		.thumb
 414              		.thumb_func
 416              	USBD_CDC_RegisterInterface:
 417              		@ args = 0, pretend = 0, frame = 0
 418              		@ frame_needed = 0, uses_anonymous_args = 0
 419              		@ link register save eliminated.
 420 0000 19B1     		cbz	r1, .L53
ARM GAS  /tmp/ccKGPNS5.s 			page 8


 421 0002 C0F8BC12 		str	r1, [r0, #700]
 422 0006 0020     		movs	r0, #0
 423 0008 7047     		bx	lr
 424              	.L53:
 425 000a 0220     		movs	r0, #2
 426 000c 7047     		bx	lr
 428              		.section	.text.USBD_CDC_SetTxBuffer,"ax",%progbits
 429              		.align	1
 430              		.global	USBD_CDC_SetTxBuffer
 431              		.syntax unified
 432              		.thumb
 433              		.thumb_func
 435              	USBD_CDC_SetTxBuffer:
 436              		@ args = 0, pretend = 0, frame = 0
 437              		@ frame_needed = 0, uses_anonymous_args = 0
 438              		@ link register save eliminated.
 439 0000 D0F8B832 		ldr	r3, [r0, #696]
 440 0004 C3F80812 		str	r1, [r3, #520]
 441 0008 C3F81022 		str	r2, [r3, #528]
 442 000c 0020     		movs	r0, #0
 443 000e 7047     		bx	lr
 445              		.section	.text.USBD_CDC_SetRxBuffer,"ax",%progbits
 446              		.align	1
 447              		.global	USBD_CDC_SetRxBuffer
 448              		.syntax unified
 449              		.thumb
 450              		.thumb_func
 452              	USBD_CDC_SetRxBuffer:
 453              		@ args = 0, pretend = 0, frame = 0
 454              		@ frame_needed = 0, uses_anonymous_args = 0
 455              		@ link register save eliminated.
 456 0000 D0F8B832 		ldr	r3, [r0, #696]
 457 0004 C3F80412 		str	r1, [r3, #516]
 458 0008 0020     		movs	r0, #0
 459 000a 7047     		bx	lr
 461              		.section	.text.USBD_CDC_TransmitPacket,"ax",%progbits
 462              		.align	1
 463              		.global	USBD_CDC_TransmitPacket
 464              		.syntax unified
 465              		.thumb
 466              		.thumb_func
 468              	USBD_CDC_TransmitPacket:
 469              		@ args = 0, pretend = 0, frame = 0
 470              		@ frame_needed = 0, uses_anonymous_args = 0
 471 0000 D0F8B822 		ldr	r2, [r0, #696]
 472 0004 9AB1     		cbz	r2, .L58
 473 0006 08B5     		push	{r3, lr}
 474 0008 D2F81432 		ldr	r3, [r2, #532]
 475 000c 0BB1     		cbz	r3, .L64
 476 000e 0120     		movs	r0, #1
 477              	.L57:
 478 0010 08BD     		pop	{r3, pc}
 479              	.L64:
 480 0012 0123     		movs	r3, #1
 481 0014 C2F81432 		str	r3, [r2, #532]
 482 0018 D2F81032 		ldr	r3, [r2, #528]
 483 001c 0363     		str	r3, [r0, #48]
ARM GAS  /tmp/ccKGPNS5.s 			page 9


 484 001e 9BB2     		uxth	r3, r3
 485 0020 D2F80822 		ldr	r2, [r2, #520]
 486 0024 8121     		movs	r1, #129
 487 0026 FFF7FEFF 		bl	USBD_LL_Transmit
 488 002a 0020     		movs	r0, #0
 489 002c F0E7     		b	.L57
 490              	.L58:
 491 002e 0220     		movs	r0, #2
 492 0030 7047     		bx	lr
 494              		.section	.text.USBD_CDC_ReceivePacket,"ax",%progbits
 495              		.align	1
 496              		.global	USBD_CDC_ReceivePacket
 497              		.syntax unified
 498              		.thumb
 499              		.thumb_func
 501              	USBD_CDC_ReceivePacket:
 502              		@ args = 0, pretend = 0, frame = 0
 503              		@ frame_needed = 0, uses_anonymous_args = 0
 504 0000 D0F8B822 		ldr	r2, [r0, #696]
 505 0004 92B1     		cbz	r2, .L69
 506 0006 08B5     		push	{r3, lr}
 507 0008 037C     		ldrb	r3, [r0, #16]	@ zero_extendqisi2
 508 000a 43B9     		cbnz	r3, .L67
 509 000c 4FF40073 		mov	r3, #512
 510 0010 D2F80422 		ldr	r2, [r2, #516]
 511 0014 0121     		movs	r1, #1
 512 0016 FFF7FEFF 		bl	USBD_LL_PrepareReceive
 513              	.L68:
 514 001a 0020     		movs	r0, #0
 515 001c 08BD     		pop	{r3, pc}
 516              	.L67:
 517 001e 4023     		movs	r3, #64
 518 0020 D2F80422 		ldr	r2, [r2, #516]
 519 0024 0121     		movs	r1, #1
 520 0026 FFF7FEFF 		bl	USBD_LL_PrepareReceive
 521 002a F6E7     		b	.L68
 522              	.L69:
 523 002c 0220     		movs	r0, #2
 524 002e 7047     		bx	lr
 526              		.global	USBD_CDC_OtherSpeedCfgDesc
 527              		.section	.data.USBD_CDC_OtherSpeedCfgDesc,"aw"
 528              		.align	2
 531              	USBD_CDC_OtherSpeedCfgDesc:
 532 0000 09074300 		.ascii	"\011\007C\000\002\001\004\3002\011\004\000\000\001\002"
 532      020104C0 
 532      32090400 
 532      000102
 533 000f 02010005 		.ascii	"\002\001\000\005$\000\020\001\005$\001\000\001\004$"
 533      24001001 
 533      05240100 
 533      010424
 534 001e 02020524 		.ascii	"\002\002\005$\006\000\001\007\005\202\003\010\000\020"
 534      06000107 
 534      05820308 
 534      0010
 535 002c 09040100 		.ascii	"\011\004\001\000\002\012\000\000\000\007\005\001\002"
 535      020A0000 
ARM GAS  /tmp/ccKGPNS5.s 			page 10


 535      00070501 
 535      02
 536 0039 40000007 		.ascii	"@\000\000\007\005\201\002@\000\000"
 536      05810240 
 536      0000
 537              		.global	USBD_CDC_CfgFSDesc
 538              		.section	.data.USBD_CDC_CfgFSDesc,"aw"
 539              		.align	2
 542              	USBD_CDC_CfgFSDesc:
 543 0000 09024300 		.ascii	"\011\002C\000\002\001\000\3002\011\004\000\000\001\002"
 543      020100C0 
 543      32090400 
 543      000102
 544 000f 02010005 		.ascii	"\002\001\000\005$\000\020\001\005$\001\000\001\004$"
 544      24001001 
 544      05240100 
 544      010424
 545 001e 02020524 		.ascii	"\002\002\005$\006\000\001\007\005\202\003\010\000\020"
 545      06000107 
 545      05820308 
 545      0010
 546 002c 09040100 		.ascii	"\011\004\001\000\002\012\000\000\000\007\005\001\002"
 546      020A0000 
 546      00070501 
 546      02
 547 0039 40000007 		.ascii	"@\000\000\007\005\201\002@\000\000"
 547      05810240 
 547      0000
 548              		.global	USBD_CDC_CfgHSDesc
 549              		.section	.data.USBD_CDC_CfgHSDesc,"aw"
 550              		.align	2
 553              	USBD_CDC_CfgHSDesc:
 554 0000 09024300 		.ascii	"\011\002C\000\002\001\000\3002\011\004\000\000\001\002"
 554      020100C0 
 554      32090400 
 554      000102
 555 000f 02010005 		.ascii	"\002\001\000\005$\000\020\001\005$\001\000\001\004$"
 555      24001001 
 555      05240100 
 555      010424
 556 001e 02020524 		.ascii	"\002\002\005$\006\000\001\007\005\202\003\010\000\020"
 556      06000107 
 556      05820308 
 556      0010
 557 002c 09040100 		.ascii	"\011\004\001\000\002\012\000\000\000\007\005\001\002"
 557      020A0000 
 557      00070501 
 557      02
 558 0039 00020007 		.ascii	"\000\002\000\007\005\201\002\000\002\000"
 558      05810200 
 558      0200
 559              		.global	USBD_CDC
 560              		.section	.data.USBD_CDC,"aw"
 561              		.align	2
 564              	USBD_CDC:
 565 0000 00000000 		.word	USBD_CDC_Init
 566 0004 00000000 		.word	USBD_CDC_DeInit
ARM GAS  /tmp/ccKGPNS5.s 			page 11


 567 0008 00000000 		.word	USBD_CDC_Setup
 568 000c 00000000 		.word	0
 569 0010 00000000 		.word	USBD_CDC_EP0_RxReady
 570 0014 00000000 		.word	USBD_CDC_DataIn
 571 0018 00000000 		.word	USBD_CDC_DataOut
 572 001c 00000000 		.word	0
 573 0020 00000000 		.word	0
 574 0024 00000000 		.word	0
 575 0028 00000000 		.word	USBD_CDC_GetHSCfgDesc
 576 002c 00000000 		.word	USBD_CDC_GetFSCfgDesc
 577 0030 00000000 		.word	USBD_CDC_GetOtherSpeedCfgDesc
 578 0034 00000000 		.word	USBD_CDC_GetDeviceQualifierDescriptor
 579              		.section	.data.USBD_CDC_DeviceQualifierDesc,"aw"
 580              		.align	2
 583              	USBD_CDC_DeviceQualifierDesc:
 584 0000 0A060002 		.ascii	"\012\006\000\002\000\000\000@\001\000"
 584      00000040 
 584      0100
 585              		.ident	"GCC: (15:13.3.rel1-1) 13.3.1 20240614"
ARM GAS  /tmp/ccKGPNS5.s 			page 12

