ARM GAS  /tmp/ccIDfpNR.s 			page 1


   1              		.cpu cortex-m3
   2              		.arch armv7-m
   3              		.fpu softvfp
   4              		.eabi_attribute 20, 1
   5              		.eabi_attribute 21, 1
   6              		.eabi_attribute 23, 3
   7              		.eabi_attribute 24, 1
   8              		.eabi_attribute 25, 1
   9              		.eabi_attribute 26, 1
  10              		.eabi_attribute 30, 1
  11              		.eabi_attribute 34, 1
  12              		.eabi_attribute 18, 4
  13              		.file	"usbd_conf.c"
  14              		.text
  15              		.section	.text.USBD_Get_USB_Status,"ax",%progbits
  16              		.align	1
  17              		.syntax unified
  18              		.thumb
  19              		.thumb_func
  21              	USBD_Get_USB_Status:
  22              		@ args = 0, pretend = 0, frame = 0
  23              		@ frame_needed = 0, uses_anonymous_args = 0
  24              		@ link register save eliminated.
  25 0000 0228     		cmp	r0, #2
  26 0002 05D8     		bhi	.L6
  27 0004 DFE800F0 		tbb	[pc, r0]
  28              	.L4:
  29 0008 05       		.byte	(.L2-.L4)/2
  30 0009 04       		.byte	(.L6-.L4)/2
  31 000a 02       		.byte	(.L3-.L4)/2
  32 000b 00       		.p2align 1
  33              	.L3:
  34 000c 0120     		movs	r0, #1
  35 000e 7047     		bx	lr
  36              	.L6:
  37 0010 0220     		movs	r0, #2
  38              	.L2:
  39 0012 7047     		bx	lr
  41              		.section	.text.HAL_PCD_MspInit,"ax",%progbits
  42              		.align	1
  43              		.global	HAL_PCD_MspInit
  44              		.syntax unified
  45              		.thumb
  46              		.thumb_func
  48              	HAL_PCD_MspInit:
  49              		@ args = 0, pretend = 0, frame = 8
  50              		@ frame_needed = 0, uses_anonymous_args = 0
  51 0000 0268     		ldr	r2, [r0]
  52 0002 0E4B     		ldr	r3, .L14
  53 0004 9A42     		cmp	r2, r3
  54 0006 00D0     		beq	.L13
  55 0008 7047     		bx	lr
  56              	.L13:
  57 000a 00B5     		push	{lr}
  58 000c 83B0     		sub	sp, sp, #12
  59 000e 03F5DA33 		add	r3, r3, #111616
  60 0012 DA69     		ldr	r2, [r3, #28]
ARM GAS  /tmp/ccIDfpNR.s 			page 2


  61 0014 42F40002 		orr	r2, r2, #8388608
  62 0018 DA61     		str	r2, [r3, #28]
  63 001a DB69     		ldr	r3, [r3, #28]
  64 001c 03F40003 		and	r3, r3, #8388608
  65 0020 0193     		str	r3, [sp, #4]
  66 0022 019B     		ldr	r3, [sp, #4]
  67 0024 0022     		movs	r2, #0
  68 0026 1146     		mov	r1, r2
  69 0028 1420     		movs	r0, #20
  70 002a FFF7FEFF 		bl	HAL_NVIC_SetPriority
  71 002e 1420     		movs	r0, #20
  72 0030 FFF7FEFF 		bl	HAL_NVIC_EnableIRQ
  73 0034 03B0     		add	sp, sp, #12
  74              		@ sp needed
  75 0036 5DF804FB 		ldr	pc, [sp], #4
  76              	.L15:
  77 003a 00BF     		.align	2
  78              	.L14:
  79 003c 005C0040 		.word	1073765376
  81              		.section	.text.HAL_PCD_MspDeInit,"ax",%progbits
  82              		.align	1
  83              		.global	HAL_PCD_MspDeInit
  84              		.syntax unified
  85              		.thumb
  86              		.thumb_func
  88              	HAL_PCD_MspDeInit:
  89              		@ args = 0, pretend = 0, frame = 0
  90              		@ frame_needed = 0, uses_anonymous_args = 0
  91 0000 08B5     		push	{r3, lr}
  92 0002 0268     		ldr	r2, [r0]
  93 0004 064B     		ldr	r3, .L20
  94 0006 9A42     		cmp	r2, r3
  95 0008 00D0     		beq	.L19
  96              	.L16:
  97 000a 08BD     		pop	{r3, pc}
  98              	.L19:
  99 000c 054A     		ldr	r2, .L20+4
 100 000e D369     		ldr	r3, [r2, #28]
 101 0010 23F40003 		bic	r3, r3, #8388608
 102 0014 D361     		str	r3, [r2, #28]
 103 0016 1420     		movs	r0, #20
 104 0018 FFF7FEFF 		bl	HAL_NVIC_DisableIRQ
 105 001c F5E7     		b	.L16
 106              	.L21:
 107 001e 00BF     		.align	2
 108              	.L20:
 109 0020 005C0040 		.word	1073765376
 110 0024 00100240 		.word	1073876992
 112              		.section	.text.HAL_PCD_SetupStageCallback,"ax",%progbits
 113              		.align	1
 114              		.global	HAL_PCD_SetupStageCallback
 115              		.syntax unified
 116              		.thumb
 117              		.thumb_func
 119              	HAL_PCD_SetupStageCallback:
 120              		@ args = 0, pretend = 0, frame = 0
 121              		@ frame_needed = 0, uses_anonymous_args = 0
ARM GAS  /tmp/ccIDfpNR.s 			page 3


 122 0000 08B5     		push	{r3, lr}
 123 0002 00F52671 		add	r1, r0, #664
 124 0006 D0F8D402 		ldr	r0, [r0, #724]
 125 000a FFF7FEFF 		bl	USBD_LL_SetupStage
 126 000e 08BD     		pop	{r3, pc}
 128              		.section	.text.HAL_PCD_DataOutStageCallback,"ax",%progbits
 129              		.align	1
 130              		.global	HAL_PCD_DataOutStageCallback
 131              		.syntax unified
 132              		.thumb
 133              		.thumb_func
 135              	HAL_PCD_DataOutStageCallback:
 136              		@ args = 0, pretend = 0, frame = 0
 137              		@ frame_needed = 0, uses_anonymous_args = 0
 138 0000 08B5     		push	{r3, lr}
 139 0002 01EB8103 		add	r3, r1, r1, lsl #2
 140 0006 00EBC303 		add	r3, r0, r3, lsl #3
 141 000a D3F86421 		ldr	r2, [r3, #356]
 142 000e D0F8D402 		ldr	r0, [r0, #724]
 143 0012 FFF7FEFF 		bl	USBD_LL_DataOutStage
 144 0016 08BD     		pop	{r3, pc}
 146              		.section	.text.HAL_PCD_DataInStageCallback,"ax",%progbits
 147              		.align	1
 148              		.global	HAL_PCD_DataInStageCallback
 149              		.syntax unified
 150              		.thumb
 151              		.thumb_func
 153              	HAL_PCD_DataInStageCallback:
 154              		@ args = 0, pretend = 0, frame = 0
 155              		@ frame_needed = 0, uses_anonymous_args = 0
 156 0000 08B5     		push	{r3, lr}
 157 0002 01EB8103 		add	r3, r1, r1, lsl #2
 158 0006 00EBC303 		add	r3, r0, r3, lsl #3
 159 000a 5A6A     		ldr	r2, [r3, #36]
 160 000c D0F8D402 		ldr	r0, [r0, #724]
 161 0010 FFF7FEFF 		bl	USBD_LL_DataInStage
 162 0014 08BD     		pop	{r3, pc}
 164              		.section	.text.HAL_PCD_SOFCallback,"ax",%progbits
 165              		.align	1
 166              		.global	HAL_PCD_SOFCallback
 167              		.syntax unified
 168              		.thumb
 169              		.thumb_func
 171              	HAL_PCD_SOFCallback:
 172              		@ args = 0, pretend = 0, frame = 0
 173              		@ frame_needed = 0, uses_anonymous_args = 0
 174 0000 08B5     		push	{r3, lr}
 175 0002 D0F8D402 		ldr	r0, [r0, #724]
 176 0006 FFF7FEFF 		bl	USBD_LL_SOF
 177 000a 08BD     		pop	{r3, pc}
 179              		.section	.text.HAL_PCD_ResetCallback,"ax",%progbits
 180              		.align	1
 181              		.global	HAL_PCD_ResetCallback
 182              		.syntax unified
 183              		.thumb
 184              		.thumb_func
 186              	HAL_PCD_ResetCallback:
ARM GAS  /tmp/ccIDfpNR.s 			page 4


 187              		@ args = 0, pretend = 0, frame = 0
 188              		@ frame_needed = 0, uses_anonymous_args = 0
 189 0000 10B5     		push	{r4, lr}
 190 0002 0446     		mov	r4, r0
 191 0004 8379     		ldrb	r3, [r0, #6]	@ zero_extendqisi2
 192 0006 022B     		cmp	r3, #2
 193 0008 09D1     		bne	.L33
 194              	.L31:
 195 000a 0121     		movs	r1, #1
 196 000c D4F8D402 		ldr	r0, [r4, #724]
 197 0010 FFF7FEFF 		bl	USBD_LL_SetSpeed
 198 0014 D4F8D402 		ldr	r0, [r4, #724]
 199 0018 FFF7FEFF 		bl	USBD_LL_Reset
 200 001c 10BD     		pop	{r4, pc}
 201              	.L33:
 202 001e FFF7FEFF 		bl	Error_Handler
 203 0022 F2E7     		b	.L31
 205              		.section	.text.HAL_PCD_SuspendCallback,"ax",%progbits
 206              		.align	1
 207              		.global	HAL_PCD_SuspendCallback
 208              		.syntax unified
 209              		.thumb
 210              		.thumb_func
 212              	HAL_PCD_SuspendCallback:
 213              		@ args = 0, pretend = 0, frame = 0
 214              		@ frame_needed = 0, uses_anonymous_args = 0
 215 0000 10B5     		push	{r4, lr}
 216 0002 0446     		mov	r4, r0
 217 0004 D0F8D402 		ldr	r0, [r0, #724]
 218 0008 FFF7FEFF 		bl	USBD_LL_Suspend
 219 000c A37A     		ldrb	r3, [r4, #10]	@ zero_extendqisi2
 220 000e 23B1     		cbz	r3, .L34
 221 0010 024A     		ldr	r2, .L37
 222 0012 1369     		ldr	r3, [r2, #16]
 223 0014 43F00603 		orr	r3, r3, #6
 224 0018 1361     		str	r3, [r2, #16]
 225              	.L34:
 226 001a 10BD     		pop	{r4, pc}
 227              	.L38:
 228              		.align	2
 229              	.L37:
 230 001c 00ED00E0 		.word	-536810240
 232              		.section	.text.HAL_PCD_ResumeCallback,"ax",%progbits
 233              		.align	1
 234              		.global	HAL_PCD_ResumeCallback
 235              		.syntax unified
 236              		.thumb
 237              		.thumb_func
 239              	HAL_PCD_ResumeCallback:
 240              		@ args = 0, pretend = 0, frame = 0
 241              		@ frame_needed = 0, uses_anonymous_args = 0
 242 0000 08B5     		push	{r3, lr}
 243 0002 D0F8D402 		ldr	r0, [r0, #724]
 244 0006 FFF7FEFF 		bl	USBD_LL_Resume
 245 000a 08BD     		pop	{r3, pc}
 247              		.section	.text.HAL_PCD_ISOOUTIncompleteCallback,"ax",%progbits
 248              		.align	1
ARM GAS  /tmp/ccIDfpNR.s 			page 5


 249              		.global	HAL_PCD_ISOOUTIncompleteCallback
 250              		.syntax unified
 251              		.thumb
 252              		.thumb_func
 254              	HAL_PCD_ISOOUTIncompleteCallback:
 255              		@ args = 0, pretend = 0, frame = 0
 256              		@ frame_needed = 0, uses_anonymous_args = 0
 257 0000 08B5     		push	{r3, lr}
 258 0002 D0F8D402 		ldr	r0, [r0, #724]
 259 0006 FFF7FEFF 		bl	USBD_LL_IsoOUTIncomplete
 260 000a 08BD     		pop	{r3, pc}
 262              		.section	.text.HAL_PCD_ISOINIncompleteCallback,"ax",%progbits
 263              		.align	1
 264              		.global	HAL_PCD_ISOINIncompleteCallback
 265              		.syntax unified
 266              		.thumb
 267              		.thumb_func
 269              	HAL_PCD_ISOINIncompleteCallback:
 270              		@ args = 0, pretend = 0, frame = 0
 271              		@ frame_needed = 0, uses_anonymous_args = 0
 272 0000 08B5     		push	{r3, lr}
 273 0002 D0F8D402 		ldr	r0, [r0, #724]
 274 0006 FFF7FEFF 		bl	USBD_LL_IsoINIncomplete
 275 000a 08BD     		pop	{r3, pc}
 277              		.section	.text.HAL_PCD_ConnectCallback,"ax",%progbits
 278              		.align	1
 279              		.global	HAL_PCD_ConnectCallback
 280              		.syntax unified
 281              		.thumb
 282              		.thumb_func
 284              	HAL_PCD_ConnectCallback:
 285              		@ args = 0, pretend = 0, frame = 0
 286              		@ frame_needed = 0, uses_anonymous_args = 0
 287 0000 08B5     		push	{r3, lr}
 288 0002 D0F8D402 		ldr	r0, [r0, #724]
 289 0006 FFF7FEFF 		bl	USBD_LL_DevConnected
 290 000a 08BD     		pop	{r3, pc}
 292              		.section	.text.HAL_PCD_DisconnectCallback,"ax",%progbits
 293              		.align	1
 294              		.global	HAL_PCD_DisconnectCallback
 295              		.syntax unified
 296              		.thumb
 297              		.thumb_func
 299              	HAL_PCD_DisconnectCallback:
 300              		@ args = 0, pretend = 0, frame = 0
 301              		@ frame_needed = 0, uses_anonymous_args = 0
 302 0000 08B5     		push	{r3, lr}
 303 0002 D0F8D402 		ldr	r0, [r0, #724]
 304 0006 FFF7FEFF 		bl	USBD_LL_DevDisconnected
 305 000a 08BD     		pop	{r3, pc}
 307              		.section	.text.USBD_LL_Init,"ax",%progbits
 308              		.align	1
 309              		.global	USBD_LL_Init
 310              		.syntax unified
 311              		.thumb
 312              		.thumb_func
 314              	USBD_LL_Init:
ARM GAS  /tmp/ccIDfpNR.s 			page 6


 315              		@ args = 0, pretend = 0, frame = 0
 316              		@ frame_needed = 0, uses_anonymous_args = 0
 317 0000 10B5     		push	{r4, lr}
 318 0002 0446     		mov	r4, r0
 319 0004 1D48     		ldr	r0, .L53
 320 0006 C0F8D442 		str	r4, [r0, #724]
 321 000a C4F8C002 		str	r0, [r4, #704]
 322 000e 1C4B     		ldr	r3, .L53+4
 323 0010 0360     		str	r3, [r0]
 324 0012 0823     		movs	r3, #8
 325 0014 0371     		strb	r3, [r0, #4]
 326 0016 0223     		movs	r3, #2
 327 0018 8371     		strb	r3, [r0, #6]
 328 001a 0023     		movs	r3, #0
 329 001c 8372     		strb	r3, [r0, #10]
 330 001e C372     		strb	r3, [r0, #11]
 331 0020 0373     		strb	r3, [r0, #12]
 332 0022 FFF7FEFF 		bl	HAL_PCD_Init
 333 0026 30BB     		cbnz	r0, .L52
 334              	.L50:
 335 0028 1823     		movs	r3, #24
 336 002a 0022     		movs	r2, #0
 337 002c 1146     		mov	r1, r2
 338 002e D4F8C002 		ldr	r0, [r4, #704]
 339 0032 FFF7FEFF 		bl	HAL_PCDEx_PMAConfig
 340 0036 5823     		movs	r3, #88
 341 0038 0022     		movs	r2, #0
 342 003a 8021     		movs	r1, #128
 343 003c D4F8C002 		ldr	r0, [r4, #704]
 344 0040 FFF7FEFF 		bl	HAL_PCDEx_PMAConfig
 345 0044 C023     		movs	r3, #192
 346 0046 0022     		movs	r2, #0
 347 0048 8121     		movs	r1, #129
 348 004a D4F8C002 		ldr	r0, [r4, #704]
 349 004e FFF7FEFF 		bl	HAL_PCDEx_PMAConfig
 350 0052 4FF48873 		mov	r3, #272
 351 0056 0022     		movs	r2, #0
 352 0058 0121     		movs	r1, #1
 353 005a D4F8C002 		ldr	r0, [r4, #704]
 354 005e FFF7FEFF 		bl	HAL_PCDEx_PMAConfig
 355 0062 4FF48073 		mov	r3, #256
 356 0066 0022     		movs	r2, #0
 357 0068 8221     		movs	r1, #130
 358 006a D4F8C002 		ldr	r0, [r4, #704]
 359 006e FFF7FEFF 		bl	HAL_PCDEx_PMAConfig
 360 0072 0020     		movs	r0, #0
 361 0074 10BD     		pop	{r4, pc}
 362              	.L52:
 363 0076 FFF7FEFF 		bl	Error_Handler
 364 007a D5E7     		b	.L50
 365              	.L54:
 366              		.align	2
 367              	.L53:
 368 007c 00000000 		.word	hpcd_USB_FS
 369 0080 005C0040 		.word	1073765376
 371              		.section	.text.USBD_LL_DeInit,"ax",%progbits
 372              		.align	1
ARM GAS  /tmp/ccIDfpNR.s 			page 7


 373              		.global	USBD_LL_DeInit
 374              		.syntax unified
 375              		.thumb
 376              		.thumb_func
 378              	USBD_LL_DeInit:
 379              		@ args = 0, pretend = 0, frame = 0
 380              		@ frame_needed = 0, uses_anonymous_args = 0
 381 0000 08B5     		push	{r3, lr}
 382 0002 D0F8C002 		ldr	r0, [r0, #704]
 383 0006 FFF7FEFF 		bl	HAL_PCD_DeInit
 384 000a FFF7FEFF 		bl	USBD_Get_USB_Status
 385 000e 08BD     		pop	{r3, pc}
 387              		.section	.text.USBD_LL_Start,"ax",%progbits
 388              		.align	1
 389              		.global	USBD_LL_Start
 390              		.syntax unified
 391              		.thumb
 392              		.thumb_func
 394              	USBD_LL_Start:
 395              		@ args = 0, pretend = 0, frame = 0
 396              		@ frame_needed = 0, uses_anonymous_args = 0
 397 0000 08B5     		push	{r3, lr}
 398 0002 D0F8C002 		ldr	r0, [r0, #704]
 399 0006 FFF7FEFF 		bl	HAL_PCD_Start
 400 000a FFF7FEFF 		bl	USBD_Get_USB_Status
 401 000e 08BD     		pop	{r3, pc}
 403              		.section	.text.USBD_LL_Stop,"ax",%progbits
 404              		.align	1
 405              		.global	USBD_LL_Stop
 406              		.syntax unified
 407              		.thumb
 408              		.thumb_func
 410              	USBD_LL_Stop:
 411              		@ args = 0, pretend = 0, frame = 0
 412              		@ frame_needed = 0, uses_anonymous_args = 0
 413 0000 08B5     		push	{r3, lr}
 414 0002 D0F8C002 		ldr	r0, [r0, #704]
 415 0006 FFF7FEFF 		bl	HAL_PCD_Stop
 416 000a FFF7FEFF 		bl	USBD_Get_USB_Status
 417 000e 08BD     		pop	{r3, pc}
 419              		.section	.text.USBD_LL_OpenEP,"ax",%progbits
 420              		.align	1
 421              		.global	USBD_LL_OpenEP
 422              		.syntax unified
 423              		.thumb
 424              		.thumb_func
 426              	USBD_LL_OpenEP:
 427              		@ args = 0, pretend = 0, frame = 0
 428              		@ frame_needed = 0, uses_anonymous_args = 0
 429 0000 08B5     		push	{r3, lr}
 430 0002 9446     		mov	ip, r2
 431 0004 1A46     		mov	r2, r3
 432 0006 6346     		mov	r3, ip
 433 0008 D0F8C002 		ldr	r0, [r0, #704]
 434 000c FFF7FEFF 		bl	HAL_PCD_EP_Open
 435 0010 FFF7FEFF 		bl	USBD_Get_USB_Status
 436 0014 08BD     		pop	{r3, pc}
ARM GAS  /tmp/ccIDfpNR.s 			page 8


 438              		.section	.text.USBD_LL_CloseEP,"ax",%progbits
 439              		.align	1
 440              		.global	USBD_LL_CloseEP
 441              		.syntax unified
 442              		.thumb
 443              		.thumb_func
 445              	USBD_LL_CloseEP:
 446              		@ args = 0, pretend = 0, frame = 0
 447              		@ frame_needed = 0, uses_anonymous_args = 0
 448 0000 08B5     		push	{r3, lr}
 449 0002 D0F8C002 		ldr	r0, [r0, #704]
 450 0006 FFF7FEFF 		bl	HAL_PCD_EP_Close
 451 000a FFF7FEFF 		bl	USBD_Get_USB_Status
 452 000e 08BD     		pop	{r3, pc}
 454              		.section	.text.USBD_LL_FlushEP,"ax",%progbits
 455              		.align	1
 456              		.global	USBD_LL_FlushEP
 457              		.syntax unified
 458              		.thumb
 459              		.thumb_func
 461              	USBD_LL_FlushEP:
 462              		@ args = 0, pretend = 0, frame = 0
 463              		@ frame_needed = 0, uses_anonymous_args = 0
 464 0000 08B5     		push	{r3, lr}
 465 0002 D0F8C002 		ldr	r0, [r0, #704]
 466 0006 FFF7FEFF 		bl	HAL_PCD_EP_Flush
 467 000a FFF7FEFF 		bl	USBD_Get_USB_Status
 468 000e 08BD     		pop	{r3, pc}
 470              		.section	.text.USBD_LL_StallEP,"ax",%progbits
 471              		.align	1
 472              		.global	USBD_LL_StallEP
 473              		.syntax unified
 474              		.thumb
 475              		.thumb_func
 477              	USBD_LL_StallEP:
 478              		@ args = 0, pretend = 0, frame = 0
 479              		@ frame_needed = 0, uses_anonymous_args = 0
 480 0000 08B5     		push	{r3, lr}
 481 0002 D0F8C002 		ldr	r0, [r0, #704]
 482 0006 FFF7FEFF 		bl	HAL_PCD_EP_SetStall
 483 000a FFF7FEFF 		bl	USBD_Get_USB_Status
 484 000e 08BD     		pop	{r3, pc}
 486              		.section	.text.USBD_LL_ClearStallEP,"ax",%progbits
 487              		.align	1
 488              		.global	USBD_LL_ClearStallEP
 489              		.syntax unified
 490              		.thumb
 491              		.thumb_func
 493              	USBD_LL_ClearStallEP:
 494              		@ args = 0, pretend = 0, frame = 0
 495              		@ frame_needed = 0, uses_anonymous_args = 0
 496 0000 08B5     		push	{r3, lr}
 497 0002 D0F8C002 		ldr	r0, [r0, #704]
 498 0006 FFF7FEFF 		bl	HAL_PCD_EP_ClrStall
 499 000a FFF7FEFF 		bl	USBD_Get_USB_Status
 500 000e 08BD     		pop	{r3, pc}
 502              		.section	.text.USBD_LL_IsStallEP,"ax",%progbits
ARM GAS  /tmp/ccIDfpNR.s 			page 9


 503              		.align	1
 504              		.global	USBD_LL_IsStallEP
 505              		.syntax unified
 506              		.thumb
 507              		.thumb_func
 509              	USBD_LL_IsStallEP:
 510              		@ args = 0, pretend = 0, frame = 0
 511              		@ frame_needed = 0, uses_anonymous_args = 0
 512              		@ link register save eliminated.
 513 0000 D0F8C032 		ldr	r3, [r0, #704]
 514 0004 11F0800F 		tst	r1, #128
 515 0008 08D1     		bne	.L74
 516 000a 01F07F01 		and	r1, r1, #127
 517 000e 01EB8101 		add	r1, r1, r1, lsl #2
 518 0012 03EBC103 		add	r3, r3, r1, lsl #3
 519 0016 93F85201 		ldrb	r0, [r3, #338]	@ zero_extendqisi2
 520 001a 7047     		bx	lr
 521              	.L74:
 522 001c 01F07F01 		and	r1, r1, #127
 523 0020 01EB8101 		add	r1, r1, r1, lsl #2
 524 0024 03EBC103 		add	r3, r3, r1, lsl #3
 525 0028 987C     		ldrb	r0, [r3, #18]	@ zero_extendqisi2
 526 002a 7047     		bx	lr
 528              		.section	.text.USBD_LL_SetUSBAddress,"ax",%progbits
 529              		.align	1
 530              		.global	USBD_LL_SetUSBAddress
 531              		.syntax unified
 532              		.thumb
 533              		.thumb_func
 535              	USBD_LL_SetUSBAddress:
 536              		@ args = 0, pretend = 0, frame = 0
 537              		@ frame_needed = 0, uses_anonymous_args = 0
 538 0000 08B5     		push	{r3, lr}
 539 0002 D0F8C002 		ldr	r0, [r0, #704]
 540 0006 FFF7FEFF 		bl	HAL_PCD_SetAddress
 541 000a FFF7FEFF 		bl	USBD_Get_USB_Status
 542 000e 08BD     		pop	{r3, pc}
 544              		.section	.text.USBD_LL_Transmit,"ax",%progbits
 545              		.align	1
 546              		.global	USBD_LL_Transmit
 547              		.syntax unified
 548              		.thumb
 549              		.thumb_func
 551              	USBD_LL_Transmit:
 552              		@ args = 0, pretend = 0, frame = 0
 553              		@ frame_needed = 0, uses_anonymous_args = 0
 554 0000 08B5     		push	{r3, lr}
 555 0002 D0F8C002 		ldr	r0, [r0, #704]
 556 0006 FFF7FEFF 		bl	HAL_PCD_EP_Transmit
 557 000a FFF7FEFF 		bl	USBD_Get_USB_Status
 558 000e 08BD     		pop	{r3, pc}
 560              		.section	.text.USBD_LL_PrepareReceive,"ax",%progbits
 561              		.align	1
 562              		.global	USBD_LL_PrepareReceive
 563              		.syntax unified
 564              		.thumb
 565              		.thumb_func
ARM GAS  /tmp/ccIDfpNR.s 			page 10


 567              	USBD_LL_PrepareReceive:
 568              		@ args = 0, pretend = 0, frame = 0
 569              		@ frame_needed = 0, uses_anonymous_args = 0
 570 0000 08B5     		push	{r3, lr}
 571 0002 D0F8C002 		ldr	r0, [r0, #704]
 572 0006 FFF7FEFF 		bl	HAL_PCD_EP_Receive
 573 000a FFF7FEFF 		bl	USBD_Get_USB_Status
 574 000e 08BD     		pop	{r3, pc}
 576              		.section	.text.USBD_LL_GetRxDataSize,"ax",%progbits
 577              		.align	1
 578              		.global	USBD_LL_GetRxDataSize
 579              		.syntax unified
 580              		.thumb
 581              		.thumb_func
 583              	USBD_LL_GetRxDataSize:
 584              		@ args = 0, pretend = 0, frame = 0
 585              		@ frame_needed = 0, uses_anonymous_args = 0
 586 0000 08B5     		push	{r3, lr}
 587 0002 D0F8C002 		ldr	r0, [r0, #704]
 588 0006 FFF7FEFF 		bl	HAL_PCD_EP_GetRxCount
 589 000a 08BD     		pop	{r3, pc}
 591              		.section	.text.USBD_LL_Delay,"ax",%progbits
 592              		.align	1
 593              		.global	USBD_LL_Delay
 594              		.syntax unified
 595              		.thumb
 596              		.thumb_func
 598              	USBD_LL_Delay:
 599              		@ args = 0, pretend = 0, frame = 0
 600              		@ frame_needed = 0, uses_anonymous_args = 0
 601 0000 08B5     		push	{r3, lr}
 602 0002 FFF7FEFF 		bl	HAL_Delay
 603 0006 08BD     		pop	{r3, pc}
 605              		.section	.text.USBD_static_malloc,"ax",%progbits
 606              		.align	1
 607              		.global	USBD_static_malloc
 608              		.syntax unified
 609              		.thumb
 610              		.thumb_func
 612              	USBD_static_malloc:
 613              		@ args = 0, pretend = 0, frame = 0
 614              		@ frame_needed = 0, uses_anonymous_args = 0
 615              		@ link register save eliminated.
 616 0000 0048     		ldr	r0, .L86
 617 0002 7047     		bx	lr
 618              	.L87:
 619              		.align	2
 620              	.L86:
 621 0004 00000000 		.word	mem.0
 623              		.section	.text.USBD_static_free,"ax",%progbits
 624              		.align	1
 625              		.global	USBD_static_free
 626              		.syntax unified
 627              		.thumb
 628              		.thumb_func
 630              	USBD_static_free:
 631              		@ args = 0, pretend = 0, frame = 0
ARM GAS  /tmp/ccIDfpNR.s 			page 11


 632              		@ frame_needed = 0, uses_anonymous_args = 0
 633              		@ link register save eliminated.
 634 0000 7047     		bx	lr
 636              		.section	.text.HAL_PCDEx_SetConnectionState,"ax",%progbits
 637              		.align	1
 638              		.global	HAL_PCDEx_SetConnectionState
 639              		.syntax unified
 640              		.thumb
 641              		.thumb_func
 643              	HAL_PCDEx_SetConnectionState:
 644              		@ args = 0, pretend = 0, frame = 0
 645              		@ frame_needed = 0, uses_anonymous_args = 0
 646              		@ link register save eliminated.
 647 0000 7047     		bx	lr
 649              		.section	.bss.mem.0,"aw",%nobits
 650              		.align	2
 653              	mem.0:
 654 0000 00000000 		.space	544
 654      00000000 
 654      00000000 
 654      00000000 
 654      00000000 
 655              		.global	hpcd_USB_FS
 656              		.section	.bss.hpcd_USB_FS,"aw",%nobits
 657              		.align	2
 660              	hpcd_USB_FS:
 661 0000 00000000 		.space	728
 661      00000000 
 661      00000000 
 661      00000000 
 661      00000000 
 662              		.ident	"GCC: (15:13.3.rel1-1) 13.3.1 20240614"
ARM GAS  /tmp/ccIDfpNR.s 			page 12

