ARM GAS  /tmp/ccZUxC96.s 			page 1


   1              		.cpu cortex-m3
   2              		.arch armv7-m
   3              		.fpu softvfp
   4              		.eabi_attribute 20, 1
   5              		.eabi_attribute 21, 1
   6              		.eabi_attribute 23, 3
   7              		.eabi_attribute 24, 1
   8              		.eabi_attribute 25, 1
   9              		.eabi_attribute 26, 1
  10              		.eabi_attribute 30, 1
  11              		.eabi_attribute 34, 1
  12              		.eabi_attribute 18, 4
  13              		.file	"gpio_interrupt.c"
  14              		.text
  15              	.Ltext0:
  16              		.cfi_sections	.debug_frame
  17              		.file 1 "Src/Zeugma_c/gpio_interrupt.c"
  18              		.section	.text.HAL_GPIO_EXTI_Callback,"ax",%progbits
  19              		.align	1
  20              		.global	HAL_GPIO_EXTI_Callback
  21              		.syntax unified
  22              		.thumb
  23              		.thumb_func
  25              	HAL_GPIO_EXTI_Callback:
  26              	.LVL0:
  27              	.LFB65:
   1:Src/Zeugma_c/gpio_interrupt.c **** 
   2:Src/Zeugma_c/gpio_interrupt.c **** #include "gpio_interrupt.h"
   3:Src/Zeugma_c/gpio_interrupt.c **** #include "tim.h"
   4:Src/Zeugma_c/gpio_interrupt.c **** #include "rpm.h"
   5:Src/Zeugma_c/gpio_interrupt.c **** #include "old_value_hall.h"
   6:Src/Zeugma_c/gpio_interrupt.c **** #include "steps.h"
   7:Src/Zeugma_c/gpio_interrupt.c **** 
   8:Src/Zeugma_c/gpio_interrupt.c **** void HAL_GPIO_EXTI_Callback(uint16_t GPIO_Pin)
   9:Src/Zeugma_c/gpio_interrupt.c **** {
  28              		.loc 1 9 1 view -0
  29              		.cfi_startproc
  30              		@ args = 0, pretend = 0, frame = 0
  31              		@ frame_needed = 0, uses_anonymous_args = 0
  32              		.loc 1 9 1 is_stmt 0 view .LVU1
  33 0000 38B5     		push	{r3, r4, r5, lr}
  34              		.cfi_def_cfa_offset 16
  35              		.cfi_offset 3, -16
  36              		.cfi_offset 4, -12
  37              		.cfi_offset 5, -8
  38              		.cfi_offset 14, -4
  10:Src/Zeugma_c/gpio_interrupt.c ****   hall_A = HAL_GPIO_ReadPin(GPIOA, GPIO_PIN_0);
  39              		.loc 1 10 3 is_stmt 1 view .LVU2
  40              		.loc 1 10 12 is_stmt 0 view .LVU3
  41 0002 3E4C     		ldr	r4, .L9
  42 0004 0121     		movs	r1, #1
  43 0006 2046     		mov	r0, r4
  44              	.LVL1:
  45              		.loc 1 10 12 view .LVU4
  46 0008 FFF7FEFF 		bl	HAL_GPIO_ReadPin
  47              	.LVL2:
  48              		.loc 1 10 12 discriminator 1 view .LVU5
ARM GAS  /tmp/ccZUxC96.s 			page 2


  49 000c 0038     		subs	r0, r0, #0
  50 000e 18BF     		it	ne
  51 0010 0120     		movne	r0, #1
  52              		.loc 1 10 10 discriminator 1 view .LVU6
  53 0012 3B4D     		ldr	r5, .L9+4
  54 0014 2870     		strb	r0, [r5]
  11:Src/Zeugma_c/gpio_interrupt.c ****   hall_B = HAL_GPIO_ReadPin(GPIOA, GPIO_PIN_1);
  55              		.loc 1 11 3 is_stmt 1 view .LVU7
  56              		.loc 1 11 12 is_stmt 0 view .LVU8
  57 0016 0221     		movs	r1, #2
  58 0018 2046     		mov	r0, r4
  59 001a FFF7FEFF 		bl	HAL_GPIO_ReadPin
  60              	.LVL3:
  61              		.loc 1 11 12 discriminator 1 view .LVU9
  62 001e 0038     		subs	r0, r0, #0
  63 0020 18BF     		it	ne
  64 0022 0120     		movne	r0, #1
  65              		.loc 1 11 10 discriminator 1 view .LVU10
  66 0024 374B     		ldr	r3, .L9+8
  67 0026 1870     		strb	r0, [r3]
  12:Src/Zeugma_c/gpio_interrupt.c ****   hall_C = HAL_GPIO_ReadPin(GPIOA, GPIO_PIN_2);
  68              		.loc 1 12 3 is_stmt 1 view .LVU11
  69              		.loc 1 12 12 is_stmt 0 view .LVU12
  70 0028 0421     		movs	r1, #4
  71 002a 2046     		mov	r0, r4
  72 002c FFF7FEFF 		bl	HAL_GPIO_ReadPin
  73              	.LVL4:
  74              		.loc 1 12 12 discriminator 1 view .LVU13
  75 0030 0038     		subs	r0, r0, #0
  76 0032 18BF     		it	ne
  77 0034 0120     		movne	r0, #1
  78              		.loc 1 12 10 discriminator 1 view .LVU14
  79 0036 344B     		ldr	r3, .L9+12
  80 0038 1870     		strb	r0, [r3]
  13:Src/Zeugma_c/gpio_interrupt.c ****   if (hall_A != oncekiDegerler[0] || hall_B != oncekiDegerler[1] || hall_C != oncekiDegerler[2])
  81              		.loc 1 13 3 is_stmt 1 view .LVU15
  82              		.loc 1 13 14 is_stmt 0 view .LVU16
  83 003a 2A78     		ldrb	r2, [r5]	@ zero_extendqisi2
  84 003c D2B2     		uxtb	r2, r2
  85              		.loc 1 13 31 view .LVU17
  86 003e 334B     		ldr	r3, .L9+16
  87 0040 1B78     		ldrb	r3, [r3]	@ zero_extendqisi2
  88 0042 DBB2     		uxtb	r3, r3
  89              		.loc 1 13 6 view .LVU18
  90 0044 9A42     		cmp	r2, r3
  91 0046 07D1     		bne	.L2
  92              		.loc 1 13 45 discriminator 1 view .LVU19
  93 0048 2E4B     		ldr	r3, .L9+8
  94 004a 1A78     		ldrb	r2, [r3]	@ zero_extendqisi2
  95 004c D2B2     		uxtb	r2, r2
  96              		.loc 1 13 62 discriminator 1 view .LVU20
  97 004e 2F4B     		ldr	r3, .L9+16
  98 0050 5B78     		ldrb	r3, [r3, #1]	@ zero_extendqisi2
  99 0052 DBB2     		uxtb	r3, r3
 100              		.loc 1 13 35 discriminator 1 view .LVU21
 101 0054 9A42     		cmp	r2, r3
 102 0056 2CD0     		beq	.L7
ARM GAS  /tmp/ccZUxC96.s 			page 3


 103              	.L2:
  14:Src/Zeugma_c/gpio_interrupt.c ****   {
  15:Src/Zeugma_c/gpio_interrupt.c ****     // rpm_counter++;
  16:Src/Zeugma_c/gpio_interrupt.c ****     difference_two_coummutation_time = __HAL_TIM_GET_COUNTER(&htim2);
 104              		.loc 1 16 5 is_stmt 1 view .LVU22
 105              		.loc 1 16 40 is_stmt 0 view .LVU23
 106 0058 2D4C     		ldr	r4, .L9+20
 107 005a 2368     		ldr	r3, [r4]
 108 005c 5A6A     		ldr	r2, [r3, #36]
 109              		.loc 1 16 38 view .LVU24
 110 005e 2D4B     		ldr	r3, .L9+24
 111 0060 1A60     		str	r2, [r3]
  17:Src/Zeugma_c/gpio_interrupt.c ****     rpm = get_rpm(difference_two_coummutation_time);
 112              		.loc 1 17 5 is_stmt 1 view .LVU25
 113              		.loc 1 17 11 is_stmt 0 view .LVU26
 114 0062 1868     		ldr	r0, [r3]
 115 0064 FFF7FEFF 		bl	get_rpm
 116              	.LVL5:
 117              		.loc 1 17 9 discriminator 1 view .LVU27
 118 0068 2B4B     		ldr	r3, .L9+28
 119 006a 1860     		str	r0, [r3]
  18:Src/Zeugma_c/gpio_interrupt.c ****     __HAL_TIM_SET_COUNTER(&htim2, 0);
 120              		.loc 1 18 5 is_stmt 1 view .LVU28
 121 006c 2368     		ldr	r3, [r4]
 122 006e 0022     		movs	r2, #0
 123 0070 5A62     		str	r2, [r3, #36]
  19:Src/Zeugma_c/gpio_interrupt.c ****   }
  20:Src/Zeugma_c/gpio_interrupt.c **** 
  21:Src/Zeugma_c/gpio_interrupt.c ****   else
  22:Src/Zeugma_c/gpio_interrupt.c ****   {
  23:Src/Zeugma_c/gpio_interrupt.c ****     return;
  24:Src/Zeugma_c/gpio_interrupt.c ****   }
  25:Src/Zeugma_c/gpio_interrupt.c **** 
  26:Src/Zeugma_c/gpio_interrupt.c ****   if (run_status)
 124              		.loc 1 26 3 view .LVU29
 125              		.loc 1 26 7 is_stmt 0 view .LVU30
 126 0072 2A4B     		ldr	r3, .L9+32
 127 0074 1B78     		ldrb	r3, [r3]	@ zero_extendqisi2
 128              		.loc 1 26 6 view .LVU31
 129 0076 A3B1     		cbz	r3, .L4
  27:Src/Zeugma_c/gpio_interrupt.c ****   {
  28:Src/Zeugma_c/gpio_interrupt.c ****     if ((hall_A == hall_C) && (hall_A == hall_B))
 130              		.loc 1 28 5 is_stmt 1 view .LVU32
 131              		.loc 1 28 17 is_stmt 0 view .LVU33
 132 0078 214B     		ldr	r3, .L9+4
 133 007a 1A78     		ldrb	r2, [r3]	@ zero_extendqisi2
 134 007c D2B2     		uxtb	r2, r2
 135 007e 224B     		ldr	r3, .L9+12
 136 0080 1B78     		ldrb	r3, [r3]	@ zero_extendqisi2
 137 0082 DBB2     		uxtb	r3, r3
 138              		.loc 1 28 8 view .LVU34
 139 0084 9A42     		cmp	r2, r3
 140 0086 1DD0     		beq	.L8
 141              	.L5:
  29:Src/Zeugma_c/gpio_interrupt.c ****     {
  30:Src/Zeugma_c/gpio_interrupt.c ****       hall_A = oncekiDegerler[0];
  31:Src/Zeugma_c/gpio_interrupt.c ****       hall_B = oncekiDegerler[1];
ARM GAS  /tmp/ccZUxC96.s 			page 4


  32:Src/Zeugma_c/gpio_interrupt.c ****       hall_C = oncekiDegerler[2];
  33:Src/Zeugma_c/gpio_interrupt.c ****     }
  34:Src/Zeugma_c/gpio_interrupt.c ****     else
  35:Src/Zeugma_c/gpio_interrupt.c ****     {
  36:Src/Zeugma_c/gpio_interrupt.c ****       oncekiDegerler[0] = hall_A;
 142              		.loc 1 36 7 is_stmt 1 view .LVU35
 143              		.loc 1 36 25 is_stmt 0 view .LVU36
 144 0088 1D4B     		ldr	r3, .L9+4
 145 008a 1A78     		ldrb	r2, [r3]	@ zero_extendqisi2
 146 008c D2B2     		uxtb	r2, r2
 147 008e 1F4B     		ldr	r3, .L9+16
 148 0090 1A70     		strb	r2, [r3]
  37:Src/Zeugma_c/gpio_interrupt.c ****       oncekiDegerler[1] = hall_B;
 149              		.loc 1 37 7 is_stmt 1 view .LVU37
 150              		.loc 1 37 25 is_stmt 0 view .LVU38
 151 0092 1C4A     		ldr	r2, .L9+8
 152 0094 1278     		ldrb	r2, [r2]	@ zero_extendqisi2
 153 0096 D2B2     		uxtb	r2, r2
 154 0098 5A70     		strb	r2, [r3, #1]
  38:Src/Zeugma_c/gpio_interrupt.c ****       oncekiDegerler[2] = hall_C;
 155              		.loc 1 38 7 is_stmt 1 view .LVU39
 156              		.loc 1 38 25 is_stmt 0 view .LVU40
 157 009a 1B4A     		ldr	r2, .L9+12
 158 009c 1278     		ldrb	r2, [r2]	@ zero_extendqisi2
 159 009e D2B2     		uxtb	r2, r2
 160 00a0 9A70     		strb	r2, [r3, #2]
 161              	.L4:
  39:Src/Zeugma_c/gpio_interrupt.c ****     }
  40:Src/Zeugma_c/gpio_interrupt.c ****   }
  41:Src/Zeugma_c/gpio_interrupt.c **** 
  42:Src/Zeugma_c/gpio_interrupt.c ****   set_old_value();
 162              		.loc 1 42 3 is_stmt 1 view .LVU41
 163 00a2 FFF7FEFF 		bl	set_old_value
 164              	.LVL6:
  43:Src/Zeugma_c/gpio_interrupt.c ****   execute_step(step);
 165              		.loc 1 43 3 view .LVU42
 166 00a6 1E4B     		ldr	r3, .L9+36
 167 00a8 1868     		ldr	r0, [r3]
 168 00aa C0B2     		uxtb	r0, r0
 169 00ac FFF7FEFF 		bl	execute_step
 170              	.LVL7:
 171              	.L1:
  44:Src/Zeugma_c/gpio_interrupt.c **** }...
 172              		.loc 1 44 1 is_stmt 0 view .LVU43
 173 00b0 38BD     		pop	{r3, r4, r5, pc}
 174              	.L7:
  13:Src/Zeugma_c/gpio_interrupt.c ****   if (hall_A != oncekiDegerler[0] || hall_B != oncekiDegerler[1] || hall_C != oncekiDegerler[2])
 175              		.loc 1 13 76 discriminator 2 view .LVU44
 176 00b2 154B     		ldr	r3, .L9+12
 177 00b4 1A78     		ldrb	r2, [r3]	@ zero_extendqisi2
 178 00b6 D2B2     		uxtb	r2, r2
  13:Src/Zeugma_c/gpio_interrupt.c ****   if (hall_A != oncekiDegerler[0] || hall_B != oncekiDegerler[1] || hall_C != oncekiDegerler[2])
 179              		.loc 1 13 93 discriminator 2 view .LVU45
 180 00b8 144B     		ldr	r3, .L9+16
 181 00ba 9B78     		ldrb	r3, [r3, #2]	@ zero_extendqisi2
 182 00bc DBB2     		uxtb	r3, r3
  13:Src/Zeugma_c/gpio_interrupt.c ****   if (hall_A != oncekiDegerler[0] || hall_B != oncekiDegerler[1] || hall_C != oncekiDegerler[2])
ARM GAS  /tmp/ccZUxC96.s 			page 5


 183              		.loc 1 13 66 discriminator 2 view .LVU46
 184 00be 9A42     		cmp	r2, r3
 185 00c0 CAD1     		bne	.L2
 186 00c2 F5E7     		b	.L1
 187              	.L8:
  28:Src/Zeugma_c/gpio_interrupt.c ****     if ((hall_A == hall_C) && (hall_A == hall_B))
 188              		.loc 1 28 39 discriminator 1 view .LVU47
 189 00c4 0E4B     		ldr	r3, .L9+4
 190 00c6 1A78     		ldrb	r2, [r3]	@ zero_extendqisi2
 191 00c8 D2B2     		uxtb	r2, r2
 192 00ca 0E4B     		ldr	r3, .L9+8
 193 00cc 1B78     		ldrb	r3, [r3]	@ zero_extendqisi2
 194 00ce DBB2     		uxtb	r3, r3
  28:Src/Zeugma_c/gpio_interrupt.c ****     if ((hall_A == hall_C) && (hall_A == hall_B))
 195              		.loc 1 28 28 discriminator 1 view .LVU48
 196 00d0 9A42     		cmp	r2, r3
 197 00d2 D9D1     		bne	.L5
  30:Src/Zeugma_c/gpio_interrupt.c ****       hall_A = oncekiDegerler[0];
 198              		.loc 1 30 7 is_stmt 1 view .LVU49
  30:Src/Zeugma_c/gpio_interrupt.c ****       hall_A = oncekiDegerler[0];
 199              		.loc 1 30 30 is_stmt 0 view .LVU50
 200 00d4 0D4B     		ldr	r3, .L9+16
 201 00d6 1A78     		ldrb	r2, [r3]	@ zero_extendqisi2
 202 00d8 003A     		subs	r2, r2, #0
 203 00da 18BF     		it	ne
 204 00dc 0122     		movne	r2, #1
  30:Src/Zeugma_c/gpio_interrupt.c ****       hall_A = oncekiDegerler[0];
 205              		.loc 1 30 14 view .LVU51
 206 00de 0849     		ldr	r1, .L9+4
 207 00e0 0A70     		strb	r2, [r1]
  31:Src/Zeugma_c/gpio_interrupt.c ****       hall_B = oncekiDegerler[1];
 208              		.loc 1 31 7 is_stmt 1 view .LVU52
  31:Src/Zeugma_c/gpio_interrupt.c ****       hall_B = oncekiDegerler[1];
 209              		.loc 1 31 30 is_stmt 0 view .LVU53
 210 00e2 5A78     		ldrb	r2, [r3, #1]	@ zero_extendqisi2
 211 00e4 003A     		subs	r2, r2, #0
 212 00e6 18BF     		it	ne
 213 00e8 0122     		movne	r2, #1
  31:Src/Zeugma_c/gpio_interrupt.c ****       hall_B = oncekiDegerler[1];
 214              		.loc 1 31 14 view .LVU54
 215 00ea 0649     		ldr	r1, .L9+8
 216 00ec 0A70     		strb	r2, [r1]
  32:Src/Zeugma_c/gpio_interrupt.c ****       hall_C = oncekiDegerler[2];
 217              		.loc 1 32 7 is_stmt 1 view .LVU55
  32:Src/Zeugma_c/gpio_interrupt.c ****       hall_C = oncekiDegerler[2];
 218              		.loc 1 32 30 is_stmt 0 view .LVU56
 219 00ee 9B78     		ldrb	r3, [r3, #2]	@ zero_extendqisi2
 220 00f0 003B     		subs	r3, r3, #0
 221 00f2 18BF     		it	ne
 222 00f4 0123     		movne	r3, #1
  32:Src/Zeugma_c/gpio_interrupt.c ****       hall_C = oncekiDegerler[2];
 223              		.loc 1 32 14 view .LVU57
 224 00f6 044A     		ldr	r2, .L9+12
 225 00f8 1370     		strb	r3, [r2]
 226 00fa D2E7     		b	.L4
 227              	.L10:
 228              		.align	2
ARM GAS  /tmp/ccZUxC96.s 			page 6


 229              	.L9:
 230 00fc 00080140 		.word	1073809408
 231 0100 00000000 		.word	hall_A
 232 0104 00000000 		.word	hall_B
 233 0108 00000000 		.word	hall_C
 234 010c 00000000 		.word	oncekiDegerler
 235 0110 00000000 		.word	htim2
 236 0114 00000000 		.word	difference_two_coummutation_time
 237 0118 00000000 		.word	rpm
 238 011c 00000000 		.word	run_status
 239 0120 00000000 		.word	step
 240              		.cfi_endproc
 241              	.LFE65:
 243              		.text
 244              	.Letext0:
 245              		.file 2 "/usr/lib/gcc/arm-none-eabi/13.3.1/include/stdint.h"
 246              		.file 3 "Drivers/CMSIS/Device/ST/STM32F1xx/Include/stm32f103xb.h"
 247              		.file 4 "Drivers/STM32F1xx_HAL_Driver/Inc/stm32f1xx_hal_def.h"
 248              		.file 5 "Drivers/STM32F1xx_HAL_Driver/Inc/stm32f1xx_hal_gpio.h"
 249              		.file 6 "Drivers/STM32F1xx_HAL_Driver/Inc/stm32f1xx_hal_dma.h"
 250              		.file 7 "Drivers/STM32F1xx_HAL_Driver/Inc/stm32f1xx_hal_tim.h"
 251              		.file 8 "Inc/main.h"
 252              		.file 9 "Inc/tim.h"
 253              		.file 10 "Inc/Zeugma_h/rpm.h"
 254              		.file 11 "Inc/Zeugma_h/steps.h"
 255              		.file 12 "Inc/Zeugma_h/old_value_hall.h"
ARM GAS  /tmp/ccZUxC96.s 			page 7

