ARM GAS  /tmp/ccTKf44W.s 			page 1


   1              		.cpu cortex-m3
   2              		.arch armv7-m
   3              		.fpu softvfp
   4              		.eabi_attribute 20, 1
   5              		.eabi_attribute 21, 1
   6              		.eabi_attribute 23, 3
   7              		.eabi_attribute 24, 1
   8              		.eabi_attribute 25, 1
   9              		.eabi_attribute 26, 1
  10              		.eabi_attribute 30, 1
  11              		.eabi_attribute 34, 1
  12              		.eabi_attribute 18, 4
  13              		.file	"steps.c"
  14              		.text
  15              	.Ltext0:
  16              		.cfi_sections	.debug_frame
  17              		.file 1 "Src/Zeugma_c/steps.c"
  18              		.section	.text.execute_step,"ax",%progbits
  19              		.align	1
  20              		.global	execute_step
  21              		.syntax unified
  22              		.thumb
  23              		.thumb_func
  25              	execute_step:
  26              	.LVL0:
  27              	.LFB65:
   1:Src/Zeugma_c/steps.c **** 
   2:Src/Zeugma_c/steps.c **** #include "steps.h"
   3:Src/Zeugma_c/steps.c **** 
   4:Src/Zeugma_c/steps.c **** void execute_step(uint8_t _step)
   5:Src/Zeugma_c/steps.c **** {
  28              		.loc 1 5 1 view -0
  29              		.cfi_startproc
  30              		@ args = 0, pretend = 0, frame = 0
  31              		@ frame_needed = 0, uses_anonymous_args = 0
  32              		.loc 1 5 1 is_stmt 0 view .LVU1
  33 0000 08B5     		push	{r3, lr}
  34              		.cfi_def_cfa_offset 8
  35              		.cfi_offset 3, -8
  36              		.cfi_offset 14, -4
   6:Src/Zeugma_c/steps.c ****     switch (_step)
  37              		.loc 1 6 5 is_stmt 1 view .LVU2
  38 0002 0138     		subs	r0, r0, #1
  39              	.LVL1:
  40              		.loc 1 6 5 is_stmt 0 view .LVU3
  41 0004 0528     		cmp	r0, #5
  42 0006 13D8     		bhi	.L1
  43 0008 DFE800F0 		tbb	[pc, r0]
  44              	.L4:
  45 000c 03       		.byte	(.L9-.L4)/2
  46 000d 13       		.byte	(.L8-.L4)/2
  47 000e 24       		.byte	(.L7-.L4)/2
  48 000f 35       		.byte	(.L6-.L4)/2
  49 0010 45       		.byte	(.L5-.L4)/2
  50 0011 56       		.byte	(.L3-.L4)/2
  51              		.p2align 1
  52              	.L9:
ARM GAS  /tmp/ccTKf44W.s 			page 2


   7:Src/Zeugma_c/steps.c ****     {
   8:Src/Zeugma_c/steps.c ****     case 1:
   9:Src/Zeugma_c/steps.c ****         __HAL_TIM_SET_COMPARE(&htim1, TIM_CHANNEL_3, 0);
  53              		.loc 1 9 9 is_stmt 1 view .LVU4
  54 0012 324B     		ldr	r3, .L12
  55 0014 1B68     		ldr	r3, [r3]
  56 0016 0022     		movs	r2, #0
  57 0018 DA63     		str	r2, [r3, #60]
  10:Src/Zeugma_c/steps.c ****         __HAL_TIM_SET_COMPARE(&htim1, TIM_CHANNEL_2, 0);
  58              		.loc 1 10 9 view .LVU5
  59 001a 9A63     		str	r2, [r3, #56]
  11:Src/Zeugma_c/steps.c ****         TIM1->CCER = 0x00C5;
  60              		.loc 1 11 9 view .LVU6
  61              		.loc 1 11 20 is_stmt 0 view .LVU7
  62 001c 304A     		ldr	r2, .L12+4
  63 001e C521     		movs	r1, #197
  64 0020 1162     		str	r1, [r2, #32]
  12:Src/Zeugma_c/steps.c ****         __HAL_TIM_SET_COMPARE(&htim1, TIM_CHANNEL_1, pwm_value);
  65              		.loc 1 12 9 is_stmt 1 view .LVU8
  66 0022 304A     		ldr	r2, .L12+8
  67 0024 1268     		ldr	r2, [r2]
  68 0026 5A63     		str	r2, [r3, #52]
  13:Src/Zeugma_c/steps.c ****         previousTime2 = HAL_GetTick();
  69              		.loc 1 13 9 view .LVU9
  70              		.loc 1 13 25 is_stmt 0 view .LVU10
  71 0028 FFF7FEFF 		bl	HAL_GetTick
  72              	.LVL2:
  73              		.loc 1 13 23 discriminator 1 view .LVU11
  74 002c 2E4B     		ldr	r3, .L12+12
  75 002e 1860     		str	r0, [r3]
  14:Src/Zeugma_c/steps.c ****         break;
  76              		.loc 1 14 9 is_stmt 1 view .LVU12
  77              	.L1:
  15:Src/Zeugma_c/steps.c ****     case 2:
  16:Src/Zeugma_c/steps.c ****         __HAL_TIM_SET_COMPARE(&htim1, TIM_CHANNEL_3, 0);
  17:Src/Zeugma_c/steps.c ****         __HAL_TIM_SET_COMPARE(&htim1, TIM_CHANNEL_2, 0);
  18:Src/Zeugma_c/steps.c ****         TIM1->CCER = 0x0C05;
  19:Src/Zeugma_c/steps.c ****         __HAL_TIM_SET_COMPARE(&htim1, TIM_CHANNEL_1, pwm_value);
  20:Src/Zeugma_c/steps.c ****         previousTime2 = HAL_GetTick();
  21:Src/Zeugma_c/steps.c ****         break;
  22:Src/Zeugma_c/steps.c ****     case 3:
  23:Src/Zeugma_c/steps.c ****         __HAL_TIM_SET_COMPARE(&htim1, TIM_CHANNEL_1, 0);
  24:Src/Zeugma_c/steps.c ****         __HAL_TIM_SET_COMPARE(&htim1, TIM_CHANNEL_3, 0);
  25:Src/Zeugma_c/steps.c ****         TIM1->CCER = 0x0C50;
  26:Src/Zeugma_c/steps.c ****         __HAL_TIM_SET_COMPARE(&htim1, TIM_CHANNEL_2, pwm_value);
  27:Src/Zeugma_c/steps.c ****         previousTime2 = HAL_GetTick();
  28:Src/Zeugma_c/steps.c ****         break;
  29:Src/Zeugma_c/steps.c ****     case 4:
  30:Src/Zeugma_c/steps.c ****         __HAL_TIM_SET_COMPARE(&htim1, TIM_CHANNEL_1, 0);
  31:Src/Zeugma_c/steps.c ****         __HAL_TIM_SET_COMPARE(&htim1, TIM_CHANNEL_3, 0);
  32:Src/Zeugma_c/steps.c ****         TIM1->CCER = 0x005C;
  33:Src/Zeugma_c/steps.c ****         __HAL_TIM_SET_COMPARE(&htim1, TIM_CHANNEL_2, pwm_value);
  34:Src/Zeugma_c/steps.c ****         previousTime2 = HAL_GetTick();
  35:Src/Zeugma_c/steps.c ****         break;
  36:Src/Zeugma_c/steps.c ****     case 5:
  37:Src/Zeugma_c/steps.c ****         __HAL_TIM_SET_COMPARE(&htim1, TIM_CHANNEL_1, 0);
  38:Src/Zeugma_c/steps.c ****         __HAL_TIM_SET_COMPARE(&htim1, TIM_CHANNEL_2, 0);
ARM GAS  /tmp/ccTKf44W.s 			page 3


  39:Src/Zeugma_c/steps.c ****         TIM1->CCER = 0x050C;
  40:Src/Zeugma_c/steps.c ****         __HAL_TIM_SET_COMPARE(&htim1, TIM_CHANNEL_3, pwm_value);
  41:Src/Zeugma_c/steps.c ****         previousTime2 = HAL_GetTick();
  42:Src/Zeugma_c/steps.c ****         break;
  43:Src/Zeugma_c/steps.c ****     case 6:
  44:Src/Zeugma_c/steps.c ****         __HAL_TIM_SET_COMPARE(&htim1, TIM_CHANNEL_1, 0);
  45:Src/Zeugma_c/steps.c ****         __HAL_TIM_SET_COMPARE(&htim1, TIM_CHANNEL_2, 0);
  46:Src/Zeugma_c/steps.c ****         TIM1->CCER = 0x05C0;
  47:Src/Zeugma_c/steps.c ****         __HAL_TIM_SET_COMPARE(&htim1, TIM_CHANNEL_3, pwm_value);
  48:Src/Zeugma_c/steps.c ****         previousTime2 = HAL_GetTick();
  49:Src/Zeugma_c/steps.c ****         break;
  50:Src/Zeugma_c/steps.c ****     }
  51:Src/Zeugma_c/steps.c **** }...
  78              		.loc 1 51 1 is_stmt 0 view .LVU13
  79 0030 08BD     		pop	{r3, pc}
  80              	.L8:
  16:Src/Zeugma_c/steps.c ****         __HAL_TIM_SET_COMPARE(&htim1, TIM_CHANNEL_3, 0);
  81              		.loc 1 16 9 is_stmt 1 view .LVU14
  82 0032 2A4B     		ldr	r3, .L12
  83 0034 1B68     		ldr	r3, [r3]
  84 0036 0022     		movs	r2, #0
  85 0038 DA63     		str	r2, [r3, #60]
  17:Src/Zeugma_c/steps.c ****         __HAL_TIM_SET_COMPARE(&htim1, TIM_CHANNEL_2, 0);
  86              		.loc 1 17 9 view .LVU15
  87 003a 9A63     		str	r2, [r3, #56]
  18:Src/Zeugma_c/steps.c ****         TIM1->CCER = 0x0C05;
  88              		.loc 1 18 9 view .LVU16
  18:Src/Zeugma_c/steps.c ****         TIM1->CCER = 0x0C05;
  89              		.loc 1 18 20 is_stmt 0 view .LVU17
  90 003c 284A     		ldr	r2, .L12+4
  91 003e 40F60541 		movw	r1, #3077
  92 0042 1162     		str	r1, [r2, #32]
  19:Src/Zeugma_c/steps.c ****         __HAL_TIM_SET_COMPARE(&htim1, TIM_CHANNEL_1, pwm_value);
  93              		.loc 1 19 9 is_stmt 1 view .LVU18
  94 0044 274A     		ldr	r2, .L12+8
  95 0046 1268     		ldr	r2, [r2]
  96 0048 5A63     		str	r2, [r3, #52]
  20:Src/Zeugma_c/steps.c ****         previousTime2 = HAL_GetTick();
  97              		.loc 1 20 9 view .LVU19
  20:Src/Zeugma_c/steps.c ****         previousTime2 = HAL_GetTick();
  98              		.loc 1 20 25 is_stmt 0 view .LVU20
  99 004a FFF7FEFF 		bl	HAL_GetTick
 100              	.LVL3:
  20:Src/Zeugma_c/steps.c ****         previousTime2 = HAL_GetTick();
 101              		.loc 1 20 23 discriminator 1 view .LVU21
 102 004e 264B     		ldr	r3, .L12+12
 103 0050 1860     		str	r0, [r3]
  21:Src/Zeugma_c/steps.c ****         break;
 104              		.loc 1 21 9 is_stmt 1 view .LVU22
 105 0052 EDE7     		b	.L1
 106              	.L7:
  23:Src/Zeugma_c/steps.c ****         __HAL_TIM_SET_COMPARE(&htim1, TIM_CHANNEL_1, 0);
 107              		.loc 1 23 9 view .LVU23
 108 0054 214B     		ldr	r3, .L12
 109 0056 1B68     		ldr	r3, [r3]
 110 0058 0022     		movs	r2, #0
 111 005a 5A63     		str	r2, [r3, #52]
ARM GAS  /tmp/ccTKf44W.s 			page 4


  24:Src/Zeugma_c/steps.c ****         __HAL_TIM_SET_COMPARE(&htim1, TIM_CHANNEL_3, 0);
 112              		.loc 1 24 9 view .LVU24
 113 005c DA63     		str	r2, [r3, #60]
  25:Src/Zeugma_c/steps.c ****         TIM1->CCER = 0x0C50;
 114              		.loc 1 25 9 view .LVU25
  25:Src/Zeugma_c/steps.c ****         TIM1->CCER = 0x0C50;
 115              		.loc 1 25 20 is_stmt 0 view .LVU26
 116 005e 204A     		ldr	r2, .L12+4
 117 0060 4FF44561 		mov	r1, #3152
 118 0064 1162     		str	r1, [r2, #32]
  26:Src/Zeugma_c/steps.c ****         __HAL_TIM_SET_COMPARE(&htim1, TIM_CHANNEL_2, pwm_value);
 119              		.loc 1 26 9 is_stmt 1 view .LVU27
 120 0066 1F4A     		ldr	r2, .L12+8
 121 0068 1268     		ldr	r2, [r2]
 122 006a 9A63     		str	r2, [r3, #56]
  27:Src/Zeugma_c/steps.c ****         previousTime2 = HAL_GetTick();
 123              		.loc 1 27 9 view .LVU28
  27:Src/Zeugma_c/steps.c ****         previousTime2 = HAL_GetTick();
 124              		.loc 1 27 25 is_stmt 0 view .LVU29
 125 006c FFF7FEFF 		bl	HAL_GetTick
 126              	.LVL4:
  27:Src/Zeugma_c/steps.c ****         previousTime2 = HAL_GetTick();
 127              		.loc 1 27 23 discriminator 1 view .LVU30
 128 0070 1D4B     		ldr	r3, .L12+12
 129 0072 1860     		str	r0, [r3]
  28:Src/Zeugma_c/steps.c ****         break;
 130              		.loc 1 28 9 is_stmt 1 view .LVU31
 131 0074 DCE7     		b	.L1
 132              	.L6:
  30:Src/Zeugma_c/steps.c ****         __HAL_TIM_SET_COMPARE(&htim1, TIM_CHANNEL_1, 0);
 133              		.loc 1 30 9 view .LVU32
 134 0076 194B     		ldr	r3, .L12
 135 0078 1B68     		ldr	r3, [r3]
 136 007a 0022     		movs	r2, #0
 137 007c 5A63     		str	r2, [r3, #52]
  31:Src/Zeugma_c/steps.c ****         __HAL_TIM_SET_COMPARE(&htim1, TIM_CHANNEL_3, 0);
 138              		.loc 1 31 9 view .LVU33
 139 007e DA63     		str	r2, [r3, #60]
  32:Src/Zeugma_c/steps.c ****         TIM1->CCER = 0x005C;
 140              		.loc 1 32 9 view .LVU34
  32:Src/Zeugma_c/steps.c ****         TIM1->CCER = 0x005C;
 141              		.loc 1 32 20 is_stmt 0 view .LVU35
 142 0080 174A     		ldr	r2, .L12+4
 143 0082 5C21     		movs	r1, #92
 144 0084 1162     		str	r1, [r2, #32]
  33:Src/Zeugma_c/steps.c ****         __HAL_TIM_SET_COMPARE(&htim1, TIM_CHANNEL_2, pwm_value);
 145              		.loc 1 33 9 is_stmt 1 view .LVU36
 146 0086 174A     		ldr	r2, .L12+8
 147 0088 1268     		ldr	r2, [r2]
 148 008a 9A63     		str	r2, [r3, #56]
  34:Src/Zeugma_c/steps.c ****         previousTime2 = HAL_GetTick();
 149              		.loc 1 34 9 view .LVU37
  34:Src/Zeugma_c/steps.c ****         previousTime2 = HAL_GetTick();
 150              		.loc 1 34 25 is_stmt 0 view .LVU38
 151 008c FFF7FEFF 		bl	HAL_GetTick
 152              	.LVL5:
  34:Src/Zeugma_c/steps.c ****         previousTime2 = HAL_GetTick();
ARM GAS  /tmp/ccTKf44W.s 			page 5


 153              		.loc 1 34 23 discriminator 1 view .LVU39
 154 0090 154B     		ldr	r3, .L12+12
 155 0092 1860     		str	r0, [r3]
  35:Src/Zeugma_c/steps.c ****         break;
 156              		.loc 1 35 9 is_stmt 1 view .LVU40
 157 0094 CCE7     		b	.L1
 158              	.L5:
  37:Src/Zeugma_c/steps.c ****         __HAL_TIM_SET_COMPARE(&htim1, TIM_CHANNEL_1, 0);
 159              		.loc 1 37 9 view .LVU41
 160 0096 114B     		ldr	r3, .L12
 161 0098 1B68     		ldr	r3, [r3]
 162 009a 0022     		movs	r2, #0
 163 009c 5A63     		str	r2, [r3, #52]
  38:Src/Zeugma_c/steps.c ****         __HAL_TIM_SET_COMPARE(&htim1, TIM_CHANNEL_2, 0);
 164              		.loc 1 38 9 view .LVU42
 165 009e 9A63     		str	r2, [r3, #56]
  39:Src/Zeugma_c/steps.c ****         TIM1->CCER = 0x050C;
 166              		.loc 1 39 9 view .LVU43
  39:Src/Zeugma_c/steps.c ****         TIM1->CCER = 0x050C;
 167              		.loc 1 39 20 is_stmt 0 view .LVU44
 168 00a0 0F4A     		ldr	r2, .L12+4
 169 00a2 40F20C51 		movw	r1, #1292
 170 00a6 1162     		str	r1, [r2, #32]
  40:Src/Zeugma_c/steps.c ****         __HAL_TIM_SET_COMPARE(&htim1, TIM_CHANNEL_3, pwm_value);
 171              		.loc 1 40 9 is_stmt 1 view .LVU45
 172 00a8 0E4A     		ldr	r2, .L12+8
 173 00aa 1268     		ldr	r2, [r2]
 174 00ac DA63     		str	r2, [r3, #60]
  41:Src/Zeugma_c/steps.c ****         previousTime2 = HAL_GetTick();
 175              		.loc 1 41 9 view .LVU46
  41:Src/Zeugma_c/steps.c ****         previousTime2 = HAL_GetTick();
 176              		.loc 1 41 25 is_stmt 0 view .LVU47
 177 00ae FFF7FEFF 		bl	HAL_GetTick
 178              	.LVL6:
  41:Src/Zeugma_c/steps.c ****         previousTime2 = HAL_GetTick();
 179              		.loc 1 41 23 discriminator 1 view .LVU48
 180 00b2 0D4B     		ldr	r3, .L12+12
 181 00b4 1860     		str	r0, [r3]
  42:Src/Zeugma_c/steps.c ****         break;
 182              		.loc 1 42 9 is_stmt 1 view .LVU49
 183 00b6 BBE7     		b	.L1
 184              	.L3:
  44:Src/Zeugma_c/steps.c ****         __HAL_TIM_SET_COMPARE(&htim1, TIM_CHANNEL_1, 0);
 185              		.loc 1 44 9 view .LVU50
 186 00b8 084B     		ldr	r3, .L12
 187 00ba 1B68     		ldr	r3, [r3]
 188 00bc 0022     		movs	r2, #0
 189 00be 5A63     		str	r2, [r3, #52]
  45:Src/Zeugma_c/steps.c ****         __HAL_TIM_SET_COMPARE(&htim1, TIM_CHANNEL_2, 0);
 190              		.loc 1 45 9 view .LVU51
 191 00c0 9A63     		str	r2, [r3, #56]
  46:Src/Zeugma_c/steps.c ****         TIM1->CCER = 0x05C0;
 192              		.loc 1 46 9 view .LVU52
  46:Src/Zeugma_c/steps.c ****         TIM1->CCER = 0x05C0;
 193              		.loc 1 46 20 is_stmt 0 view .LVU53
 194 00c2 074A     		ldr	r2, .L12+4
 195 00c4 4FF4B861 		mov	r1, #1472
ARM GAS  /tmp/ccTKf44W.s 			page 6


 196 00c8 1162     		str	r1, [r2, #32]
  47:Src/Zeugma_c/steps.c ****         __HAL_TIM_SET_COMPARE(&htim1, TIM_CHANNEL_3, pwm_value);
 197              		.loc 1 47 9 is_stmt 1 view .LVU54
 198 00ca 064A     		ldr	r2, .L12+8
 199 00cc 1268     		ldr	r2, [r2]
 200 00ce DA63     		str	r2, [r3, #60]
  48:Src/Zeugma_c/steps.c ****         previousTime2 = HAL_GetTick();
 201              		.loc 1 48 9 view .LVU55
  48:Src/Zeugma_c/steps.c ****         previousTime2 = HAL_GetTick();
 202              		.loc 1 48 25 is_stmt 0 view .LVU56
 203 00d0 FFF7FEFF 		bl	HAL_GetTick
 204              	.LVL7:
  48:Src/Zeugma_c/steps.c ****         previousTime2 = HAL_GetTick();
 205              		.loc 1 48 23 discriminator 1 view .LVU57
 206 00d4 044B     		ldr	r3, .L12+12
 207 00d6 1860     		str	r0, [r3]
  49:Src/Zeugma_c/steps.c ****         break;
 208              		.loc 1 49 9 is_stmt 1 view .LVU58
 209              		.loc 1 51 1 is_stmt 0 view .LVU59
 210 00d8 AAE7     		b	.L1
 211              	.L13:
 212 00da 00BF     		.align	2
 213              	.L12:
 214 00dc 00000000 		.word	htim1
 215 00e0 002C0140 		.word	1073818624
 216 00e4 00000000 		.word	pwm_value
 217 00e8 00000000 		.word	previousTime2
 218              		.cfi_endproc
 219              	.LFE65:
 221              		.text
 222              	.Letext0:
 223              		.file 2 "/usr/lib/gcc/arm-none-eabi/13.3.1/include/stdint.h"
 224              		.file 3 "Drivers/CMSIS/Device/ST/STM32F1xx/Include/stm32f103xb.h"
 225              		.file 4 "Drivers/STM32F1xx_HAL_Driver/Inc/stm32f1xx_hal_def.h"
 226              		.file 5 "Drivers/STM32F1xx_HAL_Driver/Inc/stm32f1xx_hal_dma.h"
 227              		.file 6 "Drivers/STM32F1xx_HAL_Driver/Inc/stm32f1xx_hal_tim.h"
 228              		.file 7 "Inc/main.h"
 229              		.file 8 "Inc/tim.h"
 230              		.file 9 "Drivers/STM32F1xx_HAL_Driver/Inc/stm32f1xx_hal.h"
ARM GAS  /tmp/ccTKf44W.s 			page 7


DEFINED SYMBOLS
                            *ABS*:00000000 steps.c
     /tmp/ccTKf44W.s:19     .text.execute_step:00000000 $t
     /tmp/ccTKf44W.s:25     .text.execute_step:00000000 execute_step
     /tmp/ccTKf44W.s:45     .text.execute_step:0000000c $d
     /tmp/ccTKf44W.s:51     .text.execute_step:00000012 $t
     /tmp/ccTKf44W.s:214    .text.execute_step:000000dc $d

UNDEFINED SYMBOLS
HAL_GetTick
htim1
pwm_value
previousTime2
